
test/crc32-riscv32-ni.elf:     file format elf32-littleriscv


Disassembly of section .text:

80000000 <_start>:
80000000:	00000413          	li	s0,0
80000004:	00001117          	auipc	sp,0x1
80000008:	ffc10113          	addi	sp,sp,-4 # 80001000 <_end>
8000000c:	180000ef          	jal	ra,8000018c <_trm_init>

80000010 <check>:
80000010:	00050463          	beqz	a0,80000018 <check+0x8>
80000014:	00008067          	ret
80000018:	ff010113          	addi	sp,sp,-16
8000001c:	00100513          	li	a0,1
80000020:	00112623          	sw	ra,12(sp)
80000024:	164000ef          	jal	ra,80000188 <halt>

80000028 <rc_crc32>:
80000028:	00000317          	auipc	t1,0x0
8000002c:	5ac30313          	addi	t1,t1,1452 # 800005d4 <have_table.1>
80000030:	00032683          	lw	a3,0(t1)
80000034:	0c069863          	bnez	a3,80000104 <rc_crc32+0xdc>
80000038:	edb88737          	lui	a4,0xedb88
8000003c:	00000817          	auipc	a6,0x0
80000040:	19880813          	addi	a6,a6,408 # 800001d4 <_sbss>
80000044:	32070713          	addi	a4,a4,800 # edb88320 <_end+0x6db87320>
80000048:	10000893          	li	a7,256
8000004c:	0016f793          	andi	a5,a3,1
80000050:	0016de93          	srli	t4,a3,0x1
80000054:	40f007b3          	neg	a5,a5
80000058:	001efe13          	andi	t3,t4,1
8000005c:	00e7f7b3          	and	a5,a5,a4
80000060:	01d7c7b3          	xor	a5,a5,t4
80000064:	41c00e33          	neg	t3,t3
80000068:	0017d793          	srli	a5,a5,0x1
8000006c:	00ee7e33          	and	t3,t3,a4
80000070:	00fe4e33          	xor	t3,t3,a5
80000074:	0017f793          	andi	a5,a5,1
80000078:	001e5e13          	srli	t3,t3,0x1
8000007c:	40f007b3          	neg	a5,a5
80000080:	001e7e93          	andi	t4,t3,1
80000084:	00e7f7b3          	and	a5,a5,a4
80000088:	01c7c7b3          	xor	a5,a5,t3
8000008c:	41d00eb3          	neg	t4,t4
80000090:	0017d793          	srli	a5,a5,0x1
80000094:	00eefeb3          	and	t4,t4,a4
80000098:	00feceb3          	xor	t4,t4,a5
8000009c:	0017f793          	andi	a5,a5,1
800000a0:	001ede93          	srli	t4,t4,0x1
800000a4:	40f007b3          	neg	a5,a5
800000a8:	001efe13          	andi	t3,t4,1
800000ac:	00e7f7b3          	and	a5,a5,a4
800000b0:	01d7c7b3          	xor	a5,a5,t4
800000b4:	41c00e33          	neg	t3,t3
800000b8:	0017d793          	srli	a5,a5,0x1
800000bc:	00ee7e33          	and	t3,t3,a4
800000c0:	00fe4e33          	xor	t3,t3,a5
800000c4:	0017f793          	andi	a5,a5,1
800000c8:	001e5e13          	srli	t3,t3,0x1
800000cc:	40f007b3          	neg	a5,a5
800000d0:	00e7f7b3          	and	a5,a5,a4
800000d4:	001e7e93          	andi	t4,t3,1
800000d8:	01c7c7b3          	xor	a5,a5,t3
800000dc:	41d00e33          	neg	t3,t4
800000e0:	00ee7e33          	and	t3,t3,a4
800000e4:	0017d793          	srli	a5,a5,0x1
800000e8:	00fe47b3          	xor	a5,t3,a5
800000ec:	00f82023          	sw	a5,0(a6)
800000f0:	00168693          	addi	a3,a3,1
800000f4:	00480813          	addi	a6,a6,4
800000f8:	f5169ae3          	bne	a3,a7,8000004c <rc_crc32+0x24>
800000fc:	00100793          	li	a5,1
80000100:	00f32023          	sw	a5,0(t1)
80000104:	00c58633          	add	a2,a1,a2
80000108:	fff54713          	not	a4,a0
8000010c:	02c5fc63          	bgeu	a1,a2,80000144 <rc_crc32+0x11c>
80000110:	00000517          	auipc	a0,0x0
80000114:	0c450513          	addi	a0,a0,196 # 800001d4 <_sbss>
80000118:	0005c683          	lbu	a3,0(a1)
8000011c:	0ff77793          	andi	a5,a4,255
80000120:	00158593          	addi	a1,a1,1
80000124:	00d7c7b3          	xor	a5,a5,a3
80000128:	00279793          	slli	a5,a5,0x2
8000012c:	00f507b3          	add	a5,a0,a5
80000130:	0007a783          	lw	a5,0(a5)
80000134:	00875713          	srli	a4,a4,0x8
80000138:	00f74733          	xor	a4,a4,a5
8000013c:	fcb61ee3          	bne	a2,a1,80000118 <rc_crc32+0xf0>
80000140:	fff74513          	not	a0,a4
80000144:	00008067          	ret

80000148 <main>:
80000148:	ff010113          	addi	sp,sp,-16
8000014c:	02b00613          	li	a2,43
80000150:	00000597          	auipc	a1,0x0
80000154:	05458593          	addi	a1,a1,84 # 800001a4 <_etext>
80000158:	00000513          	li	a0,0
8000015c:	00112623          	sw	ra,12(sp)
80000160:	ec9ff0ef          	jal	ra,80000028 <rc_crc32>
80000164:	beb067b7          	lui	a5,0xbeb06
80000168:	cc778793          	addi	a5,a5,-825 # beb05cc7 <_end+0x3eb04cc7>
8000016c:	00f50533          	add	a0,a0,a5
80000170:	00153513          	seqz	a0,a0
80000174:	e9dff0ef          	jal	ra,80000010 <check>
80000178:	00c12083          	lw	ra,12(sp)
8000017c:	00000513          	li	a0,0
80000180:	01010113          	addi	sp,sp,16
80000184:	00008067          	ret

80000188 <halt>:
80000188:	0000006f          	j	80000188 <halt>

8000018c <_trm_init>:
8000018c:	ff010113          	addi	sp,sp,-16
80000190:	00000517          	auipc	a0,0x0
80000194:	04050513          	addi	a0,a0,64 # 800001d0 <mainargs>
80000198:	00112623          	sw	ra,12(sp)
8000019c:	fadff0ef          	jal	ra,80000148 <main>
800001a0:	0000006f          	j	800001a0 <_trm_init+0x14>
