
test/div-riscv32-ni.elf:     file format elf32-littleriscv


Disassembly of section .text:

80000000 <_start>:
80000000:	00000413          	li	s0,0
80000004:	00001117          	auipc	sp,0x1
80000008:	ffc10113          	addi	sp,sp,-4 # 80001000 <_end>
8000000c:	0dc000ef          	jal	ra,800000e8 <_trm_init>

80000010 <check>:
80000010:	00050463          	beqz	a0,80000018 <check+0x8>
80000014:	00008067          	ret
80000018:	ff010113          	addi	sp,sp,-16
8000001c:	00100513          	li	a0,1
80000020:	00112623          	sw	ra,12(sp)
80000024:	0c0000ef          	jal	ra,800000e4 <halt>

80000028 <main>:
80000028:	ff010113          	addi	sp,sp,-16
8000002c:	00112623          	sw	ra,12(sp)
80000030:	00000797          	auipc	a5,0x0
80000034:	0d478793          	addi	a5,a5,212 # 80000104 <a>
80000038:	00100713          	li	a4,1
8000003c:	00e7a223          	sw	a4,4(a5)
80000040:	00200713          	li	a4,2
80000044:	00e7a423          	sw	a4,8(a5)
80000048:	00300713          	li	a4,3
8000004c:	00e7a623          	sw	a4,12(a5)
80000050:	00400713          	li	a4,4
80000054:	00e7a823          	sw	a4,16(a5)
80000058:	00500713          	li	a4,5
8000005c:	00e7aa23          	sw	a4,20(a5)
80000060:	00600713          	li	a4,6
80000064:	00e7ac23          	sw	a4,24(a5)
80000068:	00700713          	li	a4,7
8000006c:	00e7ae23          	sw	a4,28(a5)
80000070:	00800713          	li	a4,8
80000074:	02e7a023          	sw	a4,32(a5)
80000078:	00100513          	li	a0,1
8000007c:	00900713          	li	a4,9
80000080:	0007a023          	sw	zero,0(a5)
80000084:	02e7a223          	sw	a4,36(a5)
80000088:	f89ff0ef          	jal	ra,80000010 <check>
8000008c:	00100513          	li	a0,1
80000090:	f81ff0ef          	jal	ra,80000010 <check>
80000094:	00100513          	li	a0,1
80000098:	f79ff0ef          	jal	ra,80000010 <check>
8000009c:	00100513          	li	a0,1
800000a0:	f71ff0ef          	jal	ra,80000010 <check>
800000a4:	00100513          	li	a0,1
800000a8:	f69ff0ef          	jal	ra,80000010 <check>
800000ac:	00100513          	li	a0,1
800000b0:	f61ff0ef          	jal	ra,80000010 <check>
800000b4:	00100513          	li	a0,1
800000b8:	f59ff0ef          	jal	ra,80000010 <check>
800000bc:	00100513          	li	a0,1
800000c0:	f51ff0ef          	jal	ra,80000010 <check>
800000c4:	00100513          	li	a0,1
800000c8:	f49ff0ef          	jal	ra,80000010 <check>
800000cc:	00100513          	li	a0,1
800000d0:	f41ff0ef          	jal	ra,80000010 <check>
800000d4:	00c12083          	lw	ra,12(sp)
800000d8:	00000513          	li	a0,0
800000dc:	01010113          	addi	sp,sp,16
800000e0:	00008067          	ret

800000e4 <halt>:
800000e4:	0000006f          	j	800000e4 <halt>

800000e8 <_trm_init>:
800000e8:	ff010113          	addi	sp,sp,-16
800000ec:	00000517          	auipc	a0,0x0
800000f0:	01450513          	addi	a0,a0,20 # 80000100 <_etext>
800000f4:	00112623          	sw	ra,12(sp)
800000f8:	f31ff0ef          	jal	ra,80000028 <main>
800000fc:	0000006f          	j	800000fc <_trm_init+0x14>
