
test/goldbach-riscv32-ni.elf:     file format elf32-littleriscv


Disassembly of section .text:

80000000 <_start>:
80000000:	00000413          	li	s0,0
80000004:	00001117          	auipc	sp,0x1
80000008:	ffc10113          	addi	sp,sp,-4 # 80001000 <_end>
8000000c:	0e8000ef          	jal	ra,800000f4 <_trm_init>

80000010 <check>:
80000010:	00050463          	beqz	a0,80000018 <check+0x8>
80000014:	00008067          	ret
80000018:	ff010113          	addi	sp,sp,-16
8000001c:	00100513          	li	a0,1
80000020:	00112623          	sw	ra,12(sp)
80000024:	0cc000ef          	jal	ra,800000f0 <halt>

80000028 <main>:
80000028:	fe010113          	addi	sp,sp,-32
8000002c:	00812c23          	sw	s0,24(sp)
80000030:	00912a23          	sw	s1,20(sp)
80000034:	01212823          	sw	s2,16(sp)
80000038:	01312623          	sw	s3,12(sp)
8000003c:	00112e23          	sw	ra,28(sp)
80000040:	00400493          	li	s1,4
80000044:	00200993          	li	s3,2
80000048:	00100913          	li	s2,1
8000004c:	02000413          	li	s0,32
80000050:	ffe48593          	addi	a1,s1,-2
80000054:	00200693          	li	a3,2
80000058:	03358263          	beq	a1,s3,8000007c <main+0x54>
8000005c:	0015f713          	andi	a4,a1,1
80000060:	00200793          	li	a5,2
80000064:	00071863          	bnez	a4,80000074 <main+0x4c>
80000068:	0480006f          	j	800000b0 <main+0x88>
8000006c:	02f5e733          	rem	a4,a1,a5
80000070:	04070063          	beqz	a4,800000b0 <main+0x88>
80000074:	00178793          	addi	a5,a5,1
80000078:	fef59ae3          	bne	a1,a5,8000006c <main+0x44>
8000007c:	00100513          	li	a0,1
80000080:	00248493          	addi	s1,s1,2
80000084:	f8dff0ef          	jal	ra,80000010 <check>
80000088:	fc8494e3          	bne	s1,s0,80000050 <main+0x28>
8000008c:	01c12083          	lw	ra,28(sp)
80000090:	01812403          	lw	s0,24(sp)
80000094:	01412483          	lw	s1,20(sp)
80000098:	01012903          	lw	s2,16(sp)
8000009c:	00c12983          	lw	s3,12(sp)
800000a0:	00000513          	li	a0,0
800000a4:	02010113          	addi	sp,sp,32
800000a8:	00008067          	ret
800000ac:	fb2596e3          	bne	a1,s2,80000058 <main+0x30>
800000b0:	00068613          	mv	a2,a3
800000b4:	00168693          	addi	a3,a3,1
800000b8:	fff58593          	addi	a1,a1,-1
800000bc:	02968663          	beq	a3,s1,800000e8 <main+0xc0>
800000c0:	0016f793          	andi	a5,a3,1
800000c4:	fe0786e3          	beqz	a5,800000b0 <main+0x88>
800000c8:	00200793          	li	a5,2
800000cc:	00c0006f          	j	800000d8 <main+0xb0>
800000d0:	02f6e733          	rem	a4,a3,a5
800000d4:	fc070ee3          	beqz	a4,800000b0 <main+0x88>
800000d8:	00078713          	mv	a4,a5
800000dc:	00178793          	addi	a5,a5,1
800000e0:	fee618e3          	bne	a2,a4,800000d0 <main+0xa8>
800000e4:	fc9ff06f          	j	800000ac <main+0x84>
800000e8:	00000513          	li	a0,0
800000ec:	f95ff06f          	j	80000080 <main+0x58>

800000f0 <halt>:
800000f0:	0000006f          	j	800000f0 <halt>

800000f4 <_trm_init>:
800000f4:	ff010113          	addi	sp,sp,-16
800000f8:	00000517          	auipc	a0,0x0
800000fc:	01450513          	addi	a0,a0,20 # 8000010c <_etext>
80000100:	00112623          	sw	ra,12(sp)
80000104:	f25ff0ef          	jal	ra,80000028 <main>
80000108:	0000006f          	j	80000108 <_trm_init+0x14>
