
test/load-store-riscv32-ni.elf:     file format elf32-littleriscv


Disassembly of section .text:

80000000 <_start>:
80000000:	00000413          	li	s0,0
80000004:	00001117          	auipc	sp,0x1
80000008:	ffc10113          	addi	sp,sp,-4 # 80001000 <_end>
8000000c:	3bc000ef          	jal	ra,800003c8 <_trm_init>

80000010 <check>:
80000010:	00050463          	beqz	a0,80000018 <check+0x8>
80000014:	00008067          	ret
80000018:	ff010113          	addi	sp,sp,-16
8000001c:	00100513          	li	a0,1
80000020:	00112623          	sw	ra,12(sp)
80000024:	3a0000ef          	jal	ra,800003c4 <halt>

80000028 <main>:
80000028:	fd010113          	addi	sp,sp,-48
8000002c:	02812423          	sw	s0,40(sp)
80000030:	00000417          	auipc	s0,0x0
80000034:	42440413          	addi	s0,s0,1060 # 80000454 <mem>
80000038:	01912223          	sw	s9,4(sp)
8000003c:	00045c83          	lhu	s9,0(s0)
80000040:	02912223          	sw	s1,36(sp)
80000044:	00000497          	auipc	s1,0x0
80000048:	3f048493          	addi	s1,s1,1008 # 80000434 <lh_ans>
8000004c:	0004a503          	lw	a0,0(s1)
80000050:	010c9793          	slli	a5,s9,0x10
80000054:	4107d793          	srai	a5,a5,0x10
80000058:	40f50533          	sub	a0,a0,a5
8000005c:	00153513          	seqz	a0,a0
80000060:	02112623          	sw	ra,44(sp)
80000064:	03212023          	sw	s2,32(sp)
80000068:	01312e23          	sw	s3,28(sp)
8000006c:	01412c23          	sw	s4,24(sp)
80000070:	01512a23          	sw	s5,20(sp)
80000074:	01612823          	sw	s6,16(sp)
80000078:	01712623          	sw	s7,12(sp)
8000007c:	01812423          	sw	s8,8(sp)
80000080:	f91ff0ef          	jal	ra,80000010 <check>
80000084:	00245c03          	lhu	s8,2(s0)
80000088:	0044a503          	lw	a0,4(s1)
8000008c:	010c1793          	slli	a5,s8,0x10
80000090:	4107d793          	srai	a5,a5,0x10
80000094:	40f50533          	sub	a0,a0,a5
80000098:	00153513          	seqz	a0,a0
8000009c:	f75ff0ef          	jal	ra,80000010 <check>
800000a0:	00445b83          	lhu	s7,4(s0)
800000a4:	0084a503          	lw	a0,8(s1)
800000a8:	010b9793          	slli	a5,s7,0x10
800000ac:	4107d793          	srai	a5,a5,0x10
800000b0:	40f50533          	sub	a0,a0,a5
800000b4:	00153513          	seqz	a0,a0
800000b8:	f59ff0ef          	jal	ra,80000010 <check>
800000bc:	00645b03          	lhu	s6,6(s0)
800000c0:	00c4a503          	lw	a0,12(s1)
800000c4:	010b1793          	slli	a5,s6,0x10
800000c8:	4107d793          	srai	a5,a5,0x10
800000cc:	40f50533          	sub	a0,a0,a5
800000d0:	00153513          	seqz	a0,a0
800000d4:	f3dff0ef          	jal	ra,80000010 <check>
800000d8:	00845a83          	lhu	s5,8(s0)
800000dc:	0104a503          	lw	a0,16(s1)
800000e0:	010a9793          	slli	a5,s5,0x10
800000e4:	4107d793          	srai	a5,a5,0x10
800000e8:	40f50533          	sub	a0,a0,a5
800000ec:	00153513          	seqz	a0,a0
800000f0:	f21ff0ef          	jal	ra,80000010 <check>
800000f4:	00a45a03          	lhu	s4,10(s0)
800000f8:	0144a503          	lw	a0,20(s1)
800000fc:	010a1793          	slli	a5,s4,0x10
80000100:	4107d793          	srai	a5,a5,0x10
80000104:	40f50533          	sub	a0,a0,a5
80000108:	00153513          	seqz	a0,a0
8000010c:	f05ff0ef          	jal	ra,80000010 <check>
80000110:	00c45983          	lhu	s3,12(s0)
80000114:	0184a503          	lw	a0,24(s1)
80000118:	01099793          	slli	a5,s3,0x10
8000011c:	4107d793          	srai	a5,a5,0x10
80000120:	40f50533          	sub	a0,a0,a5
80000124:	00153513          	seqz	a0,a0
80000128:	ee9ff0ef          	jal	ra,80000010 <check>
8000012c:	00e45903          	lhu	s2,14(s0)
80000130:	01c4a503          	lw	a0,28(s1)
80000134:	00000497          	auipc	s1,0x0
80000138:	2e048493          	addi	s1,s1,736 # 80000414 <lhu_ans>
8000013c:	01091793          	slli	a5,s2,0x10
80000140:	4107d793          	srai	a5,a5,0x10
80000144:	40f50533          	sub	a0,a0,a5
80000148:	00153513          	seqz	a0,a0
8000014c:	ec5ff0ef          	jal	ra,80000010 <check>
80000150:	0004a503          	lw	a0,0(s1)
80000154:	41950533          	sub	a0,a0,s9
80000158:	00153513          	seqz	a0,a0
8000015c:	eb5ff0ef          	jal	ra,80000010 <check>
80000160:	0044a503          	lw	a0,4(s1)
80000164:	41850533          	sub	a0,a0,s8
80000168:	00153513          	seqz	a0,a0
8000016c:	ea5ff0ef          	jal	ra,80000010 <check>
80000170:	0084a503          	lw	a0,8(s1)
80000174:	41750533          	sub	a0,a0,s7
80000178:	00153513          	seqz	a0,a0
8000017c:	e95ff0ef          	jal	ra,80000010 <check>
80000180:	00c4a503          	lw	a0,12(s1)
80000184:	41650533          	sub	a0,a0,s6
80000188:	00153513          	seqz	a0,a0
8000018c:	e85ff0ef          	jal	ra,80000010 <check>
80000190:	0104a503          	lw	a0,16(s1)
80000194:	41550533          	sub	a0,a0,s5
80000198:	00153513          	seqz	a0,a0
8000019c:	e75ff0ef          	jal	ra,80000010 <check>
800001a0:	0144a503          	lw	a0,20(s1)
800001a4:	41450533          	sub	a0,a0,s4
800001a8:	00153513          	seqz	a0,a0
800001ac:	e65ff0ef          	jal	ra,80000010 <check>
800001b0:	0184a503          	lw	a0,24(s1)
800001b4:	41350533          	sub	a0,a0,s3
800001b8:	00153513          	seqz	a0,a0
800001bc:	e55ff0ef          	jal	ra,80000010 <check>
800001c0:	01c4a503          	lw	a0,28(s1)
800001c4:	00000497          	auipc	s1,0x0
800001c8:	22048493          	addi	s1,s1,544 # 800003e4 <lwlr_ans>
800001cc:	41250533          	sub	a0,a0,s2
800001d0:	00153513          	seqz	a0,a0
800001d4:	e3dff0ef          	jal	ra,80000010 <check>
800001d8:	00244703          	lbu	a4,2(s0)
800001dc:	00144603          	lbu	a2,1(s0)
800001e0:	00344783          	lbu	a5,3(s0)
800001e4:	00444503          	lbu	a0,4(s0)
800001e8:	00871713          	slli	a4,a4,0x8
800001ec:	0004a683          	lw	a3,0(s1)
800001f0:	00c76733          	or	a4,a4,a2
800001f4:	01079793          	slli	a5,a5,0x10
800001f8:	00e7e7b3          	or	a5,a5,a4
800001fc:	01851513          	slli	a0,a0,0x18
80000200:	00f56533          	or	a0,a0,a5
80000204:	40d50533          	sub	a0,a0,a3
80000208:	00153513          	seqz	a0,a0
8000020c:	e05ff0ef          	jal	ra,80000010 <check>
80000210:	00644703          	lbu	a4,6(s0)
80000214:	00544603          	lbu	a2,5(s0)
80000218:	00744783          	lbu	a5,7(s0)
8000021c:	00844503          	lbu	a0,8(s0)
80000220:	00871713          	slli	a4,a4,0x8
80000224:	0044a683          	lw	a3,4(s1)
80000228:	00c76733          	or	a4,a4,a2
8000022c:	01079793          	slli	a5,a5,0x10
80000230:	00e7e7b3          	or	a5,a5,a4
80000234:	01851513          	slli	a0,a0,0x18
80000238:	00f56533          	or	a0,a0,a5
8000023c:	40d50533          	sub	a0,a0,a3
80000240:	00153513          	seqz	a0,a0
80000244:	dcdff0ef          	jal	ra,80000010 <check>
80000248:	00a44683          	lbu	a3,10(s0)
8000024c:	00944603          	lbu	a2,9(s0)
80000250:	00b44703          	lbu	a4,11(s0)
80000254:	00c44783          	lbu	a5,12(s0)
80000258:	00869693          	slli	a3,a3,0x8
8000025c:	00c6e6b3          	or	a3,a3,a2
80000260:	0084a503          	lw	a0,8(s1)
80000264:	01071713          	slli	a4,a4,0x10
80000268:	00d76733          	or	a4,a4,a3
8000026c:	01879793          	slli	a5,a5,0x18
80000270:	00e7e7b3          	or	a5,a5,a4
80000274:	40f50533          	sub	a0,a0,a5
80000278:	00153513          	seqz	a0,a0
8000027c:	00000497          	auipc	s1,0x0
80000280:	17848493          	addi	s1,s1,376 # 800003f4 <sh_ans>
80000284:	d8dff0ef          	jal	ra,80000010 <check>
80000288:	0004a503          	lw	a0,0(s1)
8000028c:	ffff07b7          	lui	a5,0xffff0
80000290:	00378793          	addi	a5,a5,3 # ffff0003 <_end+0x7ffef003>
80000294:	00f50533          	add	a0,a0,a5
80000298:	00153513          	seqz	a0,a0
8000029c:	ffd00793          	li	a5,-3
800002a0:	00f41023          	sh	a5,0(s0)
800002a4:	d6dff0ef          	jal	ra,80000010 <check>
800002a8:	0044a503          	lw	a0,4(s1)
800002ac:	ffff07b7          	lui	a5,0xffff0
800002b0:	00978793          	addi	a5,a5,9 # ffff0009 <_end+0x7ffef009>
800002b4:	00f50533          	add	a0,a0,a5
800002b8:	00153513          	seqz	a0,a0
800002bc:	ff700793          	li	a5,-9
800002c0:	00f41123          	sh	a5,2(s0)
800002c4:	d4dff0ef          	jal	ra,80000010 <check>
800002c8:	0084a503          	lw	a0,8(s1)
800002cc:	ffff07b7          	lui	a5,0xffff0
800002d0:	02178793          	addi	a5,a5,33 # ffff0021 <_end+0x7ffef021>
800002d4:	00f50533          	add	a0,a0,a5
800002d8:	00153513          	seqz	a0,a0
800002dc:	fdf00793          	li	a5,-33
800002e0:	00f41223          	sh	a5,4(s0)
800002e4:	d2dff0ef          	jal	ra,80000010 <check>
800002e8:	00c4a503          	lw	a0,12(s1)
800002ec:	ffff07b7          	lui	a5,0xffff0
800002f0:	08178793          	addi	a5,a5,129 # ffff0081 <_end+0x7ffef081>
800002f4:	00f50533          	add	a0,a0,a5
800002f8:	00153513          	seqz	a0,a0
800002fc:	f7f00793          	li	a5,-129
80000300:	00f41323          	sh	a5,6(s0)
80000304:	d0dff0ef          	jal	ra,80000010 <check>
80000308:	0104a503          	lw	a0,16(s1)
8000030c:	ffff07b7          	lui	a5,0xffff0
80000310:	20178793          	addi	a5,a5,513 # ffff0201 <_end+0x7ffef201>
80000314:	00f50533          	add	a0,a0,a5
80000318:	00153513          	seqz	a0,a0
8000031c:	dff00793          	li	a5,-513
80000320:	00f41423          	sh	a5,8(s0)
80000324:	cedff0ef          	jal	ra,80000010 <check>
80000328:	0144a503          	lw	a0,20(s1)
8000032c:	ffff17b7          	lui	a5,0xffff1
80000330:	80178793          	addi	a5,a5,-2047 # ffff0801 <_end+0x7ffef801>
80000334:	00f50533          	add	a0,a0,a5
80000338:	fffff7b7          	lui	a5,0xfffff
8000033c:	7ff78793          	addi	a5,a5,2047 # fffff7ff <_end+0x7fffe7ff>
80000340:	00153513          	seqz	a0,a0
80000344:	00f41523          	sh	a5,10(s0)
80000348:	cc9ff0ef          	jal	ra,80000010 <check>
8000034c:	0184a503          	lw	a0,24(s1)
80000350:	ffff27b7          	lui	a5,0xffff2
80000354:	00178793          	addi	a5,a5,1 # ffff2001 <_end+0x7fff1001>
80000358:	00f50533          	add	a0,a0,a5
8000035c:	ffffe7b7          	lui	a5,0xffffe
80000360:	fff78793          	addi	a5,a5,-1 # ffffdfff <_end+0x7fffcfff>
80000364:	00153513          	seqz	a0,a0
80000368:	00f41623          	sh	a5,12(s0)
8000036c:	ca5ff0ef          	jal	ra,80000010 <check>
80000370:	01c4a503          	lw	a0,28(s1)
80000374:	ffff87b7          	lui	a5,0xffff8
80000378:	fff7c793          	not	a5,a5
8000037c:	40f50533          	sub	a0,a0,a5
80000380:	00153513          	seqz	a0,a0
80000384:	00f41723          	sh	a5,14(s0)
80000388:	c89ff0ef          	jal	ra,80000010 <check>
8000038c:	02c12083          	lw	ra,44(sp)
80000390:	02812403          	lw	s0,40(sp)
80000394:	02412483          	lw	s1,36(sp)
80000398:	02012903          	lw	s2,32(sp)
8000039c:	01c12983          	lw	s3,28(sp)
800003a0:	01812a03          	lw	s4,24(sp)
800003a4:	01412a83          	lw	s5,20(sp)
800003a8:	01012b03          	lw	s6,16(sp)
800003ac:	00c12b83          	lw	s7,12(sp)
800003b0:	00812c03          	lw	s8,8(sp)
800003b4:	00412c83          	lw	s9,4(sp)
800003b8:	00000513          	li	a0,0
800003bc:	03010113          	addi	sp,sp,48
800003c0:	00008067          	ret

800003c4 <halt>:
800003c4:	0000006f          	j	800003c4 <halt>

800003c8 <_trm_init>:
800003c8:	ff010113          	addi	sp,sp,-16
800003cc:	00000517          	auipc	a0,0x0
800003d0:	01450513          	addi	a0,a0,20 # 800003e0 <_etext>
800003d4:	00112623          	sw	ra,12(sp)
800003d8:	c51ff0ef          	jal	ra,80000028 <main>
800003dc:	0000006f          	j	800003dc <_trm_init+0x14>
