
test/mersenne-riscv32-ni.elf:     file format elf32-littleriscv


Disassembly of section .text:

80000000 <_start>:
80000000:	00000413          	li	s0,0
80000004:	00001117          	auipc	sp,0x1
80000008:	ffc10113          	addi	sp,sp,-4 # 80001000 <_end>
8000000c:	140000ef          	jal	ra,8000014c <_trm_init>

80000010 <check>:
80000010:	00050463          	beqz	a0,80000018 <check+0x8>
80000014:	00008067          	ret
80000018:	ff010113          	addi	sp,sp,-16
8000001c:	00100513          	li	a0,1
80000020:	00112623          	sw	ra,12(sp)
80000024:	124000ef          	jal	ra,80000148 <halt>

80000028 <main>:
80000028:	fe010113          	addi	sp,sp,-32
8000002c:	00112e23          	sw	ra,28(sp)
80000030:	00812c23          	sw	s0,24(sp)
80000034:	00500793          	li	a5,5
80000038:	3a100693          	li	a3,929
8000003c:	00878713          	addi	a4,a5,8
80000040:	00678793          	addi	a5,a5,6
80000044:	02f78633          	mul	a2,a5,a5
80000048:	02c6c463          	blt	a3,a2,80000070 <main+0x48>
8000004c:	00d78663          	beq	a5,a3,80000058 <main+0x30>
80000050:	02e6e733          	rem	a4,a3,a4
80000054:	fe0714e3          	bnez	a4,8000003c <main+0x14>
80000058:	00100413          	li	s0,1
8000005c:	01c12083          	lw	ra,28(sp)
80000060:	00040513          	mv	a0,s0
80000064:	01812403          	lw	s0,24(sp)
80000068:	02010113          	addi	sp,sp,32
8000006c:	00008067          	ret
80000070:	01312623          	sw	s3,12(sp)
80000074:	00912a23          	sw	s1,20(sp)
80000078:	01212823          	sw	s2,16(sp)
8000007c:	01412423          	sw	s4,8(sp)
80000080:	01512223          	sw	s5,4(sp)
80000084:	01600793          	li	a5,22
80000088:	3a100993          	li	s3,929
8000008c:	fff78793          	addi	a5,a5,-1
80000090:	00199993          	slli	s3,s3,0x1
80000094:	fe079ce3          	bnez	a5,8000008c <main+0x64>
80000098:	74300493          	li	s1,1859
8000009c:	00000913          	li	s2,0
800000a0:	00100a93          	li	s5,1
800000a4:	00048a13          	mv	s4,s1
800000a8:	00098413          	mv	s0,s3
800000ac:	00100793          	li	a5,1
800000b0:	02f795b3          	mulh	a1,a5,a5
800000b4:	00048613          	mv	a2,s1
800000b8:	00090693          	mv	a3,s2
800000bc:	02f78533          	mul	a0,a5,a5
800000c0:	0a4000ef          	jal	ra,80000164 <__moddi3>
800000c4:	00050793          	mv	a5,a0
800000c8:	02044663          	bltz	s0,800000f4 <main+0xcc>
800000cc:	00a4d463          	bge	s1,a0,800000d4 <main+0xac>
800000d0:	409507b3          	sub	a5,a0,s1
800000d4:	02f795b3          	mulh	a1,a5,a5
800000d8:	00048613          	mv	a2,s1
800000dc:	00090693          	mv	a3,s2
800000e0:	00141413          	slli	s0,s0,0x1
800000e4:	02f78533          	mul	a0,a5,a5
800000e8:	07c000ef          	jal	ra,80000164 <__moddi3>
800000ec:	00050793          	mv	a5,a0
800000f0:	fc045ee3          	bgez	s0,800000cc <main+0xa4>
800000f4:	00151793          	slli	a5,a0,0x1
800000f8:	00141413          	slli	s0,s0,0x1
800000fc:	00f4d463          	bge	s1,a5,80000104 <main+0xdc>
80000100:	409787b3          	sub	a5,a5,s1
80000104:	fa0416e3          	bnez	s0,800000b0 <main+0x88>
80000108:	74248713          	addi	a4,s1,1858
8000010c:	009734b3          	sltu	s1,a4,s1
80000110:	01248933          	add	s2,s1,s2
80000114:	00070493          	mv	s1,a4
80000118:	f95796e3          	bne	a5,s5,800000a4 <main+0x7c>
8000011c:	ffffd7b7          	lui	a5,0xffffd
80000120:	d3178793          	addi	a5,a5,-719 # ffffcd31 <_end+0x7fffbd31>
80000124:	00fa0533          	add	a0,s4,a5
80000128:	00153513          	seqz	a0,a0
8000012c:	ee5ff0ef          	jal	ra,80000010 <check>
80000130:	01412483          	lw	s1,20(sp)
80000134:	01012903          	lw	s2,16(sp)
80000138:	00c12983          	lw	s3,12(sp)
8000013c:	00812a03          	lw	s4,8(sp)
80000140:	00412a83          	lw	s5,4(sp)
80000144:	f19ff06f          	j	8000005c <main+0x34>

80000148 <halt>:
80000148:	0000006f          	j	80000148 <halt>

8000014c <_trm_init>:
8000014c:	ff010113          	addi	sp,sp,-16
80000150:	00000517          	auipc	a0,0x0
80000154:	37450513          	addi	a0,a0,884 # 800004c4 <_etext>
80000158:	00112623          	sw	ra,12(sp)
8000015c:	ecdff0ef          	jal	ra,80000028 <main>
80000160:	0000006f          	j	80000160 <_trm_init+0x14>

80000164 <__moddi3>:
80000164:	fd010113          	addi	sp,sp,-48
80000168:	01412c23          	sw	s4,24(sp)
8000016c:	41f5da13          	srai	s4,a1,0x1f
80000170:	41f6d793          	srai	a5,a3,0x1f
80000174:	01454533          	xor	a0,a0,s4
80000178:	00f64633          	xor	a2,a2,a5
8000017c:	02912223          	sw	s1,36(sp)
80000180:	01812423          	sw	s8,8(sp)
80000184:	0145c4b3          	xor	s1,a1,s4
80000188:	41450c33          	sub	s8,a0,s4
8000018c:	01312e23          	sw	s3,28(sp)
80000190:	01612823          	sw	s6,16(sp)
80000194:	00f6c9b3          	xor	s3,a3,a5
80000198:	40f60b33          	sub	s6,a2,a5
8000019c:	01853533          	sltu	a0,a0,s8
800001a0:	414484b3          	sub	s1,s1,s4
800001a4:	01712623          	sw	s7,12(sp)
800001a8:	01663633          	sltu	a2,a2,s6
800001ac:	40f989b3          	sub	s3,s3,a5
800001b0:	02112623          	sw	ra,44(sp)
800001b4:	40a484b3          	sub	s1,s1,a0
800001b8:	40c989b3          	sub	s3,s3,a2
800001bc:	000c0b93          	mv	s7,s8
800001c0:	04049463          	bnez	s1,80000208 <__moddi3+0xa4>
800001c4:	00099463          	bnez	s3,800001cc <__moddi3+0x68>
800001c8:	036c7bb3          	remu	s7,s8,s6
800001cc:	017a4bb3          	xor	s7,s4,s7
800001d0:	02c12083          	lw	ra,44(sp)
800001d4:	414b8533          	sub	a0,s7,s4
800001d8:	009a44b3          	xor	s1,s4,s1
800001dc:	414484b3          	sub	s1,s1,s4
800001e0:	00abbbb3          	sltu	s7,s7,a0
800001e4:	417485b3          	sub	a1,s1,s7
800001e8:	01c12983          	lw	s3,28(sp)
800001ec:	02412483          	lw	s1,36(sp)
800001f0:	01812a03          	lw	s4,24(sp)
800001f4:	01012b03          	lw	s6,16(sp)
800001f8:	00c12b83          	lw	s7,12(sp)
800001fc:	00812c03          	lw	s8,8(sp)
80000200:	03010113          	addi	sp,sp,48
80000204:	00008067          	ret
80000208:	03212023          	sw	s2,32(sp)
8000020c:	01512a23          	sw	s5,20(sp)
80000210:	02812423          	sw	s0,40(sp)
80000214:	00048913          	mv	s2,s1
80000218:	000b0a93          	mv	s5,s6
8000021c:	0e0b1063          	bnez	s6,800002fc <__moddi3+0x198>
80000220:	14098c63          	beqz	s3,80000378 <__moddi3+0x214>
80000224:	1a0c0c63          	beqz	s8,800003dc <__moddi3+0x278>
80000228:	fff98793          	addi	a5,s3,-1
8000022c:	0137f733          	and	a4,a5,s3
80000230:	1c070063          	beqz	a4,800003f0 <__moddi3+0x28c>
80000234:	00098513          	mv	a0,s3
80000238:	1fc000ef          	jal	ra,80000434 <__clzsi2>
8000023c:	00050413          	mv	s0,a0
80000240:	00048513          	mv	a0,s1
80000244:	1f0000ef          	jal	ra,80000434 <__clzsi2>
80000248:	40a405b3          	sub	a1,s0,a0
8000024c:	01e00793          	li	a5,30
80000250:	12b7e663          	bltu	a5,a1,8000037c <__moddi3+0x218>
80000254:	00158593          	addi	a1,a1,1
80000258:	02000793          	li	a5,32
8000025c:	40b787b3          	sub	a5,a5,a1
80000260:	00f496b3          	sll	a3,s1,a5
80000264:	00bc5733          	srl	a4,s8,a1
80000268:	00b4d433          	srl	s0,s1,a1
8000026c:	00e6e933          	or	s2,a3,a4
80000270:	00fc14b3          	sll	s1,s8,a5
80000274:	00000513          	li	a0,0
80000278:	01f4d793          	srli	a5,s1,0x1f
8000027c:	00191713          	slli	a4,s2,0x1
80000280:	00f76733          	or	a4,a4,a5
80000284:	01f95913          	srli	s2,s2,0x1f
80000288:	00141793          	slli	a5,s0,0x1
8000028c:	0127e7b3          	or	a5,a5,s2
80000290:	40eb0633          	sub	a2,s6,a4
80000294:	00cb3833          	sltu	a6,s6,a2
80000298:	40f986b3          	sub	a3,s3,a5
8000029c:	410686b3          	sub	a3,a3,a6
800002a0:	00163613          	seqz	a2,a2
800002a4:	40c686b3          	sub	a3,a3,a2
800002a8:	41f6d613          	srai	a2,a3,0x1f
800002ac:	00cb7933          	and	s2,s6,a2
800002b0:	41270933          	sub	s2,a4,s2
800002b4:	00c9f633          	and	a2,s3,a2
800002b8:	01fad813          	srli	a6,s5,0x1f
800002bc:	00149493          	slli	s1,s1,0x1
800002c0:	001a9a93          	slli	s5,s5,0x1
800002c4:	01273733          	sltu	a4,a4,s2
800002c8:	40c78433          	sub	s0,a5,a2
800002cc:	fff58593          	addi	a1,a1,-1
800002d0:	00aaeab3          	or	s5,s5,a0
800002d4:	0104e4b3          	or	s1,s1,a6
800002d8:	01f6d513          	srli	a0,a3,0x1f
800002dc:	40e40433          	sub	s0,s0,a4
800002e0:	f8059ce3          	bnez	a1,80000278 <__moddi3+0x114>
800002e4:	00090b93          	mv	s7,s2
800002e8:	00040493          	mv	s1,s0
800002ec:	02012903          	lw	s2,32(sp)
800002f0:	02812403          	lw	s0,40(sp)
800002f4:	01412a83          	lw	s5,20(sp)
800002f8:	ed5ff06f          	j	800001cc <__moddi3+0x68>
800002fc:	04098a63          	beqz	s3,80000350 <__moddi3+0x1ec>
80000300:	00098513          	mv	a0,s3
80000304:	130000ef          	jal	ra,80000434 <__clzsi2>
80000308:	00050413          	mv	s0,a0
8000030c:	00048513          	mv	a0,s1
80000310:	124000ef          	jal	ra,80000434 <__clzsi2>
80000314:	40a405b3          	sub	a1,s0,a0
80000318:	01f00793          	li	a5,31
8000031c:	06b7e063          	bltu	a5,a1,8000037c <__moddi3+0x218>
80000320:	00158593          	addi	a1,a1,1
80000324:	02000793          	li	a5,32
80000328:	000c0493          	mv	s1,s8
8000032c:	0cf58c63          	beq	a1,a5,80000404 <__moddi3+0x2a0>
80000330:	40b787b3          	sub	a5,a5,a1
80000334:	00bc5733          	srl	a4,s8,a1
80000338:	00f916b3          	sll	a3,s2,a5
8000033c:	00b95433          	srl	s0,s2,a1
80000340:	00fc14b3          	sll	s1,s8,a5
80000344:	00e6e933          	or	s2,a3,a4
80000348:	00000a93          	li	s5,0
8000034c:	f29ff06f          	j	80000274 <__moddi3+0x110>
80000350:	fffb0793          	addi	a5,s6,-1
80000354:	00fb7733          	and	a4,s6,a5
80000358:	000c0493          	mv	s1,s8
8000035c:	02071863          	bnez	a4,8000038c <__moddi3+0x228>
80000360:	02812403          	lw	s0,40(sp)
80000364:	02012903          	lw	s2,32(sp)
80000368:	01412a83          	lw	s5,20(sp)
8000036c:	0187fbb3          	and	s7,a5,s8
80000370:	00000493          	li	s1,0
80000374:	e59ff06f          	j	800001cc <__moddi3+0x68>
80000378:	00100073          	ebreak
8000037c:	02812403          	lw	s0,40(sp)
80000380:	02012903          	lw	s2,32(sp)
80000384:	01412a83          	lw	s5,20(sp)
80000388:	e45ff06f          	j	800001cc <__moddi3+0x68>
8000038c:	000b0513          	mv	a0,s6
80000390:	0a4000ef          	jal	ra,80000434 <__clzsi2>
80000394:	00050a93          	mv	s5,a0
80000398:	00090513          	mv	a0,s2
8000039c:	098000ef          	jal	ra,80000434 <__clzsi2>
800003a0:	40aa8533          	sub	a0,s5,a0
800003a4:	02150593          	addi	a1,a0,33
800003a8:	02000793          	li	a5,32
800003ac:	00098413          	mv	s0,s3
800003b0:	00000a93          	li	s5,0
800003b4:	ecf580e3          	beq	a1,a5,80000274 <__moddi3+0x110>
800003b8:	01f00713          	li	a4,31
800003bc:	04b76a63          	bltu	a4,a1,80000410 <__moddi3+0x2ac>
800003c0:	40b78733          	sub	a4,a5,a1
800003c4:	00b95433          	srl	s0,s2,a1
800003c8:	00bc57b3          	srl	a5,s8,a1
800003cc:	00e91933          	sll	s2,s2,a4
800003d0:	00f96933          	or	s2,s2,a5
800003d4:	00ec14b3          	sll	s1,s8,a4
800003d8:	e9dff06f          	j	80000274 <__moddi3+0x110>
800003dc:	0334f4b3          	remu	s1,s1,s3
800003e0:	02812403          	lw	s0,40(sp)
800003e4:	02012903          	lw	s2,32(sp)
800003e8:	01412a83          	lw	s5,20(sp)
800003ec:	de1ff06f          	j	800001cc <__moddi3+0x68>
800003f0:	02812403          	lw	s0,40(sp)
800003f4:	02012903          	lw	s2,32(sp)
800003f8:	01412a83          	lw	s5,20(sp)
800003fc:	00f4f4b3          	and	s1,s1,a5
80000400:	dcdff06f          	j	800001cc <__moddi3+0x68>
80000404:	00000413          	li	s0,0
80000408:	00000a93          	li	s5,0
8000040c:	e69ff06f          	j	80000274 <__moddi3+0x110>
80000410:	04000a93          	li	s5,64
80000414:	40ba8ab3          	sub	s5,s5,a1
80000418:	00150513          	addi	a0,a0,1
8000041c:	01591733          	sll	a4,s2,s5
80000420:	00ac57b3          	srl	a5,s8,a0
80000424:	015c1ab3          	sll	s5,s8,s5
80000428:	00a95933          	srl	s2,s2,a0
8000042c:	00f764b3          	or	s1,a4,a5
80000430:	e45ff06f          	j	80000274 <__moddi3+0x110>

80000434 <__clzsi2>:
80000434:	000105b7          	lui	a1,0x10
80000438:	00b535b3          	sltu	a1,a0,a1
8000043c:	00459593          	slli	a1,a1,0x4
80000440:	01000793          	li	a5,16
80000444:	40b787b3          	sub	a5,a5,a1
80000448:	00010737          	lui	a4,0x10
8000044c:	00f557b3          	srl	a5,a0,a5
80000450:	f0070713          	addi	a4,a4,-256 # ff00 <_entry_offset+0xff00>
80000454:	00e7f733          	and	a4,a5,a4
80000458:	00173713          	seqz	a4,a4
8000045c:	00371713          	slli	a4,a4,0x3
80000460:	00800693          	li	a3,8
80000464:	40e686b3          	sub	a3,a3,a4
80000468:	00d7d7b3          	srl	a5,a5,a3
8000046c:	0f07f613          	andi	a2,a5,240
80000470:	00163613          	seqz	a2,a2
80000474:	00261613          	slli	a2,a2,0x2
80000478:	00400693          	li	a3,4
8000047c:	40c686b3          	sub	a3,a3,a2
80000480:	00d7d7b3          	srl	a5,a5,a3
80000484:	00c7f693          	andi	a3,a5,12
80000488:	0016b693          	seqz	a3,a3
8000048c:	00200513          	li	a0,2
80000490:	00169693          	slli	a3,a3,0x1
80000494:	40d50833          	sub	a6,a0,a3
80000498:	0107d7b3          	srl	a5,a5,a6
8000049c:	0017d813          	srli	a6,a5,0x1
800004a0:	00b70733          	add	a4,a4,a1
800004a4:	00187593          	andi	a1,a6,1
800004a8:	00e60633          	add	a2,a2,a4
800004ac:	40f50533          	sub	a0,a0,a5
800004b0:	00058463          	beqz	a1,800004b8 <__clzsi2+0x84>
800004b4:	00000513          	li	a0,0
800004b8:	00c686b3          	add	a3,a3,a2
800004bc:	00d50533          	add	a0,a0,a3
800004c0:	00008067          	ret
