
test/min3-riscv32-ni.elf:     file format elf32-littleriscv


Disassembly of section .text:

80000000 <_start>:
80000000:	00000413          	li	s0,0
80000004:	00001117          	auipc	sp,0x1
80000008:	ffc10113          	addi	sp,sp,-4 # 80001000 <_end>
8000000c:	2a0000ef          	jal	ra,800002ac <_trm_init>

80000010 <check>:
80000010:	00050463          	beqz	a0,80000018 <check+0x8>
80000014:	00008067          	ret
80000018:	ff010113          	addi	sp,sp,-16
8000001c:	00100513          	li	a0,1
80000020:	00112623          	sw	ra,12(sp)
80000024:	284000ef          	jal	ra,800002a8 <halt>

80000028 <main>:
80000028:	fd010113          	addi	sp,sp,-48
8000002c:	01712623          	sw	s7,12(sp)
80000030:	00000b97          	auipc	s7,0x0
80000034:	398b8b93          	addi	s7,s7,920 # 800003c8 <test_data>
80000038:	01312e23          	sw	s3,28(sp)
8000003c:	01412c23          	sw	s4,24(sp)
80000040:	01512a23          	sw	s5,20(sp)
80000044:	01612823          	sw	s6,16(sp)
80000048:	000ba983          	lw	s3,0(s7)
8000004c:	004bab03          	lw	s6,4(s7)
80000050:	008baa83          	lw	s5,8(s7)
80000054:	00cbaa03          	lw	s4,12(s7)
80000058:	02812423          	sw	s0,40(sp)
8000005c:	01812423          	sw	s8,8(sp)
80000060:	02112623          	sw	ra,44(sp)
80000064:	02912223          	sw	s1,36(sp)
80000068:	03212023          	sw	s2,32(sp)
8000006c:	00000417          	auipc	s0,0x0
80000070:	25c40413          	addi	s0,s0,604 # 800002c8 <ans>
80000074:	00000c17          	auipc	s8,0x0
80000078:	354c0c13          	addi	s8,s8,852 # 800003c8 <test_data>
8000007c:	000ba483          	lw	s1,0(s7)
80000080:	00048913          	mv	s2,s1
80000084:	0099d463          	bge	s3,s1,8000008c <main+0x64>
80000088:	00098913          	mv	s2,s3
8000008c:	00098513          	mv	a0,s3
80000090:	01395463          	bge	s2,s3,80000098 <main+0x70>
80000094:	00090513          	mv	a0,s2
80000098:	00042783          	lw	a5,0(s0)
8000009c:	40f50533          	sub	a0,a0,a5
800000a0:	00153513          	seqz	a0,a0
800000a4:	f6dff0ef          	jal	ra,80000010 <check>
800000a8:	00090513          	mv	a0,s2
800000ac:	012b5463          	bge	s6,s2,800000b4 <main+0x8c>
800000b0:	000b0513          	mv	a0,s6
800000b4:	00442783          	lw	a5,4(s0)
800000b8:	40f50533          	sub	a0,a0,a5
800000bc:	00153513          	seqz	a0,a0
800000c0:	f51ff0ef          	jal	ra,80000010 <check>
800000c4:	00090513          	mv	a0,s2
800000c8:	012ad463          	bge	s5,s2,800000d0 <main+0xa8>
800000cc:	000a8513          	mv	a0,s5
800000d0:	00842783          	lw	a5,8(s0)
800000d4:	40f50533          	sub	a0,a0,a5
800000d8:	00153513          	seqz	a0,a0
800000dc:	f35ff0ef          	jal	ra,80000010 <check>
800000e0:	012a5463          	bge	s4,s2,800000e8 <main+0xc0>
800000e4:	000a0913          	mv	s2,s4
800000e8:	00c42783          	lw	a5,12(s0)
800000ec:	40f90933          	sub	s2,s2,a5
800000f0:	00193513          	seqz	a0,s2
800000f4:	f1dff0ef          	jal	ra,80000010 <check>
800000f8:	00048913          	mv	s2,s1
800000fc:	009b5463          	bge	s6,s1,80000104 <main+0xdc>
80000100:	000b0913          	mv	s2,s6
80000104:	00098513          	mv	a0,s3
80000108:	01395463          	bge	s2,s3,80000110 <main+0xe8>
8000010c:	00090513          	mv	a0,s2
80000110:	01042783          	lw	a5,16(s0)
80000114:	40f50533          	sub	a0,a0,a5
80000118:	00153513          	seqz	a0,a0
8000011c:	ef5ff0ef          	jal	ra,80000010 <check>
80000120:	000b0513          	mv	a0,s6
80000124:	01695463          	bge	s2,s6,8000012c <main+0x104>
80000128:	00090513          	mv	a0,s2
8000012c:	01442783          	lw	a5,20(s0)
80000130:	40f50533          	sub	a0,a0,a5
80000134:	00153513          	seqz	a0,a0
80000138:	ed9ff0ef          	jal	ra,80000010 <check>
8000013c:	000a8513          	mv	a0,s5
80000140:	01595463          	bge	s2,s5,80000148 <main+0x120>
80000144:	00090513          	mv	a0,s2
80000148:	01842783          	lw	a5,24(s0)
8000014c:	40f50533          	sub	a0,a0,a5
80000150:	00153513          	seqz	a0,a0
80000154:	ebdff0ef          	jal	ra,80000010 <check>
80000158:	000a0513          	mv	a0,s4
8000015c:	01495463          	bge	s2,s4,80000164 <main+0x13c>
80000160:	00090513          	mv	a0,s2
80000164:	01c42783          	lw	a5,28(s0)
80000168:	00048913          	mv	s2,s1
8000016c:	40f50533          	sub	a0,a0,a5
80000170:	00153513          	seqz	a0,a0
80000174:	e9dff0ef          	jal	ra,80000010 <check>
80000178:	009ad463          	bge	s5,s1,80000180 <main+0x158>
8000017c:	000a8913          	mv	s2,s5
80000180:	00098513          	mv	a0,s3
80000184:	01395463          	bge	s2,s3,8000018c <main+0x164>
80000188:	00090513          	mv	a0,s2
8000018c:	02042783          	lw	a5,32(s0)
80000190:	40f50533          	sub	a0,a0,a5
80000194:	00153513          	seqz	a0,a0
80000198:	e79ff0ef          	jal	ra,80000010 <check>
8000019c:	000b0513          	mv	a0,s6
800001a0:	01695463          	bge	s2,s6,800001a8 <main+0x180>
800001a4:	00090513          	mv	a0,s2
800001a8:	02442783          	lw	a5,36(s0)
800001ac:	40f50533          	sub	a0,a0,a5
800001b0:	00153513          	seqz	a0,a0
800001b4:	e5dff0ef          	jal	ra,80000010 <check>
800001b8:	000a8513          	mv	a0,s5
800001bc:	01595463          	bge	s2,s5,800001c4 <main+0x19c>
800001c0:	00090513          	mv	a0,s2
800001c4:	02842783          	lw	a5,40(s0)
800001c8:	40f50533          	sub	a0,a0,a5
800001cc:	00153513          	seqz	a0,a0
800001d0:	e41ff0ef          	jal	ra,80000010 <check>
800001d4:	000a0513          	mv	a0,s4
800001d8:	01495463          	bge	s2,s4,800001e0 <main+0x1b8>
800001dc:	00090513          	mv	a0,s2
800001e0:	02c42783          	lw	a5,44(s0)
800001e4:	40f50533          	sub	a0,a0,a5
800001e8:	00153513          	seqz	a0,a0
800001ec:	e25ff0ef          	jal	ra,80000010 <check>
800001f0:	009a5463          	bge	s4,s1,800001f8 <main+0x1d0>
800001f4:	000a0493          	mv	s1,s4
800001f8:	00098513          	mv	a0,s3
800001fc:	0134d463          	bge	s1,s3,80000204 <main+0x1dc>
80000200:	00048513          	mv	a0,s1
80000204:	03042783          	lw	a5,48(s0)
80000208:	40f50533          	sub	a0,a0,a5
8000020c:	00153513          	seqz	a0,a0
80000210:	e01ff0ef          	jal	ra,80000010 <check>
80000214:	000b0513          	mv	a0,s6
80000218:	0164d463          	bge	s1,s6,80000220 <main+0x1f8>
8000021c:	00048513          	mv	a0,s1
80000220:	03442783          	lw	a5,52(s0)
80000224:	40f50533          	sub	a0,a0,a5
80000228:	00153513          	seqz	a0,a0
8000022c:	de5ff0ef          	jal	ra,80000010 <check>
80000230:	000a8513          	mv	a0,s5
80000234:	0154d463          	bge	s1,s5,8000023c <main+0x214>
80000238:	00048513          	mv	a0,s1
8000023c:	03842783          	lw	a5,56(s0)
80000240:	40f50533          	sub	a0,a0,a5
80000244:	00153513          	seqz	a0,a0
80000248:	dc9ff0ef          	jal	ra,80000010 <check>
8000024c:	000a0513          	mv	a0,s4
80000250:	0144d463          	bge	s1,s4,80000258 <main+0x230>
80000254:	00048513          	mv	a0,s1
80000258:	03c42783          	lw	a5,60(s0)
8000025c:	04040413          	addi	s0,s0,64
80000260:	004b8b93          	addi	s7,s7,4
80000264:	40f50533          	sub	a0,a0,a5
80000268:	00153513          	seqz	a0,a0
8000026c:	da5ff0ef          	jal	ra,80000010 <check>
80000270:	e08c16e3          	bne	s8,s0,8000007c <main+0x54>
80000274:	02c12083          	lw	ra,44(sp)
80000278:	02812403          	lw	s0,40(sp)
8000027c:	02412483          	lw	s1,36(sp)
80000280:	02012903          	lw	s2,32(sp)
80000284:	01c12983          	lw	s3,28(sp)
80000288:	01812a03          	lw	s4,24(sp)
8000028c:	01412a83          	lw	s5,20(sp)
80000290:	01012b03          	lw	s6,16(sp)
80000294:	00c12b83          	lw	s7,12(sp)
80000298:	00812c03          	lw	s8,8(sp)
8000029c:	00000513          	li	a0,0
800002a0:	03010113          	addi	sp,sp,48
800002a4:	00008067          	ret

800002a8 <halt>:
800002a8:	0000006f          	j	800002a8 <halt>

800002ac <_trm_init>:
800002ac:	ff010113          	addi	sp,sp,-16
800002b0:	00000517          	auipc	a0,0x0
800002b4:	01450513          	addi	a0,a0,20 # 800002c4 <_etext>
800002b8:	00112623          	sw	ra,12(sp)
800002bc:	d6dff0ef          	jal	ra,80000028 <main>
800002c0:	0000006f          	j	800002c0 <_trm_init+0x14>
