
test/mul-longlong-riscv32-ni.elf:     file format elf32-littleriscv


Disassembly of section .text:

80000000 <_start>:
80000000:	00000413          	li	s0,0
80000004:	00001117          	auipc	sp,0x1
80000008:	ffc10113          	addi	sp,sp,-4 # 80001000 <_end>
8000000c:	1e8000ef          	jal	ra,800001f4 <_trm_init>

80000010 <check>:
80000010:	00050463          	beqz	a0,80000018 <check+0x8>
80000014:	00008067          	ret
80000018:	ff010113          	addi	sp,sp,-16
8000001c:	00100513          	li	a0,1
80000020:	00112623          	sw	ra,12(sp)
80000024:	1cc000ef          	jal	ra,800001f0 <halt>

80000028 <main>:
80000028:	fe010113          	addi	sp,sp,-32
8000002c:	00912a23          	sw	s1,20(sp)
80000030:	00000497          	auipc	s1,0x0
80000034:	23048493          	addi	s1,s1,560 # 80000260 <test_data>
80000038:	01412423          	sw	s4,8(sp)
8000003c:	0004aa03          	lw	s4,0(s1)
80000040:	00812c23          	sw	s0,24(sp)
80000044:	00000417          	auipc	s0,0x0
80000048:	1cc40413          	addi	s0,s0,460 # 80000210 <ans>
8000004c:	034a06b3          	mul	a3,s4,s4
80000050:	00042503          	lw	a0,0(s0)
80000054:	00442783          	lw	a5,4(s0)
80000058:	00112e23          	sw	ra,28(sp)
8000005c:	01212823          	sw	s2,16(sp)
80000060:	01312623          	sw	s3,12(sp)
80000064:	034a1733          	mulh	a4,s4,s4
80000068:	00d54533          	xor	a0,a0,a3
8000006c:	00e7c7b3          	xor	a5,a5,a4
80000070:	00f56533          	or	a0,a0,a5
80000074:	00153513          	seqz	a0,a0
80000078:	f99ff0ef          	jal	ra,80000010 <check>
8000007c:	0044a983          	lw	s3,4(s1)
80000080:	00842503          	lw	a0,8(s0)
80000084:	00c42783          	lw	a5,12(s0)
80000088:	033a06b3          	mul	a3,s4,s3
8000008c:	033a1733          	mulh	a4,s4,s3
80000090:	00d54533          	xor	a0,a0,a3
80000094:	00e7c7b3          	xor	a5,a5,a4
80000098:	00f56533          	or	a0,a0,a5
8000009c:	00153513          	seqz	a0,a0
800000a0:	f71ff0ef          	jal	ra,80000010 <check>
800000a4:	0084a903          	lw	s2,8(s1)
800000a8:	01042503          	lw	a0,16(s0)
800000ac:	01442783          	lw	a5,20(s0)
800000b0:	032a06b3          	mul	a3,s4,s2
800000b4:	032a1733          	mulh	a4,s4,s2
800000b8:	00d54533          	xor	a0,a0,a3
800000bc:	00e7c7b3          	xor	a5,a5,a4
800000c0:	00f56533          	or	a0,a0,a5
800000c4:	00153513          	seqz	a0,a0
800000c8:	f49ff0ef          	jal	ra,80000010 <check>
800000cc:	00c4a483          	lw	s1,12(s1)
800000d0:	01842503          	lw	a0,24(s0)
800000d4:	01c42783          	lw	a5,28(s0)
800000d8:	029a0733          	mul	a4,s4,s1
800000dc:	029a1a33          	mulh	s4,s4,s1
800000e0:	00e54533          	xor	a0,a0,a4
800000e4:	0147c7b3          	xor	a5,a5,s4
800000e8:	00f56533          	or	a0,a0,a5
800000ec:	00153513          	seqz	a0,a0
800000f0:	f21ff0ef          	jal	ra,80000010 <check>
800000f4:	033986b3          	mul	a3,s3,s3
800000f8:	02042503          	lw	a0,32(s0)
800000fc:	02442783          	lw	a5,36(s0)
80000100:	03399733          	mulh	a4,s3,s3
80000104:	00d54533          	xor	a0,a0,a3
80000108:	00e7c7b3          	xor	a5,a5,a4
8000010c:	00f56533          	or	a0,a0,a5
80000110:	00153513          	seqz	a0,a0
80000114:	efdff0ef          	jal	ra,80000010 <check>
80000118:	032986b3          	mul	a3,s3,s2
8000011c:	02842503          	lw	a0,40(s0)
80000120:	02c42783          	lw	a5,44(s0)
80000124:	03299733          	mulh	a4,s3,s2
80000128:	00d54533          	xor	a0,a0,a3
8000012c:	00e7c7b3          	xor	a5,a5,a4
80000130:	00f56533          	or	a0,a0,a5
80000134:	00153513          	seqz	a0,a0
80000138:	ed9ff0ef          	jal	ra,80000010 <check>
8000013c:	02998733          	mul	a4,s3,s1
80000140:	03042503          	lw	a0,48(s0)
80000144:	03442783          	lw	a5,52(s0)
80000148:	029999b3          	mulh	s3,s3,s1
8000014c:	00e54533          	xor	a0,a0,a4
80000150:	0137c7b3          	xor	a5,a5,s3
80000154:	00f56533          	or	a0,a0,a5
80000158:	00153513          	seqz	a0,a0
8000015c:	eb5ff0ef          	jal	ra,80000010 <check>
80000160:	032906b3          	mul	a3,s2,s2
80000164:	03842503          	lw	a0,56(s0)
80000168:	03c42783          	lw	a5,60(s0)
8000016c:	03291733          	mulh	a4,s2,s2
80000170:	00d54533          	xor	a0,a0,a3
80000174:	00e7c7b3          	xor	a5,a5,a4
80000178:	00f56533          	or	a0,a0,a5
8000017c:	00153513          	seqz	a0,a0
80000180:	e91ff0ef          	jal	ra,80000010 <check>
80000184:	02990733          	mul	a4,s2,s1
80000188:	04042503          	lw	a0,64(s0)
8000018c:	04442783          	lw	a5,68(s0)
80000190:	02991933          	mulh	s2,s2,s1
80000194:	00e54533          	xor	a0,a0,a4
80000198:	0127c7b3          	xor	a5,a5,s2
8000019c:	00f56533          	or	a0,a0,a5
800001a0:	00153513          	seqz	a0,a0
800001a4:	e6dff0ef          	jal	ra,80000010 <check>
800001a8:	02948733          	mul	a4,s1,s1
800001ac:	04842503          	lw	a0,72(s0)
800001b0:	04c42783          	lw	a5,76(s0)
800001b4:	029494b3          	mulh	s1,s1,s1
800001b8:	00e54533          	xor	a0,a0,a4
800001bc:	0097c7b3          	xor	a5,a5,s1
800001c0:	00f56533          	or	a0,a0,a5
800001c4:	00153513          	seqz	a0,a0
800001c8:	e49ff0ef          	jal	ra,80000010 <check>
800001cc:	01c12083          	lw	ra,28(sp)
800001d0:	01812403          	lw	s0,24(sp)
800001d4:	01412483          	lw	s1,20(sp)
800001d8:	01012903          	lw	s2,16(sp)
800001dc:	00c12983          	lw	s3,12(sp)
800001e0:	00812a03          	lw	s4,8(sp)
800001e4:	00000513          	li	a0,0
800001e8:	02010113          	addi	sp,sp,32
800001ec:	00008067          	ret

800001f0 <halt>:
800001f0:	0000006f          	j	800001f0 <halt>

800001f4 <_trm_init>:
800001f4:	ff010113          	addi	sp,sp,-16
800001f8:	00000517          	auipc	a0,0x0
800001fc:	01450513          	addi	a0,a0,20 # 8000020c <_etext>
80000200:	00112623          	sw	ra,12(sp)
80000204:	e25ff0ef          	jal	ra,80000028 <main>
80000208:	0000006f          	j	80000208 <_trm_init+0x14>
