
test/quick-sort-riscv32-ni.elf:     file format elf32-littleriscv


Disassembly of section .text:

80000000 <_start>:
80000000:	00000413          	li	s0,0
80000004:	00001117          	auipc	sp,0x1
80000008:	ffc10113          	addi	sp,sp,-4 # 80001000 <_end>
8000000c:	204000ef          	jal	ra,80000210 <_trm_init>

80000010 <check>:
80000010:	00050463          	beqz	a0,80000018 <check+0x8>
80000014:	00008067          	ret
80000018:	ff010113          	addi	sp,sp,-16
8000001c:	00100513          	li	a0,1
80000020:	00112623          	sw	ra,12(sp)
80000024:	1e8000ef          	jal	ra,8000020c <halt>

80000028 <quick_sort>:
80000028:	fe010113          	addi	sp,sp,-32
8000002c:	00912a23          	sw	s1,20(sp)
80000030:	00112e23          	sw	ra,28(sp)
80000034:	00261493          	slli	s1,a2,0x2
80000038:	009504b3          	add	s1,a0,s1
8000003c:	0cc5dc63          	bge	a1,a2,80000114 <quick_sort+0xec>
80000040:	01212823          	sw	s2,16(sp)
80000044:	01312623          	sw	s3,12(sp)
80000048:	00812c23          	sw	s0,24(sp)
8000004c:	00060993          	mv	s3,a2
80000050:	00050913          	mv	s2,a0
80000054:	00259793          	slli	a5,a1,0x2
80000058:	00f907b3          	add	a5,s2,a5
8000005c:	0007a883          	lw	a7,0(a5)
80000060:	0d35d263          	bge	a1,s3,80000124 <quick_sort+0xfc>
80000064:	0004a703          	lw	a4,0(s1)
80000068:	00098693          	mv	a3,s3
8000006c:	00058613          	mv	a2,a1
80000070:	fff68813          	addi	a6,a3,-1
80000074:	00281813          	slli	a6,a6,0x2
80000078:	01090833          	add	a6,s2,a6
8000007c:	0140006f          	j	80000090 <quick_sort+0x68>
80000080:	fff68693          	addi	a3,a3,-1
80000084:	0047a703          	lw	a4,4(a5)
80000088:	0ac68463          	beq	a3,a2,80000130 <quick_sort+0x108>
8000008c:	00078813          	mv	a6,a5
80000090:	ffc80793          	addi	a5,a6,-4
80000094:	fee8c6e3          	blt	a7,a4,80000080 <quick_sort+0x58>
80000098:	00261793          	slli	a5,a2,0x2
8000009c:	00f907b3          	add	a5,s2,a5
800000a0:	00269813          	slli	a6,a3,0x2
800000a4:	00e7a023          	sw	a4,0(a5)
800000a8:	01090833          	add	a6,s2,a6
800000ac:	08d65863          	bge	a2,a3,8000013c <quick_sort+0x114>
800000b0:	00060413          	mv	s0,a2
800000b4:	00c0006f          	j	800000c0 <quick_sort+0x98>
800000b8:	00478793          	addi	a5,a5,4
800000bc:	02868463          	beq	a3,s0,800000e4 <quick_sort+0xbc>
800000c0:	0007a703          	lw	a4,0(a5)
800000c4:	00040613          	mv	a2,s0
800000c8:	00140413          	addi	s0,s0,1
800000cc:	fee8d6e3          	bge	a7,a4,800000b8 <quick_sort+0x90>
800000d0:	00e82023          	sw	a4,0(a6)
800000d4:	f8d64ee3          	blt	a2,a3,80000070 <quick_sort+0x48>
800000d8:	00060413          	mv	s0,a2
800000dc:	fff60613          	addi	a2,a2,-1
800000e0:	0140006f          	j	800000f4 <quick_sort+0xcc>
800000e4:	00241793          	slli	a5,s0,0x2
800000e8:	00f907b3          	add	a5,s2,a5
800000ec:	0007a703          	lw	a4,0(a5)
800000f0:	00e82023          	sw	a4,0(a6)
800000f4:	0117a023          	sw	a7,0(a5)
800000f8:	00090513          	mv	a0,s2
800000fc:	f2dff0ef          	jal	ra,80000028 <quick_sort>
80000100:	00140593          	addi	a1,s0,1
80000104:	f535c8e3          	blt	a1,s3,80000054 <quick_sort+0x2c>
80000108:	01812403          	lw	s0,24(sp)
8000010c:	01012903          	lw	s2,16(sp)
80000110:	00c12983          	lw	s3,12(sp)
80000114:	01c12083          	lw	ra,28(sp)
80000118:	01412483          	lw	s1,20(sp)
8000011c:	02010113          	addi	sp,sp,32
80000120:	00008067          	ret
80000124:	fff58613          	addi	a2,a1,-1
80000128:	00058413          	mv	s0,a1
8000012c:	fc9ff06f          	j	800000f4 <quick_sort+0xcc>
80000130:	00261793          	slli	a5,a2,0x2
80000134:	00f907b3          	add	a5,s2,a5
80000138:	00e7a023          	sw	a4,0(a5)
8000013c:	00060413          	mv	s0,a2
80000140:	fff60613          	addi	a2,a2,-1
80000144:	fadff06f          	j	800000f0 <quick_sort+0xc8>

80000148 <main>:
80000148:	fe010113          	addi	sp,sp,-32
8000014c:	00912a23          	sw	s1,20(sp)
80000150:	01300613          	li	a2,19
80000154:	00000593          	li	a1,0
80000158:	00000517          	auipc	a0,0x0
8000015c:	0d450513          	addi	a0,a0,212 # 8000022c <a>
80000160:	00000497          	auipc	s1,0x0
80000164:	0cc48493          	addi	s1,s1,204 # 8000022c <a>
80000168:	00812c23          	sw	s0,24(sp)
8000016c:	01212823          	sw	s2,16(sp)
80000170:	01312623          	sw	s3,12(sp)
80000174:	00112e23          	sw	ra,28(sp)
80000178:	00048913          	mv	s2,s1
8000017c:	eadff0ef          	jal	ra,80000028 <quick_sort>
80000180:	00000413          	li	s0,0
80000184:	01400993          	li	s3,20
80000188:	00092503          	lw	a0,0(s2)
8000018c:	00490913          	addi	s2,s2,4
80000190:	40850533          	sub	a0,a0,s0
80000194:	00153513          	seqz	a0,a0
80000198:	00140413          	addi	s0,s0,1
8000019c:	e75ff0ef          	jal	ra,80000010 <check>
800001a0:	ff3414e3          	bne	s0,s3,80000188 <main+0x40>
800001a4:	00100513          	li	a0,1
800001a8:	e69ff0ef          	jal	ra,80000010 <check>
800001ac:	01300613          	li	a2,19
800001b0:	00000593          	li	a1,0
800001b4:	00000517          	auipc	a0,0x0
800001b8:	07850513          	addi	a0,a0,120 # 8000022c <a>
800001bc:	e6dff0ef          	jal	ra,80000028 <quick_sort>
800001c0:	00000413          	li	s0,0
800001c4:	01400913          	li	s2,20
800001c8:	0004a503          	lw	a0,0(s1)
800001cc:	00448493          	addi	s1,s1,4
800001d0:	40850533          	sub	a0,a0,s0
800001d4:	00153513          	seqz	a0,a0
800001d8:	00140413          	addi	s0,s0,1
800001dc:	e35ff0ef          	jal	ra,80000010 <check>
800001e0:	ff2414e3          	bne	s0,s2,800001c8 <main+0x80>
800001e4:	00100513          	li	a0,1
800001e8:	e29ff0ef          	jal	ra,80000010 <check>
800001ec:	01c12083          	lw	ra,28(sp)
800001f0:	01812403          	lw	s0,24(sp)
800001f4:	01412483          	lw	s1,20(sp)
800001f8:	01012903          	lw	s2,16(sp)
800001fc:	00c12983          	lw	s3,12(sp)
80000200:	00000513          	li	a0,0
80000204:	02010113          	addi	sp,sp,32
80000208:	00008067          	ret

8000020c <halt>:
8000020c:	0000006f          	j	8000020c <halt>

80000210 <_trm_init>:
80000210:	ff010113          	addi	sp,sp,-16
80000214:	00000517          	auipc	a0,0x0
80000218:	01450513          	addi	a0,a0,20 # 80000228 <_etext>
8000021c:	00112623          	sw	ra,12(sp)
80000220:	f29ff0ef          	jal	ra,80000148 <main>
80000224:	0000006f          	j	80000224 <_trm_init+0x14>
