
test/shift-riscv32-ni.elf:     file format elf32-littleriscv


Disassembly of section .text:

80000000 <_start>:
80000000:	00000413          	li	s0,0
80000004:	00001117          	auipc	sp,0x1
80000008:	ffc10113          	addi	sp,sp,-4 # 80001000 <_end>
8000000c:	2a4000ef          	jal	ra,800002b0 <_trm_init>

80000010 <check>:
80000010:	00050463          	beqz	a0,80000018 <check+0x8>
80000014:	00008067          	ret
80000018:	ff010113          	addi	sp,sp,-16
8000001c:	00100513          	li	a0,1
80000020:	00112623          	sw	ra,12(sp)
80000024:	288000ef          	jal	ra,800002ac <halt>

80000028 <main>:
80000028:	fd010113          	addi	sp,sp,-48
8000002c:	02912223          	sw	s1,36(sp)
80000030:	00000497          	auipc	s1,0x0
80000034:	2fc48493          	addi	s1,s1,764 # 8000032c <test>
80000038:	02812423          	sw	s0,40(sp)
8000003c:	01812423          	sw	s8,8(sp)
80000040:	00000417          	auipc	s0,0x0
80000044:	2cc40413          	addi	s0,s0,716 # 8000030c <srl_ans>
80000048:	0004ac03          	lw	s8,0(s1)
8000004c:	00042783          	lw	a5,0(s0)
80000050:	02112623          	sw	ra,44(sp)
80000054:	007c5513          	srli	a0,s8,0x7
80000058:	40f50533          	sub	a0,a0,a5
8000005c:	00153513          	seqz	a0,a0
80000060:	03212023          	sw	s2,32(sp)
80000064:	01312e23          	sw	s3,28(sp)
80000068:	01412c23          	sw	s4,24(sp)
8000006c:	01512a23          	sw	s5,20(sp)
80000070:	01612823          	sw	s6,16(sp)
80000074:	01712623          	sw	s7,12(sp)
80000078:	01912223          	sw	s9,4(sp)
8000007c:	f95ff0ef          	jal	ra,80000010 <check>
80000080:	0044ab83          	lw	s7,4(s1)
80000084:	00442783          	lw	a5,4(s0)
80000088:	007bd513          	srli	a0,s7,0x7
8000008c:	40f50533          	sub	a0,a0,a5
80000090:	00153513          	seqz	a0,a0
80000094:	f7dff0ef          	jal	ra,80000010 <check>
80000098:	0084aa83          	lw	s5,8(s1)
8000009c:	00842783          	lw	a5,8(s0)
800000a0:	007ad513          	srli	a0,s5,0x7
800000a4:	40f50533          	sub	a0,a0,a5
800000a8:	00153513          	seqz	a0,a0
800000ac:	f65ff0ef          	jal	ra,80000010 <check>
800000b0:	00c4ab03          	lw	s6,12(s1)
800000b4:	00c42503          	lw	a0,12(s0)
800000b8:	007b5c93          	srli	s9,s6,0x7
800000bc:	41950533          	sub	a0,a0,s9
800000c0:	00153513          	seqz	a0,a0
800000c4:	f4dff0ef          	jal	ra,80000010 <check>
800000c8:	0104aa03          	lw	s4,16(s1)
800000cc:	01042783          	lw	a5,16(s0)
800000d0:	007a5513          	srli	a0,s4,0x7
800000d4:	40f50533          	sub	a0,a0,a5
800000d8:	00153513          	seqz	a0,a0
800000dc:	f35ff0ef          	jal	ra,80000010 <check>
800000e0:	0144a983          	lw	s3,20(s1)
800000e4:	01442783          	lw	a5,20(s0)
800000e8:	0079d513          	srli	a0,s3,0x7
800000ec:	40f50533          	sub	a0,a0,a5
800000f0:	00153513          	seqz	a0,a0
800000f4:	f1dff0ef          	jal	ra,80000010 <check>
800000f8:	0184a903          	lw	s2,24(s1)
800000fc:	01842783          	lw	a5,24(s0)
80000100:	00795513          	srli	a0,s2,0x7
80000104:	40f50533          	sub	a0,a0,a5
80000108:	00153513          	seqz	a0,a0
8000010c:	f05ff0ef          	jal	ra,80000010 <check>
80000110:	01c4a483          	lw	s1,28(s1)
80000114:	01c42783          	lw	a5,28(s0)
80000118:	00000417          	auipc	s0,0x0
8000011c:	1b440413          	addi	s0,s0,436 # 800002cc <srav_ans>
80000120:	0074d513          	srli	a0,s1,0x7
80000124:	40f50533          	sub	a0,a0,a5
80000128:	00153513          	seqz	a0,a0
8000012c:	ee5ff0ef          	jal	ra,80000010 <check>
80000130:	00042783          	lw	a5,0(s0)
80000134:	404c5513          	srai	a0,s8,0x4
80000138:	004c5c13          	srli	s8,s8,0x4
8000013c:	40f50533          	sub	a0,a0,a5
80000140:	00153513          	seqz	a0,a0
80000144:	ecdff0ef          	jal	ra,80000010 <check>
80000148:	00442783          	lw	a5,4(s0)
8000014c:	405bd513          	srai	a0,s7,0x5
80000150:	005bdb93          	srli	s7,s7,0x5
80000154:	40f50533          	sub	a0,a0,a5
80000158:	00153513          	seqz	a0,a0
8000015c:	eb5ff0ef          	jal	ra,80000010 <check>
80000160:	00842783          	lw	a5,8(s0)
80000164:	406ad513          	srai	a0,s5,0x6
80000168:	40f50533          	sub	a0,a0,a5
8000016c:	00153513          	seqz	a0,a0
80000170:	ea1ff0ef          	jal	ra,80000010 <check>
80000174:	00c42783          	lw	a5,12(s0)
80000178:	407b5513          	srai	a0,s6,0x7
8000017c:	40f50533          	sub	a0,a0,a5
80000180:	00153513          	seqz	a0,a0
80000184:	e8dff0ef          	jal	ra,80000010 <check>
80000188:	01042783          	lw	a5,16(s0)
8000018c:	408a5513          	srai	a0,s4,0x8
80000190:	40f50533          	sub	a0,a0,a5
80000194:	00153513          	seqz	a0,a0
80000198:	e79ff0ef          	jal	ra,80000010 <check>
8000019c:	01442783          	lw	a5,20(s0)
800001a0:	4099d513          	srai	a0,s3,0x9
800001a4:	40f50533          	sub	a0,a0,a5
800001a8:	00153513          	seqz	a0,a0
800001ac:	e65ff0ef          	jal	ra,80000010 <check>
800001b0:	01842783          	lw	a5,24(s0)
800001b4:	40a95513          	srai	a0,s2,0xa
800001b8:	40f50533          	sub	a0,a0,a5
800001bc:	00153513          	seqz	a0,a0
800001c0:	e51ff0ef          	jal	ra,80000010 <check>
800001c4:	01c42783          	lw	a5,28(s0)
800001c8:	40b4d513          	srai	a0,s1,0xb
800001cc:	00000417          	auipc	s0,0x0
800001d0:	12040413          	addi	s0,s0,288 # 800002ec <srlv_ans>
800001d4:	40f50533          	sub	a0,a0,a5
800001d8:	00153513          	seqz	a0,a0
800001dc:	e35ff0ef          	jal	ra,80000010 <check>
800001e0:	00042503          	lw	a0,0(s0)
800001e4:	41850533          	sub	a0,a0,s8
800001e8:	00153513          	seqz	a0,a0
800001ec:	e25ff0ef          	jal	ra,80000010 <check>
800001f0:	00442503          	lw	a0,4(s0)
800001f4:	41750533          	sub	a0,a0,s7
800001f8:	00153513          	seqz	a0,a0
800001fc:	e15ff0ef          	jal	ra,80000010 <check>
80000200:	00842783          	lw	a5,8(s0)
80000204:	006ad513          	srli	a0,s5,0x6
80000208:	40f50533          	sub	a0,a0,a5
8000020c:	00153513          	seqz	a0,a0
80000210:	e01ff0ef          	jal	ra,80000010 <check>
80000214:	00c42503          	lw	a0,12(s0)
80000218:	41950533          	sub	a0,a0,s9
8000021c:	00153513          	seqz	a0,a0
80000220:	df1ff0ef          	jal	ra,80000010 <check>
80000224:	01042783          	lw	a5,16(s0)
80000228:	008a5513          	srli	a0,s4,0x8
8000022c:	40f50533          	sub	a0,a0,a5
80000230:	00153513          	seqz	a0,a0
80000234:	dddff0ef          	jal	ra,80000010 <check>
80000238:	01442783          	lw	a5,20(s0)
8000023c:	0099d513          	srli	a0,s3,0x9
80000240:	40f50533          	sub	a0,a0,a5
80000244:	00153513          	seqz	a0,a0
80000248:	dc9ff0ef          	jal	ra,80000010 <check>
8000024c:	01842783          	lw	a5,24(s0)
80000250:	00a95513          	srli	a0,s2,0xa
80000254:	40f50533          	sub	a0,a0,a5
80000258:	00153513          	seqz	a0,a0
8000025c:	db5ff0ef          	jal	ra,80000010 <check>
80000260:	01c42783          	lw	a5,28(s0)
80000264:	00b4d513          	srli	a0,s1,0xb
80000268:	40f50533          	sub	a0,a0,a5
8000026c:	00153513          	seqz	a0,a0
80000270:	da1ff0ef          	jal	ra,80000010 <check>
80000274:	02c12083          	lw	ra,44(sp)
80000278:	02812403          	lw	s0,40(sp)
8000027c:	02412483          	lw	s1,36(sp)
80000280:	02012903          	lw	s2,32(sp)
80000284:	01c12983          	lw	s3,28(sp)
80000288:	01812a03          	lw	s4,24(sp)
8000028c:	01412a83          	lw	s5,20(sp)
80000290:	00000513          	li	a0,0
80000294:	01012b03          	lw	s6,16(sp)
80000298:	00c12b83          	lw	s7,12(sp)
8000029c:	00812c03          	lw	s8,8(sp)
800002a0:	00412c83          	lw	s9,4(sp)
800002a4:	03010113          	addi	sp,sp,48
800002a8:	00008067          	ret

800002ac <halt>:
800002ac:	0000006f          	j	800002ac <halt>

800002b0 <_trm_init>:
800002b0:	ff010113          	addi	sp,sp,-16
800002b4:	00000517          	auipc	a0,0x0
800002b8:	01450513          	addi	a0,a0,20 # 800002c8 <_etext>
800002bc:	00112623          	sw	ra,12(sp)
800002c0:	d69ff0ef          	jal	ra,80000028 <main>
800002c4:	0000006f          	j	800002c4 <_trm_init+0x14>
