
test/string-riscv32-ni.elf:     file format elf32-littleriscv


Disassembly of section .text:

80000000 <_start>:
80000000:	00000413          	li	s0,0
80000004:	00001117          	auipc	sp,0x1
80000008:	ffc10113          	addi	sp,sp,-4 # 80001000 <_end>
8000000c:	118000ef          	jal	ra,80000124 <_trm_init>

80000010 <check>:
80000010:	00050463          	beqz	a0,80000018 <check+0x8>
80000014:	00008067          	ret
80000018:	ff010113          	addi	sp,sp,-16
8000001c:	00100513          	li	a0,1
80000020:	00112623          	sw	ra,12(sp)
80000024:	0fc000ef          	jal	ra,80000120 <halt>

80000028 <main>:
80000028:	ff010113          	addi	sp,sp,-16
8000002c:	00812423          	sw	s0,8(sp)
80000030:	00000417          	auipc	s0,0x0
80000034:	39440413          	addi	s0,s0,916 # 800003c4 <s>
80000038:	00842583          	lw	a1,8(s0)
8000003c:	00042503          	lw	a0,0(s0)
80000040:	00112623          	sw	ra,12(sp)
80000044:	194000ef          	jal	ra,800001d8 <strcmp>
80000048:	00153513          	seqz	a0,a0
8000004c:	fc5ff0ef          	jal	ra,80000010 <check>
80000050:	00442583          	lw	a1,4(s0)
80000054:	00042503          	lw	a0,0(s0)
80000058:	180000ef          	jal	ra,800001d8 <strcmp>
8000005c:	01f55513          	srli	a0,a0,0x1f
80000060:	fb1ff0ef          	jal	ra,80000010 <check>
80000064:	00442583          	lw	a1,4(s0)
80000068:	00042503          	lw	a0,0(s0)
8000006c:	00158593          	addi	a1,a1,1
80000070:	00150513          	addi	a0,a0,1
80000074:	164000ef          	jal	ra,800001d8 <strcmp>
80000078:	01f55513          	srli	a0,a0,0x1f
8000007c:	f95ff0ef          	jal	ra,80000010 <check>
80000080:	00442583          	lw	a1,4(s0)
80000084:	00042503          	lw	a0,0(s0)
80000088:	00258593          	addi	a1,a1,2
8000008c:	00250513          	addi	a0,a0,2
80000090:	148000ef          	jal	ra,800001d8 <strcmp>
80000094:	01f55513          	srli	a0,a0,0x1f
80000098:	f79ff0ef          	jal	ra,80000010 <check>
8000009c:	00442583          	lw	a1,4(s0)
800000a0:	00042503          	lw	a0,0(s0)
800000a4:	00358593          	addi	a1,a1,3
800000a8:	00350513          	addi	a0,a0,3
800000ac:	12c000ef          	jal	ra,800001d8 <strcmp>
800000b0:	01f55513          	srli	a0,a0,0x1f
800000b4:	f5dff0ef          	jal	ra,80000010 <check>
800000b8:	00000597          	auipc	a1,0x0
800000bc:	30458593          	addi	a1,a1,772 # 800003bc <str1>
800000c0:	00000517          	auipc	a0,0x0
800000c4:	31c50513          	addi	a0,a0,796 # 800003dc <str>
800000c8:	074000ef          	jal	ra,8000013c <strcpy>
800000cc:	00c42583          	lw	a1,12(s0)
800000d0:	0a8000ef          	jal	ra,80000178 <strcat>
800000d4:	01042583          	lw	a1,16(s0)
800000d8:	100000ef          	jal	ra,800001d8 <strcmp>
800000dc:	00153513          	seqz	a0,a0
800000e0:	f31ff0ef          	jal	ra,80000010 <check>
800000e4:	00500613          	li	a2,5
800000e8:	02300593          	li	a1,35
800000ec:	00000517          	auipc	a0,0x0
800000f0:	2f050513          	addi	a0,a0,752 # 800003dc <str>
800000f4:	12c000ef          	jal	ra,80000220 <memset>
800000f8:	01442583          	lw	a1,20(s0)
800000fc:	00500613          	li	a2,5
80000100:	210000ef          	jal	ra,80000310 <memcmp>
80000104:	00153513          	seqz	a0,a0
80000108:	f09ff0ef          	jal	ra,80000010 <check>
8000010c:	00c12083          	lw	ra,12(sp)
80000110:	00812403          	lw	s0,8(sp)
80000114:	00000513          	li	a0,0
80000118:	01010113          	addi	sp,sp,16
8000011c:	00008067          	ret

80000120 <halt>:
80000120:	0000006f          	j	80000120 <halt>

80000124 <_trm_init>:
80000124:	ff010113          	addi	sp,sp,-16
80000128:	00000517          	auipc	a0,0x0
8000012c:	29050513          	addi	a0,a0,656 # 800003b8 <mainargs>
80000130:	00112623          	sw	ra,12(sp)
80000134:	ef5ff0ef          	jal	ra,80000028 <main>
80000138:	0000006f          	j	80000138 <_trm_init+0x14>

8000013c <strcpy>:
8000013c:	0005c703          	lbu	a4,0(a1)
80000140:	02070663          	beqz	a4,8000016c <strcpy+0x30>
80000144:	00000793          	li	a5,0
80000148:	00f506b3          	add	a3,a0,a5
8000014c:	00178793          	addi	a5,a5,1
80000150:	00e68023          	sb	a4,0(a3)
80000154:	00f58733          	add	a4,a1,a5
80000158:	00074703          	lbu	a4,0(a4)
8000015c:	fe0716e3          	bnez	a4,80000148 <strcpy+0xc>
80000160:	00f507b3          	add	a5,a0,a5
80000164:	00078023          	sb	zero,0(a5)
80000168:	00008067          	ret
8000016c:	00050793          	mv	a5,a0
80000170:	00078023          	sb	zero,0(a5)
80000174:	00008067          	ret

80000178 <strcat>:
80000178:	04050863          	beqz	a0,800001c8 <strcat+0x50>
8000017c:	00054783          	lbu	a5,0(a0)
80000180:	04078863          	beqz	a5,800001d0 <strcat+0x58>
80000184:	00000793          	li	a5,0
80000188:	00178793          	addi	a5,a5,1
8000018c:	00f506b3          	add	a3,a0,a5
80000190:	0006c703          	lbu	a4,0(a3)
80000194:	fe071ae3          	bnez	a4,80000188 <strcat+0x10>
80000198:	0005c703          	lbu	a4,0(a1)
8000019c:	02070263          	beqz	a4,800001c0 <strcat+0x48>
800001a0:	00000793          	li	a5,0
800001a4:	00f68633          	add	a2,a3,a5
800001a8:	00178793          	addi	a5,a5,1
800001ac:	00e60023          	sb	a4,0(a2)
800001b0:	00f58733          	add	a4,a1,a5
800001b4:	00074703          	lbu	a4,0(a4)
800001b8:	fe0716e3          	bnez	a4,800001a4 <strcat+0x2c>
800001bc:	00f686b3          	add	a3,a3,a5
800001c0:	00068023          	sb	zero,0(a3)
800001c4:	00008067          	ret
800001c8:	00000693          	li	a3,0
800001cc:	fcdff06f          	j	80000198 <strcat+0x20>
800001d0:	00050693          	mv	a3,a0
800001d4:	fc5ff06f          	j	80000198 <strcat+0x20>

800001d8 <strcmp>:
800001d8:	ffe50813          	addi	a6,a0,-2
800001dc:	01c0006f          	j	800001f8 <strcmp+0x20>
800001e0:	00158613          	addi	a2,a1,1
800001e4:	02070263          	beqz	a4,80000208 <strcmp+0x30>
800001e8:	02e79063          	bne	a5,a4,80000208 <strcmp+0x30>
800001ec:	03068263          	beq	a3,a6,80000210 <strcmp+0x38>
800001f0:	00060593          	mv	a1,a2
800001f4:	00068513          	mv	a0,a3
800001f8:	00054783          	lbu	a5,0(a0)
800001fc:	0005c703          	lbu	a4,0(a1)
80000200:	00150693          	addi	a3,a0,1
80000204:	fc079ee3          	bnez	a5,800001e0 <strcmp+0x8>
80000208:	40e78533          	sub	a0,a5,a4
8000020c:	00008067          	ret
80000210:	00154783          	lbu	a5,1(a0)
80000214:	0015c703          	lbu	a4,1(a1)
80000218:	40e78533          	sub	a0,a5,a4
8000021c:	00008067          	ret

80000220 <memset>:
80000220:	0e060063          	beqz	a2,80000300 <memset+0xe0>
80000224:	40a006b3          	neg	a3,a0
80000228:	fff60813          	addi	a6,a2,-1
8000022c:	00500893          	li	a7,5
80000230:	0ff5f713          	andi	a4,a1,255
80000234:	0036f793          	andi	a5,a3,3
80000238:	0d08f863          	bgeu	a7,a6,80000308 <memset+0xe8>
8000023c:	00000593          	li	a1,0
80000240:	02078663          	beqz	a5,8000026c <memset+0x4c>
80000244:	00e50023          	sb	a4,0(a0)
80000248:	0026f693          	andi	a3,a3,2
8000024c:	00100593          	li	a1,1
80000250:	00068e63          	beqz	a3,8000026c <memset+0x4c>
80000254:	00e500a3          	sb	a4,1(a0)
80000258:	00300693          	li	a3,3
8000025c:	00200593          	li	a1,2
80000260:	00d79663          	bne	a5,a3,8000026c <memset+0x4c>
80000264:	00e50123          	sb	a4,2(a0)
80000268:	00300593          	li	a1,3
8000026c:	00871693          	slli	a3,a4,0x8
80000270:	40f60333          	sub	t1,a2,a5
80000274:	01071893          	slli	a7,a4,0x10
80000278:	00d766b3          	or	a3,a4,a3
8000027c:	01871813          	slli	a6,a4,0x18
80000280:	0116e6b3          	or	a3,a3,a7
80000284:	00f507b3          	add	a5,a0,a5
80000288:	ffc37893          	andi	a7,t1,-4
8000028c:	0106e6b3          	or	a3,a3,a6
80000290:	01178833          	add	a6,a5,a7
80000294:	00d7a023          	sw	a3,0(a5)
80000298:	00478793          	addi	a5,a5,4
8000029c:	ff079ce3          	bne	a5,a6,80000294 <memset+0x74>
800002a0:	011587b3          	add	a5,a1,a7
800002a4:	07130063          	beq	t1,a7,80000304 <memset+0xe4>
800002a8:	00f506b3          	add	a3,a0,a5
800002ac:	00e68023          	sb	a4,0(a3)
800002b0:	00178693          	addi	a3,a5,1
800002b4:	04c6f663          	bgeu	a3,a2,80000300 <memset+0xe0>
800002b8:	00d506b3          	add	a3,a0,a3
800002bc:	00e68023          	sb	a4,0(a3)
800002c0:	00278693          	addi	a3,a5,2
800002c4:	02c6fe63          	bgeu	a3,a2,80000300 <memset+0xe0>
800002c8:	00d506b3          	add	a3,a0,a3
800002cc:	00e68023          	sb	a4,0(a3)
800002d0:	00378693          	addi	a3,a5,3
800002d4:	02c6f663          	bgeu	a3,a2,80000300 <memset+0xe0>
800002d8:	00d506b3          	add	a3,a0,a3
800002dc:	00e68023          	sb	a4,0(a3)
800002e0:	00478693          	addi	a3,a5,4
800002e4:	00c6fe63          	bgeu	a3,a2,80000300 <memset+0xe0>
800002e8:	00d506b3          	add	a3,a0,a3
800002ec:	00e68023          	sb	a4,0(a3)
800002f0:	00578793          	addi	a5,a5,5
800002f4:	00c7f663          	bgeu	a5,a2,80000300 <memset+0xe0>
800002f8:	00f507b3          	add	a5,a0,a5
800002fc:	00e78023          	sb	a4,0(a5)
80000300:	00008067          	ret
80000304:	00008067          	ret
80000308:	00000793          	li	a5,0
8000030c:	f9dff06f          	j	800002a8 <memset+0x88>

80000310 <memcmp>:
80000310:	02060463          	beqz	a2,80000338 <memcmp+0x28>
80000314:	00c50633          	add	a2,a0,a2
80000318:	00054783          	lbu	a5,0(a0)
8000031c:	0005c703          	lbu	a4,0(a1)
80000320:	00e78663          	beq	a5,a4,8000032c <memcmp+0x1c>
80000324:	40e78533          	sub	a0,a5,a4
80000328:	00008067          	ret
8000032c:	00150513          	addi	a0,a0,1
80000330:	00158593          	addi	a1,a1,1
80000334:	fea612e3          	bne	a2,a0,80000318 <memcmp+0x8>
80000338:	00000513          	li	a0,0
8000033c:	00008067          	ret
