
test/switch-riscv32-ni.elf:     file format elf32-littleriscv


Disassembly of section .text:

80000000 <_start>:
80000000:	00000413          	li	s0,0
80000004:	00001117          	auipc	sp,0x1
80000008:	ffc10113          	addi	sp,sp,-4 # 80001000 <_end>
8000000c:	13c000ef          	jal	ra,80000148 <_trm_init>

80000010 <check>:
80000010:	00050463          	beqz	a0,80000018 <check+0x8>
80000014:	00008067          	ret
80000018:	ff010113          	addi	sp,sp,-16
8000001c:	00100513          	li	a0,1
80000020:	00112623          	sw	ra,12(sp)
80000024:	120000ef          	jal	ra,80000144 <halt>

80000028 <main>:
80000028:	ff010113          	addi	sp,sp,-16
8000002c:	00812423          	sw	s0,8(sp)
80000030:	00000417          	auipc	s0,0x0
80000034:	13440413          	addi	s0,s0,308 # 80000164 <ans>
80000038:	00042503          	lw	a0,0(s0)
8000003c:	00112623          	sw	ra,12(sp)
80000040:	00150513          	addi	a0,a0,1
80000044:	00153513          	seqz	a0,a0
80000048:	fc9ff0ef          	jal	ra,80000010 <check>
8000004c:	00442503          	lw	a0,4(s0)
80000050:	00153513          	seqz	a0,a0
80000054:	fbdff0ef          	jal	ra,80000010 <check>
80000058:	00842503          	lw	a0,8(s0)
8000005c:	ffe50513          	addi	a0,a0,-2
80000060:	00153513          	seqz	a0,a0
80000064:	fadff0ef          	jal	ra,80000010 <check>
80000068:	00c42503          	lw	a0,12(s0)
8000006c:	ffb50513          	addi	a0,a0,-5
80000070:	00153513          	seqz	a0,a0
80000074:	f9dff0ef          	jal	ra,80000010 <check>
80000078:	01042503          	lw	a0,16(s0)
8000007c:	ffb50513          	addi	a0,a0,-5
80000080:	00153513          	seqz	a0,a0
80000084:	f8dff0ef          	jal	ra,80000010 <check>
80000088:	01442503          	lw	a0,20(s0)
8000008c:	ff850513          	addi	a0,a0,-8
80000090:	00153513          	seqz	a0,a0
80000094:	f7dff0ef          	jal	ra,80000010 <check>
80000098:	01842503          	lw	a0,24(s0)
8000009c:	ff850513          	addi	a0,a0,-8
800000a0:	00153513          	seqz	a0,a0
800000a4:	f6dff0ef          	jal	ra,80000010 <check>
800000a8:	01c42503          	lw	a0,28(s0)
800000ac:	ff850513          	addi	a0,a0,-8
800000b0:	00153513          	seqz	a0,a0
800000b4:	f5dff0ef          	jal	ra,80000010 <check>
800000b8:	02042503          	lw	a0,32(s0)
800000bc:	ff850513          	addi	a0,a0,-8
800000c0:	00153513          	seqz	a0,a0
800000c4:	f4dff0ef          	jal	ra,80000010 <check>
800000c8:	02442503          	lw	a0,36(s0)
800000cc:	ff650513          	addi	a0,a0,-10
800000d0:	00153513          	seqz	a0,a0
800000d4:	f3dff0ef          	jal	ra,80000010 <check>
800000d8:	02842503          	lw	a0,40(s0)
800000dc:	ff650513          	addi	a0,a0,-10
800000e0:	00153513          	seqz	a0,a0
800000e4:	f2dff0ef          	jal	ra,80000010 <check>
800000e8:	02c42503          	lw	a0,44(s0)
800000ec:	ff650513          	addi	a0,a0,-10
800000f0:	00153513          	seqz	a0,a0
800000f4:	f1dff0ef          	jal	ra,80000010 <check>
800000f8:	03042503          	lw	a0,48(s0)
800000fc:	ff650513          	addi	a0,a0,-10
80000100:	00153513          	seqz	a0,a0
80000104:	f0dff0ef          	jal	ra,80000010 <check>
80000108:	03442503          	lw	a0,52(s0)
8000010c:	ff150513          	addi	a0,a0,-15
80000110:	00153513          	seqz	a0,a0
80000114:	efdff0ef          	jal	ra,80000010 <check>
80000118:	03842503          	lw	a0,56(s0)
8000011c:	00150513          	addi	a0,a0,1
80000120:	00153513          	seqz	a0,a0
80000124:	eedff0ef          	jal	ra,80000010 <check>
80000128:	00100513          	li	a0,1
8000012c:	ee5ff0ef          	jal	ra,80000010 <check>
80000130:	00c12083          	lw	ra,12(sp)
80000134:	00812403          	lw	s0,8(sp)
80000138:	00000513          	li	a0,0
8000013c:	01010113          	addi	sp,sp,16
80000140:	00008067          	ret

80000144 <halt>:
80000144:	0000006f          	j	80000144 <halt>

80000148 <_trm_init>:
80000148:	ff010113          	addi	sp,sp,-16
8000014c:	00000517          	auipc	a0,0x0
80000150:	01450513          	addi	a0,a0,20 # 80000160 <_etext>
80000154:	00112623          	sw	ra,12(sp)
80000158:	ed1ff0ef          	jal	ra,80000028 <main>
8000015c:	0000006f          	j	8000015c <_trm_init+0x14>
