
test/coremark-riscv32-ni.elf:     file format elf32-littleriscv


Disassembly of section .text:

80000000 <_start>:
80000000:	00000413          	li	s0,0
80000004:	0004a117          	auipc	sp,0x4a
80000008:	ffc10113          	addi	sp,sp,-4 # 8004a000 <_end>
8000000c:	4f9020ef          	jal	ra,80002d04 <_trm_init>

80000010 <cmp_complex>:
80000010:	fe010113          	addi	sp,sp,-32
80000014:	00912a23          	sw	s1,20(sp)
80000018:	00051483          	lh	s1,0(a0)
8000001c:	00812c23          	sw	s0,24(sp)
80000020:	01212823          	sw	s2,16(sp)
80000024:	4074d793          	srai	a5,s1,0x7
80000028:	01412423          	sw	s4,8(sp)
8000002c:	00112e23          	sw	ra,28(sp)
80000030:	01312623          	sw	s3,12(sp)
80000034:	0017f793          	andi	a5,a5,1
80000038:	00058913          	mv	s2,a1
8000003c:	00060413          	mv	s0,a2
80000040:	07f4fa13          	andi	s4,s1,127
80000044:	06079c63          	bnez	a5,800000bc <cmp_complex+0xac>
80000048:	4034d713          	srai	a4,s1,0x3
8000004c:	00f77713          	andi	a4,a4,15
80000050:	00471793          	slli	a5,a4,0x4
80000054:	00f70633          	add	a2,a4,a5
80000058:	0074f693          	andi	a3,s1,7
8000005c:	03845783          	lhu	a5,56(s0)
80000060:	00050993          	mv	s3,a0
80000064:	00060713          	mv	a4,a2
80000068:	14068c63          	beqz	a3,800001c0 <cmp_complex+0x1b0>
8000006c:	00100613          	li	a2,1
80000070:	0ec69a63          	bne	a3,a2,80000164 <cmp_complex+0x154>
80000074:	00078613          	mv	a2,a5
80000078:	00070593          	mv	a1,a4
8000007c:	02840513          	addi	a0,s0,40
80000080:	785000ef          	jal	ra,80001004 <core_bench_matrix>
80000084:	03c45783          	lhu	a5,60(s0)
80000088:	01051a13          	slli	s4,a0,0x10
8000008c:	410a5a13          	srai	s4,s4,0x10
80000090:	16079263          	bnez	a5,800001f4 <cmp_complex+0x1e4>
80000094:	03845783          	lhu	a5,56(s0)
80000098:	02a41e23          	sh	a0,60(s0)
8000009c:	00078593          	mv	a1,a5
800000a0:	07fa7a13          	andi	s4,s4,127
800000a4:	f004f493          	andi	s1,s1,-256
800000a8:	155010ef          	jal	ra,800019fc <crcu16>
800000ac:	009a64b3          	or	s1,s4,s1
800000b0:	0804e493          	ori	s1,s1,128
800000b4:	02a41c23          	sh	a0,56(s0)
800000b8:	00999023          	sh	s1,0(s3)
800000bc:	00091483          	lh	s1,0(s2)
800000c0:	4074d793          	srai	a5,s1,0x7
800000c4:	0017f793          	andi	a5,a5,1
800000c8:	07f4f993          	andi	s3,s1,127
800000cc:	06079a63          	bnez	a5,80000140 <cmp_complex+0x130>
800000d0:	4034d713          	srai	a4,s1,0x3
800000d4:	00f77713          	andi	a4,a4,15
800000d8:	00471793          	slli	a5,a4,0x4
800000dc:	00f70633          	add	a2,a4,a5
800000e0:	0074f693          	andi	a3,s1,7
800000e4:	03845783          	lhu	a5,56(s0)
800000e8:	00060713          	mv	a4,a2
800000ec:	08068c63          	beqz	a3,80000184 <cmp_complex+0x174>
800000f0:	00100613          	li	a2,1
800000f4:	08c69063          	bne	a3,a2,80000174 <cmp_complex+0x164>
800000f8:	00078613          	mv	a2,a5
800000fc:	00070593          	mv	a1,a4
80000100:	02840513          	addi	a0,s0,40
80000104:	701000ef          	jal	ra,80001004 <core_bench_matrix>
80000108:	03c45783          	lhu	a5,60(s0)
8000010c:	01051993          	slli	s3,a0,0x10
80000110:	4109d993          	srai	s3,s3,0x10
80000114:	0a079263          	bnez	a5,800001b8 <cmp_complex+0x1a8>
80000118:	03845783          	lhu	a5,56(s0)
8000011c:	02a41e23          	sh	a0,60(s0)
80000120:	00078593          	mv	a1,a5
80000124:	07f9f993          	andi	s3,s3,127
80000128:	f004f493          	andi	s1,s1,-256
8000012c:	0d1010ef          	jal	ra,800019fc <crcu16>
80000130:	0099e4b3          	or	s1,s3,s1
80000134:	0804e493          	ori	s1,s1,128
80000138:	02a41c23          	sh	a0,56(s0)
8000013c:	00991023          	sh	s1,0(s2)
80000140:	01c12083          	lw	ra,28(sp)
80000144:	01812403          	lw	s0,24(sp)
80000148:	413a0533          	sub	a0,s4,s3
8000014c:	01412483          	lw	s1,20(sp)
80000150:	01012903          	lw	s2,16(sp)
80000154:	00c12983          	lw	s3,12(sp)
80000158:	00812a03          	lw	s4,8(sp)
8000015c:	02010113          	addi	sp,sp,32
80000160:	00008067          	ret
80000164:	01049513          	slli	a0,s1,0x10
80000168:	01055513          	srli	a0,a0,0x10
8000016c:	00048a13          	mv	s4,s1
80000170:	f2dff06f          	j	8000009c <cmp_complex+0x8c>
80000174:	01049513          	slli	a0,s1,0x10
80000178:	01055513          	srli	a0,a0,0x10
8000017c:	00048993          	mv	s3,s1
80000180:	fa1ff06f          	j	80000120 <cmp_complex+0x110>
80000184:	02100693          	li	a3,33
80000188:	00c6e463          	bltu	a3,a2,80000190 <cmp_complex+0x180>
8000018c:	02200713          	li	a4,34
80000190:	00241683          	lh	a3,2(s0)
80000194:	00041603          	lh	a2,0(s0)
80000198:	01442583          	lw	a1,20(s0)
8000019c:	01842503          	lw	a0,24(s0)
800001a0:	5d4010ef          	jal	ra,80001774 <core_bench_state>
800001a4:	03e45783          	lhu	a5,62(s0)
800001a8:	01051993          	slli	s3,a0,0x10
800001ac:	4109d993          	srai	s3,s3,0x10
800001b0:	00079463          	bnez	a5,800001b8 <cmp_complex+0x1a8>
800001b4:	02a41f23          	sh	a0,62(s0)
800001b8:	03845783          	lhu	a5,56(s0)
800001bc:	f65ff06f          	j	80000120 <cmp_complex+0x110>
800001c0:	02100693          	li	a3,33
800001c4:	00c6e463          	bltu	a3,a2,800001cc <cmp_complex+0x1bc>
800001c8:	02200713          	li	a4,34
800001cc:	00241683          	lh	a3,2(s0)
800001d0:	00041603          	lh	a2,0(s0)
800001d4:	01442583          	lw	a1,20(s0)
800001d8:	01842503          	lw	a0,24(s0)
800001dc:	598010ef          	jal	ra,80001774 <core_bench_state>
800001e0:	03e45783          	lhu	a5,62(s0)
800001e4:	01051a13          	slli	s4,a0,0x10
800001e8:	410a5a13          	srai	s4,s4,0x10
800001ec:	00079463          	bnez	a5,800001f4 <cmp_complex+0x1e4>
800001f0:	02a41f23          	sh	a0,62(s0)
800001f4:	03845783          	lhu	a5,56(s0)
800001f8:	ea5ff06f          	j	8000009c <cmp_complex+0x8c>

800001fc <core_bench_list>:
800001fc:	00451303          	lh	t1,4(a0)
80000200:	fc010113          	addi	sp,sp,-64
80000204:	02812c23          	sw	s0,56(sp)
80000208:	01712e23          	sw	s7,28(sp)
8000020c:	02112e23          	sw	ra,60(sp)
80000210:	02912a23          	sw	s1,52(sp)
80000214:	03212823          	sw	s2,48(sp)
80000218:	03312623          	sw	s3,44(sp)
8000021c:	03412423          	sw	s4,40(sp)
80000220:	03512223          	sw	s5,36(sp)
80000224:	03612023          	sw	s6,32(sp)
80000228:	01812c23          	sw	s8,24(sp)
8000022c:	01912a23          	sw	s9,20(sp)
80000230:	01a12823          	sw	s10,16(sp)
80000234:	01b12623          	sw	s11,12(sp)
80000238:	02452403          	lw	s0,36(a0)
8000023c:	00050b93          	mv	s7,a0
80000240:	00058813          	mv	a6,a1
80000244:	54605e63          	blez	t1,800007a0 <core_bench_list+0x5a4>
80000248:	5605c863          	bltz	a1,800007b8 <core_bench_list+0x5bc>
8000024c:	58040863          	beqz	s0,800007dc <core_bench_list+0x5e0>
80000250:	00058d13          	mv	s10,a1
80000254:	00000893          	li	a7,0
80000258:	00000593          	li	a1,0
8000025c:	00000513          	li	a0,0
80000260:	00000913          	li	s2,0
80000264:	00000c13          	li	s8,0
80000268:	00040793          	mv	a5,s0
8000026c:	00c0006f          	j	80000278 <core_bench_list+0x7c>
80000270:	0007a783          	lw	a5,0(a5)
80000274:	10078063          	beqz	a5,80000374 <core_bench_list+0x178>
80000278:	0047a703          	lw	a4,4(a5)
8000027c:	00271603          	lh	a2,2(a4)
80000280:	fecd18e3          	bne	s10,a2,80000270 <core_bench_list+0x74>
80000284:	00000693          	li	a3,0
80000288:	0080006f          	j	80000290 <core_bench_list+0x94>
8000028c:	00070413          	mv	s0,a4
80000290:	00042703          	lw	a4,0(s0)
80000294:	00d42023          	sw	a3,0(s0)
80000298:	00040693          	mv	a3,s0
8000029c:	fe0718e3          	bnez	a4,8000028c <core_bench_list+0x90>
800002a0:	0c078e63          	beqz	a5,8000037c <core_bench_list+0x180>
800002a4:	0047a703          	lw	a4,4(a5)
800002a8:	00071703          	lh	a4,0(a4)
800002ac:	00177693          	andi	a3,a4,1
800002b0:	00068c63          	beqz	a3,800002c8 <core_bench_list+0xcc>
800002b4:	40975713          	srai	a4,a4,0x9
800002b8:	00177713          	andi	a4,a4,1
800002bc:	00e90733          	add	a4,s2,a4
800002c0:	01071913          	slli	s2,a4,0x10
800002c4:	01095913          	srli	s2,s2,0x10
800002c8:	0007a703          	lw	a4,0(a5)
800002cc:	00070c63          	beqz	a4,800002e4 <core_bench_list+0xe8>
800002d0:	00072683          	lw	a3,0(a4)
800002d4:	00d7a023          	sw	a3,0(a5)
800002d8:	00042783          	lw	a5,0(s0)
800002dc:	00f72023          	sw	a5,0(a4)
800002e0:	00e42023          	sw	a4,0(s0)
800002e4:	00150513          	addi	a0,a0,1
800002e8:	01051513          	slli	a0,a0,0x10
800002ec:	01055513          	srli	a0,a0,0x10
800002f0:	00158793          	addi	a5,a1,1
800002f4:	01079593          	slli	a1,a5,0x10
800002f8:	4105d593          	srai	a1,a1,0x10
800002fc:	06064063          	bltz	a2,8000035c <core_bench_list+0x160>
80000300:	00160613          	addi	a2,a2,1
80000304:	01061d13          	slli	s10,a2,0x10
80000308:	01079793          	slli	a5,a5,0x10
8000030c:	410d5d13          	srai	s10,s10,0x10
80000310:	0107d793          	srli	a5,a5,0x10
80000314:	08b30c63          	beq	t1,a1,800003ac <core_bench_list+0x1b0>
80000318:	0ff7fc13          	andi	s8,a5,255
8000031c:	000c0693          	mv	a3,s8
80000320:	00040793          	mv	a5,s0
80000324:	ffff8637          	lui	a2,0xffff8
80000328:	f40d50e3          	bgez	s10,80000268 <core_bench_list+0x6c>
8000032c:	0047a703          	lw	a4,4(a5)
80000330:	00074c03          	lbu	s8,0(a4)
80000334:	f58688e3          	beq	a3,s8,80000284 <core_bench_list+0x88>
80000338:	0007a783          	lw	a5,0(a5)
8000033c:	00078c63          	beqz	a5,80000354 <core_bench_list+0x158>
80000340:	0047a703          	lw	a4,4(a5)
80000344:	00074c03          	lbu	s8,0(a4)
80000348:	f3868ee3          	beq	a3,s8,80000284 <core_bench_list+0x88>
8000034c:	0007a783          	lw	a5,0(a5)
80000350:	fe0798e3          	bnez	a5,80000340 <core_bench_list+0x144>
80000354:	00068c13          	mv	s8,a3
80000358:	f2dff06f          	j	80000284 <core_bench_list+0x88>
8000035c:	01079793          	slli	a5,a5,0x10
80000360:	0107d793          	srli	a5,a5,0x10
80000364:	04658263          	beq	a1,t1,800003a8 <core_bench_list+0x1ac>
80000368:	0ff7f693          	andi	a3,a5,255
8000036c:	00040793          	mv	a5,s0
80000370:	fd1ff06f          	j	80000340 <core_bench_list+0x144>
80000374:	000d0613          	mv	a2,s10
80000378:	f0dff06f          	j	80000284 <core_bench_list+0x88>
8000037c:	00042783          	lw	a5,0(s0)
80000380:	00188893          	addi	a7,a7,1
80000384:	01089893          	slli	a7,a7,0x10
80000388:	0047a783          	lw	a5,4(a5)
8000038c:	0108d893          	srli	a7,a7,0x10
80000390:	00178783          	lb	a5,1(a5)
80000394:	0017f793          	andi	a5,a5,1
80000398:	00f907b3          	add	a5,s2,a5
8000039c:	01079913          	slli	s2,a5,0x10
800003a0:	01095913          	srli	s2,s2,0x10
800003a4:	f4dff06f          	j	800002f0 <core_bench_list+0xf4>
800003a8:	00060d13          	mv	s10,a2
800003ac:	00251793          	slli	a5,a0,0x2
800003b0:	411787b3          	sub	a5,a5,a7
800003b4:	00f90933          	add	s2,s2,a5
800003b8:	01091913          	slli	s2,s2,0x10
800003bc:	01095913          	srli	s2,s2,0x10
800003c0:	2b004463          	bgtz	a6,80000668 <core_bench_list+0x46c>
800003c4:	00042783          	lw	a5,0(s0)
800003c8:	00040493          	mv	s1,s0
800003cc:	0007a983          	lw	s3,0(a5)
800003d0:	0047a703          	lw	a4,4(a5)
800003d4:	0049a603          	lw	a2,4(s3)
800003d8:	0009a683          	lw	a3,0(s3)
800003dc:	00c7a223          	sw	a2,4(a5)
800003e0:	00e9a223          	sw	a4,4(s3)
800003e4:	00d7a023          	sw	a3,0(a5)
800003e8:	0009a023          	sw	zero,0(s3)
800003ec:	140d4463          	bltz	s10,80000534 <core_bench_list+0x338>
800003f0:	0044a783          	lw	a5,4(s1)
800003f4:	00279783          	lh	a5,2(a5)
800003f8:	01a78c63          	beq	a5,s10,80000410 <core_bench_list+0x214>
800003fc:	0004a483          	lw	s1,0(s1)
80000400:	24048063          	beqz	s1,80000640 <core_bench_list+0x444>
80000404:	0044a783          	lw	a5,4(s1)
80000408:	00279783          	lh	a5,2(a5)
8000040c:	ffa798e3          	bne	a5,s10,800003fc <core_bench_list+0x200>
80000410:	00442783          	lw	a5,4(s0)
80000414:	00090593          	mv	a1,s2
80000418:	00079503          	lh	a0,0(a5)
8000041c:	4d5010ef          	jal	ra,800020f0 <crc16>
80000420:	0004a483          	lw	s1,0(s1)
80000424:	00050913          	mv	s2,a0
80000428:	fe0494e3          	bnez	s1,80000410 <core_bench_list+0x214>
8000042c:	00042483          	lw	s1,0(s0)
80000430:	0049a703          	lw	a4,4(s3)
80000434:	0044a683          	lw	a3,4(s1)
80000438:	0004a783          	lw	a5,0(s1)
8000043c:	00100e93          	li	t4,1
80000440:	00d9a223          	sw	a3,4(s3)
80000444:	00e4a223          	sw	a4,4(s1)
80000448:	00f9a023          	sw	a5,0(s3)
8000044c:	0134a023          	sw	s3,0(s1)
80000450:	000e8f93          	mv	t6,t4
80000454:	12040e63          	beqz	s0,80000590 <core_bench_list+0x394>
80000458:	00000493          	li	s1,0
8000045c:	00000693          	li	a3,0
80000460:	00000f13          	li	t5,0
80000464:	001f0f13          	addi	t5,t5,1
80000468:	00040613          	mv	a2,s0
8000046c:	00000793          	li	a5,0
80000470:	01d7d863          	bge	a5,t4,80000480 <core_bench_list+0x284>
80000474:	00062603          	lw	a2,0(a2) # ffff8000 <_end+0x7ffae000>
80000478:	00178793          	addi	a5,a5,1
8000047c:	fe061ae3          	bnez	a2,80000470 <core_bench_list+0x274>
80000480:	00068713          	mv	a4,a3
80000484:	000e8593          	mv	a1,t4
80000488:	00040693          	mv	a3,s0
8000048c:	00060413          	mv	s0,a2
80000490:	02f05463          	blez	a5,800004b8 <core_bench_list+0x2bc>
80000494:	0a058863          	beqz	a1,80000544 <core_bench_list+0x348>
80000498:	02041663          	bnez	s0,800004c4 <core_bench_list+0x2c8>
8000049c:	00068613          	mv	a2,a3
800004a0:	fff78793          	addi	a5,a5,-1
800004a4:	0006a683          	lw	a3,0(a3)
800004a8:	06070c63          	beqz	a4,80000520 <core_bench_list+0x324>
800004ac:	00c72023          	sw	a2,0(a4)
800004b0:	00060713          	mv	a4,a2
800004b4:	fef040e3          	bgtz	a5,80000494 <core_bench_list+0x298>
800004b8:	16b05e63          	blez	a1,80000634 <core_bench_list+0x438>
800004bc:	0c040063          	beqz	s0,8000057c <core_bench_list+0x380>
800004c0:	0e078663          	beqz	a5,800005ac <core_bench_list+0x3b0>
800004c4:	0046a803          	lw	a6,4(a3)
800004c8:	00442503          	lw	a0,4(s0)
800004cc:	00081603          	lh	a2,0(a6)
800004d0:	00251303          	lh	t1,2(a0)
800004d4:	00281e03          	lh	t3,2(a6)
800004d8:	01061893          	slli	a7,a2,0x10
800004dc:	0108d893          	srli	a7,a7,0x10
800004e0:	f0067613          	andi	a2,a2,-256
800004e4:	0088d893          	srli	a7,a7,0x8
800004e8:	01166633          	or	a2,a2,a7
800004ec:	00c81023          	sh	a2,0(a6)
800004f0:	00051603          	lh	a2,0(a0)
800004f4:	01061813          	slli	a6,a2,0x10
800004f8:	01085813          	srli	a6,a6,0x10
800004fc:	f0067613          	andi	a2,a2,-256
80000500:	00885813          	srli	a6,a6,0x8
80000504:	01066633          	or	a2,a2,a6
80000508:	00c51023          	sh	a2,0(a0)
8000050c:	f9c358e3          	bge	t1,t3,8000049c <core_bench_list+0x2a0>
80000510:	00040613          	mv	a2,s0
80000514:	fff58593          	addi	a1,a1,-1
80000518:	00042403          	lw	s0,0(s0)
8000051c:	f80718e3          	bnez	a4,800004ac <core_bench_list+0x2b0>
80000520:	00060493          	mv	s1,a2
80000524:	00060713          	mv	a4,a2
80000528:	f8dff06f          	j	800004b4 <core_bench_list+0x2b8>
8000052c:	0004a483          	lw	s1,0(s1)
80000530:	10048863          	beqz	s1,80000640 <core_bench_list+0x444>
80000534:	0044a783          	lw	a5,4(s1)
80000538:	0007c783          	lbu	a5,0(a5)
8000053c:	fefc18e3          	bne	s8,a5,8000052c <core_bench_list+0x330>
80000540:	ed1ff06f          	j	80000410 <core_bench_list+0x214>
80000544:	0006a603          	lw	a2,0(a3)
80000548:	fff78793          	addi	a5,a5,-1
8000054c:	02070063          	beqz	a4,8000056c <core_bench_list+0x370>
80000550:	00d72023          	sw	a3,0(a4)
80000554:	02078063          	beqz	a5,80000574 <core_bench_list+0x378>
80000558:	00068713          	mv	a4,a3
8000055c:	00060693          	mv	a3,a2
80000560:	0006a603          	lw	a2,0(a3)
80000564:	fff78793          	addi	a5,a5,-1
80000568:	fe0714e3          	bnez	a4,80000550 <core_bench_list+0x354>
8000056c:	00068493          	mv	s1,a3
80000570:	fe0794e3          	bnez	a5,80000558 <core_bench_list+0x35c>
80000574:	ee0418e3          	bnez	s0,80000464 <core_bench_list+0x268>
80000578:	00068713          	mv	a4,a3
8000057c:	00072023          	sw	zero,0(a4)
80000580:	05ff0863          	beq	t5,t6,800005d0 <core_bench_list+0x3d4>
80000584:	00048413          	mv	s0,s1
80000588:	001e9e93          	slli	t4,t4,0x1
8000058c:	ec0416e3          	bnez	s0,80000458 <core_bench_list+0x25c>
80000590:	00002023          	sw	zero,0(zero) # 0 <_entry_offset>
80000594:	00100073          	ebreak
80000598:	00040493          	mv	s1,s0
8000059c:	02058263          	beqz	a1,800005c0 <core_bench_list+0x3c4>
800005a0:	00040713          	mv	a4,s0
800005a4:	fc078ce3          	beqz	a5,8000057c <core_bench_list+0x380>
800005a8:	00078413          	mv	s0,a5
800005ac:	00042783          	lw	a5,0(s0)
800005b0:	fff58593          	addi	a1,a1,-1
800005b4:	fe0702e3          	beqz	a4,80000598 <core_bench_list+0x39c>
800005b8:	00872023          	sw	s0,0(a4)
800005bc:	fe0592e3          	bnez	a1,800005a0 <core_bench_list+0x3a4>
800005c0:	00040693          	mv	a3,s0
800005c4:	00078413          	mv	s0,a5
800005c8:	e8041ee3          	bnez	s0,80000464 <core_bench_list+0x268>
800005cc:	fadff06f          	j	80000578 <core_bench_list+0x37c>
800005d0:	0004a403          	lw	s0,0(s1)
800005d4:	02040063          	beqz	s0,800005f4 <core_bench_list+0x3f8>
800005d8:	0044a783          	lw	a5,4(s1)
800005dc:	00090593          	mv	a1,s2
800005e0:	00079503          	lh	a0,0(a5)
800005e4:	30d010ef          	jal	ra,800020f0 <crc16>
800005e8:	00042403          	lw	s0,0(s0)
800005ec:	00050913          	mv	s2,a0
800005f0:	fe0414e3          	bnez	s0,800005d8 <core_bench_list+0x3dc>
800005f4:	03c12083          	lw	ra,60(sp)
800005f8:	03812403          	lw	s0,56(sp)
800005fc:	03412483          	lw	s1,52(sp)
80000600:	02c12983          	lw	s3,44(sp)
80000604:	02812a03          	lw	s4,40(sp)
80000608:	02412a83          	lw	s5,36(sp)
8000060c:	02012b03          	lw	s6,32(sp)
80000610:	01c12b83          	lw	s7,28(sp)
80000614:	01812c03          	lw	s8,24(sp)
80000618:	01412c83          	lw	s9,20(sp)
8000061c:	01012d03          	lw	s10,16(sp)
80000620:	00c12d83          	lw	s11,12(sp)
80000624:	00090513          	mv	a0,s2
80000628:	03012903          	lw	s2,48(sp)
8000062c:	04010113          	addi	sp,sp,64
80000630:	00008067          	ret
80000634:	00070693          	mv	a3,a4
80000638:	e20416e3          	bnez	s0,80000464 <core_bench_list+0x268>
8000063c:	f3dff06f          	j	80000578 <core_bench_list+0x37c>
80000640:	00042483          	lw	s1,0(s0)
80000644:	de0488e3          	beqz	s1,80000434 <core_bench_list+0x238>
80000648:	00442783          	lw	a5,4(s0)
8000064c:	00090593          	mv	a1,s2
80000650:	00079503          	lh	a0,0(a5)
80000654:	29d010ef          	jal	ra,800020f0 <crc16>
80000658:	0004a483          	lw	s1,0(s1)
8000065c:	00050913          	mv	s2,a0
80000660:	da0498e3          	bnez	s1,80000410 <core_bench_list+0x214>
80000664:	dc9ff06f          	j	8000042c <core_bench_list+0x230>
80000668:	00100a93          	li	s5,1
8000066c:	f20402e3          	beqz	s0,80000590 <core_bench_list+0x394>
80000670:	00000b13          	li	s6,0
80000674:	00000a13          	li	s4,0
80000678:	00000c93          	li	s9,0
8000067c:	001c8c93          	addi	s9,s9,1
80000680:	00040713          	mv	a4,s0
80000684:	00000493          	li	s1,0
80000688:	0154d863          	bge	s1,s5,80000698 <core_bench_list+0x49c>
8000068c:	00072703          	lw	a4,0(a4)
80000690:	00148493          	addi	s1,s1,1
80000694:	fe071ae3          	bnez	a4,80000688 <core_bench_list+0x48c>
80000698:	000a0993          	mv	s3,s4
8000069c:	000a8d93          	mv	s11,s5
800006a0:	00040a13          	mv	s4,s0
800006a4:	00070413          	mv	s0,a4
800006a8:	02905463          	blez	s1,800006d0 <core_bench_list+0x4d4>
800006ac:	060d8063          	beqz	s11,8000070c <core_bench_list+0x510>
800006b0:	02041663          	bnez	s0,800006dc <core_bench_list+0x4e0>
800006b4:	000a0713          	mv	a4,s4
800006b8:	fff48493          	addi	s1,s1,-1
800006bc:	000a2a03          	lw	s4,0(s4)
800006c0:	04098063          	beqz	s3,80000700 <core_bench_list+0x504>
800006c4:	00e9a023          	sw	a4,0(s3)
800006c8:	00070993          	mv	s3,a4
800006cc:	fe9040e3          	bgtz	s1,800006ac <core_bench_list+0x4b0>
800006d0:	0db05263          	blez	s11,80000794 <core_bench_list+0x598>
800006d4:	06040863          	beqz	s0,80000744 <core_bench_list+0x548>
800006d8:	08048c63          	beqz	s1,80000770 <core_bench_list+0x574>
800006dc:	00442583          	lw	a1,4(s0)
800006e0:	004a2503          	lw	a0,4(s4)
800006e4:	000b8613          	mv	a2,s7
800006e8:	929ff0ef          	jal	ra,80000010 <cmp_complex>
800006ec:	fca054e3          	blez	a0,800006b4 <core_bench_list+0x4b8>
800006f0:	00040713          	mv	a4,s0
800006f4:	fffd8d93          	addi	s11,s11,-1
800006f8:	00042403          	lw	s0,0(s0)
800006fc:	fc0994e3          	bnez	s3,800006c4 <core_bench_list+0x4c8>
80000700:	00070b13          	mv	s6,a4
80000704:	00070993          	mv	s3,a4
80000708:	fc5ff06f          	j	800006cc <core_bench_list+0x4d0>
8000070c:	000a2783          	lw	a5,0(s4)
80000710:	fff48493          	addi	s1,s1,-1
80000714:	02098063          	beqz	s3,80000734 <core_bench_list+0x538>
80000718:	0149a023          	sw	s4,0(s3)
8000071c:	02048063          	beqz	s1,8000073c <core_bench_list+0x540>
80000720:	000a0993          	mv	s3,s4
80000724:	00078a13          	mv	s4,a5
80000728:	000a2783          	lw	a5,0(s4)
8000072c:	fff48493          	addi	s1,s1,-1
80000730:	fe0994e3          	bnez	s3,80000718 <core_bench_list+0x51c>
80000734:	000a0b13          	mv	s6,s4
80000738:	fe0494e3          	bnez	s1,80000720 <core_bench_list+0x524>
8000073c:	f40410e3          	bnez	s0,8000067c <core_bench_list+0x480>
80000740:	000a0993          	mv	s3,s4
80000744:	0009a023          	sw	zero,0(s3)
80000748:	00100793          	li	a5,1
8000074c:	06fc8263          	beq	s9,a5,800007b0 <core_bench_list+0x5b4>
80000750:	001a9a93          	slli	s5,s5,0x1
80000754:	000b0413          	mv	s0,s6
80000758:	f15ff06f          	j	8000066c <core_bench_list+0x470>
8000075c:	00040b13          	mv	s6,s0
80000760:	020d8263          	beqz	s11,80000784 <core_bench_list+0x588>
80000764:	00040993          	mv	s3,s0
80000768:	fc070ee3          	beqz	a4,80000744 <core_bench_list+0x548>
8000076c:	00070413          	mv	s0,a4
80000770:	00042703          	lw	a4,0(s0)
80000774:	fffd8d93          	addi	s11,s11,-1
80000778:	fe0982e3          	beqz	s3,8000075c <core_bench_list+0x560>
8000077c:	0089a023          	sw	s0,0(s3)
80000780:	fe0d92e3          	bnez	s11,80000764 <core_bench_list+0x568>
80000784:	00040a13          	mv	s4,s0
80000788:	00070413          	mv	s0,a4
8000078c:	ee0418e3          	bnez	s0,8000067c <core_bench_list+0x480>
80000790:	fb1ff06f          	j	80000740 <core_bench_list+0x544>
80000794:	00098a13          	mv	s4,s3
80000798:	ee0412e3          	bnez	s0,8000067c <core_bench_list+0x480>
8000079c:	fa5ff06f          	j	80000740 <core_bench_list+0x544>
800007a0:	00058d13          	mv	s10,a1
800007a4:	00000913          	li	s2,0
800007a8:	00000c13          	li	s8,0
800007ac:	c15ff06f          	j	800003c0 <core_bench_list+0x1c4>
800007b0:	000b0413          	mv	s0,s6
800007b4:	c11ff06f          	j	800003c4 <core_bench_list+0x1c8>
800007b8:	02040263          	beqz	s0,800007dc <core_bench_list+0x5e0>
800007bc:	00058613          	mv	a2,a1
800007c0:	00040793          	mv	a5,s0
800007c4:	00000593          	li	a1,0
800007c8:	00000893          	li	a7,0
800007cc:	00000513          	li	a0,0
800007d0:	00000913          	li	s2,0
800007d4:	00000693          	li	a3,0
800007d8:	b69ff06f          	j	80000340 <core_bench_list+0x144>
800007dc:	00002783          	lw	a5,0(zero) # 0 <_entry_offset>
800007e0:	00100073          	ebreak

800007e4 <core_list_init>:
800007e4:	ccccd737          	lui	a4,0xccccd
800007e8:	ccd70713          	addi	a4,a4,-819 # cccccccd <_end+0x4cc82ccd>
800007ec:	02e537b3          	mulhu	a5,a0,a4
800007f0:	ffff8537          	lui	a0,0xffff8
800007f4:	0005a023          	sw	zero,0(a1)
800007f8:	08050513          	addi	a0,a0,128 # ffff8080 <_end+0x7ffae080>
800007fc:	01058813          	addi	a6,a1,16
80000800:	00060e93          	mv	t4,a2
80000804:	00858693          	addi	a3,a1,8
80000808:	0047d793          	srli	a5,a5,0x4
8000080c:	ffe78713          	addi	a4,a5,-2
80000810:	00371893          	slli	a7,a4,0x3
80000814:	011588b3          	add	a7,a1,a7
80000818:	0115a223          	sw	a7,4(a1)
8000081c:	00a89023          	sh	a0,0(a7)
80000820:	00271f93          	slli	t6,a4,0x2
80000824:	00089123          	sh	zero,2(a7)
80000828:	01f88fb3          	add	t6,a7,t6
8000082c:	00488513          	addi	a0,a7,4
80000830:	ffff87b7          	lui	a5,0xffff8
80000834:	2b187e63          	bgeu	a6,a7,80000af0 <core_list_init+0x30c>
80000838:	00888313          	addi	t1,a7,8
8000083c:	2bf37a63          	bgeu	t1,t6,80000af0 <core_list_init+0x30c>
80000840:	00d5a023          	sw	a3,0(a1)
80000844:	00a5a623          	sw	a0,12(a1)
80000848:	0005a423          	sw	zero,8(a1)
8000084c:	fff7c793          	not	a5,a5
80000850:	fff00e13          	li	t3,-1
80000854:	00068613          	mv	a2,a3
80000858:	00f89323          	sh	a5,6(a7)
8000085c:	00030513          	mv	a0,t1
80000860:	00080693          	mv	a3,a6
80000864:	01c89223          	sh	t3,4(a7)
80000868:	06070e63          	beqz	a4,800008e4 <core_list_init+0x100>
8000086c:	010e9393          	slli	t2,t4,0x10
80000870:	ffff82b7          	lui	t0,0xffff8
80000874:	00868e13          	addi	t3,a3,8
80000878:	0103d393          	srli	t2,t2,0x10
8000087c:	fff2c293          	not	t0,t0
80000880:	00000813          	li	a6,0
80000884:	071e7063          	bgeu	t3,a7,800008e4 <core_list_init+0x100>
80000888:	00450f13          	addi	t5,a0,4
8000088c:	27ff7663          	bgeu	t5,t6,80000af8 <core_list_init+0x314>
80000890:	01081313          	slli	t1,a6,0x10
80000894:	01035313          	srli	t1,t1,0x10
80000898:	0063c7b3          	xor	a5,t2,t1
8000089c:	00379793          	slli	a5,a5,0x3
800008a0:	0787f793          	andi	a5,a5,120
800008a4:	00737313          	andi	t1,t1,7
800008a8:	00c6a023          	sw	a2,0(a3)
800008ac:	0067e7b3          	or	a5,a5,t1
800008b0:	00d5a023          	sw	a3,0(a1)
800008b4:	00879613          	slli	a2,a5,0x8
800008b8:	00a6a223          	sw	a0,4(a3)
800008bc:	00c787b3          	add	a5,a5,a2
800008c0:	00551123          	sh	t0,2(a0)
800008c4:	00180813          	addi	a6,a6,1
800008c8:	00f51023          	sh	a5,0(a0)
800008cc:	21070a63          	beq	a4,a6,80000ae0 <core_list_init+0x2fc>
800008d0:	00068613          	mv	a2,a3
800008d4:	000e0693          	mv	a3,t3
800008d8:	00868e13          	addi	t3,a3,8
800008dc:	000f0513          	mv	a0,t5
800008e0:	fb1e64e3          	bltu	t3,a7,80000888 <core_list_init+0xa4>
800008e4:	00062503          	lw	a0,0(a2)
800008e8:	08050063          	beqz	a0,80000968 <core_list_init+0x184>
800008ec:	ccccd7b7          	lui	a5,0xccccd
800008f0:	ccd78793          	addi	a5,a5,-819 # cccccccd <_end+0x4cc82ccd>
800008f4:	02f73733          	mulhu	a4,a4,a5
800008f8:	00004337          	lui	t1,0x4
800008fc:	fff30313          	addi	t1,t1,-1 # 3fff <_entry_offset+0x3fff>
80000900:	20000793          	li	a5,512
80000904:	00100693          	li	a3,1
80000908:	00275713          	srli	a4,a4,0x2
8000090c:	0280006f          	j	80000934 <core_list_init+0x150>
80000910:	00052803          	lw	a6,0(a0)
80000914:	10078793          	addi	a5,a5,256
80000918:	00d89123          	sh	a3,2(a7)
8000091c:	01079793          	slli	a5,a5,0x10
80000920:	0107d793          	srli	a5,a5,0x10
80000924:	00168693          	addi	a3,a3,1
80000928:	04080063          	beqz	a6,80000968 <core_list_init+0x184>
8000092c:	00050613          	mv	a2,a0
80000930:	00080513          	mv	a0,a6
80000934:	00462883          	lw	a7,4(a2)
80000938:	fce6ece3          	bltu	a3,a4,80000910 <core_list_init+0x12c>
8000093c:	00dec833          	xor	a6,t4,a3
80000940:	7007f613          	andi	a2,a5,1792
80000944:	01066633          	or	a2,a2,a6
80000948:	00052803          	lw	a6,0(a0)
8000094c:	00667633          	and	a2,a2,t1
80000950:	10078793          	addi	a5,a5,256
80000954:	01079793          	slli	a5,a5,0x10
80000958:	00c89123          	sh	a2,2(a7)
8000095c:	0107d793          	srli	a5,a5,0x10
80000960:	00168693          	addi	a3,a3,1
80000964:	fc0814e3          	bnez	a6,8000092c <core_list_init+0x148>
80000968:	00100f93          	li	t6,1
8000096c:	000f8393          	mv	t2,t6
80000970:	00000513          	li	a0,0
80000974:	00000693          	li	a3,0
80000978:	00000293          	li	t0,0
8000097c:	00128293          	addi	t0,t0,1 # ffff8001 <_end+0x7ffae001>
80000980:	00058713          	mv	a4,a1
80000984:	00000793          	li	a5,0
80000988:	01f7d863          	bge	a5,t6,80000998 <core_list_init+0x1b4>
8000098c:	00072703          	lw	a4,0(a4)
80000990:	00178793          	addi	a5,a5,1
80000994:	fe071ae3          	bnez	a4,80000988 <core_list_init+0x1a4>
80000998:	000f8813          	mv	a6,t6
8000099c:	02f05463          	blez	a5,800009c4 <core_list_init+0x1e0>
800009a0:	08080c63          	beqz	a6,80000a38 <core_list_init+0x254>
800009a4:	02071663          	bnez	a4,800009d0 <core_list_init+0x1ec>
800009a8:	00058613          	mv	a2,a1
800009ac:	fff78793          	addi	a5,a5,-1
800009b0:	0005a583          	lw	a1,0(a1)
800009b4:	06068c63          	beqz	a3,80000a2c <core_list_init+0x248>
800009b8:	00c6a023          	sw	a2,0(a3)
800009bc:	00060693          	mv	a3,a2
800009c0:	fef040e3          	bgtz	a5,800009a0 <core_list_init+0x1bc>
800009c4:	13005263          	blez	a6,80000ae8 <core_list_init+0x304>
800009c8:	0e070463          	beqz	a4,80000ab0 <core_list_init+0x2cc>
800009cc:	0c078263          	beqz	a5,80000a90 <core_list_init+0x2ac>
800009d0:	0045a303          	lw	t1,4(a1)
800009d4:	00472883          	lw	a7,4(a4)
800009d8:	00031603          	lh	a2,0(t1)
800009dc:	00289e83          	lh	t4,2(a7)
800009e0:	00231f03          	lh	t5,2(t1)
800009e4:	01061e13          	slli	t3,a2,0x10
800009e8:	010e5e13          	srli	t3,t3,0x10
800009ec:	f0067613          	andi	a2,a2,-256
800009f0:	008e5e13          	srli	t3,t3,0x8
800009f4:	01c66633          	or	a2,a2,t3
800009f8:	00c31023          	sh	a2,0(t1)
800009fc:	00089603          	lh	a2,0(a7)
80000a00:	01061313          	slli	t1,a2,0x10
80000a04:	01035313          	srli	t1,t1,0x10
80000a08:	f0067613          	andi	a2,a2,-256
80000a0c:	00835313          	srli	t1,t1,0x8
80000a10:	00666633          	or	a2,a2,t1
80000a14:	00c89023          	sh	a2,0(a7)
80000a18:	f9eed8e3          	bge	t4,t5,800009a8 <core_list_init+0x1c4>
80000a1c:	00070613          	mv	a2,a4
80000a20:	fff80813          	addi	a6,a6,-1
80000a24:	00072703          	lw	a4,0(a4)
80000a28:	f80698e3          	bnez	a3,800009b8 <core_list_init+0x1d4>
80000a2c:	00060513          	mv	a0,a2
80000a30:	00060693          	mv	a3,a2
80000a34:	f8dff06f          	j	800009c0 <core_list_init+0x1dc>
80000a38:	0005a603          	lw	a2,0(a1)
80000a3c:	fff78793          	addi	a5,a5,-1
80000a40:	02068063          	beqz	a3,80000a60 <core_list_init+0x27c>
80000a44:	00b6a023          	sw	a1,0(a3)
80000a48:	02078063          	beqz	a5,80000a68 <core_list_init+0x284>
80000a4c:	00058693          	mv	a3,a1
80000a50:	00060593          	mv	a1,a2
80000a54:	0005a603          	lw	a2,0(a1)
80000a58:	fff78793          	addi	a5,a5,-1
80000a5c:	fe0694e3          	bnez	a3,80000a44 <core_list_init+0x260>
80000a60:	00058513          	mv	a0,a1
80000a64:	fe0794e3          	bnez	a5,80000a4c <core_list_init+0x268>
80000a68:	00058693          	mv	a3,a1
80000a6c:	04070263          	beqz	a4,80000ab0 <core_list_init+0x2cc>
80000a70:	00058693          	mv	a3,a1
80000a74:	00070593          	mv	a1,a4
80000a78:	f05ff06f          	j	8000097c <core_list_init+0x198>
80000a7c:	00070513          	mv	a0,a4
80000a80:	02080263          	beqz	a6,80000aa4 <core_list_init+0x2c0>
80000a84:	00070693          	mv	a3,a4
80000a88:	02078463          	beqz	a5,80000ab0 <core_list_init+0x2cc>
80000a8c:	00078713          	mv	a4,a5
80000a90:	00072783          	lw	a5,0(a4)
80000a94:	fff80813          	addi	a6,a6,-1
80000a98:	fe0682e3          	beqz	a3,80000a7c <core_list_init+0x298>
80000a9c:	00e6a023          	sw	a4,0(a3)
80000aa0:	fe0812e3          	bnez	a6,80000a84 <core_list_init+0x2a0>
80000aa4:	00070593          	mv	a1,a4
80000aa8:	00078713          	mv	a4,a5
80000aac:	fbdff06f          	j	80000a68 <core_list_init+0x284>
80000ab0:	0006a023          	sw	zero,0(a3)
80000ab4:	02728463          	beq	t0,t2,80000adc <core_list_init+0x2f8>
80000ab8:	001f9f93          	slli	t6,t6,0x1
80000abc:	00050c63          	beqz	a0,80000ad4 <core_list_init+0x2f0>
80000ac0:	00050713          	mv	a4,a0
80000ac4:	00000593          	li	a1,0
80000ac8:	00000513          	li	a0,0
80000acc:	00000293          	li	t0,0
80000ad0:	fa1ff06f          	j	80000a70 <core_list_init+0x28c>
80000ad4:	00002023          	sw	zero,0(zero) # 0 <_entry_offset>
80000ad8:	00100073          	ebreak
80000adc:	00008067          	ret
80000ae0:	00068613          	mv	a2,a3
80000ae4:	e01ff06f          	j	800008e4 <core_list_init+0x100>
80000ae8:	00068593          	mv	a1,a3
80000aec:	f7dff06f          	j	80000a68 <core_list_init+0x284>
80000af0:	00000613          	li	a2,0
80000af4:	d75ff06f          	j	80000868 <core_list_init+0x84>
80000af8:	00180813          	addi	a6,a6,1
80000afc:	df0704e3          	beq	a4,a6,800008e4 <core_list_init+0x100>
80000b00:	00068e13          	mv	t3,a3
80000b04:	00050f13          	mv	t5,a0
80000b08:	00060693          	mv	a3,a2
80000b0c:	dc5ff06f          	j	800008d0 <core_list_init+0xec>

80000b10 <matrix_test>:
80000b10:	fd010113          	addi	sp,sp,-48
80000b14:	03212023          	sw	s2,32(sp)
80000b18:	02112623          	sw	ra,44(sp)
80000b1c:	fffff937          	lui	s2,0xfffff
80000b20:	01276933          	or	s2,a4,s2
80000b24:	48050e63          	beqz	a0,80000fc0 <matrix_test+0x4b0>
80000b28:	02912223          	sw	s1,36(sp)
80000b2c:	00151493          	slli	s1,a0,0x1
80000b30:	01312e23          	sw	s3,28(sp)
80000b34:	01412c23          	sw	s4,24(sp)
80000b38:	01712623          	sw	s7,12(sp)
80000b3c:	40a00a33          	neg	s4,a0
80000b40:	00060b93          	mv	s7,a2
80000b44:	01071993          	slli	s3,a4,0x10
80000b48:	00960633          	add	a2,a2,s1
80000b4c:	01512a23          	sw	s5,20(sp)
80000b50:	01612823          	sw	s6,16(sp)
80000b54:	02812423          	sw	s0,40(sp)
80000b58:	00068b13          	mv	s6,a3
80000b5c:	01812423          	sw	s8,8(sp)
80000b60:	00070893          	mv	a7,a4
80000b64:	00050313          	mv	t1,a0
80000b68:	00058a93          	mv	s5,a1
80000b6c:	00060693          	mv	a3,a2
80000b70:	002a1a13          	slli	s4,s4,0x2
80000b74:	0109d993          	srli	s3,s3,0x10
80000b78:	00000813          	li	a6,0
80000b7c:	409685b3          	sub	a1,a3,s1
80000b80:	00058793          	mv	a5,a1
80000b84:	0007d703          	lhu	a4,0(a5)
80000b88:	00278793          	addi	a5,a5,2
80000b8c:	00e98733          	add	a4,s3,a4
80000b90:	fee79f23          	sh	a4,-2(a5)
80000b94:	fed798e3          	bne	a5,a3,80000b84 <matrix_test+0x74>
80000b98:	00180413          	addi	s0,a6,1
80000b9c:	414586b3          	sub	a3,a1,s4
80000ba0:	00830663          	beq	t1,s0,80000bac <matrix_test+0x9c>
80000ba4:	00040813          	mv	a6,s0
80000ba8:	fd5ff06f          	j	80000b7c <matrix_test+0x6c>
80000bac:	00000593          	li	a1,0
80000bb0:	00000513          	li	a0,0
80000bb4:	40960333          	sub	t1,a2,s1
80000bb8:	00259693          	slli	a3,a1,0x2
80000bbc:	00030793          	mv	a5,t1
80000bc0:	015686b3          	add	a3,a3,s5
80000bc4:	00079703          	lh	a4,0(a5)
80000bc8:	00278793          	addi	a5,a5,2
80000bcc:	00468693          	addi	a3,a3,4
80000bd0:	03170733          	mul	a4,a4,a7
80000bd4:	fee6ae23          	sw	a4,-4(a3)
80000bd8:	fef616e3          	bne	a2,a5,80000bc4 <matrix_test+0xb4>
80000bdc:	008585b3          	add	a1,a1,s0
80000be0:	41430633          	sub	a2,t1,s4
80000be4:	00150793          	addi	a5,a0,1
80000be8:	01050663          	beq	a0,a6,80000bf4 <matrix_test+0xe4>
80000bec:	00078513          	mv	a0,a5
80000bf0:	fc5ff06f          	j	80000bb4 <matrix_test+0xa4>
80000bf4:	414a8c33          	sub	s8,s5,s4
80000bf8:	40800eb3          	neg	t4,s0
80000bfc:	000c0893          	mv	a7,s8
80000c00:	003e9e93          	slli	t4,t4,0x3
80000c04:	00000693          	li	a3,0
80000c08:	00000593          	li	a1,0
80000c0c:	00000513          	li	a0,0
80000c10:	00000313          	li	t1,0
80000c14:	01488e33          	add	t3,a7,s4
80000c18:	000e0713          	mv	a4,t3
80000c1c:	0140006f          	j	80000c30 <matrix_test+0x120>
80000c20:	01079513          	slli	a0,a5,0x10
80000c24:	00470713          	addi	a4,a4,4
80000c28:	41055513          	srai	a0,a0,0x10
80000c2c:	02e88e63          	beq	a7,a4,80000c68 <matrix_test+0x158>
80000c30:	00068613          	mv	a2,a3
80000c34:	01051793          	slli	a5,a0,0x10
80000c38:	00072683          	lw	a3,0(a4)
80000c3c:	0107d793          	srli	a5,a5,0x10
80000c40:	00a78513          	addi	a0,a5,10
80000c44:	00d62633          	slt	a2,a2,a3
80000c48:	01051513          	slli	a0,a0,0x10
80000c4c:	00d585b3          	add	a1,a1,a3
80000c50:	41055513          	srai	a0,a0,0x10
80000c54:	00c787b3          	add	a5,a5,a2
80000c58:	fcb954e3          	bge	s2,a1,80000c20 <matrix_test+0x110>
80000c5c:	00470713          	addi	a4,a4,4
80000c60:	00000593          	li	a1,0
80000c64:	fce896e3          	bne	a7,a4,80000c30 <matrix_test+0x120>
80000c68:	41de08b3          	sub	a7,t3,t4
80000c6c:	00130793          	addi	a5,t1,1
80000c70:	00680663          	beq	a6,t1,80000c7c <matrix_test+0x16c>
80000c74:	00078313          	mv	t1,a5
80000c78:	f9dff06f          	j	80000c14 <matrix_test+0x104>
80000c7c:	00000593          	li	a1,0
80000c80:	470010ef          	jal	ra,800020f0 <crc16>
80000c84:	00050593          	mv	a1,a0
80000c88:	009b0833          	add	a6,s6,s1
80000c8c:	000a8893          	mv	a7,s5
80000c90:	00000313          	li	t1,0
80000c94:	00131693          	slli	a3,t1,0x1
80000c98:	00db86b3          	add	a3,s7,a3
80000c9c:	000b0793          	mv	a5,s6
80000ca0:	00000613          	li	a2,0
80000ca4:	00069703          	lh	a4,0(a3)
80000ca8:	00079503          	lh	a0,0(a5)
80000cac:	00278793          	addi	a5,a5,2
80000cb0:	00268693          	addi	a3,a3,2
80000cb4:	02a70733          	mul	a4,a4,a0
80000cb8:	00e60633          	add	a2,a2,a4
80000cbc:	ff0794e3          	bne	a5,a6,80000ca4 <matrix_test+0x194>
80000cc0:	00c8a023          	sw	a2,0(a7)
80000cc4:	00488893          	addi	a7,a7,4
80000cc8:	00830333          	add	t1,t1,s0
80000ccc:	fd8894e3          	bne	a7,s8,80000c94 <matrix_test+0x184>
80000cd0:	00000e13          	li	t3,0
80000cd4:	00000713          	li	a4,0
80000cd8:	00000613          	li	a2,0
80000cdc:	00000513          	li	a0,0
80000ce0:	00000313          	li	t1,0
80000ce4:	002e1813          	slli	a6,t3,0x2
80000ce8:	010a8833          	add	a6,s5,a6
80000cec:	00000893          	li	a7,0
80000cf0:	0180006f          	j	80000d08 <matrix_test+0x1f8>
80000cf4:	01079513          	slli	a0,a5,0x10
80000cf8:	00188893          	addi	a7,a7,1
80000cfc:	41055513          	srai	a0,a0,0x10
80000d00:	00480813          	addi	a6,a6,4
80000d04:	0488f063          	bgeu	a7,s0,80000d44 <matrix_test+0x234>
80000d08:	00070693          	mv	a3,a4
80000d0c:	01051793          	slli	a5,a0,0x10
80000d10:	00082703          	lw	a4,0(a6)
80000d14:	0107d793          	srli	a5,a5,0x10
80000d18:	00a78513          	addi	a0,a5,10
80000d1c:	00e6a6b3          	slt	a3,a3,a4
80000d20:	01051513          	slli	a0,a0,0x10
80000d24:	00e60633          	add	a2,a2,a4
80000d28:	41055513          	srai	a0,a0,0x10
80000d2c:	00d787b3          	add	a5,a5,a3
80000d30:	fcc952e3          	bge	s2,a2,80000cf4 <matrix_test+0x1e4>
80000d34:	00188893          	addi	a7,a7,1
80000d38:	00000613          	li	a2,0
80000d3c:	00480813          	addi	a6,a6,4
80000d40:	fc88e4e3          	bltu	a7,s0,80000d08 <matrix_test+0x1f8>
80000d44:	00130313          	addi	t1,t1,1
80000d48:	008e0e33          	add	t3,t3,s0
80000d4c:	f8836ce3          	bltu	t1,s0,80000ce4 <matrix_test+0x1d4>
80000d50:	3a0010ef          	jal	ra,800020f0 <crc16>
80000d54:	00050593          	mv	a1,a0
80000d58:	000a8f93          	mv	t6,s5
80000d5c:	000b8e93          	mv	t4,s7
80000d60:	00000f13          	li	t5,0
80000d64:	000b0e13          	mv	t3,s6
80000d68:	000f8313          	mv	t1,t6
80000d6c:	00000893          	li	a7,0
80000d70:	000e0613          	mv	a2,t3
80000d74:	000e8693          	mv	a3,t4
80000d78:	00000513          	li	a0,0
80000d7c:	00000713          	li	a4,0
80000d80:	00069783          	lh	a5,0(a3)
80000d84:	00061803          	lh	a6,0(a2)
80000d88:	00170713          	addi	a4,a4,1
80000d8c:	00268693          	addi	a3,a3,2
80000d90:	030787b3          	mul	a5,a5,a6
80000d94:	00960633          	add	a2,a2,s1
80000d98:	00f50533          	add	a0,a0,a5
80000d9c:	fe8762e3          	bltu	a4,s0,80000d80 <matrix_test+0x270>
80000da0:	00a32023          	sw	a0,0(t1)
80000da4:	00188893          	addi	a7,a7,1
80000da8:	00430313          	addi	t1,t1,4
80000dac:	002e0e13          	addi	t3,t3,2
80000db0:	fc88e0e3          	bltu	a7,s0,80000d70 <matrix_test+0x260>
80000db4:	001f0f13          	addi	t5,t5,1
80000db8:	009e8eb3          	add	t4,t4,s1
80000dbc:	414f8fb3          	sub	t6,t6,s4
80000dc0:	fa8f62e3          	bltu	t5,s0,80000d64 <matrix_test+0x254>
80000dc4:	00000e13          	li	t3,0
80000dc8:	00000713          	li	a4,0
80000dcc:	00000613          	li	a2,0
80000dd0:	00000513          	li	a0,0
80000dd4:	00000313          	li	t1,0
80000dd8:	002e1813          	slli	a6,t3,0x2
80000ddc:	010a8833          	add	a6,s5,a6
80000de0:	00000893          	li	a7,0
80000de4:	0180006f          	j	80000dfc <matrix_test+0x2ec>
80000de8:	01079513          	slli	a0,a5,0x10
80000dec:	00188893          	addi	a7,a7,1
80000df0:	41055513          	srai	a0,a0,0x10
80000df4:	00480813          	addi	a6,a6,4
80000df8:	0488f063          	bgeu	a7,s0,80000e38 <matrix_test+0x328>
80000dfc:	00070693          	mv	a3,a4
80000e00:	01051793          	slli	a5,a0,0x10
80000e04:	00082703          	lw	a4,0(a6)
80000e08:	0107d793          	srli	a5,a5,0x10
80000e0c:	00a78513          	addi	a0,a5,10
80000e10:	00e6a6b3          	slt	a3,a3,a4
80000e14:	01051513          	slli	a0,a0,0x10
80000e18:	00e60633          	add	a2,a2,a4
80000e1c:	41055513          	srai	a0,a0,0x10
80000e20:	00d787b3          	add	a5,a5,a3
80000e24:	fcc952e3          	bge	s2,a2,80000de8 <matrix_test+0x2d8>
80000e28:	00188893          	addi	a7,a7,1
80000e2c:	00000613          	li	a2,0
80000e30:	00480813          	addi	a6,a6,4
80000e34:	fc88e4e3          	bltu	a7,s0,80000dfc <matrix_test+0x2ec>
80000e38:	00130313          	addi	t1,t1,1
80000e3c:	008e0e33          	add	t3,t3,s0
80000e40:	f8836ce3          	bltu	t1,s0,80000dd8 <matrix_test+0x2c8>
80000e44:	2ac010ef          	jal	ra,800020f0 <crc16>
80000e48:	00050593          	mv	a1,a0
80000e4c:	000a8f93          	mv	t6,s5
80000e50:	000b8e93          	mv	t4,s7
80000e54:	00000f13          	li	t5,0
80000e58:	000b0e13          	mv	t3,s6
80000e5c:	000f8313          	mv	t1,t6
80000e60:	00000893          	li	a7,0
80000e64:	000e0513          	mv	a0,t3
80000e68:	000e8613          	mv	a2,t4
80000e6c:	00000813          	li	a6,0
80000e70:	00000693          	li	a3,0
80000e74:	00051703          	lh	a4,0(a0)
80000e78:	00061783          	lh	a5,0(a2)
80000e7c:	00168693          	addi	a3,a3,1
80000e80:	00260613          	addi	a2,a2,2
80000e84:	02e787b3          	mul	a5,a5,a4
80000e88:	00950533          	add	a0,a0,s1
80000e8c:	4027d713          	srai	a4,a5,0x2
80000e90:	4057d793          	srai	a5,a5,0x5
80000e94:	00f77713          	andi	a4,a4,15
80000e98:	07f7f793          	andi	a5,a5,127
80000e9c:	02f707b3          	mul	a5,a4,a5
80000ea0:	00f80833          	add	a6,a6,a5
80000ea4:	fc86e8e3          	bltu	a3,s0,80000e74 <matrix_test+0x364>
80000ea8:	01032023          	sw	a6,0(t1)
80000eac:	00188893          	addi	a7,a7,1
80000eb0:	00430313          	addi	t1,t1,4
80000eb4:	002e0e13          	addi	t3,t3,2
80000eb8:	fa88e6e3          	bltu	a7,s0,80000e64 <matrix_test+0x354>
80000ebc:	001f0f13          	addi	t5,t5,1
80000ec0:	009e8eb3          	add	t4,t4,s1
80000ec4:	414f8fb3          	sub	t6,t6,s4
80000ec8:	f88f68e3          	bltu	t5,s0,80000e58 <matrix_test+0x348>
80000ecc:	00000e13          	li	t3,0
80000ed0:	00000713          	li	a4,0
80000ed4:	00000613          	li	a2,0
80000ed8:	00000513          	li	a0,0
80000edc:	00000313          	li	t1,0
80000ee0:	002e1813          	slli	a6,t3,0x2
80000ee4:	010a8833          	add	a6,s5,a6
80000ee8:	00000893          	li	a7,0
80000eec:	0180006f          	j	80000f04 <matrix_test+0x3f4>
80000ef0:	01079513          	slli	a0,a5,0x10
80000ef4:	00188893          	addi	a7,a7,1
80000ef8:	41055513          	srai	a0,a0,0x10
80000efc:	00480813          	addi	a6,a6,4
80000f00:	0488f063          	bgeu	a7,s0,80000f40 <matrix_test+0x430>
80000f04:	00070693          	mv	a3,a4
80000f08:	01051793          	slli	a5,a0,0x10
80000f0c:	00082703          	lw	a4,0(a6)
80000f10:	0107d793          	srli	a5,a5,0x10
80000f14:	00a78513          	addi	a0,a5,10
80000f18:	00e6a6b3          	slt	a3,a3,a4
80000f1c:	01051513          	slli	a0,a0,0x10
80000f20:	00e60633          	add	a2,a2,a4
80000f24:	41055513          	srai	a0,a0,0x10
80000f28:	00d787b3          	add	a5,a5,a3
80000f2c:	fcc952e3          	bge	s2,a2,80000ef0 <matrix_test+0x3e0>
80000f30:	00188893          	addi	a7,a7,1
80000f34:	00000613          	li	a2,0
80000f38:	00480813          	addi	a6,a6,4
80000f3c:	fc88e4e3          	bltu	a7,s0,80000f04 <matrix_test+0x3f4>
80000f40:	00130313          	addi	t1,t1,1
80000f44:	008e0e33          	add	t3,t3,s0
80000f48:	f8836ce3          	bltu	t1,s0,80000ee0 <matrix_test+0x3d0>
80000f4c:	1a4010ef          	jal	ra,800020f0 <crc16>
80000f50:	00000593          	li	a1,0
80000f54:	00000613          	li	a2,0
80000f58:	00159793          	slli	a5,a1,0x1
80000f5c:	00fb87b3          	add	a5,s7,a5
80000f60:	00000693          	li	a3,0
80000f64:	0007d703          	lhu	a4,0(a5)
80000f68:	00168693          	addi	a3,a3,1
80000f6c:	00278793          	addi	a5,a5,2
80000f70:	41370733          	sub	a4,a4,s3
80000f74:	fee79f23          	sh	a4,-2(a5)
80000f78:	fe86e6e3          	bltu	a3,s0,80000f64 <matrix_test+0x454>
80000f7c:	00160613          	addi	a2,a2,1
80000f80:	008585b3          	add	a1,a1,s0
80000f84:	fc866ae3          	bltu	a2,s0,80000f58 <matrix_test+0x448>
80000f88:	02812403          	lw	s0,40(sp)
80000f8c:	02c12083          	lw	ra,44(sp)
80000f90:	01051513          	slli	a0,a0,0x10
80000f94:	02412483          	lw	s1,36(sp)
80000f98:	01c12983          	lw	s3,28(sp)
80000f9c:	01812a03          	lw	s4,24(sp)
80000fa0:	01412a83          	lw	s5,20(sp)
80000fa4:	01012b03          	lw	s6,16(sp)
80000fa8:	00c12b83          	lw	s7,12(sp)
80000fac:	00812c03          	lw	s8,8(sp)
80000fb0:	02012903          	lw	s2,32(sp)
80000fb4:	41055513          	srai	a0,a0,0x10
80000fb8:	03010113          	addi	sp,sp,48
80000fbc:	00008067          	ret
80000fc0:	00000593          	li	a1,0
80000fc4:	12c010ef          	jal	ra,800020f0 <crc16>
80000fc8:	00050593          	mv	a1,a0
80000fcc:	00000513          	li	a0,0
80000fd0:	120010ef          	jal	ra,800020f0 <crc16>
80000fd4:	00050593          	mv	a1,a0
80000fd8:	00000513          	li	a0,0
80000fdc:	114010ef          	jal	ra,800020f0 <crc16>
80000fe0:	00050593          	mv	a1,a0
80000fe4:	00000513          	li	a0,0
80000fe8:	108010ef          	jal	ra,800020f0 <crc16>
80000fec:	02c12083          	lw	ra,44(sp)
80000ff0:	01051513          	slli	a0,a0,0x10
80000ff4:	02012903          	lw	s2,32(sp)
80000ff8:	41055513          	srai	a0,a0,0x10
80000ffc:	03010113          	addi	sp,sp,48
80001000:	00008067          	ret

80001004 <core_bench_matrix>:
80001004:	ff010113          	addi	sp,sp,-16
80001008:	00812423          	sw	s0,8(sp)
8000100c:	00852683          	lw	a3,8(a0)
80001010:	00060413          	mv	s0,a2
80001014:	00058713          	mv	a4,a1
80001018:	00452603          	lw	a2,4(a0)
8000101c:	00c52583          	lw	a1,12(a0)
80001020:	00052503          	lw	a0,0(a0)
80001024:	00112623          	sw	ra,12(sp)
80001028:	ae9ff0ef          	jal	ra,80000b10 <matrix_test>
8000102c:	00040593          	mv	a1,s0
80001030:	00812403          	lw	s0,8(sp)
80001034:	00c12083          	lw	ra,12(sp)
80001038:	01010113          	addi	sp,sp,16
8000103c:	0b40106f          	j	800020f0 <crc16>

80001040 <core_init_matrix>:
80001040:	ff010113          	addi	sp,sp,-16
80001044:	00812623          	sw	s0,12(sp)
80001048:	00912423          	sw	s1,8(sp)
8000104c:	00050813          	mv	a6,a0
80001050:	00061463          	bnez	a2,80001058 <core_init_matrix+0x18>
80001054:	00100613          	li	a2,1
80001058:	fff58593          	addi	a1,a1,-1
8000105c:	ffc5f293          	andi	t0,a1,-4
80001060:	00428413          	addi	s0,t0,4
80001064:	00000793          	li	a5,0
80001068:	0e080463          	beqz	a6,80001150 <core_init_matrix+0x110>
8000106c:	00078513          	mv	a0,a5
80001070:	00178793          	addi	a5,a5,1
80001074:	02f78733          	mul	a4,a5,a5
80001078:	00371713          	slli	a4,a4,0x3
8000107c:	ff0768e3          	bltu	a4,a6,8000106c <core_init_matrix+0x2c>
80001080:	02a503b3          	mul	t2,a0,a0
80001084:	00139393          	slli	t2,t2,0x1
80001088:	007402b3          	add	t0,s0,t2
8000108c:	0c050e63          	beqz	a0,80001168 <core_init_matrix+0x128>
80001090:	01212223          	sw	s2,4(sp)
80001094:	00050493          	mv	s1,a0
80001098:	00150313          	addi	t1,a0,1
8000109c:	00151913          	slli	s2,a0,0x1
800010a0:	00028f13          	mv	t5,t0
800010a4:	00000e93          	li	t4,0
800010a8:	00100713          	li	a4,1
800010ac:	40540e33          	sub	t3,s0,t0
800010b0:	00070f93          	mv	t6,a4
800010b4:	000f0813          	mv	a6,t5
800010b8:	02e60633          	mul	a2,a2,a4
800010bc:	01071793          	slli	a5,a4,0x10
800010c0:	0107d793          	srli	a5,a5,0x10
800010c4:	010e08b3          	add	a7,t3,a6
800010c8:	00170713          	addi	a4,a4,1
800010cc:	00280813          	addi	a6,a6,2
800010d0:	41f65593          	srai	a1,a2,0x1f
800010d4:	0105d593          	srli	a1,a1,0x10
800010d8:	00b60633          	add	a2,a2,a1
800010dc:	01061613          	slli	a2,a2,0x10
800010e0:	01065613          	srli	a2,a2,0x10
800010e4:	40b60633          	sub	a2,a2,a1
800010e8:	00c785b3          	add	a1,a5,a2
800010ec:	01059593          	slli	a1,a1,0x10
800010f0:	0105d593          	srli	a1,a1,0x10
800010f4:	00f587b3          	add	a5,a1,a5
800010f8:	feb81f23          	sh	a1,-2(a6)
800010fc:	0ff7f793          	andi	a5,a5,255
80001100:	00f89023          	sh	a5,0(a7)
80001104:	fa671ae3          	bne	a4,t1,800010b8 <core_init_matrix+0x78>
80001108:	001e8e93          	addi	t4,t4,1
8000110c:	01f50733          	add	a4,a0,t6
80001110:	00a30333          	add	t1,t1,a0
80001114:	012f0f33          	add	t5,t5,s2
80001118:	f8ae9ce3          	bne	t4,a0,800010b0 <core_init_matrix+0x70>
8000111c:	00412903          	lw	s2,4(sp)
80001120:	007287b3          	add	a5,t0,t2
80001124:	fff78793          	addi	a5,a5,-1
80001128:	0086a223          	sw	s0,4(a3)
8000112c:	ffc7f793          	andi	a5,a5,-4
80001130:	00c12403          	lw	s0,12(sp)
80001134:	00478793          	addi	a5,a5,4
80001138:	0096a023          	sw	s1,0(a3)
8000113c:	00f6a623          	sw	a5,12(a3)
80001140:	0056a423          	sw	t0,8(a3)
80001144:	00812483          	lw	s1,8(sp)
80001148:	01010113          	addi	sp,sp,16
8000114c:	00008067          	ret
80001150:	fff00493          	li	s1,-1
80001154:	01212223          	sw	s2,4(sp)
80001158:	00628293          	addi	t0,t0,6
8000115c:	00048513          	mv	a0,s1
80001160:	00200393          	li	t2,2
80001164:	f35ff06f          	j	80001098 <core_init_matrix+0x58>
80001168:	00000393          	li	t2,0
8000116c:	00000493          	li	s1,0
80001170:	fb1ff06f          	j	80001120 <core_init_matrix+0xe0>

80001174 <core_init_state>:
80001174:	fff50893          	addi	a7,a0,-1
80001178:	00100813          	li	a6,1
8000117c:	2b187663          	bgeu	a6,a7,80001428 <core_init_state+0x2b4>
80001180:	010585b3          	add	a1,a1,a6
80001184:	01059713          	slli	a4,a1,0x10
80001188:	01075713          	srli	a4,a4,0x10
8000118c:	ff010113          	addi	sp,sp,-16
80001190:	00375793          	srli	a5,a4,0x3
80001194:	00812623          	sw	s0,12(sp)
80001198:	00700313          	li	t1,7
8000119c:	00777693          	andi	a3,a4,7
800011a0:	00000593          	li	a1,0
800011a4:	00007297          	auipc	t0,0x7
800011a8:	7d828293          	addi	t0,t0,2008 # 8000897c <errpat>
800011ac:	00400e13          	li	t3,4
800011b0:	00007f97          	auipc	t6,0x7
800011b4:	7dcf8f93          	addi	t6,t6,2012 # 8000898c <scipat>
800011b8:	00007f17          	auipc	t5,0x7
800011bc:	7e4f0f13          	addi	t5,t5,2020 # 8000899c <floatpat>
800011c0:	02c00e93          	li	t4,44
800011c4:	0037f793          	andi	a5,a5,3
800011c8:	08668463          	beq	a3,t1,80001250 <core_init_state+0xdc>
800011cc:	22de6063          	bltu	t3,a3,800013ec <core_init_state+0x278>
800011d0:	ffd68693          	addi	a3,a3,-3
800011d4:	01069693          	slli	a3,a3,0x10
800011d8:	0106d693          	srli	a3,a3,0x10
800011dc:	08d86263          	bltu	a6,a3,80001260 <core_init_state+0xec>
800011e0:	00279793          	slli	a5,a5,0x2
800011e4:	00ff07b3          	add	a5,t5,a5
800011e8:	0007a383          	lw	t2,0(a5)
800011ec:	00170713          	addi	a4,a4,1
800011f0:	01071713          	slli	a4,a4,0x10
800011f4:	00958413          	addi	s0,a1,9
800011f8:	01075713          	srli	a4,a4,0x10
800011fc:	07147663          	bgeu	s0,a7,80001268 <core_init_state+0xf4>
80001200:	00b606b3          	add	a3,a2,a1
80001204:	0076e7b3          	or	a5,a3,t2
80001208:	0037f793          	andi	a5,a5,3
8000120c:	1e079863          	bnez	a5,800013fc <core_init_state+0x288>
80001210:	00138793          	addi	a5,t2,1
80001214:	40f687b3          	sub	a5,a3,a5
80001218:	0037b793          	sltiu	a5,a5,3
8000121c:	1e079063          	bnez	a5,800013fc <core_init_state+0x288>
80001220:	0003a583          	lw	a1,0(t2)
80001224:	00800793          	li	a5,8
80001228:	00b6a023          	sw	a1,0(a3)
8000122c:	0043a583          	lw	a1,4(t2)
80001230:	00b6a223          	sw	a1,4(a3)
80001234:	00f687b3          	add	a5,a3,a5
80001238:	01d78023          	sb	t4,0(a5)
8000123c:	00777693          	andi	a3,a4,7
80001240:	00375793          	srli	a5,a4,0x3
80001244:	00040593          	mv	a1,s0
80001248:	0037f793          	andi	a5,a5,3
8000124c:	f86690e3          	bne	a3,t1,800011cc <core_init_state+0x58>
80001250:	00279793          	slli	a5,a5,0x2
80001254:	00f287b3          	add	a5,t0,a5
80001258:	0007a383          	lw	t2,0(a5)
8000125c:	f91ff06f          	j	800011ec <core_init_state+0x78>
80001260:	00558413          	addi	s0,a1,5
80001264:	0f146c63          	bltu	s0,a7,8000135c <core_init_state+0x1e8>
80001268:	0ea5f463          	bgeu	a1,a0,80001350 <core_init_state+0x1dc>
8000126c:	00158813          	addi	a6,a1,1
80001270:	00080e13          	mv	t3,a6
80001274:	01053eb3          	sltu	t4,a0,a6
80001278:	40b507b3          	sub	a5,a0,a1
8000127c:	00100893          	li	a7,1
80001280:	19057c63          	bgeu	a0,a6,80001418 <core_init_state+0x2a4>
80001284:	fff78793          	addi	a5,a5,-1
80001288:	00b606b3          	add	a3,a2,a1
8000128c:	0067b713          	sltiu	a4,a5,6
80001290:	40d00333          	neg	t1,a3
80001294:	00337793          	andi	a5,t1,3
80001298:	06071463          	bnez	a4,80001300 <core_init_state+0x18c>
8000129c:	060e9263          	bnez	t4,80001300 <core_init_state+0x18c>
800012a0:	18078063          	beqz	a5,80001420 <core_init_state+0x2ac>
800012a4:	00068023          	sb	zero,0(a3)
800012a8:	00237313          	andi	t1,t1,2
800012ac:	02030263          	beqz	t1,800012d0 <core_init_state+0x15c>
800012b0:	01060833          	add	a6,a2,a6
800012b4:	00080023          	sb	zero,0(a6)
800012b8:	00300713          	li	a4,3
800012bc:	00258e13          	addi	t3,a1,2
800012c0:	00e79863          	bne	a5,a4,800012d0 <core_init_state+0x15c>
800012c4:	01c60e33          	add	t3,a2,t3
800012c8:	000e0023          	sb	zero,0(t3)
800012cc:	00e58e33          	add	t3,a1,a4
800012d0:	40f886b3          	sub	a3,a7,a5
800012d4:	00f587b3          	add	a5,a1,a5
800012d8:	00f607b3          	add	a5,a2,a5
800012dc:	ffc6f813          	andi	a6,a3,-4
800012e0:	00f80733          	add	a4,a6,a5
800012e4:	0007a023          	sw	zero,0(a5)
800012e8:	00478793          	addi	a5,a5,4
800012ec:	fef71ce3          	bne	a4,a5,800012e4 <core_init_state+0x170>
800012f0:	01c805b3          	add	a1,a6,t3
800012f4:	04d80e63          	beq	a6,a3,80001350 <core_init_state+0x1dc>
800012f8:	00158813          	addi	a6,a1,1
800012fc:	00b606b3          	add	a3,a2,a1
80001300:	00068023          	sb	zero,0(a3)
80001304:	04a87663          	bgeu	a6,a0,80001350 <core_init_state+0x1dc>
80001308:	01060833          	add	a6,a2,a6
8000130c:	00080023          	sb	zero,0(a6)
80001310:	00258793          	addi	a5,a1,2
80001314:	02a7fe63          	bgeu	a5,a0,80001350 <core_init_state+0x1dc>
80001318:	00f607b3          	add	a5,a2,a5
8000131c:	00078023          	sb	zero,0(a5)
80001320:	00358793          	addi	a5,a1,3
80001324:	02a7f663          	bgeu	a5,a0,80001350 <core_init_state+0x1dc>
80001328:	00f607b3          	add	a5,a2,a5
8000132c:	00078023          	sb	zero,0(a5)
80001330:	00458793          	addi	a5,a1,4
80001334:	00a7fe63          	bgeu	a5,a0,80001350 <core_init_state+0x1dc>
80001338:	00f607b3          	add	a5,a2,a5
8000133c:	00078023          	sb	zero,0(a5)
80001340:	00558593          	addi	a1,a1,5
80001344:	00a5f663          	bgeu	a1,a0,80001350 <core_init_state+0x1dc>
80001348:	00b605b3          	add	a1,a2,a1
8000134c:	00058023          	sb	zero,0(a1)
80001350:	00c12403          	lw	s0,12(sp)
80001354:	01010113          	addi	sp,sp,16
80001358:	00008067          	ret
8000135c:	00007697          	auipc	a3,0x7
80001360:	65068693          	addi	a3,a3,1616 # 800089ac <intpat>
80001364:	00279793          	slli	a5,a5,0x2
80001368:	00f687b3          	add	a5,a3,a5
8000136c:	0007a383          	lw	t2,0(a5)
80001370:	00912423          	sw	s1,8(sp)
80001374:	01212223          	sw	s2,4(sp)
80001378:	0003c783          	lbu	a5,0(t2)
8000137c:	00170713          	addi	a4,a4,1
80001380:	00b606b3          	add	a3,a2,a1
80001384:	01071713          	slli	a4,a4,0x10
80001388:	00f68023          	sb	a5,0(a3)
8000138c:	01075713          	srli	a4,a4,0x10
80001390:	00158593          	addi	a1,a1,1
80001394:	00400793          	li	a5,4
80001398:	0013c903          	lbu	s2,1(t2)
8000139c:	00b605b3          	add	a1,a2,a1
800013a0:	00400493          	li	s1,4
800013a4:	01258023          	sb	s2,0(a1)
800013a8:	0023c583          	lbu	a1,2(t2)
800013ac:	00b68123          	sb	a1,2(a3)
800013b0:	0033c583          	lbu	a1,3(t2)
800013b4:	00b681a3          	sb	a1,3(a3)
800013b8:	0c978463          	beq	a5,s1,80001480 <core_init_state+0x30c>
800013bc:	0043c583          	lbu	a1,4(t2)
800013c0:	00800793          	li	a5,8
800013c4:	00b68223          	sb	a1,4(a3)
800013c8:	0053c583          	lbu	a1,5(t2)
800013cc:	00b682a3          	sb	a1,5(a3)
800013d0:	0063c583          	lbu	a1,6(t2)
800013d4:	00b68323          	sb	a1,6(a3)
800013d8:	0073c583          	lbu	a1,7(t2)
800013dc:	00b683a3          	sb	a1,7(a3)
800013e0:	00812483          	lw	s1,8(sp)
800013e4:	00412903          	lw	s2,4(sp)
800013e8:	e4dff06f          	j	80001234 <core_init_state+0xc0>
800013ec:	00279793          	slli	a5,a5,0x2
800013f0:	00ff87b3          	add	a5,t6,a5
800013f4:	0007a383          	lw	t2,0(a5)
800013f8:	df5ff06f          	j	800011ec <core_init_state+0x78>
800013fc:	00912423          	sw	s1,8(sp)
80001400:	01212223          	sw	s2,4(sp)
80001404:	0003c483          	lbu	s1,0(t2)
80001408:	00158593          	addi	a1,a1,1
8000140c:	00800793          	li	a5,8
80001410:	00968023          	sb	s1,0(a3)
80001414:	f85ff06f          	j	80001398 <core_init_state+0x224>
80001418:	00078893          	mv	a7,a5
8000141c:	e69ff06f          	j	80001284 <core_init_state+0x110>
80001420:	00058e13          	mv	t3,a1
80001424:	eadff06f          	j	800012d0 <core_init_state+0x15c>
80001428:	00060023          	sb	zero,0(a2)
8000142c:	00000593          	li	a1,0
80001430:	04a87663          	bgeu	a6,a0,8000147c <core_init_state+0x308>
80001434:	01060833          	add	a6,a2,a6
80001438:	00080023          	sb	zero,0(a6)
8000143c:	00258793          	addi	a5,a1,2
80001440:	02a7fe63          	bgeu	a5,a0,8000147c <core_init_state+0x308>
80001444:	00f607b3          	add	a5,a2,a5
80001448:	00078023          	sb	zero,0(a5)
8000144c:	00358793          	addi	a5,a1,3
80001450:	02a7f663          	bgeu	a5,a0,8000147c <core_init_state+0x308>
80001454:	00f607b3          	add	a5,a2,a5
80001458:	00078023          	sb	zero,0(a5)
8000145c:	00458793          	addi	a5,a1,4
80001460:	00a7fe63          	bgeu	a5,a0,8000147c <core_init_state+0x308>
80001464:	00f607b3          	add	a5,a2,a5
80001468:	00078023          	sb	zero,0(a5)
8000146c:	00558593          	addi	a1,a1,5
80001470:	00a5f663          	bgeu	a1,a0,8000147c <core_init_state+0x308>
80001474:	00b605b3          	add	a1,a2,a1
80001478:	00058023          	sb	zero,0(a1)
8000147c:	00008067          	ret
80001480:	00812483          	lw	s1,8(sp)
80001484:	00412903          	lw	s2,4(sp)
80001488:	dadff06f          	j	80001234 <core_init_state+0xc0>

8000148c <core_state_transition>:
8000148c:	00052683          	lw	a3,0(a0)
80001490:	00050613          	mv	a2,a0
80001494:	0006c783          	lbu	a5,0(a3)
80001498:	26078e63          	beqz	a5,80001714 <core_state_transition+0x288>
8000149c:	02c00713          	li	a4,44
800014a0:	00000513          	li	a0,0
800014a4:	1ee78c63          	beq	a5,a4,8000169c <core_state_transition+0x210>
800014a8:	02e00813          	li	a6,46
800014ac:	23078663          	beq	a5,a6,800016d8 <core_state_transition+0x24c>
800014b0:	1ef86a63          	bltu	a6,a5,800016a4 <core_state_transition+0x218>
800014b4:	fd578793          	addi	a5,a5,-43
800014b8:	0fd7f793          	andi	a5,a5,253
800014bc:	02078663          	beqz	a5,800014e8 <core_state_transition+0x5c>
800014c0:	0045a703          	lw	a4,4(a1)
800014c4:	0005a783          	lw	a5,0(a1)
800014c8:	00168693          	addi	a3,a3,1
800014cc:	00170713          	addi	a4,a4,1
800014d0:	00178793          	addi	a5,a5,1
800014d4:	00e5a223          	sw	a4,4(a1)
800014d8:	00f5a023          	sw	a5,0(a1)
800014dc:	00100513          	li	a0,1
800014e0:	00d62023          	sw	a3,0(a2)
800014e4:	00008067          	ret
800014e8:	0005a503          	lw	a0,0(a1)
800014ec:	00168793          	addi	a5,a3,1
800014f0:	00150513          	addi	a0,a0,1
800014f4:	00a5a023          	sw	a0,0(a1)
800014f8:	0016c883          	lbu	a7,1(a3)
800014fc:	26088663          	beqz	a7,80001768 <core_state_transition+0x2dc>
80001500:	20e88263          	beq	a7,a4,80001704 <core_state_transition+0x278>
80001504:	0085a503          	lw	a0,8(a1)
80001508:	fd088713          	addi	a4,a7,-48
8000150c:	0ff77713          	andi	a4,a4,255
80001510:	00900313          	li	t1,9
80001514:	00150513          	addi	a0,a0,1
80001518:	00e37e63          	bgeu	t1,a4,80001534 <core_state_transition+0xa8>
8000151c:	1f088063          	beq	a7,a6,800016fc <core_state_transition+0x270>
80001520:	00a5a423          	sw	a0,8(a1)
80001524:	00268693          	addi	a3,a3,2
80001528:	00100513          	li	a0,1
8000152c:	00d62023          	sw	a3,0(a2)
80001530:	00008067          	ret
80001534:	00a5a423          	sw	a0,8(a1)
80001538:	0017c683          	lbu	a3,1(a5)
8000153c:	00178793          	addi	a5,a5,1
80001540:	18068663          	beqz	a3,800016cc <core_state_transition+0x240>
80001544:	02c00713          	li	a4,44
80001548:	1ee68e63          	beq	a3,a4,80001744 <core_state_transition+0x2b8>
8000154c:	02e00713          	li	a4,46
80001550:	02e68863          	beq	a3,a4,80001580 <core_state_transition+0xf4>
80001554:	fd068693          	addi	a3,a3,-48
80001558:	0ff6f693          	andi	a3,a3,255
8000155c:	00900713          	li	a4,9
80001560:	fcd77ce3          	bgeu	a4,a3,80001538 <core_state_transition+0xac>
80001564:	0105a703          	lw	a4,16(a1)
80001568:	00100513          	li	a0,1
8000156c:	00178693          	addi	a3,a5,1
80001570:	00a707b3          	add	a5,a4,a0
80001574:	00f5a823          	sw	a5,16(a1)
80001578:	00d62023          	sw	a3,0(a2)
8000157c:	00008067          	ret
80001580:	0105a703          	lw	a4,16(a1)
80001584:	00170713          	addi	a4,a4,1
80001588:	00e5a823          	sw	a4,16(a1)
8000158c:	0017c683          	lbu	a3,1(a5)
80001590:	00178793          	addi	a5,a5,1
80001594:	14068e63          	beqz	a3,800016f0 <core_state_transition+0x264>
80001598:	02c00713          	li	a4,44
8000159c:	0ee68c63          	beq	a3,a4,80001694 <core_state_transition+0x208>
800015a0:	0df6f713          	andi	a4,a3,223
800015a4:	04500513          	li	a0,69
800015a8:	02a70863          	beq	a4,a0,800015d8 <core_state_transition+0x14c>
800015ac:	fd068693          	addi	a3,a3,-48
800015b0:	0ff6f693          	andi	a3,a3,255
800015b4:	00900713          	li	a4,9
800015b8:	fcd77ae3          	bgeu	a4,a3,8000158c <core_state_transition+0x100>
800015bc:	0145a703          	lw	a4,20(a1)
800015c0:	00100513          	li	a0,1
800015c4:	00178693          	addi	a3,a5,1
800015c8:	00a707b3          	add	a5,a4,a0
800015cc:	00f5aa23          	sw	a5,20(a1)
800015d0:	00d62023          	sw	a3,0(a2)
800015d4:	00008067          	ret
800015d8:	0145a703          	lw	a4,20(a1)
800015dc:	00178693          	addi	a3,a5,1
800015e0:	00170713          	addi	a4,a4,1
800015e4:	00e5aa23          	sw	a4,20(a1)
800015e8:	0017c703          	lbu	a4,1(a5)
800015ec:	12070c63          	beqz	a4,80001724 <core_state_transition+0x298>
800015f0:	02c00513          	li	a0,44
800015f4:	14a70263          	beq	a4,a0,80001738 <core_state_transition+0x2ac>
800015f8:	00c5a683          	lw	a3,12(a1)
800015fc:	fd570713          	addi	a4,a4,-43
80001600:	0fd77713          	andi	a4,a4,253
80001604:	00168693          	addi	a3,a3,1
80001608:	00d5a623          	sw	a3,12(a1)
8000160c:	00070a63          	beqz	a4,80001620 <core_state_transition+0x194>
80001610:	00278693          	addi	a3,a5,2
80001614:	00100513          	li	a0,1
80001618:	00d62023          	sw	a3,0(a2)
8000161c:	00008067          	ret
80001620:	0027c703          	lbu	a4,2(a5)
80001624:	00278693          	addi	a3,a5,2
80001628:	0e070a63          	beqz	a4,8000171c <core_state_transition+0x290>
8000162c:	10a70063          	beq	a4,a0,8000172c <core_state_transition+0x2a0>
80001630:	0185a803          	lw	a6,24(a1)
80001634:	fd070713          	addi	a4,a4,-48
80001638:	0ff77713          	andi	a4,a4,255
8000163c:	00180813          	addi	a6,a6,1
80001640:	00900513          	li	a0,9
80001644:	0105ac23          	sw	a6,24(a1)
80001648:	00e57863          	bgeu	a0,a4,80001658 <core_state_transition+0x1cc>
8000164c:	00378693          	addi	a3,a5,3
80001650:	00100513          	li	a0,1
80001654:	e8dff06f          	j	800014e0 <core_state_transition+0x54>
80001658:	00068813          	mv	a6,a3
8000165c:	0016c703          	lbu	a4,1(a3)
80001660:	00168693          	addi	a3,a3,1
80001664:	02c00893          	li	a7,44
80001668:	fd070793          	addi	a5,a4,-48
8000166c:	0ff7f793          	andi	a5,a5,255
80001670:	0e070863          	beqz	a4,80001760 <core_state_transition+0x2d4>
80001674:	0f170063          	beq	a4,a7,80001754 <core_state_transition+0x2c8>
80001678:	fef570e3          	bgeu	a0,a5,80001658 <core_state_transition+0x1cc>
8000167c:	0045a783          	lw	a5,4(a1)
80001680:	00100513          	li	a0,1
80001684:	00280693          	addi	a3,a6,2
80001688:	00a787b3          	add	a5,a5,a0
8000168c:	00f5a223          	sw	a5,4(a1)
80001690:	e51ff06f          	j	800014e0 <core_state_transition+0x54>
80001694:	00078693          	mv	a3,a5
80001698:	00500513          	li	a0,5
8000169c:	00168693          	addi	a3,a3,1
800016a0:	e41ff06f          	j	800014e0 <core_state_transition+0x54>
800016a4:	fd078793          	addi	a5,a5,-48
800016a8:	0ff7f793          	andi	a5,a5,255
800016ac:	00900513          	li	a0,9
800016b0:	e0f568e3          	bltu	a0,a5,800014c0 <core_state_transition+0x34>
800016b4:	0005a503          	lw	a0,0(a1)
800016b8:	00168793          	addi	a5,a3,1
800016bc:	00150513          	addi	a0,a0,1
800016c0:	00a5a023          	sw	a0,0(a1)
800016c4:	0016c683          	lbu	a3,1(a3)
800016c8:	e80690e3          	bnez	a3,80001548 <core_state_transition+0xbc>
800016cc:	00078693          	mv	a3,a5
800016d0:	00400513          	li	a0,4
800016d4:	e0dff06f          	j	800014e0 <core_state_transition+0x54>
800016d8:	0005a503          	lw	a0,0(a1)
800016dc:	00168793          	addi	a5,a3,1
800016e0:	00150513          	addi	a0,a0,1
800016e4:	00a5a023          	sw	a0,0(a1)
800016e8:	0016c683          	lbu	a3,1(a3)
800016ec:	ea0698e3          	bnez	a3,8000159c <core_state_transition+0x110>
800016f0:	00078693          	mv	a3,a5
800016f4:	00500513          	li	a0,5
800016f8:	de9ff06f          	j	800014e0 <core_state_transition+0x54>
800016fc:	00a5a423          	sw	a0,8(a1)
80001700:	e8dff06f          	j	8000158c <core_state_transition+0x100>
80001704:	00078693          	mv	a3,a5
80001708:	00200513          	li	a0,2
8000170c:	00168693          	addi	a3,a3,1
80001710:	dd1ff06f          	j	800014e0 <core_state_transition+0x54>
80001714:	00000513          	li	a0,0
80001718:	dc9ff06f          	j	800014e0 <core_state_transition+0x54>
8000171c:	00600513          	li	a0,6
80001720:	dc1ff06f          	j	800014e0 <core_state_transition+0x54>
80001724:	00300513          	li	a0,3
80001728:	db9ff06f          	j	800014e0 <core_state_transition+0x54>
8000172c:	00600513          	li	a0,6
80001730:	00168693          	addi	a3,a3,1
80001734:	dadff06f          	j	800014e0 <core_state_transition+0x54>
80001738:	00300513          	li	a0,3
8000173c:	00168693          	addi	a3,a3,1
80001740:	da1ff06f          	j	800014e0 <core_state_transition+0x54>
80001744:	00078693          	mv	a3,a5
80001748:	00400513          	li	a0,4
8000174c:	00168693          	addi	a3,a3,1
80001750:	d91ff06f          	j	800014e0 <core_state_transition+0x54>
80001754:	00700513          	li	a0,7
80001758:	00168693          	addi	a3,a3,1
8000175c:	d85ff06f          	j	800014e0 <core_state_transition+0x54>
80001760:	00700513          	li	a0,7
80001764:	d7dff06f          	j	800014e0 <core_state_transition+0x54>
80001768:	00078693          	mv	a3,a5
8000176c:	00200513          	li	a0,2
80001770:	d71ff06f          	j	800014e0 <core_state_transition+0x54>

80001774 <core_bench_state>:
80001774:	f8010113          	addi	sp,sp,-128
80001778:	06812c23          	sw	s0,120(sp)
8000177c:	06912a23          	sw	s1,116(sp)
80001780:	07212823          	sw	s2,112(sp)
80001784:	07312623          	sw	s3,108(sp)
80001788:	07412423          	sw	s4,104(sp)
8000178c:	07512223          	sw	s5,100(sp)
80001790:	07612023          	sw	s6,96(sp)
80001794:	05712e23          	sw	s7,92(sp)
80001798:	05812c23          	sw	s8,88(sp)
8000179c:	06112e23          	sw	ra,124(sp)
800017a0:	00058413          	mv	s0,a1
800017a4:	0005c583          	lbu	a1,0(a1)
800017a8:	00812623          	sw	s0,12(sp)
800017ac:	02012823          	sw	zero,48(sp)
800017b0:	00012823          	sw	zero,16(sp)
800017b4:	02012a23          	sw	zero,52(sp)
800017b8:	00012a23          	sw	zero,20(sp)
800017bc:	02012c23          	sw	zero,56(sp)
800017c0:	00012c23          	sw	zero,24(sp)
800017c4:	02012e23          	sw	zero,60(sp)
800017c8:	00012e23          	sw	zero,28(sp)
800017cc:	04012023          	sw	zero,64(sp)
800017d0:	02012023          	sw	zero,32(sp)
800017d4:	04012223          	sw	zero,68(sp)
800017d8:	02012223          	sw	zero,36(sp)
800017dc:	04012423          	sw	zero,72(sp)
800017e0:	02012423          	sw	zero,40(sp)
800017e4:	04012623          	sw	zero,76(sp)
800017e8:	02012623          	sw	zero,44(sp)
800017ec:	00050b93          	mv	s7,a0
800017f0:	00060c13          	mv	s8,a2
800017f4:	00068a93          	mv	s5,a3
800017f8:	00070b13          	mv	s6,a4
800017fc:	00078913          	mv	s2,a5
80001800:	03010993          	addi	s3,sp,48
80001804:	01010493          	addi	s1,sp,16
80001808:	00c10a13          	addi	s4,sp,12
8000180c:	16058e63          	beqz	a1,80001988 <core_bench_state+0x214>
80001810:	00098593          	mv	a1,s3
80001814:	000a0513          	mv	a0,s4
80001818:	c75ff0ef          	jal	ra,8000148c <core_state_transition>
8000181c:	00251813          	slli	a6,a0,0x2
80001820:	00980833          	add	a6,a6,s1
80001824:	00c12703          	lw	a4,12(sp)
80001828:	00082783          	lw	a5,0(a6)
8000182c:	00074703          	lbu	a4,0(a4)
80001830:	00178793          	addi	a5,a5,1
80001834:	00f82023          	sw	a5,0(a6)
80001838:	fc071ce3          	bnez	a4,80001810 <core_bench_state+0x9c>
8000183c:	00812623          	sw	s0,12(sp)
80001840:	01740bb3          	add	s7,s0,s7
80001844:	03747c63          	bgeu	s0,s7,8000187c <core_bench_state+0x108>
80001848:	00100713          	li	a4,1
8000184c:	00040793          	mv	a5,s0
80001850:	02c00613          	li	a2,44
80001854:	0ceb1e63          	bne	s6,a4,80001930 <core_bench_state+0x1bc>
80001858:	0007c703          	lbu	a4,0(a5)
8000185c:	018746b3          	xor	a3,a4,s8
80001860:	00c70463          	beq	a4,a2,80001868 <core_bench_state+0xf4>
80001864:	00d78023          	sb	a3,0(a5)
80001868:	00178793          	addi	a5,a5,1
8000186c:	ff77e6e3          	bltu	a5,s7,80001858 <core_bench_state+0xe4>
80001870:	00044783          	lbu	a5,0(s0)
80001874:	00c10a13          	addi	s4,sp,12
80001878:	10078263          	beqz	a5,8000197c <core_bench_state+0x208>
8000187c:	00098593          	mv	a1,s3
80001880:	000a0513          	mv	a0,s4
80001884:	c09ff0ef          	jal	ra,8000148c <core_state_transition>
80001888:	00251613          	slli	a2,a0,0x2
8000188c:	00960633          	add	a2,a2,s1
80001890:	00c12703          	lw	a4,12(sp)
80001894:	00062783          	lw	a5,0(a2)
80001898:	00074703          	lbu	a4,0(a4)
8000189c:	00178793          	addi	a5,a5,1
800018a0:	00f62023          	sw	a5,0(a2)
800018a4:	fc071ce3          	bnez	a4,8000187c <core_bench_state+0x108>
800018a8:	00812623          	sw	s0,12(sp)
800018ac:	03747463          	bgeu	s0,s7,800018d4 <core_bench_state+0x160>
800018b0:	00100793          	li	a5,1
800018b4:	0afb1463          	bne	s6,a5,8000195c <core_bench_state+0x1e8>
800018b8:	02c00693          	li	a3,44
800018bc:	00044783          	lbu	a5,0(s0)
800018c0:	0157c733          	xor	a4,a5,s5
800018c4:	00d78463          	beq	a5,a3,800018cc <core_bench_state+0x158>
800018c8:	00e40023          	sb	a4,0(s0)
800018cc:	00140413          	addi	s0,s0,1
800018d0:	ff7466e3          	bltu	s0,s7,800018bc <core_bench_state+0x148>
800018d4:	00098413          	mv	s0,s3
800018d8:	0004a503          	lw	a0,0(s1)
800018dc:	00090593          	mv	a1,s2
800018e0:	00448493          	addi	s1,s1,4
800018e4:	364000ef          	jal	ra,80001c48 <crcu32>
800018e8:	00050593          	mv	a1,a0
800018ec:	00042503          	lw	a0,0(s0)
800018f0:	00440413          	addi	s0,s0,4
800018f4:	354000ef          	jal	ra,80001c48 <crcu32>
800018f8:	00050913          	mv	s2,a0
800018fc:	fd349ee3          	bne	s1,s3,800018d8 <core_bench_state+0x164>
80001900:	07c12083          	lw	ra,124(sp)
80001904:	07812403          	lw	s0,120(sp)
80001908:	07412483          	lw	s1,116(sp)
8000190c:	07012903          	lw	s2,112(sp)
80001910:	06c12983          	lw	s3,108(sp)
80001914:	06812a03          	lw	s4,104(sp)
80001918:	06412a83          	lw	s5,100(sp)
8000191c:	06012b03          	lw	s6,96(sp)
80001920:	05c12b83          	lw	s7,92(sp)
80001924:	05812c03          	lw	s8,88(sp)
80001928:	08010113          	addi	sp,sp,128
8000192c:	00008067          	ret
80001930:	0007c703          	lbu	a4,0(a5)
80001934:	018746b3          	xor	a3,a4,s8
80001938:	00c70463          	beq	a4,a2,80001940 <core_bench_state+0x1cc>
8000193c:	00d78023          	sb	a3,0(a5)
80001940:	016787b3          	add	a5,a5,s6
80001944:	ff77e6e3          	bltu	a5,s7,80001930 <core_bench_state+0x1bc>
80001948:	00044783          	lbu	a5,0(s0)
8000194c:	00c10a13          	addi	s4,sp,12
80001950:	f20796e3          	bnez	a5,8000187c <core_bench_state+0x108>
80001954:	00812623          	sw	s0,12(sp)
80001958:	f7747ee3          	bgeu	s0,s7,800018d4 <core_bench_state+0x160>
8000195c:	02c00693          	li	a3,44
80001960:	00044783          	lbu	a5,0(s0)
80001964:	0157c733          	xor	a4,a5,s5
80001968:	00d78463          	beq	a5,a3,80001970 <core_bench_state+0x1fc>
8000196c:	00e40023          	sb	a4,0(s0)
80001970:	01640433          	add	s0,s0,s6
80001974:	ff7466e3          	bltu	s0,s7,80001960 <core_bench_state+0x1ec>
80001978:	f5dff06f          	j	800018d4 <core_bench_state+0x160>
8000197c:	00812623          	sw	s0,12(sp)
80001980:	f3746ce3          	bltu	s0,s7,800018b8 <core_bench_state+0x144>
80001984:	f51ff06f          	j	800018d4 <core_bench_state+0x160>
80001988:	00a40bb3          	add	s7,s0,a0
8000198c:	eb746ee3          	bltu	s0,s7,80001848 <core_bench_state+0xd4>
80001990:	f45ff06f          	j	800018d4 <core_bench_state+0x160>

80001994 <get_seed_32>:
80001994:	00500793          	li	a5,5
80001998:	04a7ee63          	bltu	a5,a0,800019f4 <get_seed_32+0x60>
8000199c:	00007717          	auipc	a4,0x7
800019a0:	02070713          	addi	a4,a4,32 # 800089bc <intpat+0x10>
800019a4:	00251513          	slli	a0,a0,0x2
800019a8:	00e50533          	add	a0,a0,a4
800019ac:	00052783          	lw	a5,0(a0)
800019b0:	00e787b3          	add	a5,a5,a4
800019b4:	00078067          	jr	a5
800019b8:	00008517          	auipc	a0,0x8
800019bc:	e2c52503          	lw	a0,-468(a0) # 800097e4 <seed5_volatile>
800019c0:	00008067          	ret
800019c4:	00008517          	auipc	a0,0x8
800019c8:	e2852503          	lw	a0,-472(a0) # 800097ec <seed1_volatile>
800019cc:	00008067          	ret
800019d0:	00008517          	auipc	a0,0x8
800019d4:	e1852503          	lw	a0,-488(a0) # 800097e8 <seed2_volatile>
800019d8:	00008067          	ret
800019dc:	00007517          	auipc	a0,0x7
800019e0:	20852503          	lw	a0,520(a0) # 80008be4 <seed3_volatile>
800019e4:	00008067          	ret
800019e8:	00007517          	auipc	a0,0x7
800019ec:	1f852503          	lw	a0,504(a0) # 80008be0 <seed4_volatile>
800019f0:	00008067          	ret
800019f4:	00000513          	li	a0,0
800019f8:	00008067          	ret

800019fc <crcu16>:
800019fc:	0ff57313          	andi	t1,a0,255
80001a00:	00b346b3          	xor	a3,t1,a1
80001a04:	0016f693          	andi	a3,a3,1
80001a08:	ffffa737          	lui	a4,0xffffa
80001a0c:	00170713          	addi	a4,a4,1 # ffffa001 <_end+0x7ffb0001>
80001a10:	40d006b3          	neg	a3,a3
80001a14:	0015d593          	srli	a1,a1,0x1
80001a18:	00e6f6b3          	and	a3,a3,a4
80001a1c:	00b6c6b3          	xor	a3,a3,a1
80001a20:	01069693          	slli	a3,a3,0x10
80001a24:	0106d693          	srli	a3,a3,0x10
80001a28:	00135793          	srli	a5,t1,0x1
80001a2c:	00d7c7b3          	xor	a5,a5,a3
80001a30:	0017f793          	andi	a5,a5,1
80001a34:	40f007b3          	neg	a5,a5
80001a38:	00e7f7b3          	and	a5,a5,a4
80001a3c:	0016d693          	srli	a3,a3,0x1
80001a40:	00d7c7b3          	xor	a5,a5,a3
80001a44:	01079793          	slli	a5,a5,0x10
80001a48:	00235813          	srli	a6,t1,0x2
80001a4c:	0107d793          	srli	a5,a5,0x10
80001a50:	00f84833          	xor	a6,a6,a5
80001a54:	00187813          	andi	a6,a6,1
80001a58:	41000833          	neg	a6,a6
80001a5c:	00e87833          	and	a6,a6,a4
80001a60:	0017d793          	srli	a5,a5,0x1
80001a64:	00f84833          	xor	a6,a6,a5
80001a68:	01081813          	slli	a6,a6,0x10
80001a6c:	00335593          	srli	a1,t1,0x3
80001a70:	01085813          	srli	a6,a6,0x10
80001a74:	0105c5b3          	xor	a1,a1,a6
80001a78:	0015f593          	andi	a1,a1,1
80001a7c:	40b005b3          	neg	a1,a1
80001a80:	00e5f5b3          	and	a1,a1,a4
80001a84:	00185813          	srli	a6,a6,0x1
80001a88:	0105c5b3          	xor	a1,a1,a6
80001a8c:	01059593          	slli	a1,a1,0x10
80001a90:	00435613          	srli	a2,t1,0x4
80001a94:	0105d593          	srli	a1,a1,0x10
80001a98:	00b64633          	xor	a2,a2,a1
80001a9c:	00167613          	andi	a2,a2,1
80001aa0:	40c00633          	neg	a2,a2
80001aa4:	00e67633          	and	a2,a2,a4
80001aa8:	0015d593          	srli	a1,a1,0x1
80001aac:	00b64633          	xor	a2,a2,a1
80001ab0:	01061613          	slli	a2,a2,0x10
80001ab4:	00535693          	srli	a3,t1,0x5
80001ab8:	01065613          	srli	a2,a2,0x10
80001abc:	00c6c6b3          	xor	a3,a3,a2
80001ac0:	0016f693          	andi	a3,a3,1
80001ac4:	40d006b3          	neg	a3,a3
80001ac8:	00e6f6b3          	and	a3,a3,a4
80001acc:	00165613          	srli	a2,a2,0x1
80001ad0:	00c6c6b3          	xor	a3,a3,a2
80001ad4:	01069693          	slli	a3,a3,0x10
80001ad8:	00635793          	srli	a5,t1,0x6
80001adc:	0106d693          	srli	a3,a3,0x10
80001ae0:	00d7c7b3          	xor	a5,a5,a3
80001ae4:	0017f793          	andi	a5,a5,1
80001ae8:	40f007b3          	neg	a5,a5
80001aec:	00e7f7b3          	and	a5,a5,a4
80001af0:	0016d693          	srli	a3,a3,0x1
80001af4:	00d7c7b3          	xor	a5,a5,a3
80001af8:	01079793          	slli	a5,a5,0x10
80001afc:	0107d793          	srli	a5,a5,0x10
80001b00:	00735313          	srli	t1,t1,0x7
80001b04:	00f34333          	xor	t1,t1,a5
80001b08:	00137313          	andi	t1,t1,1
80001b0c:	40600333          	neg	t1,t1
80001b10:	00e37333          	and	t1,t1,a4
80001b14:	0017d793          	srli	a5,a5,0x1
80001b18:	00f34333          	xor	t1,t1,a5
80001b1c:	01031313          	slli	t1,t1,0x10
80001b20:	00855513          	srli	a0,a0,0x8
80001b24:	01035313          	srli	t1,t1,0x10
80001b28:	006547b3          	xor	a5,a0,t1
80001b2c:	0017f793          	andi	a5,a5,1
80001b30:	40f007b3          	neg	a5,a5
80001b34:	00e7f7b3          	and	a5,a5,a4
80001b38:	00135313          	srli	t1,t1,0x1
80001b3c:	0067c7b3          	xor	a5,a5,t1
80001b40:	01079793          	slli	a5,a5,0x10
80001b44:	00155e93          	srli	t4,a0,0x1
80001b48:	0107d793          	srli	a5,a5,0x10
80001b4c:	00255e13          	srli	t3,a0,0x2
80001b50:	00355893          	srli	a7,a0,0x3
80001b54:	00455813          	srli	a6,a0,0x4
80001b58:	00655693          	srli	a3,a0,0x6
80001b5c:	00755593          	srli	a1,a0,0x7
80001b60:	00555613          	srli	a2,a0,0x5
80001b64:	00fec533          	xor	a0,t4,a5
80001b68:	00157513          	andi	a0,a0,1
80001b6c:	40a00533          	neg	a0,a0
80001b70:	00e57533          	and	a0,a0,a4
80001b74:	0017d793          	srli	a5,a5,0x1
80001b78:	00f54533          	xor	a0,a0,a5
80001b7c:	01051513          	slli	a0,a0,0x10
80001b80:	01055513          	srli	a0,a0,0x10
80001b84:	00ae47b3          	xor	a5,t3,a0
80001b88:	0017f793          	andi	a5,a5,1
80001b8c:	40f007b3          	neg	a5,a5
80001b90:	00e7f7b3          	and	a5,a5,a4
80001b94:	00155513          	srli	a0,a0,0x1
80001b98:	00a7c7b3          	xor	a5,a5,a0
80001b9c:	01079793          	slli	a5,a5,0x10
80001ba0:	0107d793          	srli	a5,a5,0x10
80001ba4:	00f8c533          	xor	a0,a7,a5
80001ba8:	00157513          	andi	a0,a0,1
80001bac:	40a00533          	neg	a0,a0
80001bb0:	00e57533          	and	a0,a0,a4
80001bb4:	0017d793          	srli	a5,a5,0x1
80001bb8:	00f54533          	xor	a0,a0,a5
80001bbc:	01051513          	slli	a0,a0,0x10
80001bc0:	01055513          	srli	a0,a0,0x10
80001bc4:	00a847b3          	xor	a5,a6,a0
80001bc8:	0017f793          	andi	a5,a5,1
80001bcc:	40f007b3          	neg	a5,a5
80001bd0:	00e7f7b3          	and	a5,a5,a4
80001bd4:	00155513          	srli	a0,a0,0x1
80001bd8:	00a7c7b3          	xor	a5,a5,a0
80001bdc:	01079793          	slli	a5,a5,0x10
80001be0:	0107d793          	srli	a5,a5,0x10
80001be4:	00f64633          	xor	a2,a2,a5
80001be8:	00167613          	andi	a2,a2,1
80001bec:	40c00633          	neg	a2,a2
80001bf0:	00e67633          	and	a2,a2,a4
80001bf4:	0017d793          	srli	a5,a5,0x1
80001bf8:	00f64633          	xor	a2,a2,a5
80001bfc:	01061613          	slli	a2,a2,0x10
80001c00:	01065613          	srli	a2,a2,0x10
80001c04:	00c6c7b3          	xor	a5,a3,a2
80001c08:	0017f793          	andi	a5,a5,1
80001c0c:	40f007b3          	neg	a5,a5
80001c10:	00e7f7b3          	and	a5,a5,a4
80001c14:	00165613          	srli	a2,a2,0x1
80001c18:	00c7c7b3          	xor	a5,a5,a2
80001c1c:	01079793          	slli	a5,a5,0x10
80001c20:	0107d793          	srli	a5,a5,0x10
80001c24:	00f5c533          	xor	a0,a1,a5
80001c28:	00157513          	andi	a0,a0,1
80001c2c:	40a00533          	neg	a0,a0
80001c30:	00e57533          	and	a0,a0,a4
80001c34:	0017d793          	srli	a5,a5,0x1
80001c38:	00f54533          	xor	a0,a0,a5
80001c3c:	01051513          	slli	a0,a0,0x10
80001c40:	01055513          	srli	a0,a0,0x10
80001c44:	00008067          	ret

80001c48 <crcu32>:
80001c48:	0ff57f13          	andi	t5,a0,255
80001c4c:	00bf4633          	xor	a2,t5,a1
80001c50:	00167613          	andi	a2,a2,1
80001c54:	ffffa7b7          	lui	a5,0xffffa
80001c58:	00178793          	addi	a5,a5,1 # ffffa001 <_end+0x7ffb0001>
80001c5c:	40c00633          	neg	a2,a2
80001c60:	0015d593          	srli	a1,a1,0x1
80001c64:	00f67633          	and	a2,a2,a5
80001c68:	00b64633          	xor	a2,a2,a1
80001c6c:	01061613          	slli	a2,a2,0x10
80001c70:	01065613          	srli	a2,a2,0x10
80001c74:	001f5693          	srli	a3,t5,0x1
80001c78:	00c6c6b3          	xor	a3,a3,a2
80001c7c:	0016f693          	andi	a3,a3,1
80001c80:	40d006b3          	neg	a3,a3
80001c84:	00165613          	srli	a2,a2,0x1
80001c88:	00f6f6b3          	and	a3,a3,a5
80001c8c:	00c6c6b3          	xor	a3,a3,a2
80001c90:	01069693          	slli	a3,a3,0x10
80001c94:	002f5713          	srli	a4,t5,0x2
80001c98:	0106d693          	srli	a3,a3,0x10
80001c9c:	00d74733          	xor	a4,a4,a3
80001ca0:	00177713          	andi	a4,a4,1
80001ca4:	40e00733          	neg	a4,a4
80001ca8:	0016d693          	srli	a3,a3,0x1
80001cac:	00f77733          	and	a4,a4,a5
80001cb0:	00d74733          	xor	a4,a4,a3
80001cb4:	01071713          	slli	a4,a4,0x10
80001cb8:	003f5593          	srli	a1,t5,0x3
80001cbc:	01075713          	srli	a4,a4,0x10
80001cc0:	00e5c5b3          	xor	a1,a1,a4
80001cc4:	0015f593          	andi	a1,a1,1
80001cc8:	40b005b3          	neg	a1,a1
80001ccc:	00175713          	srli	a4,a4,0x1
80001cd0:	00f5f5b3          	and	a1,a1,a5
80001cd4:	00e5c5b3          	xor	a1,a1,a4
80001cd8:	01059593          	slli	a1,a1,0x10
80001cdc:	004f5813          	srli	a6,t5,0x4
80001ce0:	0105d593          	srli	a1,a1,0x10
80001ce4:	00b84833          	xor	a6,a6,a1
80001ce8:	00187813          	andi	a6,a6,1
80001cec:	41000833          	neg	a6,a6
80001cf0:	0015d593          	srli	a1,a1,0x1
80001cf4:	00f87833          	and	a6,a6,a5
80001cf8:	00b84833          	xor	a6,a6,a1
80001cfc:	01081813          	slli	a6,a6,0x10
80001d00:	005f5613          	srli	a2,t5,0x5
80001d04:	01085813          	srli	a6,a6,0x10
80001d08:	01064633          	xor	a2,a2,a6
80001d0c:	00167613          	andi	a2,a2,1
80001d10:	40c00633          	neg	a2,a2
80001d14:	00185813          	srli	a6,a6,0x1
80001d18:	00f67633          	and	a2,a2,a5
80001d1c:	01064633          	xor	a2,a2,a6
80001d20:	01061613          	slli	a2,a2,0x10
80001d24:	006f5693          	srli	a3,t5,0x6
80001d28:	01065613          	srli	a2,a2,0x10
80001d2c:	00c6c6b3          	xor	a3,a3,a2
80001d30:	0016f693          	andi	a3,a3,1
80001d34:	40d006b3          	neg	a3,a3
80001d38:	00165613          	srli	a2,a2,0x1
80001d3c:	00f6f6b3          	and	a3,a3,a5
80001d40:	00c6c6b3          	xor	a3,a3,a2
80001d44:	01069693          	slli	a3,a3,0x10
80001d48:	0106d693          	srli	a3,a3,0x10
80001d4c:	007f5f13          	srli	t5,t5,0x7
80001d50:	00df4f33          	xor	t5,t5,a3
80001d54:	001f7f13          	andi	t5,t5,1
80001d58:	41e00f33          	neg	t5,t5
80001d5c:	0016d693          	srli	a3,a3,0x1
80001d60:	00ff7f33          	and	t5,t5,a5
80001d64:	01051713          	slli	a4,a0,0x10
80001d68:	00df4f33          	xor	t5,t5,a3
80001d6c:	01075713          	srli	a4,a4,0x10
80001d70:	010f1f13          	slli	t5,t5,0x10
80001d74:	00875713          	srli	a4,a4,0x8
80001d78:	010f5f13          	srli	t5,t5,0x10
80001d7c:	01e746b3          	xor	a3,a4,t5
80001d80:	0016f693          	andi	a3,a3,1
80001d84:	40d006b3          	neg	a3,a3
80001d88:	001f5f13          	srli	t5,t5,0x1
80001d8c:	00f6f6b3          	and	a3,a3,a5
80001d90:	01e6c6b3          	xor	a3,a3,t5
80001d94:	01069693          	slli	a3,a3,0x10
80001d98:	00175593          	srli	a1,a4,0x1
80001d9c:	0106d693          	srli	a3,a3,0x10
80001da0:	00d5c5b3          	xor	a1,a1,a3
80001da4:	0015f593          	andi	a1,a1,1
80001da8:	40b005b3          	neg	a1,a1
80001dac:	00f5f5b3          	and	a1,a1,a5
80001db0:	0016d693          	srli	a3,a3,0x1
80001db4:	00d5c6b3          	xor	a3,a1,a3
80001db8:	01069693          	slli	a3,a3,0x10
80001dbc:	00275e93          	srli	t4,a4,0x2
80001dc0:	0106d693          	srli	a3,a3,0x10
80001dc4:	00deceb3          	xor	t4,t4,a3
80001dc8:	001efe93          	andi	t4,t4,1
80001dcc:	41d00eb3          	neg	t4,t4
80001dd0:	0016d693          	srli	a3,a3,0x1
80001dd4:	00fefeb3          	and	t4,t4,a5
80001dd8:	00deceb3          	xor	t4,t4,a3
80001ddc:	010e9e93          	slli	t4,t4,0x10
80001de0:	00375e13          	srli	t3,a4,0x3
80001de4:	010ede93          	srli	t4,t4,0x10
80001de8:	01de46b3          	xor	a3,t3,t4
80001dec:	0016f693          	andi	a3,a3,1
80001df0:	40d006b3          	neg	a3,a3
80001df4:	001ede93          	srli	t4,t4,0x1
80001df8:	00f6f6b3          	and	a3,a3,a5
80001dfc:	01d6c6b3          	xor	a3,a3,t4
80001e00:	01069693          	slli	a3,a3,0x10
80001e04:	00475313          	srli	t1,a4,0x4
80001e08:	0106d693          	srli	a3,a3,0x10
80001e0c:	00d34333          	xor	t1,t1,a3
80001e10:	00137313          	andi	t1,t1,1
80001e14:	40600333          	neg	t1,t1
80001e18:	0016d693          	srli	a3,a3,0x1
80001e1c:	00f37333          	and	t1,t1,a5
80001e20:	00d34333          	xor	t1,t1,a3
80001e24:	01031313          	slli	t1,t1,0x10
80001e28:	00575893          	srli	a7,a4,0x5
80001e2c:	01035313          	srli	t1,t1,0x10
80001e30:	0068c6b3          	xor	a3,a7,t1
80001e34:	0016f693          	andi	a3,a3,1
80001e38:	40d006b3          	neg	a3,a3
80001e3c:	00135313          	srli	t1,t1,0x1
80001e40:	00f6f6b3          	and	a3,a3,a5
80001e44:	0066c6b3          	xor	a3,a3,t1
80001e48:	01069693          	slli	a3,a3,0x10
80001e4c:	00675813          	srli	a6,a4,0x6
80001e50:	0106d693          	srli	a3,a3,0x10
80001e54:	00d84833          	xor	a6,a6,a3
80001e58:	00187813          	andi	a6,a6,1
80001e5c:	41000833          	neg	a6,a6
80001e60:	0016d693          	srli	a3,a3,0x1
80001e64:	00f87833          	and	a6,a6,a5
80001e68:	00d84833          	xor	a6,a6,a3
80001e6c:	01081813          	slli	a6,a6,0x10
80001e70:	00775613          	srli	a2,a4,0x7
80001e74:	01085813          	srli	a6,a6,0x10
80001e78:	010646b3          	xor	a3,a2,a6
80001e7c:	0016f693          	andi	a3,a3,1
80001e80:	40d006b3          	neg	a3,a3
80001e84:	00185813          	srli	a6,a6,0x1
80001e88:	00f6f6b3          	and	a3,a3,a5
80001e8c:	0106c6b3          	xor	a3,a3,a6
80001e90:	01055713          	srli	a4,a0,0x10
80001e94:	01069693          	slli	a3,a3,0x10
80001e98:	0ff77713          	andi	a4,a4,255
80001e9c:	ff010113          	addi	sp,sp,-16
80001ea0:	0106d693          	srli	a3,a3,0x10
80001ea4:	00812623          	sw	s0,12(sp)
80001ea8:	00275593          	srli	a1,a4,0x2
80001eac:	00175413          	srli	s0,a4,0x1
80001eb0:	00375393          	srli	t2,a4,0x3
80001eb4:	00475293          	srli	t0,a4,0x4
80001eb8:	00575f93          	srli	t6,a4,0x5
80001ebc:	00675f13          	srli	t5,a4,0x6
80001ec0:	00775e93          	srli	t4,a4,0x7
80001ec4:	00d74733          	xor	a4,a4,a3
80001ec8:	00177713          	andi	a4,a4,1
80001ecc:	40e00733          	neg	a4,a4
80001ed0:	0016d693          	srli	a3,a3,0x1
80001ed4:	00f77733          	and	a4,a4,a5
80001ed8:	00d74733          	xor	a4,a4,a3
80001edc:	01071713          	slli	a4,a4,0x10
80001ee0:	01075713          	srli	a4,a4,0x10
80001ee4:	00e44433          	xor	s0,s0,a4
80001ee8:	00147413          	andi	s0,s0,1
80001eec:	40800433          	neg	s0,s0
80001ef0:	00175713          	srli	a4,a4,0x1
80001ef4:	00f47433          	and	s0,s0,a5
80001ef8:	00e44433          	xor	s0,s0,a4
80001efc:	01041413          	slli	s0,s0,0x10
80001f00:	01045413          	srli	s0,s0,0x10
80001f04:	0085c733          	xor	a4,a1,s0
80001f08:	00177713          	andi	a4,a4,1
80001f0c:	40e00733          	neg	a4,a4
80001f10:	00145413          	srli	s0,s0,0x1
80001f14:	00f77733          	and	a4,a4,a5
80001f18:	00874733          	xor	a4,a4,s0
80001f1c:	01071713          	slli	a4,a4,0x10
80001f20:	01075713          	srli	a4,a4,0x10
80001f24:	00e3c3b3          	xor	t2,t2,a4
80001f28:	0013f393          	andi	t2,t2,1
80001f2c:	407003b3          	neg	t2,t2
80001f30:	00175713          	srli	a4,a4,0x1
80001f34:	00f3f3b3          	and	t2,t2,a5
80001f38:	00e3c3b3          	xor	t2,t2,a4
80001f3c:	01039393          	slli	t2,t2,0x10
80001f40:	0103d393          	srli	t2,t2,0x10
80001f44:	0072c733          	xor	a4,t0,t2
80001f48:	00177713          	andi	a4,a4,1
80001f4c:	40e00733          	neg	a4,a4
80001f50:	00f77733          	and	a4,a4,a5
80001f54:	0013d393          	srli	t2,t2,0x1
80001f58:	00774733          	xor	a4,a4,t2
80001f5c:	01071713          	slli	a4,a4,0x10
80001f60:	01075713          	srli	a4,a4,0x10
80001f64:	00efcfb3          	xor	t6,t6,a4
80001f68:	001fff93          	andi	t6,t6,1
80001f6c:	41f00fb3          	neg	t6,t6
80001f70:	00175713          	srli	a4,a4,0x1
80001f74:	00ffffb3          	and	t6,t6,a5
80001f78:	00efcfb3          	xor	t6,t6,a4
80001f7c:	010f9f93          	slli	t6,t6,0x10
80001f80:	010fdf93          	srli	t6,t6,0x10
80001f84:	01ff4733          	xor	a4,t5,t6
80001f88:	00177713          	andi	a4,a4,1
80001f8c:	40e00733          	neg	a4,a4
80001f90:	00f77733          	and	a4,a4,a5
80001f94:	001fdf93          	srli	t6,t6,0x1
80001f98:	01f74733          	xor	a4,a4,t6
80001f9c:	01071713          	slli	a4,a4,0x10
80001fa0:	01075713          	srli	a4,a4,0x10
80001fa4:	00eeceb3          	xor	t4,t4,a4
80001fa8:	001efe93          	andi	t4,t4,1
80001fac:	41d00eb3          	neg	t4,t4
80001fb0:	00175713          	srli	a4,a4,0x1
80001fb4:	00fefeb3          	and	t4,t4,a5
80001fb8:	00eeceb3          	xor	t4,t4,a4
80001fbc:	010e9e93          	slli	t4,t4,0x10
80001fc0:	01855513          	srli	a0,a0,0x18
80001fc4:	010ede93          	srli	t4,t4,0x10
80001fc8:	01d54733          	xor	a4,a0,t4
80001fcc:	00177713          	andi	a4,a4,1
80001fd0:	40e00733          	neg	a4,a4
80001fd4:	00f77733          	and	a4,a4,a5
80001fd8:	001ede93          	srli	t4,t4,0x1
80001fdc:	01d74733          	xor	a4,a4,t4
80001fe0:	01071713          	slli	a4,a4,0x10
80001fe4:	01075713          	srli	a4,a4,0x10
80001fe8:	00155e13          	srli	t3,a0,0x1
80001fec:	00255313          	srli	t1,a0,0x2
80001ff0:	00355893          	srli	a7,a0,0x3
80001ff4:	00455813          	srli	a6,a0,0x4
80001ff8:	00555613          	srli	a2,a0,0x5
80001ffc:	00655693          	srli	a3,a0,0x6
80002000:	00755593          	srli	a1,a0,0x7
80002004:	00ee4533          	xor	a0,t3,a4
80002008:	00157513          	andi	a0,a0,1
8000200c:	40a00533          	neg	a0,a0
80002010:	00175713          	srli	a4,a4,0x1
80002014:	00f57533          	and	a0,a0,a5
80002018:	00e54533          	xor	a0,a0,a4
8000201c:	01051513          	slli	a0,a0,0x10
80002020:	01055513          	srli	a0,a0,0x10
80002024:	00a34733          	xor	a4,t1,a0
80002028:	00177713          	andi	a4,a4,1
8000202c:	40e00733          	neg	a4,a4
80002030:	00155513          	srli	a0,a0,0x1
80002034:	00f77733          	and	a4,a4,a5
80002038:	00a74733          	xor	a4,a4,a0
8000203c:	01071713          	slli	a4,a4,0x10
80002040:	01075713          	srli	a4,a4,0x10
80002044:	00e8c533          	xor	a0,a7,a4
80002048:	00157513          	andi	a0,a0,1
8000204c:	40a00533          	neg	a0,a0
80002050:	00175713          	srli	a4,a4,0x1
80002054:	00f57533          	and	a0,a0,a5
80002058:	00e54533          	xor	a0,a0,a4
8000205c:	01051513          	slli	a0,a0,0x10
80002060:	01055513          	srli	a0,a0,0x10
80002064:	00a84733          	xor	a4,a6,a0
80002068:	00177713          	andi	a4,a4,1
8000206c:	40e00733          	neg	a4,a4
80002070:	00155513          	srli	a0,a0,0x1
80002074:	00f77733          	and	a4,a4,a5
80002078:	00a74733          	xor	a4,a4,a0
8000207c:	01071713          	slli	a4,a4,0x10
80002080:	01075713          	srli	a4,a4,0x10
80002084:	00e64633          	xor	a2,a2,a4
80002088:	00167613          	andi	a2,a2,1
8000208c:	40c00633          	neg	a2,a2
80002090:	00175713          	srli	a4,a4,0x1
80002094:	00f67633          	and	a2,a2,a5
80002098:	00e64633          	xor	a2,a2,a4
8000209c:	01061613          	slli	a2,a2,0x10
800020a0:	01065613          	srli	a2,a2,0x10
800020a4:	00c6c733          	xor	a4,a3,a2
800020a8:	00177713          	andi	a4,a4,1
800020ac:	40e00733          	neg	a4,a4
800020b0:	00f77733          	and	a4,a4,a5
800020b4:	00165613          	srli	a2,a2,0x1
800020b8:	00c74733          	xor	a4,a4,a2
800020bc:	01071713          	slli	a4,a4,0x10
800020c0:	01075713          	srli	a4,a4,0x10
800020c4:	00e5c533          	xor	a0,a1,a4
800020c8:	00157513          	andi	a0,a0,1
800020cc:	40a00533          	neg	a0,a0
800020d0:	00c12403          	lw	s0,12(sp)
800020d4:	00f57533          	and	a0,a0,a5
800020d8:	00175713          	srli	a4,a4,0x1
800020dc:	00e54533          	xor	a0,a0,a4
800020e0:	01051513          	slli	a0,a0,0x10
800020e4:	01055513          	srli	a0,a0,0x10
800020e8:	01010113          	addi	sp,sp,16
800020ec:	00008067          	ret

800020f0 <crc16>:
800020f0:	0ff57313          	andi	t1,a0,255
800020f4:	00b346b3          	xor	a3,t1,a1
800020f8:	0016f693          	andi	a3,a3,1
800020fc:	ffffa737          	lui	a4,0xffffa
80002100:	00170713          	addi	a4,a4,1 # ffffa001 <_end+0x7ffb0001>
80002104:	40d006b3          	neg	a3,a3
80002108:	0015d593          	srli	a1,a1,0x1
8000210c:	00e6f6b3          	and	a3,a3,a4
80002110:	00b6c6b3          	xor	a3,a3,a1
80002114:	01069693          	slli	a3,a3,0x10
80002118:	0106d693          	srli	a3,a3,0x10
8000211c:	00135793          	srli	a5,t1,0x1
80002120:	00d7c7b3          	xor	a5,a5,a3
80002124:	0017f793          	andi	a5,a5,1
80002128:	40f007b3          	neg	a5,a5
8000212c:	00e7f7b3          	and	a5,a5,a4
80002130:	0016d693          	srli	a3,a3,0x1
80002134:	00d7c7b3          	xor	a5,a5,a3
80002138:	01079793          	slli	a5,a5,0x10
8000213c:	00235813          	srli	a6,t1,0x2
80002140:	0107d793          	srli	a5,a5,0x10
80002144:	00f84833          	xor	a6,a6,a5
80002148:	00187813          	andi	a6,a6,1
8000214c:	41000833          	neg	a6,a6
80002150:	00e87833          	and	a6,a6,a4
80002154:	0017d793          	srli	a5,a5,0x1
80002158:	00f84833          	xor	a6,a6,a5
8000215c:	01081813          	slli	a6,a6,0x10
80002160:	00335593          	srli	a1,t1,0x3
80002164:	01085813          	srli	a6,a6,0x10
80002168:	0105c5b3          	xor	a1,a1,a6
8000216c:	0015f593          	andi	a1,a1,1
80002170:	40b005b3          	neg	a1,a1
80002174:	00e5f5b3          	and	a1,a1,a4
80002178:	00185813          	srli	a6,a6,0x1
8000217c:	0105c5b3          	xor	a1,a1,a6
80002180:	01059593          	slli	a1,a1,0x10
80002184:	00435613          	srli	a2,t1,0x4
80002188:	0105d593          	srli	a1,a1,0x10
8000218c:	00b64633          	xor	a2,a2,a1
80002190:	00167613          	andi	a2,a2,1
80002194:	40c00633          	neg	a2,a2
80002198:	00e67633          	and	a2,a2,a4
8000219c:	0015d593          	srli	a1,a1,0x1
800021a0:	00b64633          	xor	a2,a2,a1
800021a4:	01061613          	slli	a2,a2,0x10
800021a8:	00535693          	srli	a3,t1,0x5
800021ac:	01065613          	srli	a2,a2,0x10
800021b0:	00c6c6b3          	xor	a3,a3,a2
800021b4:	0016f693          	andi	a3,a3,1
800021b8:	40d006b3          	neg	a3,a3
800021bc:	00e6f6b3          	and	a3,a3,a4
800021c0:	00165613          	srli	a2,a2,0x1
800021c4:	00c6c6b3          	xor	a3,a3,a2
800021c8:	01069693          	slli	a3,a3,0x10
800021cc:	00635793          	srli	a5,t1,0x6
800021d0:	0106d693          	srli	a3,a3,0x10
800021d4:	00d7c7b3          	xor	a5,a5,a3
800021d8:	0017f793          	andi	a5,a5,1
800021dc:	40f007b3          	neg	a5,a5
800021e0:	00e7f7b3          	and	a5,a5,a4
800021e4:	0016d693          	srli	a3,a3,0x1
800021e8:	00d7c7b3          	xor	a5,a5,a3
800021ec:	01079793          	slli	a5,a5,0x10
800021f0:	0107d793          	srli	a5,a5,0x10
800021f4:	00735313          	srli	t1,t1,0x7
800021f8:	00f34333          	xor	t1,t1,a5
800021fc:	00137313          	andi	t1,t1,1
80002200:	40600333          	neg	t1,t1
80002204:	00e37333          	and	t1,t1,a4
80002208:	0017d793          	srli	a5,a5,0x1
8000220c:	00f34333          	xor	t1,t1,a5
80002210:	01051513          	slli	a0,a0,0x10
80002214:	01055513          	srli	a0,a0,0x10
80002218:	01031313          	slli	t1,t1,0x10
8000221c:	00855513          	srli	a0,a0,0x8
80002220:	01035313          	srli	t1,t1,0x10
80002224:	006547b3          	xor	a5,a0,t1
80002228:	0017f793          	andi	a5,a5,1
8000222c:	40f007b3          	neg	a5,a5
80002230:	00e7f7b3          	and	a5,a5,a4
80002234:	00135313          	srli	t1,t1,0x1
80002238:	0067c7b3          	xor	a5,a5,t1
8000223c:	01079793          	slli	a5,a5,0x10
80002240:	00155e93          	srli	t4,a0,0x1
80002244:	0107d793          	srli	a5,a5,0x10
80002248:	00255e13          	srli	t3,a0,0x2
8000224c:	00355893          	srli	a7,a0,0x3
80002250:	00455813          	srli	a6,a0,0x4
80002254:	00655693          	srli	a3,a0,0x6
80002258:	00755593          	srli	a1,a0,0x7
8000225c:	00555613          	srli	a2,a0,0x5
80002260:	00fec533          	xor	a0,t4,a5
80002264:	00157513          	andi	a0,a0,1
80002268:	40a00533          	neg	a0,a0
8000226c:	00e57533          	and	a0,a0,a4
80002270:	0017d793          	srli	a5,a5,0x1
80002274:	00f54533          	xor	a0,a0,a5
80002278:	01051513          	slli	a0,a0,0x10
8000227c:	01055513          	srli	a0,a0,0x10
80002280:	00ae47b3          	xor	a5,t3,a0
80002284:	0017f793          	andi	a5,a5,1
80002288:	40f007b3          	neg	a5,a5
8000228c:	00e7f7b3          	and	a5,a5,a4
80002290:	00155513          	srli	a0,a0,0x1
80002294:	00a7c7b3          	xor	a5,a5,a0
80002298:	01079793          	slli	a5,a5,0x10
8000229c:	0107d793          	srli	a5,a5,0x10
800022a0:	00f8c533          	xor	a0,a7,a5
800022a4:	00157513          	andi	a0,a0,1
800022a8:	40a00533          	neg	a0,a0
800022ac:	00e57533          	and	a0,a0,a4
800022b0:	0017d793          	srli	a5,a5,0x1
800022b4:	00f54533          	xor	a0,a0,a5
800022b8:	01051513          	slli	a0,a0,0x10
800022bc:	01055513          	srli	a0,a0,0x10
800022c0:	00a847b3          	xor	a5,a6,a0
800022c4:	0017f793          	andi	a5,a5,1
800022c8:	40f007b3          	neg	a5,a5
800022cc:	00e7f7b3          	and	a5,a5,a4
800022d0:	00155513          	srli	a0,a0,0x1
800022d4:	00a7c7b3          	xor	a5,a5,a0
800022d8:	01079793          	slli	a5,a5,0x10
800022dc:	0107d793          	srli	a5,a5,0x10
800022e0:	00f64633          	xor	a2,a2,a5
800022e4:	00167613          	andi	a2,a2,1
800022e8:	40c00633          	neg	a2,a2
800022ec:	00e67633          	and	a2,a2,a4
800022f0:	0017d793          	srli	a5,a5,0x1
800022f4:	00f64633          	xor	a2,a2,a5
800022f8:	01061613          	slli	a2,a2,0x10
800022fc:	01065613          	srli	a2,a2,0x10
80002300:	00c6c7b3          	xor	a5,a3,a2
80002304:	0017f793          	andi	a5,a5,1
80002308:	40f007b3          	neg	a5,a5
8000230c:	00e7f7b3          	and	a5,a5,a4
80002310:	00165613          	srli	a2,a2,0x1
80002314:	00c7c7b3          	xor	a5,a5,a2
80002318:	01079793          	slli	a5,a5,0x10
8000231c:	0107d793          	srli	a5,a5,0x10
80002320:	00f5c533          	xor	a0,a1,a5
80002324:	00157513          	andi	a0,a0,1
80002328:	40a00533          	neg	a0,a0
8000232c:	00e57533          	and	a0,a0,a4
80002330:	0017d793          	srli	a5,a5,0x1
80002334:	00f54533          	xor	a0,a0,a5
80002338:	01051513          	slli	a0,a0,0x10
8000233c:	01055513          	srli	a0,a0,0x10
80002340:	00008067          	ret

80002344 <check_data_types>:
80002344:	00000513          	li	a0,0
80002348:	00008067          	ret

8000234c <start_time>:
8000234c:	fe010113          	addi	sp,sp,-32
80002350:	00810593          	addi	a1,sp,8
80002354:	00600513          	li	a0,6
80002358:	00112e23          	sw	ra,28(sp)
8000235c:	295000ef          	jal	ra,80002df0 <ioe_read>
80002360:	00812783          	lw	a5,8(sp)
80002364:	01c12083          	lw	ra,28(sp)
80002368:	00007717          	auipc	a4,0x7
8000236c:	46f72c23          	sw	a5,1144(a4) # 800097e0 <start_time_val>
80002370:	02010113          	addi	sp,sp,32
80002374:	00008067          	ret

80002378 <stop_time>:
80002378:	fe010113          	addi	sp,sp,-32
8000237c:	00810593          	addi	a1,sp,8
80002380:	00600513          	li	a0,6
80002384:	00112e23          	sw	ra,28(sp)
80002388:	269000ef          	jal	ra,80002df0 <ioe_read>
8000238c:	00812783          	lw	a5,8(sp)
80002390:	01c12083          	lw	ra,28(sp)
80002394:	00007717          	auipc	a4,0x7
80002398:	44f72423          	sw	a5,1096(a4) # 800097dc <stop_time_val>
8000239c:	02010113          	addi	sp,sp,32
800023a0:	00008067          	ret

800023a4 <get_time>:
800023a4:	00007517          	auipc	a0,0x7
800023a8:	43852503          	lw	a0,1080(a0) # 800097dc <stop_time_val>
800023ac:	00007797          	auipc	a5,0x7
800023b0:	4347a783          	lw	a5,1076(a5) # 800097e0 <start_time_val>
800023b4:	40f50533          	sub	a0,a0,a5
800023b8:	00008067          	ret

800023bc <time_in_secs>:
800023bc:	00008067          	ret

800023c0 <portable_init>:
800023c0:	00100793          	li	a5,1
800023c4:	00f50023          	sb	a5,0(a0)
800023c8:	00008067          	ret

800023cc <portable_fini>:
800023cc:	00050023          	sb	zero,0(a0)
800023d0:	00008067          	ret

800023d4 <iterate>:
800023d4:	ff010113          	addi	sp,sp,-16
800023d8:	01212023          	sw	s2,0(sp)
800023dc:	01c52903          	lw	s2,28(a0)
800023e0:	00112623          	sw	ra,12(sp)
800023e4:	02052c23          	sw	zero,56(a0)
800023e8:	02052e23          	sw	zero,60(a0)
800023ec:	08090a63          	beqz	s2,80002480 <iterate+0xac>
800023f0:	00100593          	li	a1,1
800023f4:	00812423          	sw	s0,8(sp)
800023f8:	00912223          	sw	s1,4(sp)
800023fc:	00050413          	mv	s0,a0
80002400:	dfdfd0ef          	jal	ra,800001fc <core_bench_list>
80002404:	03845583          	lhu	a1,56(s0)
80002408:	00100493          	li	s1,1
8000240c:	df0ff0ef          	jal	ra,800019fc <crcu16>
80002410:	02a41c23          	sh	a0,56(s0)
80002414:	fff00593          	li	a1,-1
80002418:	00040513          	mv	a0,s0
8000241c:	de1fd0ef          	jal	ra,800001fc <core_bench_list>
80002420:	03845583          	lhu	a1,56(s0)
80002424:	dd8ff0ef          	jal	ra,800019fc <crcu16>
80002428:	01051793          	slli	a5,a0,0x10
8000242c:	0107d793          	srli	a5,a5,0x10
80002430:	01051513          	slli	a0,a0,0x10
80002434:	00a7e7b3          	or	a5,a5,a0
80002438:	02f42c23          	sw	a5,56(s0)
8000243c:	02990e63          	beq	s2,s1,80002478 <iterate+0xa4>
80002440:	00100593          	li	a1,1
80002444:	00040513          	mv	a0,s0
80002448:	db5fd0ef          	jal	ra,800001fc <core_bench_list>
8000244c:	03845583          	lhu	a1,56(s0)
80002450:	00148493          	addi	s1,s1,1
80002454:	da8ff0ef          	jal	ra,800019fc <crcu16>
80002458:	02a41c23          	sh	a0,56(s0)
8000245c:	fff00593          	li	a1,-1
80002460:	00040513          	mv	a0,s0
80002464:	d99fd0ef          	jal	ra,800001fc <core_bench_list>
80002468:	03845583          	lhu	a1,56(s0)
8000246c:	d90ff0ef          	jal	ra,800019fc <crcu16>
80002470:	02a41c23          	sh	a0,56(s0)
80002474:	fc9916e3          	bne	s2,s1,80002440 <iterate+0x6c>
80002478:	00812403          	lw	s0,8(sp)
8000247c:	00412483          	lw	s1,4(sp)
80002480:	00c12083          	lw	ra,12(sp)
80002484:	00012903          	lw	s2,0(sp)
80002488:	00000513          	li	a0,0
8000248c:	01010113          	addi	sp,sp,16
80002490:	00008067          	ret

80002494 <main>:
80002494:	f6010113          	addi	sp,sp,-160
80002498:	08112e23          	sw	ra,156(sp)
8000249c:	08812c23          	sw	s0,152(sp)
800024a0:	08912a23          	sw	s1,148(sp)
800024a4:	00058413          	mv	s0,a1
800024a8:	09212823          	sw	s2,144(sp)
800024ac:	09312623          	sw	s3,140(sp)
800024b0:	09412423          	sw	s4,136(sp)
800024b4:	09512223          	sw	s5,132(sp)
800024b8:	09612023          	sw	s6,128(sp)
800024bc:	07712e23          	sw	s7,124(sp)
800024c0:	07812c23          	sw	s8,120(sp)
800024c4:	07912a23          	sw	s9,116(sp)
800024c8:	07b12623          	sw	s11,108(sp)
800024cc:	00a12623          	sw	a0,12(sp)
800024d0:	0cd000ef          	jal	ra,80002d9c <ioe_init>
800024d4:	00500593          	li	a1,5
800024d8:	00006517          	auipc	a0,0x6
800024dc:	03c50513          	addi	a0,a0,60 # 80008514 <_etext+0xb0>
800024e0:	498030ef          	jal	ra,80005978 <printf>
800024e4:	00040613          	mv	a2,s0
800024e8:	00c10593          	addi	a1,sp,12
800024ec:	05e10513          	addi	a0,sp,94
800024f0:	ed1ff0ef          	jal	ra,800023c0 <portable_init>
800024f4:	00100513          	li	a0,1
800024f8:	c9cff0ef          	jal	ra,80001994 <get_seed_32>
800024fc:	00050793          	mv	a5,a0
80002500:	00200513          	li	a0,2
80002504:	00f11e23          	sh	a5,28(sp)
80002508:	c8cff0ef          	jal	ra,80001994 <get_seed_32>
8000250c:	00050793          	mv	a5,a0
80002510:	00300513          	li	a0,3
80002514:	00f11f23          	sh	a5,30(sp)
80002518:	c7cff0ef          	jal	ra,80001994 <get_seed_32>
8000251c:	00050793          	mv	a5,a0
80002520:	00400513          	li	a0,4
80002524:	02f11023          	sh	a5,32(sp)
80002528:	c6cff0ef          	jal	ra,80001994 <get_seed_32>
8000252c:	00050793          	mv	a5,a0
80002530:	00500513          	li	a0,5
80002534:	02f12c23          	sw	a5,56(sp)
80002538:	c5cff0ef          	jal	ra,80001994 <get_seed_32>
8000253c:	00051463          	bnez	a0,80002544 <main+0xb0>
80002540:	00700513          	li	a0,7
80002544:	01c12783          	lw	a5,28(sp)
80002548:	02a12e23          	sw	a0,60(sp)
8000254c:	22079463          	bnez	a5,80002774 <main+0x2e0>
80002550:	02011783          	lh	a5,32(sp)
80002554:	2a078463          	beqz	a5,800027fc <main+0x368>
80002558:	00007617          	auipc	a2,0x7
8000255c:	89060613          	addi	a2,a2,-1904 # 80008de8 <static_memblk>
80002560:	00157793          	andi	a5,a0,1
80002564:	00257713          	andi	a4,a0,2
80002568:	04011e23          	sh	zero,92(sp)
8000256c:	02c12223          	sw	a2,36(sp)
80002570:	00078693          	mv	a3,a5
80002574:	00457513          	andi	a0,a0,4
80002578:	22071263          	bnez	a4,8000279c <main+0x308>
8000257c:	26050663          	beqz	a0,800027e8 <main+0x354>
80002580:	00178713          	addi	a4,a5,1
80002584:	7d000593          	li	a1,2000
80002588:	02e5d5b3          	divu	a1,a1,a4
8000258c:	02b12a23          	sw	a1,52(sp)
80002590:	62079063          	bnez	a5,80002bb0 <main+0x71c>
80002594:	02b787b3          	mul	a5,a5,a1
80002598:	00f60633          	add	a2,a2,a5
8000259c:	02c12823          	sw	a2,48(sp)
800025a0:	03c12783          	lw	a5,60(sp)
800025a4:	0017f713          	andi	a4,a5,1
800025a8:	00070e63          	beqz	a4,800025c4 <main+0x130>
800025ac:	01c11603          	lh	a2,28(sp)
800025b0:	02812583          	lw	a1,40(sp)
800025b4:	03412503          	lw	a0,52(sp)
800025b8:	a2cfe0ef          	jal	ra,800007e4 <core_list_init>
800025bc:	03c12783          	lw	a5,60(sp)
800025c0:	04a12023          	sw	a0,64(sp)
800025c4:	0027f713          	andi	a4,a5,2
800025c8:	24071063          	bnez	a4,80002808 <main+0x374>
800025cc:	0047f793          	andi	a5,a5,4
800025d0:	00078a63          	beqz	a5,800025e4 <main+0x150>
800025d4:	03012603          	lw	a2,48(sp)
800025d8:	01c11583          	lh	a1,28(sp)
800025dc:	03412503          	lw	a0,52(sp)
800025e0:	b95fe0ef          	jal	ra,80001174 <core_init_state>
800025e4:	03812783          	lw	a5,56(sp)
800025e8:	0e079263          	bnez	a5,800026cc <main+0x238>
800025ec:	00100913          	li	s2,1
800025f0:	03212c23          	sw	s2,56(sp)
800025f4:	03812703          	lw	a4,56(sp)
800025f8:	00271793          	slli	a5,a4,0x2
800025fc:	00e787b3          	add	a5,a5,a4
80002600:	00179793          	slli	a5,a5,0x1
80002604:	02f12c23          	sw	a5,56(sp)
80002608:	d45ff0ef          	jal	ra,8000234c <start_time>
8000260c:	03812483          	lw	s1,56(sp)
80002610:	04012a23          	sw	zero,84(sp)
80002614:	04012c23          	sw	zero,88(sp)
80002618:	08048663          	beqz	s1,800026a4 <main+0x210>
8000261c:	00100593          	li	a1,1
80002620:	01c10513          	addi	a0,sp,28
80002624:	bd9fd0ef          	jal	ra,800001fc <core_bench_list>
80002628:	05415583          	lhu	a1,84(sp)
8000262c:	00100413          	li	s0,1
80002630:	bccff0ef          	jal	ra,800019fc <crcu16>
80002634:	00050793          	mv	a5,a0
80002638:	fff00593          	li	a1,-1
8000263c:	01c10513          	addi	a0,sp,28
80002640:	04f11a23          	sh	a5,84(sp)
80002644:	bb9fd0ef          	jal	ra,800001fc <core_bench_list>
80002648:	05415583          	lhu	a1,84(sp)
8000264c:	bb0ff0ef          	jal	ra,800019fc <crcu16>
80002650:	01051793          	slli	a5,a0,0x10
80002654:	0107d793          	srli	a5,a5,0x10
80002658:	01051513          	slli	a0,a0,0x10
8000265c:	00a7e7b3          	or	a5,a5,a0
80002660:	04f12a23          	sw	a5,84(sp)
80002664:	05248063          	beq	s1,s2,800026a4 <main+0x210>
80002668:	00100593          	li	a1,1
8000266c:	01c10513          	addi	a0,sp,28
80002670:	b8dfd0ef          	jal	ra,800001fc <core_bench_list>
80002674:	05415583          	lhu	a1,84(sp)
80002678:	00140413          	addi	s0,s0,1
8000267c:	b80ff0ef          	jal	ra,800019fc <crcu16>
80002680:	00050793          	mv	a5,a0
80002684:	fff00593          	li	a1,-1
80002688:	01c10513          	addi	a0,sp,28
8000268c:	04f11a23          	sh	a5,84(sp)
80002690:	b6dfd0ef          	jal	ra,800001fc <core_bench_list>
80002694:	05415583          	lhu	a1,84(sp)
80002698:	b64ff0ef          	jal	ra,800019fc <crcu16>
8000269c:	04a11a23          	sh	a0,84(sp)
800026a0:	fc8494e3          	bne	s1,s0,80002668 <main+0x1d4>
800026a4:	cd5ff0ef          	jal	ra,80002378 <stop_time>
800026a8:	cfdff0ef          	jal	ra,800023a4 <get_time>
800026ac:	d11ff0ef          	jal	ra,800023bc <time_in_secs>
800026b0:	f40502e3          	beqz	a0,800025f4 <main+0x160>
800026b4:	00a00793          	li	a5,10
800026b8:	02a7d7b3          	divu	a5,a5,a0
800026bc:	03812703          	lw	a4,56(sp)
800026c0:	00178793          	addi	a5,a5,1
800026c4:	02f707b3          	mul	a5,a4,a5
800026c8:	02f12c23          	sw	a5,56(sp)
800026cc:	c81ff0ef          	jal	ra,8000234c <start_time>
800026d0:	01c10513          	addi	a0,sp,28
800026d4:	d01ff0ef          	jal	ra,800023d4 <iterate>
800026d8:	ca1ff0ef          	jal	ra,80002378 <stop_time>
800026dc:	cc9ff0ef          	jal	ra,800023a4 <get_time>
800026e0:	00050993          	mv	s3,a0
800026e4:	01c11503          	lh	a0,28(sp)
800026e8:	00000593          	li	a1,0
800026ec:	a05ff0ef          	jal	ra,800020f0 <crc16>
800026f0:	00050593          	mv	a1,a0
800026f4:	01e11503          	lh	a0,30(sp)
800026f8:	9f9ff0ef          	jal	ra,800020f0 <crc16>
800026fc:	00050593          	mv	a1,a0
80002700:	02011503          	lh	a0,32(sp)
80002704:	9edff0ef          	jal	ra,800020f0 <crc16>
80002708:	00050593          	mv	a1,a0
8000270c:	03411503          	lh	a0,52(sp)
80002710:	9e1ff0ef          	jal	ra,800020f0 <crc16>
80002714:	000087b7          	lui	a5,0x8
80002718:	b0578793          	addi	a5,a5,-1275 # 7b05 <_entry_offset+0x7b05>
8000271c:	00050913          	mv	s2,a0
80002720:	54f50c63          	beq	a0,a5,80002c78 <main+0x7e4>
80002724:	10a7ea63          	bltu	a5,a0,80002838 <main+0x3a4>
80002728:	000027b7          	lui	a5,0x2
8000272c:	8f278793          	addi	a5,a5,-1806 # 18f2 <_entry_offset+0x18f2>
80002730:	50f50a63          	beq	a0,a5,80002c44 <main+0x7b0>
80002734:	000057b7          	lui	a5,0x5
80002738:	eaf78793          	addi	a5,a5,-337 # 4eaf <_entry_offset+0x4eaf>
8000273c:	24f51863          	bne	a0,a5,8000298c <main+0x4f8>
80002740:	0000eab7          	lui	s5,0xe
80002744:	00005b37          	lui	s6,0x5
80002748:	00007a37          	lui	s4,0x7
8000274c:	00006517          	auipc	a0,0x6
80002750:	e4850513          	addi	a0,a0,-440 # 80008594 <_etext+0x130>
80002754:	5a4a8a93          	addi	s5,s5,1444 # e5a4 <_entry_offset+0xe5a4>
80002758:	608b0c13          	addi	s8,s6,1544 # 5608 <_entry_offset+0x5608>
8000275c:	a79a0a13          	addi	s4,s4,-1415 # 6a79 <_entry_offset+0x6a79>
80002760:	218030ef          	jal	ra,80005978 <printf>
80002764:	000a8c93          	mv	s9,s5
80002768:	01812423          	sw	s8,8(sp)
8000276c:	000a0b93          	mv	s7,s4
80002770:	1100006f          	j	80002880 <main+0x3ec>
80002774:	00100713          	li	a4,1
80002778:	dee790e3          	bne	a5,a4,80002558 <main+0xc4>
8000277c:	02011783          	lh	a5,32(sp)
80002780:	dc079ce3          	bnez	a5,80002558 <main+0xc4>
80002784:	341537b7          	lui	a5,0x34153
80002788:	41578793          	addi	a5,a5,1045 # 34153415 <_entry_offset+0x34153415>
8000278c:	06600713          	li	a4,102
80002790:	00f12e23          	sw	a5,28(sp)
80002794:	02e11023          	sh	a4,32(sp)
80002798:	dc1ff06f          	j	80002558 <main+0xc4>
8000279c:	00178793          	addi	a5,a5,1
800027a0:	02050863          	beqz	a0,800027d0 <main+0x33c>
800027a4:	00268713          	addi	a4,a3,2
800027a8:	7d000593          	li	a1,2000
800027ac:	02e5d5b3          	divu	a1,a1,a4
800027b0:	02b12a23          	sw	a1,52(sp)
800027b4:	3e069863          	bnez	a3,80002ba4 <main+0x710>
800027b8:	00400513          	li	a0,4
800027bc:	02b68733          	mul	a4,a3,a1
800027c0:	00e60733          	add	a4,a2,a4
800027c4:	02e12623          	sw	a4,44(sp)
800027c8:	dc050ce3          	beqz	a0,800025a0 <main+0x10c>
800027cc:	dc9ff06f          	j	80002594 <main+0x100>
800027d0:	7d000593          	li	a1,2000
800027d4:	02f5d5b3          	divu	a1,a1,a5
800027d8:	02b12a23          	sw	a1,52(sp)
800027dc:	fe0680e3          	beqz	a3,800027bc <main+0x328>
800027e0:	02c12423          	sw	a2,40(sp)
800027e4:	fd9ff06f          	j	800027bc <main+0x328>
800027e8:	7d000713          	li	a4,2000
800027ec:	02e12a23          	sw	a4,52(sp)
800027f0:	da0788e3          	beqz	a5,800025a0 <main+0x10c>
800027f4:	02c12423          	sw	a2,40(sp)
800027f8:	da9ff06f          	j	800025a0 <main+0x10c>
800027fc:	06600793          	li	a5,102
80002800:	02f11023          	sh	a5,32(sp)
80002804:	d55ff06f          	j	80002558 <main+0xc4>
80002808:	01e11783          	lh	a5,30(sp)
8000280c:	01c11603          	lh	a2,28(sp)
80002810:	02c12583          	lw	a1,44(sp)
80002814:	03412503          	lw	a0,52(sp)
80002818:	01079793          	slli	a5,a5,0x10
8000281c:	00c7e633          	or	a2,a5,a2
80002820:	04410693          	addi	a3,sp,68
80002824:	81dfe0ef          	jal	ra,80001040 <core_init_matrix>
80002828:	03c12783          	lw	a5,60(sp)
8000282c:	0047f793          	andi	a5,a5,4
80002830:	da0792e3          	bnez	a5,800025d4 <main+0x140>
80002834:	db1ff06f          	j	800025e4 <main+0x150>
80002838:	000097b7          	lui	a5,0x9
8000283c:	a0278793          	addi	a5,a5,-1534 # 8a02 <_entry_offset+0x8a02>
80002840:	46f50663          	beq	a0,a5,80002cac <main+0x818>
80002844:	0000f7b7          	lui	a5,0xf
80002848:	9f578793          	addi	a5,a5,-1547 # e9f5 <_entry_offset+0xe9f5>
8000284c:	14f51063          	bne	a0,a5,8000298c <main+0x4f8>
80002850:	00009ab7          	lui	s5,0x9
80002854:	00002b37          	lui	s6,0x2
80002858:	0000ea37          	lui	s4,0xe
8000285c:	00006517          	auipc	a0,0x6
80002860:	d6c50513          	addi	a0,a0,-660 # 800085c8 <_etext+0x164>
80002864:	e3aa8a93          	addi	s5,s5,-454 # 8e3a <_entry_offset+0x8e3a>
80002868:	fd7b0c13          	addi	s8,s6,-41 # 1fd7 <_entry_offset+0x1fd7>
8000286c:	714a0a13          	addi	s4,s4,1812 # e714 <_entry_offset+0xe714>
80002870:	108030ef          	jal	ra,80005978 <printf>
80002874:	000a8c93          	mv	s9,s5
80002878:	01812423          	sw	s8,8(sp)
8000287c:	000a0b93          	mv	s7,s4
80002880:	00006d97          	auipc	s11,0x6
80002884:	35cd8d93          	addi	s11,s11,860 # 80008bdc <default_num_contexts>
80002888:	000da783          	lw	a5,0(s11)
8000288c:	44078a63          	beqz	a5,80002ce0 <main+0x84c>
80002890:	07a12823          	sw	s10,112(sp)
80002894:	00000b13          	li	s6,0
80002898:	00000d13          	li	s10,0
8000289c:	0340006f          	j	800028d0 <main+0x43c>
800028a0:	00240433          	add	s0,s0,sp
800028a4:	05c45783          	lhu	a5,92(s0)
800028a8:	001d0d13          	addi	s10,s10,1
800028ac:	000da683          	lw	a3,0(s11)
800028b0:	016787b3          	add	a5,a5,s6
800028b4:	010d1d13          	slli	s10,s10,0x10
800028b8:	01079493          	slli	s1,a5,0x10
800028bc:	01079b13          	slli	s6,a5,0x10
800028c0:	010d5d13          	srli	s10,s10,0x10
800028c4:	0104d493          	srli	s1,s1,0x10
800028c8:	410b5b13          	srai	s6,s6,0x10
800028cc:	30dd7c63          	bgeu	s10,a3,80002be4 <main+0x750>
800028d0:	004d1413          	slli	s0,s10,0x4
800028d4:	01a404b3          	add	s1,s0,s10
800028d8:	00249493          	slli	s1,s1,0x2
800028dc:	06048793          	addi	a5,s1,96
800028e0:	002784b3          	add	s1,a5,sp
800028e4:	fdc4a783          	lw	a5,-36(s1)
800028e8:	fe049e23          	sh	zero,-4(s1)
800028ec:	0017f693          	andi	a3,a5,1
800028f0:	02068863          	beqz	a3,80002920 <main+0x48c>
800028f4:	ff64d603          	lhu	a2,-10(s1)
800028f8:	03760463          	beq	a2,s7,80002920 <main+0x48c>
800028fc:	000a0693          	mv	a3,s4
80002900:	000d0593          	mv	a1,s10
80002904:	00006517          	auipc	a0,0x6
80002908:	d2050513          	addi	a0,a0,-736 # 80008624 <_etext+0x1c0>
8000290c:	06c030ef          	jal	ra,80005978 <printf>
80002910:	ffc4d683          	lhu	a3,-4(s1)
80002914:	fdc4a783          	lw	a5,-36(s1)
80002918:	00168693          	addi	a3,a3,1
8000291c:	fed49e23          	sh	a3,-4(s1)
80002920:	0027f693          	andi	a3,a5,2
80002924:	04068063          	beqz	a3,80002964 <main+0x4d0>
80002928:	01a404b3          	add	s1,s0,s10
8000292c:	00249493          	slli	s1,s1,0x2
80002930:	06048713          	addi	a4,s1,96
80002934:	002704b3          	add	s1,a4,sp
80002938:	ff84d603          	lhu	a2,-8(s1)
8000293c:	03860463          	beq	a2,s8,80002964 <main+0x4d0>
80002940:	00812683          	lw	a3,8(sp)
80002944:	000d0593          	mv	a1,s10
80002948:	00006517          	auipc	a0,0x6
8000294c:	d0c50513          	addi	a0,a0,-756 # 80008654 <_etext+0x1f0>
80002950:	028030ef          	jal	ra,80005978 <printf>
80002954:	ffc4d683          	lhu	a3,-4(s1)
80002958:	fdc4a783          	lw	a5,-36(s1)
8000295c:	00168693          	addi	a3,a3,1
80002960:	fed49e23          	sh	a3,-4(s1)
80002964:	01a40433          	add	s0,s0,s10
80002968:	0047f793          	andi	a5,a5,4
8000296c:	00241413          	slli	s0,s0,0x2
80002970:	f20788e3          	beqz	a5,800028a0 <main+0x40c>
80002974:	06040793          	addi	a5,s0,96
80002978:	00278433          	add	s0,a5,sp
8000297c:	ffa45603          	lhu	a2,-6(s0)
80002980:	23961c63          	bne	a2,s9,80002bb8 <main+0x724>
80002984:	ffc45783          	lhu	a5,-4(s0)
80002988:	f21ff06f          	j	800028a8 <main+0x414>
8000298c:	00010437          	lui	s0,0x10
80002990:	fff40493          	addi	s1,s0,-1 # ffff <_entry_offset+0xffff>
80002994:	00006d97          	auipc	s11,0x6
80002998:	248d8d93          	addi	s11,s11,584 # 80008bdc <default_num_contexts>
8000299c:	9a9ff0ef          	jal	ra,80002344 <check_data_types>
800029a0:	03412583          	lw	a1,52(sp)
800029a4:	009504b3          	add	s1,a0,s1
800029a8:	00006517          	auipc	a0,0x6
800029ac:	d1050513          	addi	a0,a0,-752 # 800086b8 <_etext+0x254>
800029b0:	7c9020ef          	jal	ra,80005978 <printf>
800029b4:	00098593          	mv	a1,s3
800029b8:	00006517          	auipc	a0,0x6
800029bc:	d1850513          	addi	a0,a0,-744 # 800086d0 <_etext+0x26c>
800029c0:	7b9020ef          	jal	ra,80005978 <printf>
800029c4:	000da783          	lw	a5,0(s11)
800029c8:	03812583          	lw	a1,56(sp)
800029cc:	00006517          	auipc	a0,0x6
800029d0:	d2050513          	addi	a0,a0,-736 # 800086ec <_etext+0x288>
800029d4:	01049493          	slli	s1,s1,0x10
800029d8:	02f585b3          	mul	a1,a1,a5
800029dc:	4104d493          	srai	s1,s1,0x10
800029e0:	799020ef          	jal	ra,80005978 <printf>
800029e4:	00006597          	auipc	a1,0x6
800029e8:	d2058593          	addi	a1,a1,-736 # 80008704 <_etext+0x2a0>
800029ec:	00006517          	auipc	a0,0x6
800029f0:	d2450513          	addi	a0,a0,-732 # 80008710 <_etext+0x2ac>
800029f4:	785020ef          	jal	ra,80005978 <printf>
800029f8:	00090593          	mv	a1,s2
800029fc:	00006517          	auipc	a0,0x6
80002a00:	d2c50513          	addi	a0,a0,-724 # 80008728 <_etext+0x2c4>
80002a04:	775020ef          	jal	ra,80005978 <printf>
80002a08:	03c12783          	lw	a5,60(sp)
80002a0c:	0017f713          	andi	a4,a5,1
80002a10:	04070663          	beqz	a4,80002a5c <main+0x5c8>
80002a14:	000da703          	lw	a4,0(s11)
80002a18:	04070263          	beqz	a4,80002a5c <main+0x5c8>
80002a1c:	00000413          	li	s0,0
80002a20:	00441793          	slli	a5,s0,0x4
80002a24:	008787b3          	add	a5,a5,s0
80002a28:	00279793          	slli	a5,a5,0x2
80002a2c:	002787b3          	add	a5,a5,sp
80002a30:	0567d603          	lhu	a2,86(a5)
80002a34:	00040593          	mv	a1,s0
80002a38:	00006517          	auipc	a0,0x6
80002a3c:	d0c50513          	addi	a0,a0,-756 # 80008744 <_etext+0x2e0>
80002a40:	739020ef          	jal	ra,80005978 <printf>
80002a44:	00140413          	addi	s0,s0,1
80002a48:	000da783          	lw	a5,0(s11)
80002a4c:	01041413          	slli	s0,s0,0x10
80002a50:	01045413          	srli	s0,s0,0x10
80002a54:	fcf466e3          	bltu	s0,a5,80002a20 <main+0x58c>
80002a58:	03c12783          	lw	a5,60(sp)
80002a5c:	0027f713          	andi	a4,a5,2
80002a60:	04070663          	beqz	a4,80002aac <main+0x618>
80002a64:	000da703          	lw	a4,0(s11)
80002a68:	28070063          	beqz	a4,80002ce8 <main+0x854>
80002a6c:	00000413          	li	s0,0
80002a70:	00441793          	slli	a5,s0,0x4
80002a74:	008787b3          	add	a5,a5,s0
80002a78:	00279793          	slli	a5,a5,0x2
80002a7c:	002787b3          	add	a5,a5,sp
80002a80:	0587d603          	lhu	a2,88(a5)
80002a84:	00040593          	mv	a1,s0
80002a88:	00006517          	auipc	a0,0x6
80002a8c:	cd850513          	addi	a0,a0,-808 # 80008760 <_etext+0x2fc>
80002a90:	6e9020ef          	jal	ra,80005978 <printf>
80002a94:	00140413          	addi	s0,s0,1
80002a98:	000da783          	lw	a5,0(s11)
80002a9c:	01041413          	slli	s0,s0,0x10
80002aa0:	01045413          	srli	s0,s0,0x10
80002aa4:	fcf466e3          	bltu	s0,a5,80002a70 <main+0x5dc>
80002aa8:	03c12783          	lw	a5,60(sp)
80002aac:	0047f793          	andi	a5,a5,4
80002ab0:	04078463          	beqz	a5,80002af8 <main+0x664>
80002ab4:	000da783          	lw	a5,0(s11)
80002ab8:	00000413          	li	s0,0
80002abc:	08078063          	beqz	a5,80002b3c <main+0x6a8>
80002ac0:	00441793          	slli	a5,s0,0x4
80002ac4:	008787b3          	add	a5,a5,s0
80002ac8:	00279793          	slli	a5,a5,0x2
80002acc:	002787b3          	add	a5,a5,sp
80002ad0:	05a7d603          	lhu	a2,90(a5)
80002ad4:	00040593          	mv	a1,s0
80002ad8:	00006517          	auipc	a0,0x6
80002adc:	cbc50513          	addi	a0,a0,-836 # 80008794 <_etext+0x330>
80002ae0:	699020ef          	jal	ra,80005978 <printf>
80002ae4:	00140413          	addi	s0,s0,1
80002ae8:	000da783          	lw	a5,0(s11)
80002aec:	01041413          	slli	s0,s0,0x10
80002af0:	01045413          	srli	s0,s0,0x10
80002af4:	fcf466e3          	bltu	s0,a5,80002ac0 <main+0x62c>
80002af8:	000da783          	lw	a5,0(s11)
80002afc:	00000413          	li	s0,0
80002b00:	02078e63          	beqz	a5,80002b3c <main+0x6a8>
80002b04:	00441793          	slli	a5,s0,0x4
80002b08:	008787b3          	add	a5,a5,s0
80002b0c:	00279793          	slli	a5,a5,0x2
80002b10:	002787b3          	add	a5,a5,sp
80002b14:	0547d603          	lhu	a2,84(a5)
80002b18:	00040593          	mv	a1,s0
80002b1c:	00006517          	auipc	a0,0x6
80002b20:	c9450513          	addi	a0,a0,-876 # 800087b0 <_etext+0x34c>
80002b24:	655020ef          	jal	ra,80005978 <printf>
80002b28:	00140413          	addi	s0,s0,1
80002b2c:	000da783          	lw	a5,0(s11)
80002b30:	01041413          	slli	s0,s0,0x10
80002b34:	01045413          	srli	s0,s0,0x10
80002b38:	fcf466e3          	bltu	s0,a5,80002b04 <main+0x670>
80002b3c:	00098593          	mv	a1,s3
80002b40:	00006517          	auipc	a0,0x6
80002b44:	c3c50513          	addi	a0,a0,-964 # 8000877c <_etext+0x318>
80002b48:	631020ef          	jal	ra,80005978 <printf>
80002b4c:	0a048863          	beqz	s1,80002bfc <main+0x768>
80002b50:	08904e63          	bgtz	s1,80002bec <main+0x758>
80002b54:	00006517          	auipc	a0,0x6
80002b58:	ccc50513          	addi	a0,a0,-820 # 80008820 <_etext+0x3bc>
80002b5c:	61d020ef          	jal	ra,80005978 <printf>
80002b60:	05e10513          	addi	a0,sp,94
80002b64:	869ff0ef          	jal	ra,800023cc <portable_fini>
80002b68:	09c12083          	lw	ra,156(sp)
80002b6c:	09812403          	lw	s0,152(sp)
80002b70:	09012903          	lw	s2,144(sp)
80002b74:	08c12983          	lw	s3,140(sp)
80002b78:	08812a03          	lw	s4,136(sp)
80002b7c:	08412a83          	lw	s5,132(sp)
80002b80:	08012b03          	lw	s6,128(sp)
80002b84:	07c12b83          	lw	s7,124(sp)
80002b88:	07812c03          	lw	s8,120(sp)
80002b8c:	07412c83          	lw	s9,116(sp)
80002b90:	06c12d83          	lw	s11,108(sp)
80002b94:	00048513          	mv	a0,s1
80002b98:	09412483          	lw	s1,148(sp)
80002b9c:	0a010113          	addi	sp,sp,160
80002ba0:	00008067          	ret
80002ba4:	02c12423          	sw	a2,40(sp)
80002ba8:	00400513          	li	a0,4
80002bac:	c11ff06f          	j	800027bc <main+0x328>
80002bb0:	02c12423          	sw	a2,40(sp)
80002bb4:	9e1ff06f          	j	80002594 <main+0x100>
80002bb8:	000a8693          	mv	a3,s5
80002bbc:	000d0593          	mv	a1,s10
80002bc0:	00006517          	auipc	a0,0x6
80002bc4:	ac850513          	addi	a0,a0,-1336 # 80008688 <_etext+0x224>
80002bc8:	5b1020ef          	jal	ra,80005978 <printf>
80002bcc:	ffc45783          	lhu	a5,-4(s0)
80002bd0:	00178793          	addi	a5,a5,1
80002bd4:	01079793          	slli	a5,a5,0x10
80002bd8:	0107d793          	srli	a5,a5,0x10
80002bdc:	fef41e23          	sh	a5,-4(s0)
80002be0:	cc9ff06f          	j	800028a8 <main+0x414>
80002be4:	07012d03          	lw	s10,112(sp)
80002be8:	db5ff06f          	j	8000299c <main+0x508>
80002bec:	00006517          	auipc	a0,0x6
80002bf0:	c9850513          	addi	a0,a0,-872 # 80008884 <_etext+0x420>
80002bf4:	585020ef          	jal	ra,80005978 <printf>
80002bf8:	f69ff06f          	j	80002b60 <main+0x6cc>
80002bfc:	00006517          	auipc	a0,0x6
80002c00:	bd050513          	addi	a0,a0,-1072 # 800087cc <_etext+0x368>
80002c04:	575020ef          	jal	ra,80005978 <printf>
80002c08:	00098513          	mv	a0,s3
80002c0c:	320040ef          	jal	ra,80006f2c <__floatunsidf>
80002c10:	00006797          	auipc	a5,0x6
80002c14:	f9878793          	addi	a5,a5,-104 # 80008ba8 <intpat+0x1fc>
80002c18:	00050613          	mv	a2,a0
80002c1c:	00058693          	mv	a3,a1
80002c20:	0007a503          	lw	a0,0(a5)
80002c24:	0047a583          	lw	a1,4(a5)
80002c28:	0e1030ef          	jal	ra,80006508 <__divdf3>
80002c2c:	00050613          	mv	a2,a0
80002c30:	00058693          	mv	a3,a1
80002c34:	00006517          	auipc	a0,0x6
80002c38:	bcc50513          	addi	a0,a0,-1076 # 80008800 <_etext+0x39c>
80002c3c:	53d020ef          	jal	ra,80005978 <printf>
80002c40:	f21ff06f          	j	80002b60 <main+0x6cc>
80002c44:	00006517          	auipc	a0,0x6
80002c48:	9b450513          	addi	a0,a0,-1612 # 800085f8 <_etext+0x194>
80002c4c:	52d020ef          	jal	ra,80005978 <printf>
80002c50:	00009ab7          	lui	s5,0x9
80002c54:	0000ea37          	lui	s4,0xe
80002c58:	74700793          	li	a5,1863
80002c5c:	d84a8a93          	addi	s5,s5,-636 # 8d84 <_entry_offset+0x8d84>
80002c60:	3c1a0a13          	addi	s4,s4,961 # e3c1 <_entry_offset+0xe3c1>
80002c64:	00f12423          	sw	a5,8(sp)
80002c68:	000a8c93          	mv	s9,s5
80002c6c:	000a0b93          	mv	s7,s4
80002c70:	00078c13          	mv	s8,a5
80002c74:	c0dff06f          	j	80002880 <main+0x3ec>
80002c78:	00004ab7          	lui	s5,0x4
80002c7c:	00001b37          	lui	s6,0x1
80002c80:	00003a37          	lui	s4,0x3
80002c84:	00006517          	auipc	a0,0x6
80002c88:	8e450513          	addi	a0,a0,-1820 # 80008568 <_etext+0x104>
80002c8c:	9bfa8a93          	addi	s5,s5,-1601 # 39bf <_entry_offset+0x39bf>
80002c90:	199b0c13          	addi	s8,s6,409 # 1199 <_entry_offset+0x1199>
80002c94:	340a0a13          	addi	s4,s4,832 # 3340 <_entry_offset+0x3340>
80002c98:	4e1020ef          	jal	ra,80005978 <printf>
80002c9c:	000a8c93          	mv	s9,s5
80002ca0:	01812423          	sw	s8,8(sp)
80002ca4:	000a0b93          	mv	s7,s4
80002ca8:	bd9ff06f          	j	80002880 <main+0x3ec>
80002cac:	00006ab7          	lui	s5,0x6
80002cb0:	0000cb37          	lui	s6,0xc
80002cb4:	0000da37          	lui	s4,0xd
80002cb8:	00006517          	auipc	a0,0x6
80002cbc:	88050513          	addi	a0,a0,-1920 # 80008538 <_etext+0xd4>
80002cc0:	e47a8a93          	addi	s5,s5,-441 # 5e47 <_entry_offset+0x5e47>
80002cc4:	e52b0c13          	addi	s8,s6,-430 # be52 <_entry_offset+0xbe52>
80002cc8:	4b0a0a13          	addi	s4,s4,1200 # d4b0 <_entry_offset+0xd4b0>
80002ccc:	4ad020ef          	jal	ra,80005978 <printf>
80002cd0:	000a8c93          	mv	s9,s5
80002cd4:	01812423          	sw	s8,8(sp)
80002cd8:	000a0b93          	mv	s7,s4
80002cdc:	ba5ff06f          	j	80002880 <main+0x3ec>
80002ce0:	00000493          	li	s1,0
80002ce4:	cb9ff06f          	j	8000299c <main+0x508>
80002ce8:	0047f793          	andi	a5,a5,4
80002cec:	e00786e3          	beqz	a5,80002af8 <main+0x664>
80002cf0:	e4dff06f          	j	80002b3c <main+0x6a8>

80002cf4 <putch>:
80002cf4:	100007b7          	lui	a5,0x10000
80002cf8:	00a78023          	sb	a0,0(a5) # 10000000 <_entry_offset+0x10000000>
80002cfc:	00008067          	ret

80002d00 <halt>:
80002d00:	0000006f          	j	80002d00 <halt>

80002d04 <_trm_init>:
80002d04:	ff010113          	addi	sp,sp,-16
80002d08:	00006517          	auipc	a0,0x6
80002d0c:	ed050513          	addi	a0,a0,-304 # 80008bd8 <mainargs>
80002d10:	00112623          	sw	ra,12(sp)
80002d14:	f80ff0ef          	jal	ra,80002494 <main>
80002d18:	0000006f          	j	80002d18 <_trm_init+0x14>

80002d1c <__am_timer_config>:
80002d1c:	00100793          	li	a5,1
80002d20:	00f50023          	sb	a5,0(a0)
80002d24:	00f500a3          	sb	a5,1(a0)
80002d28:	00008067          	ret

80002d2c <__am_uart_config>:
80002d2c:	00050023          	sb	zero,0(a0)
80002d30:	00008067          	ret

80002d34 <fail>:
80002d34:	ff010113          	addi	sp,sp,-16
80002d38:	00812423          	sw	s0,8(sp)
80002d3c:	00112623          	sw	ra,12(sp)
80002d40:	00006417          	auipc	s0,0x6
80002d44:	b5840413          	addi	s0,s0,-1192 # 80008898 <_etext+0x434>
80002d48:	04100513          	li	a0,65
80002d4c:	fa9ff0ef          	jal	ra,80002cf4 <putch>
80002d50:	00144503          	lbu	a0,1(s0)
80002d54:	00140413          	addi	s0,s0,1
80002d58:	fe051ae3          	bnez	a0,80002d4c <fail+0x18>
80002d5c:	00006417          	auipc	s0,0x6
80002d60:	b4840413          	addi	s0,s0,-1208 # 800088a4 <_etext+0x440>
80002d64:	06100513          	li	a0,97
80002d68:	f8dff0ef          	jal	ra,80002cf4 <putch>
80002d6c:	00144503          	lbu	a0,1(s0)
80002d70:	00140413          	addi	s0,s0,1
80002d74:	fe051ae3          	bnez	a0,80002d68 <fail+0x34>
80002d78:	00006417          	auipc	s0,0x6
80002d7c:	b4840413          	addi	s0,s0,-1208 # 800088c0 <_etext+0x45c>
80002d80:	02000513          	li	a0,32
80002d84:	f71ff0ef          	jal	ra,80002cf4 <putch>
80002d88:	00144503          	lbu	a0,1(s0)
80002d8c:	00140413          	addi	s0,s0,1
80002d90:	fe051ae3          	bnez	a0,80002d84 <fail+0x50>
80002d94:	00100513          	li	a0,1
80002d98:	f69ff0ef          	jal	ra,80002d00 <halt>

80002d9c <ioe_init>:
80002d9c:	ff010113          	addi	sp,sp,-16
80002da0:	00112623          	sw	ra,12(sp)
80002da4:	00006797          	auipc	a5,0x6
80002da8:	e4478793          	addi	a5,a5,-444 # 80008be8 <lut>
80002dac:	00006697          	auipc	a3,0x6
80002db0:	03c68693          	addi	a3,a3,60 # 80008de8 <static_memblk>
80002db4:	00000617          	auipc	a2,0x0
80002db8:	f8060613          	addi	a2,a2,-128 # 80002d34 <fail>
80002dbc:	00c0006f          	j	80002dc8 <ioe_init+0x2c>
80002dc0:	00478793          	addi	a5,a5,4
80002dc4:	00d78c63          	beq	a5,a3,80002ddc <ioe_init+0x40>
80002dc8:	0007a703          	lw	a4,0(a5)
80002dcc:	fe071ae3          	bnez	a4,80002dc0 <ioe_init+0x24>
80002dd0:	00c7a023          	sw	a2,0(a5)
80002dd4:	00478793          	addi	a5,a5,4
80002dd8:	fed798e3          	bne	a5,a3,80002dc8 <ioe_init+0x2c>
80002ddc:	074000ef          	jal	ra,80002e50 <__am_timer_init>
80002de0:	00c12083          	lw	ra,12(sp)
80002de4:	00100513          	li	a0,1
80002de8:	01010113          	addi	sp,sp,16
80002dec:	00008067          	ret

80002df0 <ioe_read>:
80002df0:	00251513          	slli	a0,a0,0x2
80002df4:	00006797          	auipc	a5,0x6
80002df8:	df478793          	addi	a5,a5,-524 # 80008be8 <lut>
80002dfc:	00a787b3          	add	a5,a5,a0
80002e00:	0007a783          	lw	a5,0(a5)
80002e04:	00058513          	mv	a0,a1
80002e08:	00078067          	jr	a5

80002e0c <__am_timer_uptime>:
80002e0c:	a00007b7          	lui	a5,0xa0000
80002e10:	00078693          	mv	a3,a5
80002e14:	00007617          	auipc	a2,0x7
80002e18:	9dc60613          	addi	a2,a2,-1572 # 800097f0 <up>
80002e1c:	04c78793          	addi	a5,a5,76 # a000004c <_end+0x1ffb604c>
80002e20:	04868693          	addi	a3,a3,72
80002e24:	0007a783          	lw	a5,0(a5)
80002e28:	00062703          	lw	a4,0(a2)
80002e2c:	0006a683          	lw	a3,0(a3)
80002e30:	00462603          	lw	a2,4(a2)
80002e34:	40e68733          	sub	a4,a3,a4
80002e38:	40c787b3          	sub	a5,a5,a2
80002e3c:	00e6b6b3          	sltu	a3,a3,a4
80002e40:	40d787b3          	sub	a5,a5,a3
80002e44:	00f52223          	sw	a5,4(a0)
80002e48:	00e52023          	sw	a4,0(a0)
80002e4c:	00008067          	ret

80002e50 <__am_timer_init>:
80002e50:	a0000737          	lui	a4,0xa0000
80002e54:	04c72683          	lw	a3,76(a4) # a000004c <_end+0x1ffb604c>
80002e58:	04872703          	lw	a4,72(a4)
80002e5c:	00007797          	auipc	a5,0x7
80002e60:	99478793          	addi	a5,a5,-1644 # 800097f0 <up>
80002e64:	00d7a223          	sw	a3,4(a5)
80002e68:	00e7a023          	sw	a4,0(a5)
80002e6c:	00008067          	ret

80002e70 <__am_timer_rtc>:
80002e70:	76c00793          	li	a5,1900
80002e74:	00052a23          	sw	zero,20(a0)
80002e78:	00052823          	sw	zero,16(a0)
80002e7c:	00052623          	sw	zero,12(a0)
80002e80:	00052423          	sw	zero,8(a0)
80002e84:	00052223          	sw	zero,4(a0)
80002e88:	00f52023          	sw	a5,0(a0)
80002e8c:	00008067          	ret

80002e90 <number>:
80002e90:	fa010113          	addi	sp,sp,-96
80002e94:	04812e23          	sw	s0,92(sp)
80002e98:	04912c23          	sw	s1,88(sp)
80002e9c:	0407f813          	andi	a6,a5,64
80002ea0:	00006f97          	auipc	t6,0x6
80002ea4:	a80f8f93          	addi	t6,t6,-1408 # 80008920 <_etext+0x4bc>
80002ea8:	00080663          	beqz	a6,80002eb4 <number+0x24>
80002eac:	00006f97          	auipc	t6,0x6
80002eb0:	a9cf8f93          	addi	t6,t6,-1380 # 80008948 <_etext+0x4e4>
80002eb4:	0107f393          	andi	t2,a5,16
80002eb8:	18039463          	bnez	t2,80003040 <number+0x1b0>
80002ebc:	0017f493          	andi	s1,a5,1
80002ec0:	fff48f13          	addi	t5,s1,-1
80002ec4:	ff0f7f13          	andi	t5,t5,-16
80002ec8:	030f0f13          	addi	t5,t5,48
80002ecc:	0027f813          	andi	a6,a5,2
80002ed0:	0207f293          	andi	t0,a5,32
80002ed4:	16080263          	beqz	a6,80003038 <number+0x1a8>
80002ed8:	4e05c863          	bltz	a1,800033c8 <number+0x538>
80002edc:	0047f813          	andi	a6,a5,4
80002ee0:	4a081863          	bnez	a6,80003390 <number+0x500>
80002ee4:	0087f793          	andi	a5,a5,8
80002ee8:	00000413          	li	s0,0
80002eec:	00078663          	beqz	a5,80002ef8 <number+0x68>
80002ef0:	fff68693          	addi	a3,a3,-1
80002ef4:	02000413          	li	s0,32
80002ef8:	02028063          	beqz	t0,80002f18 <number+0x88>
80002efc:	01000793          	li	a5,16
80002f00:	52f60463          	beq	a2,a5,80003428 <number+0x598>
80002f04:	00800793          	li	a5,8
80002f08:	40f607b3          	sub	a5,a2,a5
80002f0c:	0017b793          	seqz	a5,a5
80002f10:	40f686b3          	sub	a3,a3,a5
80002f14:	02000293          	li	t0,32
80002f18:	42059663          	bnez	a1,80003344 <number+0x4b4>
80002f1c:	03000793          	li	a5,48
80002f20:	00f10623          	sb	a5,12(sp)
80002f24:	00000313          	li	t1,0
80002f28:	00100813          	li	a6,1
80002f2c:	00c10893          	addi	a7,sp,12
80002f30:	00080593          	mv	a1,a6
80002f34:	00e85463          	bge	a6,a4,80002f3c <number+0xac>
80002f38:	00070593          	mv	a1,a4
80002f3c:	40b686b3          	sub	a3,a3,a1
80002f40:	10049a63          	bnez	s1,80003054 <number+0x1c4>
80002f44:	fff68e93          	addi	t4,a3,-1
80002f48:	10d05463          	blez	a3,80003050 <number+0x1c0>
80002f4c:	05312823          	sw	s3,80(sp)
80002f50:	40a00e33          	neg	t3,a0
80002f54:	00500f93          	li	t6,5
80002f58:	003e7793          	andi	a5,t3,3
80002f5c:	00050993          	mv	s3,a0
80002f60:	07dff663          	bgeu	t6,t4,80002fcc <number+0x13c>
80002f64:	05212a23          	sw	s2,84(sp)
80002f68:	00050913          	mv	s2,a0
80002f6c:	02078663          	beqz	a5,80002f98 <number+0x108>
80002f70:	02000e93          	li	t4,32
80002f74:	002e7e13          	andi	t3,t3,2
80002f78:	01d50023          	sb	t4,0(a0)
80002f7c:	420e0063          	beqz	t3,8000339c <number+0x50c>
80002f80:	01d500a3          	sb	t4,1(a0)
80002f84:	00300e13          	li	t3,3
80002f88:	4fc79063          	bne	a5,t3,80003468 <number+0x5d8>
80002f8c:	01d50123          	sb	t4,2(a0)
80002f90:	00350913          	addi	s2,a0,3
80002f94:	ffc68e93          	addi	t4,a3,-4
80002f98:	40f684b3          	sub	s1,a3,a5
80002f9c:	ffc4ff93          	andi	t6,s1,-4
80002fa0:	00f507b3          	add	a5,a0,a5
80002fa4:	20202537          	lui	a0,0x20202
80002fa8:	01f78e33          	add	t3,a5,t6
80002fac:	02050513          	addi	a0,a0,32 # 20202020 <_entry_offset+0x20202020>
80002fb0:	00a7a023          	sw	a0,0(a5)
80002fb4:	00478793          	addi	a5,a5,4
80002fb8:	ffc79ce3          	bne	a5,t3,80002fb0 <number+0x120>
80002fbc:	01f90533          	add	a0,s2,t6
80002fc0:	41fe8eb3          	sub	t4,t4,t6
80002fc4:	05412903          	lw	s2,84(sp)
80002fc8:	05f48263          	beq	s1,t6,8000300c <number+0x17c>
80002fcc:	02000793          	li	a5,32
80002fd0:	00f50023          	sb	a5,0(a0)
80002fd4:	03d05c63          	blez	t4,8000300c <number+0x17c>
80002fd8:	00f500a3          	sb	a5,1(a0)
80002fdc:	00100e13          	li	t3,1
80002fe0:	03ce8663          	beq	t4,t3,8000300c <number+0x17c>
80002fe4:	00f50123          	sb	a5,2(a0)
80002fe8:	00200e13          	li	t3,2
80002fec:	03ce8063          	beq	t4,t3,8000300c <number+0x17c>
80002ff0:	00f501a3          	sb	a5,3(a0)
80002ff4:	00300e13          	li	t3,3
80002ff8:	01ce8a63          	beq	t4,t3,8000300c <number+0x17c>
80002ffc:	00f50223          	sb	a5,4(a0)
80003000:	00400e13          	li	t3,4
80003004:	01ce8463          	beq	t4,t3,8000300c <number+0x17c>
80003008:	00f502a3          	sb	a5,5(a0)
8000300c:	00d98533          	add	a0,s3,a3
80003010:	36041463          	bnez	s0,80003378 <number+0x4e8>
80003014:	00028a63          	beqz	t0,80003028 <number+0x198>
80003018:	00800793          	li	a5,8
8000301c:	3ef60863          	beq	a2,a5,8000340c <number+0x57c>
80003020:	01000793          	li	a5,16
80003024:	38f60263          	beq	a2,a5,800033a8 <number+0x518>
80003028:	007036b3          	snez	a3,t2
8000302c:	05012983          	lw	s3,80(sp)
80003030:	ffe68693          	addi	a3,a3,-2
80003034:	1440006f          	j	80003178 <number+0x2e8>
80003038:	00000413          	li	s0,0
8000303c:	ebdff06f          	j	80002ef8 <number+0x68>
80003040:	ffe7f793          	andi	a5,a5,-2
80003044:	01000493          	li	s1,16
80003048:	02000f13          	li	t5,32
8000304c:	e81ff06f          	j	80002ecc <number+0x3c>
80003050:	000e8693          	mv	a3,t4
80003054:	00040663          	beqz	s0,80003060 <number+0x1d0>
80003058:	00850023          	sb	s0,0(a0)
8000305c:	00150513          	addi	a0,a0,1
80003060:	00028a63          	beqz	t0,80003074 <number+0x1e4>
80003064:	00800793          	li	a5,8
80003068:	3ef60263          	beq	a2,a5,8000344c <number+0x5bc>
8000306c:	01000793          	li	a5,16
80003070:	34f60063          	beq	a2,a5,800033b0 <number+0x520>
80003074:	10039263          	bnez	t2,80003178 <number+0x2e8>
80003078:	fff68e93          	addi	t4,a3,-1
8000307c:	40d05c63          	blez	a3,80003494 <number+0x604>
80003080:	40a00633          	neg	a2,a0
80003084:	00500e13          	li	t3,5
80003088:	00367793          	andi	a5,a2,3
8000308c:	00050f93          	mv	t6,a0
80003090:	0bde7263          	bgeu	t3,t4,80003134 <number+0x2a4>
80003094:	00050293          	mv	t0,a0
80003098:	02078c63          	beqz	a5,800030d0 <number+0x240>
8000309c:	01e50023          	sb	t5,0(a0)
800030a0:	00267613          	andi	a2,a2,2
800030a4:	00150293          	addi	t0,a0,1
800030a8:	ffe68e93          	addi	t4,a3,-2
800030ac:	02060263          	beqz	a2,800030d0 <number+0x240>
800030b0:	01e500a3          	sb	t5,1(a0)
800030b4:	00300613          	li	a2,3
800030b8:	00250293          	addi	t0,a0,2
800030bc:	ffd68e93          	addi	t4,a3,-3
800030c0:	00c79863          	bne	a5,a2,800030d0 <number+0x240>
800030c4:	01e50123          	sb	t5,2(a0)
800030c8:	00350293          	addi	t0,a0,3
800030cc:	ffc68e93          	addi	t4,a3,-4
800030d0:	ffff0637          	lui	a2,0xffff0
800030d4:	0ff60613          	addi	a2,a2,255 # ffff00ff <_end+0x7ffa60ff>
800030d8:	008f1393          	slli	t2,t5,0x8
800030dc:	00cf7633          	and	a2,t5,a2
800030e0:	ff010e37          	lui	t3,0xff010
800030e4:	00766633          	or	a2,a2,t2
800030e8:	fffe0e13          	addi	t3,t3,-1 # ff00ffff <_end+0x7efc5fff>
800030ec:	01c67633          	and	a2,a2,t3
800030f0:	010f1393          	slli	t2,t5,0x10
800030f4:	00f0fe37          	lui	t3,0xf0f
800030f8:	00766633          	or	a2,a2,t2
800030fc:	0f0e0e13          	addi	t3,t3,240 # f0f0f0 <_entry_offset+0xf0f0f0>
80003100:	40f683b3          	sub	t2,a3,a5
80003104:	01c67633          	and	a2,a2,t3
80003108:	00f507b3          	add	a5,a0,a5
8000310c:	ffc3fe13          	andi	t3,t2,-4
80003110:	018f1513          	slli	a0,t5,0x18
80003114:	00a66633          	or	a2,a2,a0
80003118:	00fe0533          	add	a0,t3,a5
8000311c:	00c7a023          	sw	a2,0(a5)
80003120:	00478793          	addi	a5,a5,4
80003124:	fef51ce3          	bne	a0,a5,8000311c <number+0x28c>
80003128:	41ce8eb3          	sub	t4,t4,t3
8000312c:	01c28533          	add	a0,t0,t3
80003130:	05c38063          	beq	t2,t3,80003170 <number+0x2e0>
80003134:	01e50023          	sb	t5,0(a0)
80003138:	03d05c63          	blez	t4,80003170 <number+0x2e0>
8000313c:	01e500a3          	sb	t5,1(a0)
80003140:	00100793          	li	a5,1
80003144:	02fe8663          	beq	t4,a5,80003170 <number+0x2e0>
80003148:	01e50123          	sb	t5,2(a0)
8000314c:	00200793          	li	a5,2
80003150:	02fe8063          	beq	t4,a5,80003170 <number+0x2e0>
80003154:	01e501a3          	sb	t5,3(a0)
80003158:	00300793          	li	a5,3
8000315c:	00fe8a63          	beq	t4,a5,80003170 <number+0x2e0>
80003160:	01e50223          	sb	t5,4(a0)
80003164:	00400793          	li	a5,4
80003168:	00fe8463          	beq	t4,a5,80003170 <number+0x2e0>
8000316c:	01e502a3          	sb	t5,5(a0)
80003170:	00df8533          	add	a0,t6,a3
80003174:	fff00693          	li	a3,-1
80003178:	fff58e13          	addi	t3,a1,-1
8000317c:	0ce85463          	bge	a6,a4,80003244 <number+0x3b4>
80003180:	410587b3          	sub	a5,a1,a6
80003184:	fff78e93          	addi	t4,a5,-1
80003188:	40a00633          	neg	a2,a0
8000318c:	006ebf13          	sltiu	t5,t4,6
80003190:	00367713          	andi	a4,a2,3
80003194:	00050f93          	mv	t6,a0
80003198:	060f1263          	bnez	t5,800031fc <number+0x36c>
8000319c:	00050f13          	mv	t5,a0
800031a0:	02070663          	beqz	a4,800031cc <number+0x33c>
800031a4:	03000e13          	li	t3,48
800031a8:	00267613          	andi	a2,a2,2
800031ac:	01c50023          	sb	t3,0(a0)
800031b0:	24060863          	beqz	a2,80003400 <number+0x570>
800031b4:	01c500a3          	sb	t3,1(a0)
800031b8:	00300613          	li	a2,3
800031bc:	26c71c63          	bne	a4,a2,80003434 <number+0x5a4>
800031c0:	01c50123          	sb	t3,2(a0)
800031c4:	00350f13          	addi	t5,a0,3
800031c8:	ffc58e13          	addi	t3,a1,-4
800031cc:	40e787b3          	sub	a5,a5,a4
800031d0:	30303637          	lui	a2,0x30303
800031d4:	00e50733          	add	a4,a0,a4
800031d8:	ffc7f513          	andi	a0,a5,-4
800031dc:	00a705b3          	add	a1,a4,a0
800031e0:	03060613          	addi	a2,a2,48 # 30303030 <_entry_offset+0x30303030>
800031e4:	00c72023          	sw	a2,0(a4)
800031e8:	00470713          	addi	a4,a4,4
800031ec:	feb71ce3          	bne	a4,a1,800031e4 <number+0x354>
800031f0:	04a78663          	beq	a5,a0,8000323c <number+0x3ac>
800031f4:	40ae0e33          	sub	t3,t3,a0
800031f8:	00af0533          	add	a0,t5,a0
800031fc:	03000793          	li	a5,48
80003200:	00f50023          	sb	a5,0(a0)
80003204:	fffe0713          	addi	a4,t3,-1
80003208:	03c85a63          	bge	a6,t3,8000323c <number+0x3ac>
8000320c:	00f500a3          	sb	a5,1(a0)
80003210:	ffee0613          	addi	a2,t3,-2
80003214:	02e85463          	bge	a6,a4,8000323c <number+0x3ac>
80003218:	00f50123          	sb	a5,2(a0)
8000321c:	ffde0713          	addi	a4,t3,-3
80003220:	00c85e63          	bge	a6,a2,8000323c <number+0x3ac>
80003224:	00f501a3          	sb	a5,3(a0)
80003228:	ffce0e13          	addi	t3,t3,-4
8000322c:	00e85863          	bge	a6,a4,8000323c <number+0x3ac>
80003230:	00f50223          	sb	a5,4(a0)
80003234:	01c85463          	bge	a6,t3,8000323c <number+0x3ac>
80003238:	00f502a3          	sb	a5,5(a0)
8000323c:	001e8e93          	addi	t4,t4,1
80003240:	01fe8533          	add	a0,t4,t6
80003244:	006887b3          	add	a5,a7,t1
80003248:	00050713          	mv	a4,a0
8000324c:	0007c583          	lbu	a1,0(a5)
80003250:	00078613          	mv	a2,a5
80003254:	00170713          	addi	a4,a4,1
80003258:	feb70fa3          	sb	a1,-1(a4)
8000325c:	fff78793          	addi	a5,a5,-1
80003260:	fec896e3          	bne	a7,a2,8000324c <number+0x3bc>
80003264:	006507b3          	add	a5,a0,t1
80003268:	00178313          	addi	t1,a5,1
8000326c:	00030513          	mv	a0,t1
80003270:	fff68593          	addi	a1,a3,-1
80003274:	0ad05c63          	blez	a3,8000332c <number+0x49c>
80003278:	fff7c613          	not	a2,a5
8000327c:	00500813          	li	a6,5
80003280:	00367713          	andi	a4,a2,3
80003284:	06b87263          	bgeu	a6,a1,800032e8 <number+0x458>
80003288:	02070663          	beqz	a4,800032b4 <number+0x424>
8000328c:	02000593          	li	a1,32
80003290:	00267613          	andi	a2,a2,2
80003294:	00b780a3          	sb	a1,1(a5)
80003298:	14060e63          	beqz	a2,800033f4 <number+0x564>
8000329c:	00b300a3          	sb	a1,1(t1)
800032a0:	0037f613          	andi	a2,a5,3
800032a4:	18061e63          	bnez	a2,80003440 <number+0x5b0>
800032a8:	00b30123          	sb	a1,2(t1)
800032ac:	00478513          	addi	a0,a5,4
800032b0:	ffc68593          	addi	a1,a3,-4
800032b4:	00f707b3          	add	a5,a4,a5
800032b8:	40e68833          	sub	a6,a3,a4
800032bc:	00178793          	addi	a5,a5,1
800032c0:	ffc87893          	andi	a7,a6,-4
800032c4:	20202737          	lui	a4,0x20202
800032c8:	01178633          	add	a2,a5,a7
800032cc:	02070713          	addi	a4,a4,32 # 20202020 <_entry_offset+0x20202020>
800032d0:	00e7a023          	sw	a4,0(a5)
800032d4:	00478793          	addi	a5,a5,4
800032d8:	fef61ce3          	bne	a2,a5,800032d0 <number+0x440>
800032dc:	05180663          	beq	a6,a7,80003328 <number+0x498>
800032e0:	411585b3          	sub	a1,a1,a7
800032e4:	01150533          	add	a0,a0,a7
800032e8:	02000793          	li	a5,32
800032ec:	00f50023          	sb	a5,0(a0)
800032f0:	02b05c63          	blez	a1,80003328 <number+0x498>
800032f4:	00f500a3          	sb	a5,1(a0)
800032f8:	00100713          	li	a4,1
800032fc:	02e58663          	beq	a1,a4,80003328 <number+0x498>
80003300:	00f50123          	sb	a5,2(a0)
80003304:	00200713          	li	a4,2
80003308:	02e58063          	beq	a1,a4,80003328 <number+0x498>
8000330c:	00f501a3          	sb	a5,3(a0)
80003310:	00300713          	li	a4,3
80003314:	00e58a63          	beq	a1,a4,80003328 <number+0x498>
80003318:	00f50223          	sb	a5,4(a0)
8000331c:	00400713          	li	a4,4
80003320:	00e58463          	beq	a1,a4,80003328 <number+0x498>
80003324:	00f502a3          	sb	a5,5(a0)
80003328:	00668533          	add	a0,a3,t1
8000332c:	05c12403          	lw	s0,92(sp)
80003330:	05812483          	lw	s1,88(sp)
80003334:	06010113          	addi	sp,sp,96
80003338:	00008067          	ret
8000333c:	00078693          	mv	a3,a5
80003340:	02d00413          	li	s0,45
80003344:	00000813          	li	a6,0
80003348:	00c10893          	addi	a7,sp,12
8000334c:	02c5f7b3          	remu	a5,a1,a2
80003350:	00080313          	mv	t1,a6
80003354:	00180813          	addi	a6,a6,1
80003358:	01088eb3          	add	t4,a7,a6
8000335c:	00058e13          	mv	t3,a1
80003360:	00ff87b3          	add	a5,t6,a5
80003364:	0007c783          	lbu	a5,0(a5)
80003368:	02c5d5b3          	divu	a1,a1,a2
8000336c:	fefe8fa3          	sb	a5,-1(t4)
80003370:	fcce7ee3          	bgeu	t3,a2,8000334c <number+0x4bc>
80003374:	bbdff06f          	j	80002f30 <number+0xa0>
80003378:	00850023          	sb	s0,0(a0)
8000337c:	00150513          	addi	a0,a0,1
80003380:	08028c63          	beqz	t0,80003418 <number+0x588>
80003384:	05012983          	lw	s3,80(sp)
80003388:	fff00693          	li	a3,-1
8000338c:	cd9ff06f          	j	80003064 <number+0x1d4>
80003390:	fff68693          	addi	a3,a3,-1
80003394:	02b00413          	li	s0,43
80003398:	b61ff06f          	j	80002ef8 <number+0x68>
8000339c:	00150913          	addi	s2,a0,1
800033a0:	ffe68e93          	addi	t4,a3,-2
800033a4:	bf5ff06f          	j	80002f98 <number+0x108>
800033a8:	05012983          	lw	s3,80(sp)
800033ac:	fff00693          	li	a3,-1
800033b0:	03000613          	li	a2,48
800033b4:	07800793          	li	a5,120
800033b8:	00c50023          	sb	a2,0(a0)
800033bc:	00f500a3          	sb	a5,1(a0)
800033c0:	00250513          	addi	a0,a0,2
800033c4:	cb1ff06f          	j	80003074 <number+0x1e4>
800033c8:	40b005b3          	neg	a1,a1
800033cc:	fff68793          	addi	a5,a3,-1
800033d0:	f60286e3          	beqz	t0,8000333c <number+0x4ac>
800033d4:	01000813          	li	a6,16
800033d8:	0b060663          	beq	a2,a6,80003484 <number+0x5f4>
800033dc:	00800813          	li	a6,8
800033e0:	09060a63          	beq	a2,a6,80003474 <number+0x5e4>
800033e4:	00078693          	mv	a3,a5
800033e8:	02d00413          	li	s0,45
800033ec:	02000293          	li	t0,32
800033f0:	f55ff06f          	j	80003344 <number+0x4b4>
800033f4:	00278513          	addi	a0,a5,2
800033f8:	ffe68593          	addi	a1,a3,-2
800033fc:	eb9ff06f          	j	800032b4 <number+0x424>
80003400:	ffe58e13          	addi	t3,a1,-2
80003404:	00150f13          	addi	t5,a0,1
80003408:	dc5ff06f          	j	800031cc <number+0x33c>
8000340c:	03000793          	li	a5,48
80003410:	00f50023          	sb	a5,0(a0)
80003414:	00150513          	addi	a0,a0,1
80003418:	04039263          	bnez	t2,8000345c <number+0x5cc>
8000341c:	05012983          	lw	s3,80(sp)
80003420:	ffe00693          	li	a3,-2
80003424:	d55ff06f          	j	80003178 <number+0x2e8>
80003428:	ffe68693          	addi	a3,a3,-2
8000342c:	02000293          	li	t0,32
80003430:	ae9ff06f          	j	80002f18 <number+0x88>
80003434:	ffd58e13          	addi	t3,a1,-3
80003438:	00250f13          	addi	t5,a0,2
8000343c:	d91ff06f          	j	800031cc <number+0x33c>
80003440:	00378513          	addi	a0,a5,3
80003444:	ffd68593          	addi	a1,a3,-3
80003448:	e6dff06f          	j	800032b4 <number+0x424>
8000344c:	03000793          	li	a5,48
80003450:	00f50023          	sb	a5,0(a0)
80003454:	00150513          	addi	a0,a0,1
80003458:	c1dff06f          	j	80003074 <number+0x1e4>
8000345c:	05012983          	lw	s3,80(sp)
80003460:	fff00693          	li	a3,-1
80003464:	d15ff06f          	j	80003178 <number+0x2e8>
80003468:	00250913          	addi	s2,a0,2
8000346c:	ffd68e93          	addi	t4,a3,-3
80003470:	b29ff06f          	j	80002f98 <number+0x108>
80003474:	ffe68693          	addi	a3,a3,-2
80003478:	02d00413          	li	s0,45
8000347c:	02000293          	li	t0,32
80003480:	ec5ff06f          	j	80003344 <number+0x4b4>
80003484:	ffd68693          	addi	a3,a3,-3
80003488:	02d00413          	li	s0,45
8000348c:	02000293          	li	t0,32
80003490:	eb5ff06f          	j	80003344 <number+0x4b4>
80003494:	000e8693          	mv	a3,t4
80003498:	ce1ff06f          	j	80003178 <number+0x2e8>

8000349c <vsprintf>:
8000349c:	0005c783          	lbu	a5,0(a1)
800034a0:	00050693          	mv	a3,a0
800034a4:	00078ee3          	beqz	a5,80003cc0 <vsprintf+0x824>
800034a8:	d6010113          	addi	sp,sp,-672
800034ac:	28812c23          	sw	s0,664(sp)
800034b0:	28912a23          	sw	s1,660(sp)
800034b4:	00812403          	lw	s0,8(sp)
800034b8:	00c12483          	lw	s1,12(sp)
800034bc:	29312623          	sw	s3,652(sp)
800034c0:	29412423          	sw	s4,648(sp)
800034c4:	27a12823          	sw	s10,624(sp)
800034c8:	27b12623          	sw	s11,620(sp)
800034cc:	28112e23          	sw	ra,668(sp)
800034d0:	27812c23          	sw	s8,632(sp)
800034d4:	27912a23          	sw	s9,628(sp)
800034d8:	00050893          	mv	a7,a0
800034dc:	00012e23          	sw	zero,28(sp)
800034e0:	02500993          	li	s3,37
800034e4:	01000a13          	li	s4,16
800034e8:	00005d17          	auipc	s10,0x5
800034ec:	4ecd0d13          	addi	s10,s10,1260 # 800089d4 <intpat+0x28>
800034f0:	00a12c23          	sw	a0,24(sp)
800034f4:	00060d93          	mv	s11,a2
800034f8:	05378863          	beq	a5,s3,80003548 <vsprintf+0xac>
800034fc:	00f88023          	sb	a5,0(a7)
80003500:	0015c783          	lbu	a5,1(a1)
80003504:	00188893          	addi	a7,a7,1
80003508:	00158593          	addi	a1,a1,1
8000350c:	fe0796e3          	bnez	a5,800034f8 <vsprintf+0x5c>
80003510:	01812683          	lw	a3,24(sp)
80003514:	00088023          	sb	zero,0(a7)
80003518:	29c12083          	lw	ra,668(sp)
8000351c:	29812403          	lw	s0,664(sp)
80003520:	29412483          	lw	s1,660(sp)
80003524:	28c12983          	lw	s3,652(sp)
80003528:	28812a03          	lw	s4,648(sp)
8000352c:	27812c03          	lw	s8,632(sp)
80003530:	27412c83          	lw	s9,628(sp)
80003534:	27012d03          	lw	s10,624(sp)
80003538:	26c12d83          	lw	s11,620(sp)
8000353c:	40d88533          	sub	a0,a7,a3
80003540:	2a010113          	addi	sp,sp,672
80003544:	00008067          	ret
80003548:	00000793          	li	a5,0
8000354c:	0015c803          	lbu	a6,1(a1)
80003550:	00158e13          	addi	t3,a1,1
80003554:	fe080713          	addi	a4,a6,-32
80003558:	0ff77713          	andi	a4,a4,255
8000355c:	00ea6c63          	bltu	s4,a4,80003574 <vsprintf+0xd8>
80003560:	00271713          	slli	a4,a4,0x2
80003564:	01a70733          	add	a4,a4,s10
80003568:	00072703          	lw	a4,0(a4)
8000356c:	01a70733          	add	a4,a4,s10
80003570:	00070067          	jr	a4
80003574:	fd080713          	addi	a4,a6,-48
80003578:	0ff77713          	andi	a4,a4,255
8000357c:	00900693          	li	a3,9
80003580:	12e6f663          	bgeu	a3,a4,800036ac <vsprintf+0x210>
80003584:	02a00713          	li	a4,42
80003588:	fff00313          	li	t1,-1
8000358c:	14e80e63          	beq	a6,a4,800036e8 <vsprintf+0x24c>
80003590:	02e00713          	li	a4,46
80003594:	fff00c13          	li	s8,-1
80003598:	0ee80463          	beq	a6,a4,80003680 <vsprintf+0x1e4>
8000359c:	06c00713          	li	a4,108
800035a0:	08e80a63          	beq	a6,a4,80003634 <vsprintf+0x198>
800035a4:	fb480613          	addi	a2,a6,-76
800035a8:	0ff67613          	andi	a2,a2,255
800035ac:	01c00693          	li	a3,28
800035b0:	fff00713          	li	a4,-1
800035b4:	00c6ec63          	bltu	a3,a2,800035cc <vsprintf+0x130>
800035b8:	100046b7          	lui	a3,0x10004
800035bc:	00168693          	addi	a3,a3,1 # 10004001 <_entry_offset+0x10004001>
800035c0:	00c6d6b3          	srl	a3,a3,a2
800035c4:	0016f693          	andi	a3,a3,1
800035c8:	12069e63          	bnez	a3,80003704 <vsprintf+0x268>
800035cc:	fdb80693          	addi	a3,a6,-37
800035d0:	0ff6f693          	andi	a3,a3,255
800035d4:	05300613          	li	a2,83
800035d8:	08d66063          	bltu	a2,a3,80003658 <vsprintf+0x1bc>
800035dc:	00005617          	auipc	a2,0x5
800035e0:	43c60613          	addi	a2,a2,1084 # 80008a18 <intpat+0x6c>
800035e4:	00269693          	slli	a3,a3,0x2
800035e8:	00c686b3          	add	a3,a3,a2
800035ec:	0006a683          	lw	a3,0(a3)
800035f0:	00c686b3          	add	a3,a3,a2
800035f4:	00068067          	jr	a3
800035f8:	0017e793          	ori	a5,a5,1
800035fc:	000e0593          	mv	a1,t3
80003600:	f4dff06f          	j	8000354c <vsprintf+0xb0>
80003604:	0107e793          	ori	a5,a5,16
80003608:	000e0593          	mv	a1,t3
8000360c:	f41ff06f          	j	8000354c <vsprintf+0xb0>
80003610:	0047e793          	ori	a5,a5,4
80003614:	000e0593          	mv	a1,t3
80003618:	f35ff06f          	j	8000354c <vsprintf+0xb0>
8000361c:	0207e793          	ori	a5,a5,32
80003620:	000e0593          	mv	a1,t3
80003624:	f29ff06f          	j	8000354c <vsprintf+0xb0>
80003628:	0087e793          	ori	a5,a5,8
8000362c:	000e0593          	mv	a1,t3
80003630:	f1dff06f          	j	8000354c <vsprintf+0xb0>
80003634:	001e4683          	lbu	a3,1(t3)
80003638:	0f068263          	beq	a3,a6,8000371c <vsprintf+0x280>
8000363c:	00080713          	mv	a4,a6
80003640:	00068813          	mv	a6,a3
80003644:	fdb80693          	addi	a3,a6,-37
80003648:	0ff6f693          	andi	a3,a3,255
8000364c:	05300613          	li	a2,83
80003650:	001e0e13          	addi	t3,t3,1
80003654:	f8d674e3          	bgeu	a2,a3,800035dc <vsprintf+0x140>
80003658:	02500793          	li	a5,37
8000365c:	00f88023          	sb	a5,0(a7)
80003660:	000e4783          	lbu	a5,0(t3)
80003664:	66078463          	beqz	a5,80003ccc <vsprintf+0x830>
80003668:	00f880a3          	sb	a5,1(a7)
8000366c:	001e4783          	lbu	a5,1(t3)
80003670:	00288893          	addi	a7,a7,2
80003674:	001e0593          	addi	a1,t3,1
80003678:	e80790e3          	bnez	a5,800034f8 <vsprintf+0x5c>
8000367c:	e95ff06f          	j	80003510 <vsprintf+0x74>
80003680:	001e4803          	lbu	a6,1(t3)
80003684:	00900693          	li	a3,9
80003688:	001e0713          	addi	a4,t3,1
8000368c:	fd080613          	addi	a2,a6,-48
80003690:	0ff67613          	andi	a2,a2,255
80003694:	08c6fc63          	bgeu	a3,a2,8000372c <vsprintf+0x290>
80003698:	02a00693          	li	a3,42
8000369c:	0cd80863          	beq	a6,a3,8000376c <vsprintf+0x2d0>
800036a0:	00070e13          	mv	t3,a4
800036a4:	00000c13          	li	s8,0
800036a8:	ef5ff06f          	j	8000359c <vsprintf+0x100>
800036ac:	00000313          	li	t1,0
800036b0:	00068713          	mv	a4,a3
800036b4:	00030613          	mv	a2,t1
800036b8:	00261313          	slli	t1,a2,0x2
800036bc:	00c30333          	add	t1,t1,a2
800036c0:	001e0e13          	addi	t3,t3,1
800036c4:	00131313          	slli	t1,t1,0x1
800036c8:	01030333          	add	t1,t1,a6
800036cc:	000e4803          	lbu	a6,0(t3)
800036d0:	fd030613          	addi	a2,t1,-48
800036d4:	fd080693          	addi	a3,a6,-48
800036d8:	0ff6f693          	andi	a3,a3,255
800036dc:	fcd77ee3          	bgeu	a4,a3,800036b8 <vsprintf+0x21c>
800036e0:	00060313          	mv	t1,a2
800036e4:	eadff06f          	j	80003590 <vsprintf+0xf4>
800036e8:	000da303          	lw	t1,0(s11)
800036ec:	0025c803          	lbu	a6,2(a1)
800036f0:	004d8e93          	addi	t4,s11,4
800036f4:	00258e13          	addi	t3,a1,2
800036f8:	00034a63          	bltz	t1,8000370c <vsprintf+0x270>
800036fc:	000e8d93          	mv	s11,t4
80003700:	e91ff06f          	j	80003590 <vsprintf+0xf4>
80003704:	001e4683          	lbu	a3,1(t3)
80003708:	f35ff06f          	j	8000363c <vsprintf+0x1a0>
8000370c:	40600333          	neg	t1,t1
80003710:	0107e793          	ori	a5,a5,16
80003714:	000e8d93          	mv	s11,t4
80003718:	e79ff06f          	j	80003590 <vsprintf+0xf4>
8000371c:	002e4803          	lbu	a6,2(t3)
80003720:	07100713          	li	a4,113
80003724:	002e0e13          	addi	t3,t3,2
80003728:	ea5ff06f          	j	800035cc <vsprintf+0x130>
8000372c:	00000c13          	li	s8,0
80003730:	002c1613          	slli	a2,s8,0x2
80003734:	01860633          	add	a2,a2,s8
80003738:	00170713          	addi	a4,a4,1
8000373c:	00161613          	slli	a2,a2,0x1
80003740:	01060633          	add	a2,a2,a6
80003744:	00074803          	lbu	a6,0(a4)
80003748:	fd060c13          	addi	s8,a2,-48
8000374c:	fd080613          	addi	a2,a6,-48
80003750:	0ff67613          	andi	a2,a2,255
80003754:	fcc6fee3          	bgeu	a3,a2,80003730 <vsprintf+0x294>
80003758:	fffc4693          	not	a3,s8
8000375c:	41f6d693          	srai	a3,a3,0x1f
80003760:	00070e13          	mv	t3,a4
80003764:	00dc7c33          	and	s8,s8,a3
80003768:	e35ff06f          	j	8000359c <vsprintf+0x100>
8000376c:	000dac03          	lw	s8,0(s11)
80003770:	002e4803          	lbu	a6,2(t3)
80003774:	004d8d93          	addi	s11,s11,4
80003778:	fffc4713          	not	a4,s8
8000377c:	41f75713          	srai	a4,a4,0x1f
80003780:	00ec7c33          	and	s8,s8,a4
80003784:	002e0e13          	addi	t3,t3,2
80003788:	e15ff06f          	j	8000359c <vsprintf+0x100>
8000378c:	007d8713          	addi	a4,s11,7
80003790:	ff877713          	andi	a4,a4,-8
80003794:	29212823          	sw	s2,656(sp)
80003798:	00870d93          	addi	s11,a4,8
8000379c:	00472903          	lw	s2,4(a4)
800037a0:	00072703          	lw	a4,0(a4)
800037a4:	7ff006b7          	lui	a3,0x7ff00
800037a8:	09212023          	sw	s2,128(sp)
800037ac:	0126f633          	and	a2,a3,s2
800037b0:	00e12823          	sw	a4,16(sp)
800037b4:	52d60a63          	beq	a2,a3,80003ce8 <vsprintf+0x84c>
800037b8:	fff00713          	li	a4,-1
800037bc:	00ec1463          	bne	s8,a4,800037c4 <vsprintf+0x328>
800037c0:	00600c13          	li	s8,6
800037c4:	00f12423          	sw	a5,8(sp)
800037c8:	01012783          	lw	a5,16(sp)
800037cc:	00000613          	li	a2,0
800037d0:	00000693          	li	a3,0
800037d4:	12f12023          	sw	a5,288(sp)
800037d8:	08012783          	lw	a5,128(sp)
800037dc:	12012503          	lw	a0,288(sp)
800037e0:	09112423          	sw	a7,136(sp)
800037e4:	12f12223          	sw	a5,292(sp)
800037e8:	12412583          	lw	a1,292(sp)
800037ec:	09012223          	sw	a6,132(sp)
800037f0:	05c12423          	sw	t3,72(sp)
800037f4:	04612023          	sw	t1,64(sp)
800037f8:	0cd030ef          	jal	ra,800070c4 <__ledf2>
800037fc:	00812783          	lw	a5,8(sp)
80003800:	04012303          	lw	t1,64(sp)
80003804:	04812e03          	lw	t3,72(sp)
80003808:	08412803          	lw	a6,132(sp)
8000380c:	08812883          	lw	a7,136(sp)
80003810:	5e054263          	bltz	a0,80003df4 <vsprintf+0x958>
80003814:	00191713          	slli	a4,s2,0x1
80003818:	00175713          	srli	a4,a4,0x1
8000381c:	7ff006b7          	lui	a3,0x7ff00
80003820:	52d70a63          	beq	a4,a3,80003d54 <vsprintf+0x8b8>
80003824:	29512223          	sw	s5,644(sp)
80003828:	29612023          	sw	s6,640(sp)
8000382c:	27712e23          	sw	s7,636(sp)
80003830:	06600713          	li	a4,102
80003834:	3ee802e3          	beq	a6,a4,80004418 <vsprintf+0xf7c>
80003838:	00f12423          	sw	a5,8(sp)
8000383c:	01012783          	lw	a5,16(sp)
80003840:	09112423          	sw	a7,136(sp)
80003844:	09012223          	sw	a6,132(sp)
80003848:	18f12823          	sw	a5,400(sp)
8000384c:	08012783          	lw	a5,128(sp)
80003850:	19012503          	lw	a0,400(sp)
80003854:	05c12423          	sw	t3,72(sp)
80003858:	18f12a23          	sw	a5,404(sp)
8000385c:	19412583          	lw	a1,404(sp)
80003860:	04612023          	sw	t1,64(sp)
80003864:	00000613          	li	a2,0
80003868:	00000693          	li	a3,0
8000386c:	4e8030ef          	jal	ra,80006d54 <__eqdf2>
80003870:	00812783          	lw	a5,8(sp)
80003874:	04012303          	lw	t1,64(sp)
80003878:	04812e03          	lw	t3,72(sp)
8000387c:	08412803          	lw	a6,132(sp)
80003880:	08812883          	lw	a7,136(sp)
80003884:	00050463          	beqz	a0,8000388c <vsprintf+0x3f0>
80003888:	2140106f          	j	80004a9c <vsprintf+0x1600>
8000388c:	41800733          	neg	a4,s8
80003890:	00006697          	auipc	a3,0x6
80003894:	f2868693          	addi	a3,a3,-216 # 800097b8 <sprint_fe>
80003898:	00005617          	auipc	a2,0x5
8000389c:	31860613          	addi	a2,a2,792 # 80008bb0 <intpat+0x204>
800038a0:	12e12423          	sw	a4,296(sp)
800038a4:	04012423          	sw	zero,72(sp)
800038a8:	00068713          	mv	a4,a3
800038ac:	04c12023          	sw	a2,64(sp)
800038b0:	6340006f          	j	80003ee4 <vsprintf+0xa48>
800038b4:	06c00693          	li	a3,108
800038b8:	0027e793          	ori	a5,a5,2
800038bc:	00a00613          	li	a2,10
800038c0:	3ed70863          	beq	a4,a3,80003cb0 <vsprintf+0x814>
800038c4:	07100693          	li	a3,113
800038c8:	18d70e63          	beq	a4,a3,80003a64 <vsprintf+0x5c8>
800038cc:	004d8e93          	addi	t4,s11,4
800038d0:	05a00693          	li	a3,90
800038d4:	000da583          	lw	a1,0(s11)
800038d8:	000e8d93          	mv	s11,t4
800038dc:	00d70863          	beq	a4,a3,800038ec <vsprintf+0x450>
800038e0:	06800693          	li	a3,104
800038e4:	0027f513          	andi	a0,a5,2
800038e8:	3ed70863          	beq	a4,a3,80003cd8 <vsprintf+0x83c>
800038ec:	00088513          	mv	a0,a7
800038f0:	000c0713          	mv	a4,s8
800038f4:	00030693          	mv	a3,t1
800038f8:	01c12423          	sw	t3,8(sp)
800038fc:	d94ff0ef          	jal	ra,80002e90 <number>
80003900:	00812e03          	lw	t3,8(sp)
80003904:	00050893          	mv	a7,a0
80003908:	001e4783          	lbu	a5,1(t3)
8000390c:	001e0593          	addi	a1,t3,1
80003910:	be0794e3          	bnez	a5,800034f8 <vsprintf+0x5c>
80003914:	bfdff06f          	j	80003510 <vsprintf+0x74>
80003918:	06c00693          	li	a3,108
8000391c:	00a00613          	li	a2,10
80003920:	fad712e3          	bne	a4,a3,800038c4 <vsprintf+0x428>
80003924:	000da583          	lw	a1,0(s11)
80003928:	004d8d93          	addi	s11,s11,4
8000392c:	fc1ff06f          	j	800038ec <vsprintf+0x450>
80003930:	0107f793          	andi	a5,a5,16
80003934:	004d8513          	addi	a0,s11,4
80003938:	001e0593          	addi	a1,t3,1
8000393c:	0c078ee3          	beqz	a5,80004218 <vsprintf+0xd7c>
80003940:	000da783          	lw	a5,0(s11)
80003944:	fff30613          	addi	a2,t1,-1
80003948:	00188693          	addi	a3,a7,1
8000394c:	00f88023          	sb	a5,0(a7)
80003950:	00c04463          	bgtz	a2,80003958 <vsprintf+0x4bc>
80003954:	6490106f          	j	8000579c <vsprintf+0x2300>
80003958:	40d00733          	neg	a4,a3
8000395c:	ffe30f13          	addi	t5,t1,-2
80003960:	00500f93          	li	t6,5
80003964:	00377793          	andi	a5,a4,3
80003968:	00060813          	mv	a6,a2
8000396c:	00068e93          	mv	t4,a3
80003970:	07efd463          	bge	t6,t5,800039d8 <vsprintf+0x53c>
80003974:	02078863          	beqz	a5,800039a4 <vsprintf+0x508>
80003978:	02000693          	li	a3,32
8000397c:	00277713          	andi	a4,a4,2
80003980:	00d880a3          	sb	a3,1(a7)
80003984:	74070ee3          	beqz	a4,800048e0 <vsprintf+0x1444>
80003988:	00d88123          	sb	a3,2(a7)
8000398c:	00300713          	li	a4,3
80003990:	00e78463          	beq	a5,a4,80003998 <vsprintf+0x4fc>
80003994:	0fc0106f          	j	80004a90 <vsprintf+0x15f4>
80003998:	00d881a3          	sb	a3,3(a7)
8000399c:	ffc30613          	addi	a2,t1,-4
800039a0:	00488693          	addi	a3,a7,4
800039a4:	40f80333          	sub	t1,a6,a5
800039a8:	00178793          	addi	a5,a5,1
800039ac:	00f887b3          	add	a5,a7,a5
800039b0:	ffc37f13          	andi	t5,t1,-4
800039b4:	20202737          	lui	a4,0x20202
800039b8:	01e788b3          	add	a7,a5,t5
800039bc:	02070713          	addi	a4,a4,32 # 20202020 <_entry_offset+0x20202020>
800039c0:	00e7a023          	sw	a4,0(a5)
800039c4:	00478793          	addi	a5,a5,4
800039c8:	fef89ce3          	bne	a7,a5,800039c0 <vsprintf+0x524>
800039cc:	41e60633          	sub	a2,a2,t5
800039d0:	01e686b3          	add	a3,a3,t5
800039d4:	05e30463          	beq	t1,t5,80003a1c <vsprintf+0x580>
800039d8:	02000793          	li	a5,32
800039dc:	00f68023          	sb	a5,0(a3)
800039e0:	00100713          	li	a4,1
800039e4:	02c75c63          	bge	a4,a2,80003a1c <vsprintf+0x580>
800039e8:	00f680a3          	sb	a5,1(a3)
800039ec:	00200713          	li	a4,2
800039f0:	02e60663          	beq	a2,a4,80003a1c <vsprintf+0x580>
800039f4:	00f68123          	sb	a5,2(a3)
800039f8:	00300713          	li	a4,3
800039fc:	02e60063          	beq	a2,a4,80003a1c <vsprintf+0x580>
80003a00:	00f681a3          	sb	a5,3(a3)
80003a04:	00400713          	li	a4,4
80003a08:	00e60a63          	beq	a2,a4,80003a1c <vsprintf+0x580>
80003a0c:	00f68223          	sb	a5,4(a3)
80003a10:	00500713          	li	a4,5
80003a14:	00e60463          	beq	a2,a4,80003a1c <vsprintf+0x580>
80003a18:	00f682a3          	sb	a5,5(a3)
80003a1c:	010e88b3          	add	a7,t4,a6
80003a20:	001e4783          	lbu	a5,1(t3)
80003a24:	00050d93          	mv	s11,a0
80003a28:	ac0798e3          	bnez	a5,800034f8 <vsprintf+0x5c>
80003a2c:	ae5ff06f          	j	80003510 <vsprintf+0x74>
80003a30:	06c00693          	li	a3,108
80003a34:	0407e793          	ori	a5,a5,64
80003a38:	01000613          	li	a2,16
80003a3c:	e8d714e3          	bne	a4,a3,800038c4 <vsprintf+0x428>
80003a40:	000da583          	lw	a1,0(s11)
80003a44:	01000613          	li	a2,16
80003a48:	004d8d93          	addi	s11,s11,4
80003a4c:	ea1ff06f          	j	800038ec <vsprintf+0x450>
80003a50:	06c00693          	li	a3,108
80003a54:	01000613          	li	a2,16
80003a58:	ecd706e3          	beq	a4,a3,80003924 <vsprintf+0x488>
80003a5c:	07100693          	li	a3,113
80003a60:	e6d716e3          	bne	a4,a3,800038cc <vsprintf+0x430>
80003a64:	007d8713          	addi	a4,s11,7
80003a68:	ff877713          	andi	a4,a4,-8
80003a6c:	00072583          	lw	a1,0(a4)
80003a70:	00870d93          	addi	s11,a4,8
80003a74:	e79ff06f          	j	800038ec <vsprintf+0x450>
80003a78:	02500793          	li	a5,37
80003a7c:	00f88023          	sb	a5,0(a7)
80003a80:	001e4783          	lbu	a5,1(t3)
80003a84:	00188893          	addi	a7,a7,1
80003a88:	001e0593          	addi	a1,t3,1
80003a8c:	a60796e3          	bnez	a5,800034f8 <vsprintf+0x5c>
80003a90:	a81ff06f          	j	80003510 <vsprintf+0x74>
80003a94:	01812783          	lw	a5,24(sp)
80003a98:	000da703          	lw	a4,0(s11)
80003a9c:	004d8693          	addi	a3,s11,4
80003aa0:	40f887b3          	sub	a5,a7,a5
80003aa4:	00f72023          	sw	a5,0(a4)
80003aa8:	001e4783          	lbu	a5,1(t3)
80003aac:	001e0593          	addi	a1,t3,1
80003ab0:	00068d93          	mv	s11,a3
80003ab4:	a40792e3          	bnez	a5,800034f8 <vsprintf+0x5c>
80003ab8:	a59ff06f          	j	80003510 <vsprintf+0x74>
80003abc:	06c00693          	li	a3,108
80003ac0:	00800613          	li	a2,8
80003ac4:	e0d710e3          	bne	a4,a3,800038c4 <vsprintf+0x428>
80003ac8:	e5dff06f          	j	80003924 <vsprintf+0x488>
80003acc:	fff00713          	li	a4,-1
80003ad0:	00e31663          	bne	t1,a4,80003adc <vsprintf+0x640>
80003ad4:	0017e793          	ori	a5,a5,1
80003ad8:	00800313          	li	t1,8
80003adc:	000da583          	lw	a1,0(s11)
80003ae0:	00088513          	mv	a0,a7
80003ae4:	000c0713          	mv	a4,s8
80003ae8:	00030693          	mv	a3,t1
80003aec:	01000613          	li	a2,16
80003af0:	01c12423          	sw	t3,8(sp)
80003af4:	b9cff0ef          	jal	ra,80002e90 <number>
80003af8:	00812e03          	lw	t3,8(sp)
80003afc:	004d8d93          	addi	s11,s11,4
80003b00:	00050893          	mv	a7,a0
80003b04:	001e4783          	lbu	a5,1(t3)
80003b08:	001e0593          	addi	a1,t3,1
80003b0c:	9e0796e3          	bnez	a5,800034f8 <vsprintf+0x5c>
80003b10:	a01ff06f          	j	80003510 <vsprintf+0x74>
80003b14:	000da703          	lw	a4,0(s11)
80003b18:	004d8e93          	addi	t4,s11,4
80003b1c:	28070463          	beqz	a4,80003da4 <vsprintf+0x908>
80003b20:	00074683          	lbu	a3,0(a4)
80003b24:	28068463          	beqz	a3,80003dac <vsprintf+0x910>
80003b28:	018706b3          	add	a3,a4,s8
80003b2c:	00070613          	mv	a2,a4
80003b30:	00d60a63          	beq	a2,a3,80003b44 <vsprintf+0x6a8>
80003b34:	00164583          	lbu	a1,1(a2)
80003b38:	00160613          	addi	a2,a2,1
80003b3c:	fe059ae3          	bnez	a1,80003b30 <vsprintf+0x694>
80003b40:	00060693          	mv	a3,a2
80003b44:	0107f793          	andi	a5,a5,16
80003b48:	40e686b3          	sub	a3,a3,a4
80003b4c:	7a078c63          	beqz	a5,80004304 <vsprintf+0xe68>
80003b50:	08d05263          	blez	a3,80003bd4 <vsprintf+0x738>
80003b54:	fff68793          	addi	a5,a3,-1
80003b58:	00600613          	li	a2,6
80003b5c:	6ef67ce3          	bgeu	a2,a5,80004a54 <vsprintf+0x15b8>
80003b60:	00e8e7b3          	or	a5,a7,a4
80003b64:	0037f793          	andi	a5,a5,3
80003b68:	6e0796e3          	bnez	a5,80004a54 <vsprintf+0x15b8>
80003b6c:	00170793          	addi	a5,a4,1
80003b70:	40f88633          	sub	a2,a7,a5
80003b74:	00363613          	sltiu	a2,a2,3
80003b78:	6e0610e3          	bnez	a2,80004a58 <vsprintf+0x15bc>
80003b7c:	ffc6f513          	andi	a0,a3,-4
80003b80:	00a705b3          	add	a1,a4,a0
80003b84:	00088793          	mv	a5,a7
80003b88:	00072603          	lw	a2,0(a4)
80003b8c:	00470713          	addi	a4,a4,4
80003b90:	00478793          	addi	a5,a5,4
80003b94:	fec7ae23          	sw	a2,-4(a5)
80003b98:	fee598e3          	bne	a1,a4,80003b88 <vsprintf+0x6ec>
80003b9c:	00a887b3          	add	a5,a7,a0
80003ba0:	00d88733          	add	a4,a7,a3
80003ba4:	02a68663          	beq	a3,a0,80003bd0 <vsprintf+0x734>
80003ba8:	0005c803          	lbu	a6,0(a1)
80003bac:	00150613          	addi	a2,a0,1
80003bb0:	01078023          	sb	a6,0(a5)
80003bb4:	00d65e63          	bge	a2,a3,80003bd0 <vsprintf+0x734>
80003bb8:	0015c603          	lbu	a2,1(a1)
80003bbc:	00250513          	addi	a0,a0,2
80003bc0:	00c780a3          	sb	a2,1(a5)
80003bc4:	00d55663          	bge	a0,a3,80003bd0 <vsprintf+0x734>
80003bc8:	0025c603          	lbu	a2,2(a1)
80003bcc:	00c78123          	sb	a2,2(a5)
80003bd0:	00070893          	mv	a7,a4
80003bd4:	fff30613          	addi	a2,t1,-1
80003bd8:	001e0593          	addi	a1,t3,1
80003bdc:	0c66d263          	bge	a3,t1,80003ca0 <vsprintf+0x804>
80003be0:	40d30833          	sub	a6,t1,a3
80003be4:	41100733          	neg	a4,a7
80003be8:	fff80f13          	addi	t5,a6,-1
80003bec:	00500513          	li	a0,5
80003bf0:	00377793          	andi	a5,a4,3
80003bf4:	00088f93          	mv	t6,a7
80003bf8:	07e57263          	bgeu	a0,t5,80003c5c <vsprintf+0x7c0>
80003bfc:	00088f13          	mv	t5,a7
80003c00:	02078663          	beqz	a5,80003c2c <vsprintf+0x790>
80003c04:	02000613          	li	a2,32
80003c08:	00277713          	andi	a4,a4,2
80003c0c:	00c88023          	sb	a2,0(a7)
80003c10:	4c070ee3          	beqz	a4,800048ec <vsprintf+0x1450>
80003c14:	00c880a3          	sb	a2,1(a7)
80003c18:	00300713          	li	a4,3
80003c1c:	66e794e3          	bne	a5,a4,80004a84 <vsprintf+0x15e8>
80003c20:	00c88123          	sb	a2,2(a7)
80003c24:	00388f13          	addi	t5,a7,3
80003c28:	ffc30613          	addi	a2,t1,-4
80003c2c:	40f80333          	sub	t1,a6,a5
80003c30:	ffc37513          	andi	a0,t1,-4
80003c34:	00f887b3          	add	a5,a7,a5
80003c38:	20202737          	lui	a4,0x20202
80003c3c:	00f508b3          	add	a7,a0,a5
80003c40:	02070713          	addi	a4,a4,32 # 20202020 <_entry_offset+0x20202020>
80003c44:	00e7a023          	sw	a4,0(a5)
80003c48:	00478793          	addi	a5,a5,4
80003c4c:	fef89ce3          	bne	a7,a5,80003c44 <vsprintf+0x7a8>
80003c50:	40a60633          	sub	a2,a2,a0
80003c54:	00af08b3          	add	a7,t5,a0
80003c58:	04a30263          	beq	t1,a0,80003c9c <vsprintf+0x800>
80003c5c:	02000793          	li	a5,32
80003c60:	00f88023          	sb	a5,0(a7)
80003c64:	fff60713          	addi	a4,a2,-1
80003c68:	02c6da63          	bge	a3,a2,80003c9c <vsprintf+0x800>
80003c6c:	00f880a3          	sb	a5,1(a7)
80003c70:	ffe60513          	addi	a0,a2,-2
80003c74:	02e6d463          	bge	a3,a4,80003c9c <vsprintf+0x800>
80003c78:	00f88123          	sb	a5,2(a7)
80003c7c:	ffd60713          	addi	a4,a2,-3
80003c80:	00a6de63          	bge	a3,a0,80003c9c <vsprintf+0x800>
80003c84:	00f881a3          	sb	a5,3(a7)
80003c88:	ffc60613          	addi	a2,a2,-4
80003c8c:	00e6d863          	bge	a3,a4,80003c9c <vsprintf+0x800>
80003c90:	00f88223          	sb	a5,4(a7)
80003c94:	00c6d463          	bge	a3,a2,80003c9c <vsprintf+0x800>
80003c98:	00f882a3          	sb	a5,5(a7)
80003c9c:	01f808b3          	add	a7,a6,t6
80003ca0:	001e4783          	lbu	a5,1(t3)
80003ca4:	000e8d93          	mv	s11,t4
80003ca8:	840798e3          	bnez	a5,800034f8 <vsprintf+0x5c>
80003cac:	865ff06f          	j	80003510 <vsprintf+0x74>
80003cb0:	000da583          	lw	a1,0(s11)
80003cb4:	00a00613          	li	a2,10
80003cb8:	004d8d93          	addi	s11,s11,4
80003cbc:	c31ff06f          	j	800038ec <vsprintf+0x450>
80003cc0:	00000513          	li	a0,0
80003cc4:	00068023          	sb	zero,0(a3)
80003cc8:	00008067          	ret
80003ccc:	01812683          	lw	a3,24(sp)
80003cd0:	00188893          	addi	a7,a7,1
80003cd4:	841ff06f          	j	80003514 <vsprintf+0x78>
80003cd8:	01059593          	slli	a1,a1,0x10
80003cdc:	70050263          	beqz	a0,800043e0 <vsprintf+0xf44>
80003ce0:	4105d593          	srai	a1,a1,0x10
80003ce4:	c09ff06f          	j	800038ec <vsprintf+0x450>
80003ce8:	00070613          	mv	a2,a4
80003cec:	00c91713          	slli	a4,s2,0xc
80003cf0:	00c75713          	srli	a4,a4,0xc
80003cf4:	00c76733          	or	a4,a4,a2
80003cf8:	6e071863          	bnez	a4,800043e8 <vsprintf+0xf4c>
80003cfc:	fff00713          	li	a4,-1
80003d00:	09112423          	sw	a7,136(sp)
80003d04:	09012223          	sw	a6,132(sp)
80003d08:	05c12423          	sw	t3,72(sp)
80003d0c:	04612023          	sw	t1,64(sp)
80003d10:	00f12423          	sw	a5,8(sp)
80003d14:	0aec0463          	beq	s8,a4,80003dbc <vsprintf+0x920>
80003d18:	01012783          	lw	a5,16(sp)
80003d1c:	00000613          	li	a2,0
80003d20:	00000693          	li	a3,0
80003d24:	20f12423          	sw	a5,520(sp)
80003d28:	08012783          	lw	a5,128(sp)
80003d2c:	20812503          	lw	a0,520(sp)
80003d30:	20f12623          	sw	a5,524(sp)
80003d34:	20c12583          	lw	a1,524(sp)
80003d38:	38c030ef          	jal	ra,800070c4 <__ledf2>
80003d3c:	00812783          	lw	a5,8(sp)
80003d40:	04012303          	lw	t1,64(sp)
80003d44:	04812e03          	lw	t3,72(sp)
80003d48:	08412803          	lw	a6,132(sp)
80003d4c:	08812883          	lw	a7,136(sp)
80003d50:	0a054263          	bltz	a0,80003df4 <vsprintf+0x958>
80003d54:	01012683          	lw	a3,16(sp)
80003d58:	00069463          	bnez	a3,80003d60 <vsprintf+0x8c4>
80003d5c:	5700106f          	j	800052cc <vsprintf+0x1e30>
80003d60:	29512223          	sw	s5,644(sp)
80003d64:	29612023          	sw	s6,640(sp)
80003d68:	27712e23          	sw	s7,636(sp)
80003d6c:	06600713          	li	a4,102
80003d70:	00e81463          	bne	a6,a4,80003d78 <vsprintf+0x8dc>
80003d74:	69c0106f          	j	80005410 <vsprintf+0x1f74>
80003d78:	00f12423          	sw	a5,8(sp)
80003d7c:	08012783          	lw	a5,128(sp)
80003d80:	20d12823          	sw	a3,528(sp)
80003d84:	21012503          	lw	a0,528(sp)
80003d88:	20f12a23          	sw	a5,532(sp)
80003d8c:	21412583          	lw	a1,532(sp)
80003d90:	09112423          	sw	a7,136(sp)
80003d94:	09012223          	sw	a6,132(sp)
80003d98:	05c12423          	sw	t3,72(sp)
80003d9c:	04612023          	sw	t1,64(sp)
80003da0:	ac5ff06f          	j	80003864 <vsprintf+0x3c8>
80003da4:	00005717          	auipc	a4,0x5
80003da8:	85070713          	addi	a4,a4,-1968 # 800085f4 <_etext+0x190>
80003dac:	0107f693          	andi	a3,a5,16
80003db0:	120682e3          	beqz	a3,800046d4 <vsprintf+0x1238>
80003db4:	00000693          	li	a3,0
80003db8:	e1dff06f          	j	80003bd4 <vsprintf+0x738>
80003dbc:	20c12023          	sw	a2,512(sp)
80003dc0:	21212223          	sw	s2,516(sp)
80003dc4:	20012503          	lw	a0,512(sp)
80003dc8:	20412583          	lw	a1,516(sp)
80003dcc:	00000613          	li	a2,0
80003dd0:	00000693          	li	a3,0
80003dd4:	2f0030ef          	jal	ra,800070c4 <__ledf2>
80003dd8:	00812783          	lw	a5,8(sp)
80003ddc:	04012303          	lw	t1,64(sp)
80003de0:	04812e03          	lw	t3,72(sp)
80003de4:	08412803          	lw	a6,132(sp)
80003de8:	08812883          	lw	a7,136(sp)
80003dec:	00600c13          	li	s8,6
80003df0:	f60552e3          	bgez	a0,80003d54 <vsprintf+0x8b8>
80003df4:	00f12423          	sw	a5,8(sp)
80003df8:	01012783          	lw	a5,16(sp)
80003dfc:	00000513          	li	a0,0
80003e00:	00000593          	li	a1,0
80003e04:	14f12823          	sw	a5,336(sp)
80003e08:	08012783          	lw	a5,128(sp)
80003e0c:	15012603          	lw	a2,336(sp)
80003e10:	09112423          	sw	a7,136(sp)
80003e14:	14f12a23          	sw	a5,340(sp)
80003e18:	15412683          	lw	a3,340(sp)
80003e1c:	09012223          	sw	a6,132(sp)
80003e20:	05c12423          	sw	t3,72(sp)
80003e24:	04612023          	sw	t1,64(sp)
80003e28:	289030ef          	jal	ra,800078b0 <__subdf3>
80003e2c:	00159713          	slli	a4,a1,0x1
80003e30:	08b12023          	sw	a1,128(sp)
80003e34:	00175713          	srli	a4,a4,0x1
80003e38:	7ff006b7          	lui	a3,0x7ff00
80003e3c:	00a12823          	sw	a0,16(sp)
80003e40:	00812783          	lw	a5,8(sp)
80003e44:	04012303          	lw	t1,64(sp)
80003e48:	04812e03          	lw	t3,72(sp)
80003e4c:	08412803          	lw	a6,132(sp)
80003e50:	08812883          	lw	a7,136(sp)
80003e54:	02d70ae3          	beq	a4,a3,80004688 <vsprintf+0x11ec>
80003e58:	29512223          	sw	s5,644(sp)
80003e5c:	29612023          	sw	s6,640(sp)
80003e60:	27712e23          	sw	s7,636(sp)
80003e64:	06600713          	li	a4,102
80003e68:	00e81463          	bne	a6,a4,80003e70 <vsprintf+0x9d4>
80003e6c:	4700106f          	j	800052dc <vsprintf+0x1e40>
80003e70:	00000613          	li	a2,0
80003e74:	00000693          	li	a3,0
80003e78:	09112423          	sw	a7,136(sp)
80003e7c:	09012223          	sw	a6,132(sp)
80003e80:	05c12423          	sw	t3,72(sp)
80003e84:	04612023          	sw	t1,64(sp)
80003e88:	00f12423          	sw	a5,8(sp)
80003e8c:	6c9020ef          	jal	ra,80006d54 <__eqdf2>
80003e90:	00812783          	lw	a5,8(sp)
80003e94:	04012303          	lw	t1,64(sp)
80003e98:	04812e03          	lw	t3,72(sp)
80003e9c:	08412803          	lw	a6,132(sp)
80003ea0:	08812883          	lw	a7,136(sp)
80003ea4:	00050463          	beqz	a0,80003eac <vsprintf+0xa10>
80003ea8:	41c0106f          	j	800052c4 <vsprintf+0x1e28>
80003eac:	41800633          	neg	a2,s8
80003eb0:	02d00713          	li	a4,45
80003eb4:	00006697          	auipc	a3,0x6
80003eb8:	90468693          	addi	a3,a3,-1788 # 800097b8 <sprint_fe>
80003ebc:	12c12423          	sw	a2,296(sp)
80003ec0:	00005617          	auipc	a2,0x5
80003ec4:	cf060613          	addi	a2,a2,-784 # 80008bb0 <intpat+0x204>
80003ec8:	00e68023          	sb	a4,0(a3)
80003ecc:	04012423          	sw	zero,72(sp)
80003ed0:	00012823          	sw	zero,16(sp)
80003ed4:	08012023          	sw	zero,128(sp)
80003ed8:	00006717          	auipc	a4,0x6
80003edc:	8e170713          	addi	a4,a4,-1823 # 800097b9 <sprint_fe+0x1>
80003ee0:	04c12023          	sw	a2,64(sp)
80003ee4:	00000b93          	li	s7,0
80003ee8:	000b8a93          	mv	s5,s7
80003eec:	15812b03          	lw	s6,344(sp)
80003ef0:	15c12b83          	lw	s7,348(sp)
80003ef4:	16012c03          	lw	s8,352(sp)
80003ef8:	16412c83          	lw	s9,356(sp)
80003efc:	08f12223          	sw	a5,132(sp)
80003f00:	09112423          	sw	a7,136(sp)
80003f04:	16612423          	sw	t1,360(sp)
80003f08:	17c12823          	sw	t3,368(sp)
80003f0c:	00e12423          	sw	a4,8(sp)
80003f10:	17012c23          	sw	a6,376(sp)
80003f14:	19b12023          	sw	s11,384(sp)
80003f18:	18d12223          	sw	a3,388(sp)
80003f1c:	18812423          	sw	s0,392(sp)
80003f20:	18912623          	sw	s1,396(sp)
80003f24:	fff00793          	li	a5,-1
80003f28:	00fa9463          	bne	s5,a5,80003f30 <vsprintf+0xa94>
80003f2c:	19c0106f          	j	800050c8 <vsprintf+0x1c2c>
80003f30:	000a9463          	bnez	s5,80003f38 <vsprintf+0xa9c>
80003f34:	3f80106f          	j	8000532c <vsprintf+0x1e90>
80003f38:	04012783          	lw	a5,64(sp)
80003f3c:	000a8493          	mv	s1,s5
80003f40:	ffc00913          	li	s2,-4
80003f44:	0007a703          	lw	a4,0(a5)
80003f48:	0047a783          	lw	a5,4(a5)
80003f4c:	00005d97          	auipc	s11,0x5
80003f50:	c74d8d93          	addi	s11,s11,-908 # 80008bc0 <intpat+0x214>
80003f54:	7924d863          	bge	s1,s2,800046e4 <vsprintf+0x1248>
80003f58:	000da603          	lw	a2,0(s11)
80003f5c:	004da683          	lw	a3,4(s11)
80003f60:	00070513          	mv	a0,a4
80003f64:	00078593          	mv	a1,a5
80003f68:	00070b13          	mv	s6,a4
80003f6c:	00078b93          	mv	s7,a5
80003f70:	00548493          	addi	s1,s1,5
80003f74:	594020ef          	jal	ra,80006508 <__divdf3>
80003f78:	00050713          	mv	a4,a0
80003f7c:	00058793          	mv	a5,a1
80003f80:	fc049ae3          	bnez	s1,80003f54 <vsprintf+0xab8>
80003f84:	01012403          	lw	s0,16(sp)
80003f88:	08012483          	lw	s1,128(sp)
80003f8c:	12e12823          	sw	a4,304(sp)
80003f90:	12f12a23          	sw	a5,308(sp)
80003f94:	12812c23          	sw	s0,312(sp)
80003f98:	12912e23          	sw	s1,316(sp)
80003f9c:	13012603          	lw	a2,304(sp)
80003fa0:	13412683          	lw	a3,308(sp)
80003fa4:	13812503          	lw	a0,312(sp)
80003fa8:	13c12583          	lw	a1,316(sp)
80003fac:	14e12c23          	sw	a4,344(sp)
80003fb0:	00f12823          	sw	a5,16(sp)
80003fb4:	554020ef          	jal	ra,80006508 <__divdf3>
80003fb8:	629020ef          	jal	ra,80006de0 <__fixdfsi>
80003fbc:	00050913          	mv	s2,a0
80003fc0:	6a5020ef          	jal	ra,80006e64 <__floatsidf>
80003fc4:	01012783          	lw	a5,16(sp)
80003fc8:	15812703          	lw	a4,344(sp)
80003fcc:	03090913          	addi	s2,s2,48 # fffff030 <_end+0x7ffb5030>
80003fd0:	14f12223          	sw	a5,324(sp)
80003fd4:	14e12023          	sw	a4,320(sp)
80003fd8:	14012603          	lw	a2,320(sp)
80003fdc:	14412683          	lw	a3,324(sp)
80003fe0:	fffa8a93          	addi	s5,s5,-1
80003fe4:	1e0030ef          	jal	ra,800071c4 <__muldf3>
80003fe8:	14812423          	sw	s0,328(sp)
80003fec:	14912623          	sw	s1,332(sp)
80003ff0:	00050613          	mv	a2,a0
80003ff4:	00058693          	mv	a3,a1
80003ff8:	14812503          	lw	a0,328(sp)
80003ffc:	14c12583          	lw	a1,332(sp)
80004000:	0b1030ef          	jal	ra,800078b0 <__subdf3>
80004004:	00812783          	lw	a5,8(sp)
80004008:	00a12823          	sw	a0,16(sp)
8000400c:	08b12023          	sw	a1,128(sp)
80004010:	01278023          	sb	s2,0(a5)
80004014:	00178613          	addi	a2,a5,1
80004018:	12812783          	lw	a5,296(sp)
8000401c:	00fac463          	blt	s5,a5,80004024 <vsprintf+0xb88>
80004020:	7c40106f          	j	800057e4 <vsprintf+0x2348>
80004024:	17812803          	lw	a6,376(sp)
80004028:	15612c23          	sw	s6,344(sp)
8000402c:	15712e23          	sw	s7,348(sp)
80004030:	17812023          	sw	s8,352(sp)
80004034:	17912223          	sw	s9,356(sp)
80004038:	06600593          	li	a1,102
8000403c:	08412783          	lw	a5,132(sp)
80004040:	08812883          	lw	a7,136(sp)
80004044:	16812303          	lw	t1,360(sp)
80004048:	17012e03          	lw	t3,368(sp)
8000404c:	00812703          	lw	a4,8(sp)
80004050:	18012d83          	lw	s11,384(sp)
80004054:	18412683          	lw	a3,388(sp)
80004058:	18812403          	lw	s0,392(sp)
8000405c:	18c12483          	lw	s1,396(sp)
80004060:	00b81463          	bne	a6,a1,80004068 <vsprintf+0xbcc>
80004064:	0440106f          	j	800050a8 <vsprintf+0x1c0c>
80004068:	04812503          	lw	a0,72(sp)
8000406c:	010700a3          	sb	a6,1(a4)
80004070:	00370593          	addi	a1,a4,3
80004074:	02b00613          	li	a2,43
80004078:	00055863          	bgez	a0,80004088 <vsprintf+0xbec>
8000407c:	40a00633          	neg	a2,a0
80004080:	04c12423          	sw	a2,72(sp)
80004084:	02d00613          	li	a2,45
80004088:	04812803          	lw	a6,72(sp)
8000408c:	ccccd537          	lui	a0,0xccccd
80004090:	ccd50513          	addi	a0,a0,-819 # cccccccd <_end+0x4cc82ccd>
80004094:	02a83533          	mulhu	a0,a6,a0
80004098:	00c70123          	sb	a2,2(a4)
8000409c:	00570613          	addi	a2,a4,5
800040a0:	00355713          	srli	a4,a0,0x3
800040a4:	00271513          	slli	a0,a4,0x2
800040a8:	00e50533          	add	a0,a0,a4
800040ac:	00151513          	slli	a0,a0,0x1
800040b0:	40a80533          	sub	a0,a6,a0
800040b4:	03050513          	addi	a0,a0,48
800040b8:	03070713          	addi	a4,a4,48
800040bc:	00a580a3          	sb	a0,1(a1)
800040c0:	00e58023          	sb	a4,0(a1)
800040c4:	28412a83          	lw	s5,644(sp)
800040c8:	28012b03          	lw	s6,640(sp)
800040cc:	27c12b83          	lw	s7,636(sp)
800040d0:	00060023          	sb	zero,0(a2)
800040d4:	0107f793          	andi	a5,a5,16
800040d8:	6a078863          	beqz	a5,80004788 <vsprintf+0x12ec>
800040dc:	01c12703          	lw	a4,28(sp)
800040e0:	00005797          	auipc	a5,0x5
800040e4:	6d87c783          	lbu	a5,1752(a5) # 800097b8 <sprint_fe>
800040e8:	00170693          	addi	a3,a4,1
800040ec:	02078063          	beqz	a5,8000410c <vsprintf+0xc70>
800040f0:	00005717          	auipc	a4,0x5
800040f4:	6c970713          	addi	a4,a4,1737 # 800097b9 <sprint_fe+0x1>
800040f8:	00170713          	addi	a4,a4,1
800040fc:	00f88023          	sb	a5,0(a7)
80004100:	fff74783          	lbu	a5,-1(a4)
80004104:	00188893          	addi	a7,a7,1
80004108:	fe0798e3          	bnez	a5,800040f8 <vsprintf+0xc5c>
8000410c:	01c12783          	lw	a5,28(sp)
80004110:	001e0593          	addi	a1,t3,1
80004114:	7a67d463          	bge	a5,t1,800048bc <vsprintf+0x1420>
80004118:	00d323b3          	slt	t2,t1,a3
8000411c:	0013c293          	xori	t0,t2,1
80004120:	00068f13          	mv	t5,a3
80004124:	40d30633          	sub	a2,t1,a3
80004128:	00100513          	li	a0,1
8000412c:	00039463          	bnez	t2,80004134 <vsprintf+0xc98>
80004130:	00a60533          	add	a0,a2,a0
80004134:	41100733          	neg	a4,a7
80004138:	00663813          	sltiu	a6,a2,6
8000413c:	00377793          	andi	a5,a4,3
80004140:	00088f93          	mv	t6,a7
80004144:	06081463          	bnez	a6,800041ac <vsprintf+0xd10>
80004148:	06039263          	bnez	t2,800041ac <vsprintf+0xd10>
8000414c:	00088393          	mv	t2,a7
80004150:	02078663          	beqz	a5,8000417c <vsprintf+0xce0>
80004154:	02000813          	li	a6,32
80004158:	00277713          	andi	a4,a4,2
8000415c:	01088023          	sb	a6,0(a7)
80004160:	76070a63          	beqz	a4,800048d4 <vsprintf+0x1438>
80004164:	010880a3          	sb	a6,1(a7)
80004168:	00300713          	li	a4,3
8000416c:	10e796e3          	bne	a5,a4,80004a78 <vsprintf+0x15dc>
80004170:	01088123          	sb	a6,2(a7)
80004174:	00368693          	addi	a3,a3,3
80004178:	00388393          	addi	t2,a7,3
8000417c:	40f50533          	sub	a0,a0,a5
80004180:	ffc57813          	andi	a6,a0,-4
80004184:	00f887b3          	add	a5,a7,a5
80004188:	20202737          	lui	a4,0x20202
8000418c:	00f808b3          	add	a7,a6,a5
80004190:	02070713          	addi	a4,a4,32 # 20202020 <_entry_offset+0x20202020>
80004194:	00e7a023          	sw	a4,0(a5)
80004198:	00478793          	addi	a5,a5,4
8000419c:	ff179ce3          	bne	a5,a7,80004194 <vsprintf+0xcf8>
800041a0:	010686b3          	add	a3,a3,a6
800041a4:	010388b3          	add	a7,t2,a6
800041a8:	05050263          	beq	a0,a6,800041ec <vsprintf+0xd50>
800041ac:	02000793          	li	a5,32
800041b0:	00f88023          	sb	a5,0(a7)
800041b4:	00168713          	addi	a4,a3,1
800041b8:	0266da63          	bge	a3,t1,800041ec <vsprintf+0xd50>
800041bc:	00f880a3          	sb	a5,1(a7)
800041c0:	00268513          	addi	a0,a3,2
800041c4:	02675463          	bge	a4,t1,800041ec <vsprintf+0xd50>
800041c8:	00f88123          	sb	a5,2(a7)
800041cc:	00368713          	addi	a4,a3,3
800041d0:	00655e63          	bge	a0,t1,800041ec <vsprintf+0xd50>
800041d4:	00f881a3          	sb	a5,3(a7)
800041d8:	00468693          	addi	a3,a3,4
800041dc:	00675863          	bge	a4,t1,800041ec <vsprintf+0xd50>
800041e0:	00f88223          	sb	a5,4(a7)
800041e4:	0066d463          	bge	a3,t1,800041ec <vsprintf+0xd50>
800041e8:	00f882a3          	sb	a5,5(a7)
800041ec:	405002b3          	neg	t0,t0
800041f0:	00567633          	and	a2,a2,t0
800041f4:	001f0f13          	addi	t5,t5,1
800041f8:	00cf07b3          	add	a5,t5,a2
800041fc:	00f12e23          	sw	a5,28(sp)
80004200:	001e4783          	lbu	a5,1(t3)
80004204:	001f8f93          	addi	t6,t6,1
80004208:	29012903          	lw	s2,656(sp)
8000420c:	00cf88b3          	add	a7,t6,a2
80004210:	ae079463          	bnez	a5,800034f8 <vsprintf+0x5c>
80004214:	afcff06f          	j	80003510 <vsprintf+0x74>
80004218:	00100793          	li	a5,1
8000421c:	4867dc63          	bge	a5,t1,800046b4 <vsprintf+0x1218>
80004220:	41100733          	neg	a4,a7
80004224:	ffe30813          	addi	a6,t1,-2
80004228:	00500f13          	li	t5,5
8000422c:	00377793          	andi	a5,a4,3
80004230:	fff30613          	addi	a2,t1,-1
80004234:	00088693          	mv	a3,a7
80004238:	070f5863          	bge	t5,a6,800042a8 <vsprintf+0xe0c>
8000423c:	00088f93          	mv	t6,a7
80004240:	02078a63          	beqz	a5,80004274 <vsprintf+0xdd8>
80004244:	02000613          	li	a2,32
80004248:	00277713          	andi	a4,a4,2
8000424c:	00c88023          	sb	a2,0(a7)
80004250:	00071463          	bnez	a4,80004258 <vsprintf+0xdbc>
80004254:	0bc0106f          	j	80005310 <vsprintf+0x1e74>
80004258:	00c880a3          	sb	a2,1(a7)
8000425c:	00300713          	li	a4,3
80004260:	00e78463          	beq	a5,a4,80004268 <vsprintf+0xdcc>
80004264:	1780106f          	j	800053dc <vsprintf+0x1f40>
80004268:	00c88123          	sb	a2,2(a7)
8000426c:	00388f93          	addi	t6,a7,3
80004270:	ffc30613          	addi	a2,t1,-4
80004274:	40f30f33          	sub	t5,t1,a5
80004278:	ffff0f13          	addi	t5,t5,-1
8000427c:	00f887b3          	add	a5,a7,a5
80004280:	ffcf7813          	andi	a6,t5,-4
80004284:	20202737          	lui	a4,0x20202
80004288:	00f808b3          	add	a7,a6,a5
8000428c:	02070713          	addi	a4,a4,32 # 20202020 <_entry_offset+0x20202020>
80004290:	00e7a023          	sw	a4,0(a5)
80004294:	00478793          	addi	a5,a5,4
80004298:	fef89ce3          	bne	a7,a5,80004290 <vsprintf+0xdf4>
8000429c:	41060633          	sub	a2,a2,a6
800042a0:	010f88b3          	add	a7,t6,a6
800042a4:	050f0463          	beq	t5,a6,800042ec <vsprintf+0xe50>
800042a8:	02000793          	li	a5,32
800042ac:	00f88023          	sb	a5,0(a7)
800042b0:	00100713          	li	a4,1
800042b4:	02c75c63          	bge	a4,a2,800042ec <vsprintf+0xe50>
800042b8:	00f880a3          	sb	a5,1(a7)
800042bc:	00200713          	li	a4,2
800042c0:	02e60663          	beq	a2,a4,800042ec <vsprintf+0xe50>
800042c4:	00f88123          	sb	a5,2(a7)
800042c8:	00300713          	li	a4,3
800042cc:	02e60063          	beq	a2,a4,800042ec <vsprintf+0xe50>
800042d0:	00f881a3          	sb	a5,3(a7)
800042d4:	00400713          	li	a4,4
800042d8:	00e60a63          	beq	a2,a4,800042ec <vsprintf+0xe50>
800042dc:	00f88223          	sb	a5,4(a7)
800042e0:	00500713          	li	a4,5
800042e4:	00e60463          	beq	a2,a4,800042ec <vsprintf+0xe50>
800042e8:	00f882a3          	sb	a5,5(a7)
800042ec:	000da703          	lw	a4,0(s11)
800042f0:	fff68793          	addi	a5,a3,-1
800042f4:	006787b3          	add	a5,a5,t1
800042f8:	00e78023          	sb	a4,0(a5)
800042fc:	00178893          	addi	a7,a5,1
80004300:	f20ff06f          	j	80003a20 <vsprintf+0x584>
80004304:	fff30593          	addi	a1,t1,-1
80004308:	0066c463          	blt	a3,t1,80004310 <vsprintf+0xe74>
8000430c:	0fc0106f          	j	80005408 <vsprintf+0x1f6c>
80004310:	40d30833          	sub	a6,t1,a3
80004314:	41100633          	neg	a2,a7
80004318:	fff80f13          	addi	t5,a6,-1
8000431c:	00500513          	li	a0,5
80004320:	00367793          	andi	a5,a2,3
80004324:	00088f93          	mv	t6,a7
80004328:	07e57663          	bgeu	a0,t5,80004394 <vsprintf+0xef8>
8000432c:	00088f13          	mv	t5,a7
80004330:	02078a63          	beqz	a5,80004364 <vsprintf+0xec8>
80004334:	02000593          	li	a1,32
80004338:	00267613          	andi	a2,a2,2
8000433c:	00b88023          	sb	a1,0(a7)
80004340:	00061463          	bnez	a2,80004348 <vsprintf+0xeac>
80004344:	7c10006f          	j	80005304 <vsprintf+0x1e68>
80004348:	00b880a3          	sb	a1,1(a7)
8000434c:	00300613          	li	a2,3
80004350:	00c78463          	beq	a5,a2,80004358 <vsprintf+0xebc>
80004354:	0a80106f          	j	800053fc <vsprintf+0x1f60>
80004358:	00b88123          	sb	a1,2(a7)
8000435c:	00388f13          	addi	t5,a7,3
80004360:	ffc30593          	addi	a1,t1,-4
80004364:	40f80333          	sub	t1,a6,a5
80004368:	ffc37513          	andi	a0,t1,-4
8000436c:	00f887b3          	add	a5,a7,a5
80004370:	20202637          	lui	a2,0x20202
80004374:	00a788b3          	add	a7,a5,a0
80004378:	02060613          	addi	a2,a2,32 # 20202020 <_entry_offset+0x20202020>
8000437c:	00c7a023          	sw	a2,0(a5)
80004380:	00478793          	addi	a5,a5,4
80004384:	ff179ce3          	bne	a5,a7,8000437c <vsprintf+0xee0>
80004388:	40a585b3          	sub	a1,a1,a0
8000438c:	00af08b3          	add	a7,t5,a0
80004390:	04a30263          	beq	t1,a0,800043d4 <vsprintf+0xf38>
80004394:	02000793          	li	a5,32
80004398:	00f88023          	sb	a5,0(a7)
8000439c:	fff58613          	addi	a2,a1,-1
800043a0:	02b6da63          	bge	a3,a1,800043d4 <vsprintf+0xf38>
800043a4:	00f880a3          	sb	a5,1(a7)
800043a8:	ffe58513          	addi	a0,a1,-2
800043ac:	02c6d463          	bge	a3,a2,800043d4 <vsprintf+0xf38>
800043b0:	00f88123          	sb	a5,2(a7)
800043b4:	ffd58613          	addi	a2,a1,-3
800043b8:	00a6de63          	bge	a3,a0,800043d4 <vsprintf+0xf38>
800043bc:	00f881a3          	sb	a5,3(a7)
800043c0:	ffc58593          	addi	a1,a1,-4
800043c4:	00c6d863          	bge	a3,a2,800043d4 <vsprintf+0xf38>
800043c8:	00f88223          	sb	a5,4(a7)
800043cc:	00b6d463          	bge	a3,a1,800043d4 <vsprintf+0xf38>
800043d0:	00f882a3          	sb	a5,5(a7)
800043d4:	01f808b3          	add	a7,a6,t6
800043d8:	fff68313          	addi	t1,a3,-1
800043dc:	f74ff06f          	j	80003b50 <vsprintf+0x6b4>
800043e0:	0105d593          	srli	a1,a1,0x10
800043e4:	d08ff06f          	j	800038ec <vsprintf+0x450>
800043e8:	00005697          	auipc	a3,0x5
800043ec:	3d068693          	addi	a3,a3,976 # 800097b8 <sprint_fe>
800043f0:	00068613          	mv	a2,a3
800043f4:	00004717          	auipc	a4,0x4
800043f8:	58470713          	addi	a4,a4,1412 # 80008978 <_etext+0x514>
800043fc:	00074583          	lbu	a1,0(a4)
80004400:	00170713          	addi	a4,a4,1
80004404:	00b60023          	sb	a1,0(a2)
80004408:	00074583          	lbu	a1,0(a4)
8000440c:	00160613          	addi	a2,a2,1
80004410:	fe0598e3          	bnez	a1,80004400 <vsprintf+0xf64>
80004414:	cbdff06f          	j	800040d0 <vsprintf+0xc34>
80004418:	41800733          	neg	a4,s8
8000441c:	12e12423          	sw	a4,296(sp)
80004420:	02b00c93          	li	s9,43
80004424:	00070b93          	mv	s7,a4
80004428:	000b9463          	bnez	s7,80004430 <vsprintf+0xf94>
8000442c:	3500106f          	j	8000577c <vsprintf+0x22e0>
80004430:	00004717          	auipc	a4,0x4
80004434:	78070713          	addi	a4,a4,1920 # 80008bb0 <intpat+0x204>
80004438:	00072503          	lw	a0,0(a4)
8000443c:	00472583          	lw	a1,4(a4)
80004440:	00004717          	auipc	a4,0x4
80004444:	78870713          	addi	a4,a4,1928 # 80008bc8 <intpat+0x21c>
80004448:	09b12223          	sw	s11,132(sp)
8000444c:	08912623          	sw	s1,140(sp)
80004450:	00e12423          	sw	a4,8(sp)
80004454:	000b8493          	mv	s1,s7
80004458:	ffc00913          	li	s2,-4
8000445c:	00004b17          	auipc	s6,0x4
80004460:	764b0b13          	addi	s6,s6,1892 # 80008bc0 <intpat+0x214>
80004464:	04f12023          	sw	a5,64(sp)
80004468:	05112423          	sw	a7,72(sp)
8000446c:	00030a93          	mv	s5,t1
80004470:	00080d93          	mv	s11,a6
80004474:	08812423          	sw	s0,136(sp)
80004478:	000e0b93          	mv	s7,t3
8000447c:	2f24d063          	bge	s1,s2,8000475c <vsprintf+0x12c0>
80004480:	08a12823          	sw	a0,144(sp)
80004484:	08b12a23          	sw	a1,148(sp)
80004488:	09012503          	lw	a0,144(sp)
8000448c:	09412583          	lw	a1,148(sp)
80004490:	000b2603          	lw	a2,0(s6)
80004494:	004b2683          	lw	a3,4(s6)
80004498:	00548493          	addi	s1,s1,5
8000449c:	06c020ef          	jal	ra,80006508 <__divdf3>
800044a0:	fc049ee3          	bnez	s1,8000447c <vsprintf+0xfe0>
800044a4:	00004717          	auipc	a4,0x4
800044a8:	71470713          	addi	a4,a4,1812 # 80008bb8 <intpat+0x20c>
800044ac:	18a12c23          	sw	a0,408(sp)
800044b0:	18b12e23          	sw	a1,412(sp)
800044b4:	04812883          	lw	a7,72(sp)
800044b8:	04012783          	lw	a5,64(sp)
800044bc:	19812503          	lw	a0,408(sp)
800044c0:	19c12583          	lw	a1,412(sp)
800044c4:	00072603          	lw	a2,0(a4)
800044c8:	00472683          	lw	a3,4(a4)
800044cc:	000d8813          	mv	a6,s11
800044d0:	17112423          	sw	a7,360(sp)
800044d4:	04f12023          	sw	a5,64(sp)
800044d8:	08412d83          	lw	s11,132(sp)
800044dc:	08812403          	lw	s0,136(sp)
800044e0:	09712223          	sw	s7,132(sp)
800044e4:	09012423          	sw	a6,136(sp)
800044e8:	05512423          	sw	s5,72(sp)
800044ec:	4d9020ef          	jal	ra,800071c4 <__muldf3>
800044f0:	08c12483          	lw	s1,140(sp)
800044f4:	04012783          	lw	a5,64(sp)
800044f8:	04812303          	lw	t1,72(sp)
800044fc:	08412e03          	lw	t3,132(sp)
80004500:	08812803          	lw	a6,136(sp)
80004504:	16812883          	lw	a7,360(sp)
80004508:	04f12023          	sw	a5,64(sp)
8000450c:	01012783          	lw	a5,16(sp)
80004510:	1aa12023          	sw	a0,416(sp)
80004514:	1ab12223          	sw	a1,420(sp)
80004518:	1af12423          	sw	a5,424(sp)
8000451c:	08012783          	lw	a5,128(sp)
80004520:	1a012603          	lw	a2,416(sp)
80004524:	1a412683          	lw	a3,420(sp)
80004528:	1af12623          	sw	a5,428(sp)
8000452c:	1a812503          	lw	a0,424(sp)
80004530:	1ac12583          	lw	a1,428(sp)
80004534:	17112423          	sw	a7,360(sp)
80004538:	09012423          	sw	a6,136(sp)
8000453c:	09c12223          	sw	t3,132(sp)
80004540:	04612423          	sw	t1,72(sp)
80004544:	4bc010ef          	jal	ra,80005a00 <__adddf3>
80004548:	00812783          	lw	a5,8(sp)
8000454c:	00050b13          	mv	s6,a0
80004550:	00a12823          	sw	a0,16(sp)
80004554:	0007a603          	lw	a2,0(a5)
80004558:	0047a683          	lw	a3,4(a5)
8000455c:	00058b93          	mv	s7,a1
80004560:	08b12023          	sw	a1,128(sp)
80004564:	265020ef          	jal	ra,80006fc8 <__gedf2>
80004568:	04012783          	lw	a5,64(sp)
8000456c:	04812303          	lw	t1,72(sp)
80004570:	08412e03          	lw	t3,132(sp)
80004574:	08812803          	lw	a6,136(sp)
80004578:	16812883          	lw	a7,360(sp)
8000457c:	00000913          	li	s2,0
80004580:	00004a97          	auipc	s5,0x4
80004584:	640a8a93          	addi	s5,s5,1600 # 80008bc0 <intpat+0x214>
80004588:	36054863          	bltz	a0,800048f8 <vsprintf+0x145c>
8000458c:	000aa683          	lw	a3,0(s5)
80004590:	004aa703          	lw	a4,4(s5)
80004594:	09b12423          	sw	s11,136(sp)
80004598:	000b8a93          	mv	s5,s7
8000459c:	16912623          	sw	s1,364(sp)
800045a0:	04d12023          	sw	a3,64(sp)
800045a4:	000b0493          	mv	s1,s6
800045a8:	04e12223          	sw	a4,68(sp)
800045ac:	04f12423          	sw	a5,72(sp)
800045b0:	09112223          	sw	a7,132(sp)
800045b4:	00080d93          	mv	s11,a6
800045b8:	000e0b93          	mv	s7,t3
800045bc:	16812423          	sw	s0,360(sp)
800045c0:	00030b13          	mv	s6,t1
800045c4:	04912823          	sw	s1,80(sp)
800045c8:	05512a23          	sw	s5,84(sp)
800045cc:	05012503          	lw	a0,80(sp)
800045d0:	05412583          	lw	a1,84(sp)
800045d4:	04012603          	lw	a2,64(sp)
800045d8:	04412683          	lw	a3,68(sp)
800045dc:	1ed020ef          	jal	ra,80006fc8 <__gedf2>
800045e0:	12054e63          	bltz	a0,8000471c <vsprintf+0x1280>
800045e4:	0a912023          	sw	s1,160(sp)
800045e8:	0b512223          	sw	s5,164(sp)
800045ec:	04012603          	lw	a2,64(sp)
800045f0:	04412683          	lw	a3,68(sp)
800045f4:	0a012503          	lw	a0,160(sp)
800045f8:	0a412583          	lw	a1,164(sp)
800045fc:	00590913          	addi	s2,s2,5
80004600:	709010ef          	jal	ra,80006508 <__divdf3>
80004604:	00812783          	lw	a5,8(sp)
80004608:	00050493          	mv	s1,a0
8000460c:	00058a93          	mv	s5,a1
80004610:	0007a603          	lw	a2,0(a5)
80004614:	0047a683          	lw	a3,4(a5)
80004618:	1b1020ef          	jal	ra,80006fc8 <__gedf2>
8000461c:	fa0554e3          	bgez	a0,800045c4 <vsprintf+0x1128>
80004620:	000d8813          	mv	a6,s11
80004624:	04812783          	lw	a5,72(sp)
80004628:	08412883          	lw	a7,132(sp)
8000462c:	08812d83          	lw	s11,136(sp)
80004630:	16812403          	lw	s0,360(sp)
80004634:	16c12483          	lw	s1,364(sp)
80004638:	000b0313          	mv	t1,s6
8000463c:	000b8e13          	mv	t3,s7
80004640:	fff94b13          	not	s6,s2
80004644:	41fb5b13          	srai	s6,s6,0x1f
80004648:	01697733          	and	a4,s2,s6
8000464c:	04e12423          	sw	a4,72(sp)
80004650:	01870c33          	add	s8,a4,s8
80004654:	01c00713          	li	a4,28
80004658:	298754e3          	bge	a4,s8,800050e0 <vsprintf+0x1c44>
8000465c:	28412a83          	lw	s5,644(sp)
80004660:	28012b03          	lw	s6,640(sp)
80004664:	27c12b83          	lw	s7,636(sp)
80004668:	00004717          	auipc	a4,0x4
8000466c:	30870713          	addi	a4,a4,776 # 80008970 <_etext+0x50c>
80004670:	00005697          	auipc	a3,0x5
80004674:	14868693          	addi	a3,a3,328 # 800097b8 <sprint_fe>
80004678:	01968023          	sb	s9,0(a3)
8000467c:	00005617          	auipc	a2,0x5
80004680:	13d60613          	addi	a2,a2,317 # 800097b9 <sprint_fe+0x1>
80004684:	d79ff06f          	j	800043fc <vsprintf+0xf60>
80004688:	48050ae3          	beqz	a0,8000531c <vsprintf+0x1e80>
8000468c:	29512223          	sw	s5,644(sp)
80004690:	29612023          	sw	s6,640(sp)
80004694:	27712e23          	sw	s7,636(sp)
80004698:	06600713          	li	a4,102
8000469c:	fce81a63          	bne	a6,a4,80003e70 <vsprintf+0x9d4>
800046a0:	02d00c93          	li	s9,45
800046a4:	41800733          	neg	a4,s8
800046a8:	12e12423          	sw	a4,296(sp)
800046ac:	00070b93          	mv	s7,a4
800046b0:	d79ff06f          	j	80004428 <vsprintf+0xf8c>
800046b4:	000da783          	lw	a5,0(s11)
800046b8:	00188893          	addi	a7,a7,1
800046bc:	00050d93          	mv	s11,a0
800046c0:	fef88fa3          	sb	a5,-1(a7)
800046c4:	001e4783          	lbu	a5,1(t3)
800046c8:	00078463          	beqz	a5,800046d0 <vsprintf+0x1234>
800046cc:	e2dfe06f          	j	800034f8 <vsprintf+0x5c>
800046d0:	e41fe06f          	j	80003510 <vsprintf+0x74>
800046d4:	fff30593          	addi	a1,t1,-1
800046d8:	c2604ce3          	bgtz	t1,80004310 <vsprintf+0xe74>
800046dc:	001e0593          	addi	a1,t3,1
800046e0:	dc0ff06f          	j	80003ca0 <vsprintf+0x804>
800046e4:	00078593          	mv	a1,a5
800046e8:	00078c93          	mv	s9,a5
800046ec:	00004797          	auipc	a5,0x4
800046f0:	4dc78793          	addi	a5,a5,1244 # 80008bc8 <intpat+0x21c>
800046f4:	0007a603          	lw	a2,0(a5)
800046f8:	0047a683          	lw	a3,4(a5)
800046fc:	00070513          	mv	a0,a4
80004700:	00070c13          	mv	s8,a4
80004704:	00148493          	addi	s1,s1,1
80004708:	601010ef          	jal	ra,80006508 <__divdf3>
8000470c:	00050713          	mv	a4,a0
80004710:	00058793          	mv	a5,a1
80004714:	840490e3          	bnez	s1,80003f54 <vsprintf+0xab8>
80004718:	86dff06f          	j	80003f84 <vsprintf+0xae8>
8000471c:	00812403          	lw	s0,8(sp)
80004720:	0a912423          	sw	s1,168(sp)
80004724:	0b512623          	sw	s5,172(sp)
80004728:	00042603          	lw	a2,0(s0)
8000472c:	00442683          	lw	a3,4(s0)
80004730:	0a812503          	lw	a0,168(sp)
80004734:	0ac12583          	lw	a1,172(sp)
80004738:	00190913          	addi	s2,s2,1
8000473c:	5cd010ef          	jal	ra,80006508 <__divdf3>
80004740:	00042603          	lw	a2,0(s0)
80004744:	00442683          	lw	a3,4(s0)
80004748:	00050493          	mv	s1,a0
8000474c:	00058a93          	mv	s5,a1
80004750:	079020ef          	jal	ra,80006fc8 <__gedf2>
80004754:	e60558e3          	bgez	a0,800045c4 <vsprintf+0x1128>
80004758:	ec9ff06f          	j	80004620 <vsprintf+0x1184>
8000475c:	00812783          	lw	a5,8(sp)
80004760:	08a12c23          	sw	a0,152(sp)
80004764:	08b12e23          	sw	a1,156(sp)
80004768:	09812503          	lw	a0,152(sp)
8000476c:	09c12583          	lw	a1,156(sp)
80004770:	0007a603          	lw	a2,0(a5)
80004774:	0047a683          	lw	a3,4(a5)
80004778:	00148493          	addi	s1,s1,1
8000477c:	58d010ef          	jal	ra,80006508 <__divdf3>
80004780:	ce049ee3          	bnez	s1,8000447c <vsprintf+0xfe0>
80004784:	d21ff06f          	j	800044a4 <vsprintf+0x1008>
80004788:	00005797          	auipc	a5,0x5
8000478c:	0307c783          	lbu	a5,48(a5) # 800097b8 <sprint_fe>
80004790:	00005717          	auipc	a4,0x5
80004794:	02870713          	addi	a4,a4,40 # 800097b8 <sprint_fe>
80004798:	00005597          	auipc	a1,0x5
8000479c:	04058593          	addi	a1,a1,64 # 800097d8 <sprint_fe+0x20>
800047a0:	00079463          	bnez	a5,800047a8 <vsprintf+0x130c>
800047a4:	0000106f          	j	800057a4 <vsprintf+0x2308>
800047a8:	00174603          	lbu	a2,1(a4)
800047ac:	00170713          	addi	a4,a4,1
800047b0:	100604e3          	beqz	a2,800050b8 <vsprintf+0x1c1c>
800047b4:	feb71ae3          	bne	a4,a1,800047a8 <vsprintf+0x130c>
800047b8:	02000713          	li	a4,32
800047bc:	02100693          	li	a3,33
800047c0:	00e12e23          	sw	a4,28(sp)
800047c4:	926756e3          	bge	a4,t1,800040f0 <vsprintf+0xc54>
800047c8:	01c12783          	lw	a5,28(sp)
800047cc:	41100733          	neg	a4,a7
800047d0:	00500693          	li	a3,5
800047d4:	40f30633          	sub	a2,t1,a5
800047d8:	fff60593          	addi	a1,a2,-1
800047dc:	00377793          	andi	a5,a4,3
800047e0:	00088813          	mv	a6,a7
800047e4:	06b6fa63          	bgeu	a3,a1,80004858 <vsprintf+0x13bc>
800047e8:	00088513          	mv	a0,a7
800047ec:	02078a63          	beqz	a5,80004820 <vsprintf+0x1384>
800047f0:	02000693          	li	a3,32
800047f4:	00277713          	andi	a4,a4,2
800047f8:	00d88023          	sb	a3,0(a7)
800047fc:	2e070ae3          	beqz	a4,800052f0 <vsprintf+0x1e54>
80004800:	00d880a3          	sb	a3,1(a7)
80004804:	00300713          	li	a4,3
80004808:	3ee790e3          	bne	a5,a4,800053e8 <vsprintf+0x1f4c>
8000480c:	01c12703          	lw	a4,28(sp)
80004810:	00d88123          	sb	a3,2(a7)
80004814:	00388513          	addi	a0,a7,3
80004818:	00370713          	addi	a4,a4,3
8000481c:	00e12e23          	sw	a4,28(sp)
80004820:	40f605b3          	sub	a1,a2,a5
80004824:	ffc5f693          	andi	a3,a1,-4
80004828:	00f887b3          	add	a5,a7,a5
8000482c:	20202737          	lui	a4,0x20202
80004830:	00f688b3          	add	a7,a3,a5
80004834:	02070713          	addi	a4,a4,32 # 20202020 <_entry_offset+0x20202020>
80004838:	00e7a023          	sw	a4,0(a5)
8000483c:	00478793          	addi	a5,a5,4
80004840:	fef89ce3          	bne	a7,a5,80004838 <vsprintf+0x139c>
80004844:	01c12783          	lw	a5,28(sp)
80004848:	00d508b3          	add	a7,a0,a3
8000484c:	00d787b3          	add	a5,a5,a3
80004850:	00f12e23          	sw	a5,28(sp)
80004854:	04d58663          	beq	a1,a3,800048a0 <vsprintf+0x1404>
80004858:	01c12683          	lw	a3,28(sp)
8000485c:	02000793          	li	a5,32
80004860:	00f88023          	sb	a5,0(a7)
80004864:	00168713          	addi	a4,a3,1
80004868:	02675c63          	bge	a4,t1,800048a0 <vsprintf+0x1404>
8000486c:	00f880a3          	sb	a5,1(a7)
80004870:	00268713          	addi	a4,a3,2
80004874:	02675663          	bge	a4,t1,800048a0 <vsprintf+0x1404>
80004878:	00f88123          	sb	a5,2(a7)
8000487c:	00368713          	addi	a4,a3,3
80004880:	02675063          	bge	a4,t1,800048a0 <vsprintf+0x1404>
80004884:	00f881a3          	sb	a5,3(a7)
80004888:	00468713          	addi	a4,a3,4
8000488c:	00675a63          	bge	a4,t1,800048a0 <vsprintf+0x1404>
80004890:	00f88223          	sb	a5,4(a7)
80004894:	00568713          	addi	a4,a3,5
80004898:	00675463          	bge	a4,t1,800048a0 <vsprintf+0x1404>
8000489c:	00f882a3          	sb	a5,5(a7)
800048a0:	00005797          	auipc	a5,0x5
800048a4:	f187c783          	lbu	a5,-232(a5) # 800097b8 <sprint_fe>
800048a8:	00612e23          	sw	t1,28(sp)
800048ac:	00c808b3          	add	a7,a6,a2
800048b0:	00130693          	addi	a3,t1,1
800048b4:	82079ee3          	bnez	a5,800040f0 <vsprintf+0xc54>
800048b8:	001e0593          	addi	a1,t3,1
800048bc:	001e4783          	lbu	a5,1(t3)
800048c0:	00d12e23          	sw	a3,28(sp)
800048c4:	29012903          	lw	s2,656(sp)
800048c8:	00078463          	beqz	a5,800048d0 <vsprintf+0x1434>
800048cc:	c2dfe06f          	j	800034f8 <vsprintf+0x5c>
800048d0:	c41fe06f          	j	80003510 <vsprintf+0x74>
800048d4:	00168693          	addi	a3,a3,1
800048d8:	00188393          	addi	t2,a7,1
800048dc:	8a1ff06f          	j	8000417c <vsprintf+0xce0>
800048e0:	000f0613          	mv	a2,t5
800048e4:	00288693          	addi	a3,a7,2
800048e8:	8bcff06f          	j	800039a4 <vsprintf+0x508>
800048ec:	ffe30613          	addi	a2,t1,-2
800048f0:	00188f13          	addi	t5,a7,1
800048f4:	b38ff06f          	j	80003c2c <vsprintf+0x790>
800048f8:	1b612823          	sw	s6,432(sp)
800048fc:	000b0b93          	mv	s7,s6
80004900:	08012b03          	lw	s6,128(sp)
80004904:	04f12423          	sw	a5,72(sp)
80004908:	00004797          	auipc	a5,0x4
8000490c:	2a878793          	addi	a5,a5,680 # 80008bb0 <intpat+0x204>
80004910:	1b612a23          	sw	s6,436(sp)
80004914:	0007a603          	lw	a2,0(a5)
80004918:	0047a683          	lw	a3,4(a5)
8000491c:	1b012503          	lw	a0,432(sp)
80004920:	1b412583          	lw	a1,436(sp)
80004924:	17112823          	sw	a7,368(sp)
80004928:	17012423          	sw	a6,360(sp)
8000492c:	09c12423          	sw	t3,136(sp)
80004930:	08612223          	sw	t1,132(sp)
80004934:	04f12023          	sw	a5,64(sp)
80004938:	78c020ef          	jal	ra,800070c4 <__ledf2>
8000493c:	04812783          	lw	a5,72(sp)
80004940:	08412303          	lw	t1,132(sp)
80004944:	08812e03          	lw	t3,136(sp)
80004948:	16812803          	lw	a6,360(sp)
8000494c:	17012883          	lw	a7,368(sp)
80004950:	6a055ee3          	bgez	a0,8000580c <vsprintf+0x2370>
80004954:	00004717          	auipc	a4,0x4
80004958:	27c70713          	addi	a4,a4,636 # 80008bd0 <intpat+0x224>
8000495c:	00072683          	lw	a3,0(a4)
80004960:	00472703          	lw	a4,4(a4)
80004964:	17b12823          	sw	s11,368(sp)
80004968:	16912e23          	sw	s1,380(sp)
8000496c:	04d12423          	sw	a3,72(sp)
80004970:	000b8493          	mv	s1,s7
80004974:	04e12623          	sw	a4,76(sp)
80004978:	08f12223          	sw	a5,132(sp)
8000497c:	09112423          	sw	a7,136(sp)
80004980:	16612423          	sw	t1,360(sp)
80004984:	00080d93          	mv	s11,a6
80004988:	16812c23          	sw	s0,376(sp)
8000498c:	000e0b93          	mv	s7,t3
80004990:	04912c23          	sw	s1,88(sp)
80004994:	05612e23          	sw	s6,92(sp)
80004998:	05812503          	lw	a0,88(sp)
8000499c:	05c12583          	lw	a1,92(sp)
800049a0:	04812603          	lw	a2,72(sp)
800049a4:	04c12683          	lw	a3,76(sp)
800049a8:	71c020ef          	jal	ra,800070c4 <__ledf2>
800049ac:	06055263          	bgez	a0,80004a10 <vsprintf+0x1574>
800049b0:	0a912823          	sw	s1,176(sp)
800049b4:	0b612a23          	sw	s6,180(sp)
800049b8:	000aa603          	lw	a2,0(s5)
800049bc:	004aa683          	lw	a3,4(s5)
800049c0:	0b012503          	lw	a0,176(sp)
800049c4:	0b412583          	lw	a1,180(sp)
800049c8:	ffb90913          	addi	s2,s2,-5
800049cc:	7f8020ef          	jal	ra,800071c4 <__muldf3>
800049d0:	04012783          	lw	a5,64(sp)
800049d4:	00050493          	mv	s1,a0
800049d8:	00058b13          	mv	s6,a1
800049dc:	0007a603          	lw	a2,0(a5)
800049e0:	0047a683          	lw	a3,4(a5)
800049e4:	6e0020ef          	jal	ra,800070c4 <__ledf2>
800049e8:	fa0544e3          	bltz	a0,80004990 <vsprintf+0x14f4>
800049ec:	000d8813          	mv	a6,s11
800049f0:	08412783          	lw	a5,132(sp)
800049f4:	08812883          	lw	a7,136(sp)
800049f8:	16812303          	lw	t1,360(sp)
800049fc:	17012d83          	lw	s11,368(sp)
80004a00:	17812403          	lw	s0,376(sp)
80004a04:	17c12483          	lw	s1,380(sp)
80004a08:	000b8e13          	mv	t3,s7
80004a0c:	c35ff06f          	j	80004640 <vsprintf+0x11a4>
80004a10:	00812783          	lw	a5,8(sp)
80004a14:	0a912c23          	sw	s1,184(sp)
80004a18:	0b612e23          	sw	s6,188(sp)
80004a1c:	0007a603          	lw	a2,0(a5)
80004a20:	0047a683          	lw	a3,4(a5)
80004a24:	0b812503          	lw	a0,184(sp)
80004a28:	0bc12583          	lw	a1,188(sp)
80004a2c:	fff90913          	addi	s2,s2,-1
80004a30:	794020ef          	jal	ra,800071c4 <__muldf3>
80004a34:	04012783          	lw	a5,64(sp)
80004a38:	00050493          	mv	s1,a0
80004a3c:	00058b13          	mv	s6,a1
80004a40:	0007a603          	lw	a2,0(a5)
80004a44:	0047a683          	lw	a3,4(a5)
80004a48:	67c020ef          	jal	ra,800070c4 <__ledf2>
80004a4c:	f40542e3          	bltz	a0,80004990 <vsprintf+0x14f4>
80004a50:	f9dff06f          	j	800049ec <vsprintf+0x1550>
80004a54:	00170793          	addi	a5,a4,1
80004a58:	00d88733          	add	a4,a7,a3
80004a5c:	0080006f          	j	80004a64 <vsprintf+0x15c8>
80004a60:	00178793          	addi	a5,a5,1
80004a64:	fff7c603          	lbu	a2,-1(a5)
80004a68:	00188893          	addi	a7,a7,1
80004a6c:	fec88fa3          	sb	a2,-1(a7)
80004a70:	fee898e3          	bne	a7,a4,80004a60 <vsprintf+0x15c4>
80004a74:	95cff06f          	j	80003bd0 <vsprintf+0x734>
80004a78:	00268693          	addi	a3,a3,2
80004a7c:	00288393          	addi	t2,a7,2
80004a80:	efcff06f          	j	8000417c <vsprintf+0xce0>
80004a84:	ffd30613          	addi	a2,t1,-3
80004a88:	00288f13          	addi	t5,a7,2
80004a8c:	9a0ff06f          	j	80003c2c <vsprintf+0x790>
80004a90:	ffd30613          	addi	a2,t1,-3
80004a94:	00e886b3          	add	a3,a7,a4
80004a98:	f0dfe06f          	j	800039a4 <vsprintf+0x508>
80004a9c:	02b00c93          	li	s9,43
80004aa0:	01012b03          	lw	s6,16(sp)
80004aa4:	08012b83          	lw	s7,128(sp)
80004aa8:	04f12023          	sw	a5,64(sp)
80004aac:	1b612c23          	sw	s6,440(sp)
80004ab0:	00004797          	auipc	a5,0x4
80004ab4:	11878793          	addi	a5,a5,280 # 80008bc8 <intpat+0x21c>
80004ab8:	1b712e23          	sw	s7,444(sp)
80004abc:	0007a603          	lw	a2,0(a5)
80004ac0:	0047a683          	lw	a3,4(a5)
80004ac4:	1b812503          	lw	a0,440(sp)
80004ac8:	1bc12583          	lw	a1,444(sp)
80004acc:	13112423          	sw	a7,296(sp)
80004ad0:	09012423          	sw	a6,136(sp)
80004ad4:	09c12223          	sw	t3,132(sp)
80004ad8:	04612423          	sw	t1,72(sp)
80004adc:	00f12423          	sw	a5,8(sp)
80004ae0:	4e8020ef          	jal	ra,80006fc8 <__gedf2>
80004ae4:	04012783          	lw	a5,64(sp)
80004ae8:	04812303          	lw	t1,72(sp)
80004aec:	08412e03          	lw	t3,132(sp)
80004af0:	08812803          	lw	a6,136(sp)
80004af4:	12812883          	lw	a7,296(sp)
80004af8:	00000913          	li	s2,0
80004afc:	00004a97          	auipc	s5,0x4
80004b00:	0c4a8a93          	addi	s5,s5,196 # 80008bc0 <intpat+0x214>
80004b04:	10054ae3          	bltz	a0,80005418 <vsprintf+0x1f7c>
80004b08:	09512423          	sw	s5,136(sp)
80004b0c:	12912623          	sw	s1,300(sp)
80004b10:	000b8a93          	mv	s5,s7
80004b14:	000b0493          	mv	s1,s6
80004b18:	05112423          	sw	a7,72(sp)
80004b1c:	08612223          	sw	t1,132(sp)
80004b20:	00080b93          	mv	s7,a6
80004b24:	12812423          	sw	s0,296(sp)
80004b28:	000e0b13          	mv	s6,t3
80004b2c:	00004417          	auipc	s0,0x4
80004b30:	09440413          	addi	s0,s0,148 # 80008bc0 <intpat+0x214>
80004b34:	06912023          	sw	s1,96(sp)
80004b38:	07512223          	sw	s5,100(sp)
80004b3c:	06012503          	lw	a0,96(sp)
80004b40:	06412583          	lw	a1,100(sp)
80004b44:	00042603          	lw	a2,0(s0)
80004b48:	00442683          	lw	a3,4(s0)
80004b4c:	47c020ef          	jal	ra,80006fc8 <__gedf2>
80004b50:	3e054e63          	bltz	a0,80004f4c <vsprintf+0x1ab0>
80004b54:	0c912023          	sw	s1,192(sp)
80004b58:	0d512223          	sw	s5,196(sp)
80004b5c:	00042603          	lw	a2,0(s0)
80004b60:	00442683          	lw	a3,4(s0)
80004b64:	0c012503          	lw	a0,192(sp)
80004b68:	0c412583          	lw	a1,196(sp)
80004b6c:	00590913          	addi	s2,s2,5
80004b70:	199010ef          	jal	ra,80006508 <__divdf3>
80004b74:	00812783          	lw	a5,8(sp)
80004b78:	00050493          	mv	s1,a0
80004b7c:	00058a93          	mv	s5,a1
80004b80:	0007a603          	lw	a2,0(a5)
80004b84:	0047a683          	lw	a3,4(a5)
80004b88:	440020ef          	jal	ra,80006fc8 <__gedf2>
80004b8c:	fa0550e3          	bgez	a0,80004b2c <vsprintf+0x1690>
80004b90:	00004717          	auipc	a4,0x4
80004b94:	02070713          	addi	a4,a4,32 # 80008bb0 <intpat+0x204>
80004b98:	04012783          	lw	a5,64(sp)
80004b9c:	41890933          	sub	s2,s2,s8
80004ba0:	04e12023          	sw	a4,64(sp)
80004ba4:	04812883          	lw	a7,72(sp)
80004ba8:	08412303          	lw	t1,132(sp)
80004bac:	08812a83          	lw	s5,136(sp)
80004bb0:	12812403          	lw	s0,296(sp)
80004bb4:	12c12483          	lw	s1,300(sp)
80004bb8:	000b0e13          	mv	t3,s6
80004bbc:	000b8813          	mv	a6,s7
80004bc0:	572054e3          	blez	s2,80005928 <vsprintf+0x248c>
80004bc4:	04012703          	lw	a4,64(sp)
80004bc8:	09b12423          	sw	s11,136(sp)
80004bcc:	12912623          	sw	s1,300(sp)
80004bd0:	00072503          	lw	a0,0(a4)
80004bd4:	00472583          	lw	a1,4(a4)
80004bd8:	00090493          	mv	s1,s2
80004bdc:	00400b13          	li	s6,4
80004be0:	00004b97          	auipc	s7,0x4
80004be4:	fe0b8b93          	addi	s7,s7,-32 # 80008bc0 <intpat+0x214>
80004be8:	04f12423          	sw	a5,72(sp)
80004bec:	09112223          	sw	a7,132(sp)
80004bf0:	00030a93          	mv	s5,t1
80004bf4:	00080d93          	mv	s11,a6
80004bf8:	12812423          	sw	s0,296(sp)
80004bfc:	000e0913          	mv	s2,t3
80004c00:	329b5063          	bge	s6,s1,80004f20 <vsprintf+0x1a84>
80004c04:	0ea12023          	sw	a0,224(sp)
80004c08:	0eb12223          	sw	a1,228(sp)
80004c0c:	0e012503          	lw	a0,224(sp)
80004c10:	0e412583          	lw	a1,228(sp)
80004c14:	000ba603          	lw	a2,0(s7)
80004c18:	004ba683          	lw	a3,4(s7)
80004c1c:	ffb48493          	addi	s1,s1,-5
80004c20:	5a4020ef          	jal	ra,800071c4 <__muldf3>
80004c24:	fc049ee3          	bnez	s1,80004c00 <vsprintf+0x1764>
80004c28:	00004717          	auipc	a4,0x4
80004c2c:	f9070713          	addi	a4,a4,-112 # 80008bb8 <intpat+0x20c>
80004c30:	1ca12023          	sw	a0,448(sp)
80004c34:	1cb12223          	sw	a1,452(sp)
80004c38:	08412883          	lw	a7,132(sp)
80004c3c:	00072603          	lw	a2,0(a4)
80004c40:	00472683          	lw	a3,4(a4)
80004c44:	04812783          	lw	a5,72(sp)
80004c48:	1c012503          	lw	a0,448(sp)
80004c4c:	1c412583          	lw	a1,452(sp)
80004c50:	000d8813          	mv	a6,s11
80004c54:	17112823          	sw	a7,368(sp)
80004c58:	17012423          	sw	a6,360(sp)
80004c5c:	04f12423          	sw	a5,72(sp)
80004c60:	08812d83          	lw	s11,136(sp)
80004c64:	12812403          	lw	s0,296(sp)
80004c68:	09512423          	sw	s5,136(sp)
80004c6c:	13212423          	sw	s2,296(sp)
80004c70:	554020ef          	jal	ra,800071c4 <__muldf3>
80004c74:	01012783          	lw	a5,16(sp)
80004c78:	12c12483          	lw	s1,300(sp)
80004c7c:	00004a97          	auipc	s5,0x4
80004c80:	f44a8a93          	addi	s5,s5,-188 # 80008bc0 <intpat+0x214>
80004c84:	1cf12423          	sw	a5,456(sp)
80004c88:	08012783          	lw	a5,128(sp)
80004c8c:	1c812603          	lw	a2,456(sp)
80004c90:	1cf12623          	sw	a5,460(sp)
80004c94:	1cc12683          	lw	a3,460(sp)
80004c98:	569000ef          	jal	ra,80005a00 <__adddf3>
80004c9c:	00812783          	lw	a5,8(sp)
80004ca0:	08a12023          	sw	a0,128(sp)
80004ca4:	08b12223          	sw	a1,132(sp)
80004ca8:	0007a603          	lw	a2,0(a5)
80004cac:	0047a683          	lw	a3,4(a5)
80004cb0:	318020ef          	jal	ra,80006fc8 <__gedf2>
80004cb4:	04812783          	lw	a5,72(sp)
80004cb8:	08812303          	lw	t1,136(sp)
80004cbc:	12812e03          	lw	t3,296(sp)
80004cc0:	16812803          	lw	a6,360(sp)
80004cc4:	17012883          	lw	a7,368(sp)
80004cc8:	0a054ee3          	bltz	a0,80005584 <vsprintf+0x20e8>
80004ccc:	000aa683          	lw	a3,0(s5)
80004cd0:	004aa703          	lw	a4,4(s5)
80004cd4:	08012b03          	lw	s6,128(sp)
80004cd8:	08412903          	lw	s2,132(sp)
80004cdc:	09b12423          	sw	s11,136(sp)
80004ce0:	12912623          	sw	s1,300(sp)
80004ce4:	00d12823          	sw	a3,16(sp)
80004ce8:	000b0493          	mv	s1,s6
80004cec:	00e12a23          	sw	a4,20(sp)
80004cf0:	00000b93          	li	s7,0
80004cf4:	04f12023          	sw	a5,64(sp)
80004cf8:	00088a93          	mv	s5,a7
80004cfc:	04612423          	sw	t1,72(sp)
80004d00:	00080d93          	mv	s11,a6
80004d04:	12812423          	sw	s0,296(sp)
80004d08:	000e0b13          	mv	s6,t3
80004d0c:	06912823          	sw	s1,112(sp)
80004d10:	07212a23          	sw	s2,116(sp)
80004d14:	07012503          	lw	a0,112(sp)
80004d18:	07412583          	lw	a1,116(sp)
80004d1c:	01012603          	lw	a2,16(sp)
80004d20:	01412683          	lw	a3,20(sp)
80004d24:	2a4020ef          	jal	ra,80006fc8 <__gedf2>
80004d28:	1a054c63          	bltz	a0,80004ee0 <vsprintf+0x1a44>
80004d2c:	10912023          	sw	s1,256(sp)
80004d30:	11212223          	sw	s2,260(sp)
80004d34:	01012603          	lw	a2,16(sp)
80004d38:	01412683          	lw	a3,20(sp)
80004d3c:	10012503          	lw	a0,256(sp)
80004d40:	10412583          	lw	a1,260(sp)
80004d44:	005b8b93          	addi	s7,s7,5
80004d48:	7c0010ef          	jal	ra,80006508 <__divdf3>
80004d4c:	00812783          	lw	a5,8(sp)
80004d50:	00050493          	mv	s1,a0
80004d54:	00058913          	mv	s2,a1
80004d58:	0007a603          	lw	a2,0(a5)
80004d5c:	0047a683          	lw	a3,4(a5)
80004d60:	268020ef          	jal	ra,80006fc8 <__gedf2>
80004d64:	fa0554e3          	bgez	a0,80004d0c <vsprintf+0x1870>
80004d68:	000d8813          	mv	a6,s11
80004d6c:	04012783          	lw	a5,64(sp)
80004d70:	04812303          	lw	t1,72(sp)
80004d74:	08812d83          	lw	s11,136(sp)
80004d78:	12812403          	lw	s0,296(sp)
80004d7c:	12c12483          	lw	s1,300(sp)
80004d80:	000a8893          	mv	a7,s5
80004d84:	000b0e13          	mv	t3,s6
80004d88:	06300693          	li	a3,99
80004d8c:	00004717          	auipc	a4,0x4
80004d90:	be470713          	addi	a4,a4,-1052 # 80008970 <_etext+0x50c>
80004d94:	3176c263          	blt	a3,s7,80005098 <vsprintf+0x1bfc>
80004d98:	01800693          	li	a3,24
80004d9c:	2f86ce63          	blt	a3,s8,80005098 <vsprintf+0x1bfc>
80004da0:	f9d00713          	li	a4,-99
80004da4:	05712423          	sw	s7,72(sp)
80004da8:	00ebd463          	bge	s7,a4,80004db0 <vsprintf+0x1914>
80004dac:	04e12423          	sw	a4,72(sp)
80004db0:	00004717          	auipc	a4,0x4
80004db4:	e0070713          	addi	a4,a4,-512 # 80008bb0 <intpat+0x204>
80004db8:	04e12023          	sw	a4,64(sp)
80004dbc:	00072503          	lw	a0,0(a4)
80004dc0:	00472583          	lw	a1,4(a4)
80004dc4:	57705c63          	blez	s7,8000533c <vsprintf+0x1ea0>
80004dc8:	04812b83          	lw	s7,72(sp)
80004dcc:	09012423          	sw	a6,136(sp)
80004dd0:	13b12423          	sw	s11,296(sp)
80004dd4:	000b8813          	mv	a6,s7
80004dd8:	000c8d93          	mv	s11,s9
80004ddc:	16912623          	sw	s1,364(sp)
80004de0:	00400913          	li	s2,4
80004de4:	00004a97          	auipc	s5,0x4
80004de8:	ddca8a93          	addi	s5,s5,-548 # 80008bc0 <intpat+0x214>
80004dec:	00088b13          	mv	s6,a7
80004df0:	00030b93          	mv	s7,t1
80004df4:	000e0c93          	mv	s9,t3
80004df8:	16812423          	sw	s0,360(sp)
80004dfc:	00078493          	mv	s1,a5
80004e00:	01012823          	sw	a6,16(sp)
80004e04:	25095863          	bge	s2,a6,80005054 <vsprintf+0x1bb8>
80004e08:	1ca12823          	sw	a0,464(sp)
80004e0c:	1cb12a23          	sw	a1,468(sp)
80004e10:	1d012503          	lw	a0,464(sp)
80004e14:	1d412583          	lw	a1,468(sp)
80004e18:	000aa603          	lw	a2,0(s5)
80004e1c:	004aa683          	lw	a3,4(s5)
80004e20:	3a4020ef          	jal	ra,800071c4 <__muldf3>
80004e24:	01012803          	lw	a6,16(sp)
80004e28:	ffb80813          	addi	a6,a6,-5
80004e2c:	fc081ae3          	bnez	a6,80004e00 <vsprintf+0x1964>
80004e30:	00048793          	mv	a5,s1
80004e34:	000c8e13          	mv	t3,s9
80004e38:	08812803          	lw	a6,136(sp)
80004e3c:	000d8c93          	mv	s9,s11
80004e40:	16812403          	lw	s0,360(sp)
80004e44:	12812d83          	lw	s11,296(sp)
80004e48:	16c12483          	lw	s1,364(sp)
80004e4c:	000b8313          	mv	t1,s7
80004e50:	000b0893          	mv	a7,s6
80004e54:	41800bb3          	neg	s7,s8
80004e58:	00f12423          	sw	a5,8(sp)
80004e5c:	08012783          	lw	a5,128(sp)
80004e60:	24a12823          	sw	a0,592(sp)
80004e64:	24b12a23          	sw	a1,596(sp)
80004e68:	24f12c23          	sw	a5,600(sp)
80004e6c:	08412783          	lw	a5,132(sp)
80004e70:	25012603          	lw	a2,592(sp)
80004e74:	25412683          	lw	a3,596(sp)
80004e78:	24f12e23          	sw	a5,604(sp)
80004e7c:	25812503          	lw	a0,600(sp)
80004e80:	25c12583          	lw	a1,604(sp)
80004e84:	17112c23          	sw	a7,376(sp)
80004e88:	17012823          	sw	a6,368(sp)
80004e8c:	17c12423          	sw	t3,360(sp)
80004e90:	08612423          	sw	t1,136(sp)
80004e94:	674010ef          	jal	ra,80006508 <__divdf3>
80004e98:	00005697          	auipc	a3,0x5
80004e9c:	92068693          	addi	a3,a3,-1760 # 800097b8 <sprint_fe>
80004ea0:	02d00613          	li	a2,45
80004ea4:	13712423          	sw	s7,296(sp)
80004ea8:	00a12823          	sw	a0,16(sp)
80004eac:	08b12023          	sw	a1,128(sp)
80004eb0:	00812783          	lw	a5,8(sp)
80004eb4:	08812303          	lw	t1,136(sp)
80004eb8:	16812e03          	lw	t3,360(sp)
80004ebc:	17012803          	lw	a6,368(sp)
80004ec0:	17812883          	lw	a7,376(sp)
80004ec4:	00068713          	mv	a4,a3
80004ec8:	00cc8463          	beq	s9,a2,80004ed0 <vsprintf+0x1a34>
80004ecc:	818ff06f          	j	80003ee4 <vsprintf+0xa48>
80004ed0:	01968023          	sb	s9,0(a3)
80004ed4:	00005717          	auipc	a4,0x5
80004ed8:	8e570713          	addi	a4,a4,-1819 # 800097b9 <sprint_fe+0x1>
80004edc:	808ff06f          	j	80003ee4 <vsprintf+0xa48>
80004ee0:	00812403          	lw	s0,8(sp)
80004ee4:	10912423          	sw	s1,264(sp)
80004ee8:	11212623          	sw	s2,268(sp)
80004eec:	00042603          	lw	a2,0(s0)
80004ef0:	00442683          	lw	a3,4(s0)
80004ef4:	10812503          	lw	a0,264(sp)
80004ef8:	10c12583          	lw	a1,268(sp)
80004efc:	001b8b93          	addi	s7,s7,1
80004f00:	608010ef          	jal	ra,80006508 <__divdf3>
80004f04:	00042603          	lw	a2,0(s0)
80004f08:	00442683          	lw	a3,4(s0)
80004f0c:	00050493          	mv	s1,a0
80004f10:	00058913          	mv	s2,a1
80004f14:	0b4020ef          	jal	ra,80006fc8 <__gedf2>
80004f18:	de055ae3          	bgez	a0,80004d0c <vsprintf+0x1870>
80004f1c:	e4dff06f          	j	80004d68 <vsprintf+0x18cc>
80004f20:	00812783          	lw	a5,8(sp)
80004f24:	0ea12423          	sw	a0,232(sp)
80004f28:	0eb12623          	sw	a1,236(sp)
80004f2c:	0e812503          	lw	a0,232(sp)
80004f30:	0ec12583          	lw	a1,236(sp)
80004f34:	0007a603          	lw	a2,0(a5)
80004f38:	0047a683          	lw	a3,4(a5)
80004f3c:	fff48493          	addi	s1,s1,-1
80004f40:	284020ef          	jal	ra,800071c4 <__muldf3>
80004f44:	ca049ee3          	bnez	s1,80004c00 <vsprintf+0x1764>
80004f48:	ce1ff06f          	j	80004c28 <vsprintf+0x178c>
80004f4c:	00812403          	lw	s0,8(sp)
80004f50:	0c912423          	sw	s1,200(sp)
80004f54:	0d512623          	sw	s5,204(sp)
80004f58:	00042603          	lw	a2,0(s0)
80004f5c:	00442683          	lw	a3,4(s0)
80004f60:	0c812503          	lw	a0,200(sp)
80004f64:	0cc12583          	lw	a1,204(sp)
80004f68:	00190913          	addi	s2,s2,1
80004f6c:	59c010ef          	jal	ra,80006508 <__divdf3>
80004f70:	00042603          	lw	a2,0(s0)
80004f74:	00442683          	lw	a3,4(s0)
80004f78:	00050493          	mv	s1,a0
80004f7c:	00058a93          	mv	s5,a1
80004f80:	048020ef          	jal	ra,80006fc8 <__gedf2>
80004f84:	ba0554e3          	bgez	a0,80004b2c <vsprintf+0x1690>
80004f88:	00004717          	auipc	a4,0x4
80004f8c:	c2870713          	addi	a4,a4,-984 # 80008bb0 <intpat+0x204>
80004f90:	04012783          	lw	a5,64(sp)
80004f94:	41890933          	sub	s2,s2,s8
80004f98:	04e12023          	sw	a4,64(sp)
80004f9c:	04812883          	lw	a7,72(sp)
80004fa0:	08412303          	lw	t1,132(sp)
80004fa4:	08812a83          	lw	s5,136(sp)
80004fa8:	12812403          	lw	s0,296(sp)
80004fac:	12c12483          	lw	s1,300(sp)
80004fb0:	000b0e13          	mv	t3,s6
80004fb4:	000b8813          	mv	a6,s7
80004fb8:	c12046e3          	bgtz	s2,80004bc4 <vsprintf+0x1728>
80004fbc:	100906e3          	beqz	s2,800058c8 <vsprintf+0x242c>
80004fc0:	04012703          	lw	a4,64(sp)
80004fc4:	09b12423          	sw	s11,136(sp)
80004fc8:	12912623          	sw	s1,300(sp)
80004fcc:	00072503          	lw	a0,0(a4)
80004fd0:	00472583          	lw	a1,4(a4)
80004fd4:	00090493          	mv	s1,s2
80004fd8:	ffc00b13          	li	s6,-4
80004fdc:	00004b97          	auipc	s7,0x4
80004fe0:	be4b8b93          	addi	s7,s7,-1052 # 80008bc0 <intpat+0x214>
80004fe4:	04f12423          	sw	a5,72(sp)
80004fe8:	09112223          	sw	a7,132(sp)
80004fec:	00030a93          	mv	s5,t1
80004ff0:	00080d93          	mv	s11,a6
80004ff4:	12812423          	sw	s0,296(sp)
80004ff8:	000e0913          	mv	s2,t3
80004ffc:	0364d663          	bge	s1,s6,80005028 <vsprintf+0x1b8c>
80005000:	0ea12823          	sw	a0,240(sp)
80005004:	0eb12a23          	sw	a1,244(sp)
80005008:	0f012503          	lw	a0,240(sp)
8000500c:	0f412583          	lw	a1,244(sp)
80005010:	000ba603          	lw	a2,0(s7)
80005014:	004ba683          	lw	a3,4(s7)
80005018:	00548493          	addi	s1,s1,5
8000501c:	4ec010ef          	jal	ra,80006508 <__divdf3>
80005020:	c00484e3          	beqz	s1,80004c28 <vsprintf+0x178c>
80005024:	fd64cee3          	blt	s1,s6,80005000 <vsprintf+0x1b64>
80005028:	00812783          	lw	a5,8(sp)
8000502c:	0ea12c23          	sw	a0,248(sp)
80005030:	0eb12e23          	sw	a1,252(sp)
80005034:	0f812503          	lw	a0,248(sp)
80005038:	0fc12583          	lw	a1,252(sp)
8000503c:	0007a603          	lw	a2,0(a5)
80005040:	0047a683          	lw	a3,4(a5)
80005044:	00148493          	addi	s1,s1,1
80005048:	4c0010ef          	jal	ra,80006508 <__divdf3>
8000504c:	fa0498e3          	bnez	s1,80004ffc <vsprintf+0x1b60>
80005050:	bd9ff06f          	j	80004c28 <vsprintf+0x178c>
80005054:	00812783          	lw	a5,8(sp)
80005058:	1ca12c23          	sw	a0,472(sp)
8000505c:	1cb12e23          	sw	a1,476(sp)
80005060:	1d812503          	lw	a0,472(sp)
80005064:	1dc12583          	lw	a1,476(sp)
80005068:	0007a603          	lw	a2,0(a5)
8000506c:	0047a683          	lw	a3,4(a5)
80005070:	154020ef          	jal	ra,800071c4 <__muldf3>
80005074:	01012803          	lw	a6,16(sp)
80005078:	fff80813          	addi	a6,a6,-1
8000507c:	d80812e3          	bnez	a6,80004e00 <vsprintf+0x1964>
80005080:	db1ff06f          	j	80004e30 <vsprintf+0x1994>
80005084:	01800693          	li	a3,24
80005088:	00004717          	auipc	a4,0x4
8000508c:	8e870713          	addi	a4,a4,-1816 # 80008970 <_etext+0x50c>
80005090:	41800bb3          	neg	s7,s8
80005094:	0386d0e3          	bge	a3,s8,800058b4 <vsprintf+0x2418>
80005098:	28412a83          	lw	s5,644(sp)
8000509c:	28012b03          	lw	s6,640(sp)
800050a0:	27c12b83          	lw	s7,636(sp)
800050a4:	dccff06f          	j	80004670 <vsprintf+0x11d4>
800050a8:	28412a83          	lw	s5,644(sp)
800050ac:	28012b03          	lw	s6,640(sp)
800050b0:	27c12b83          	lw	s7,636(sp)
800050b4:	81cff06f          	j	800040d0 <vsprintf+0xc34>
800050b8:	40d70733          	sub	a4,a4,a3
800050bc:	00e12e23          	sw	a4,28(sp)
800050c0:	00170693          	addi	a3,a4,1
800050c4:	f00ff06f          	j	800047c4 <vsprintf+0x1328>
800050c8:	00812703          	lw	a4,8(sp)
800050cc:	02e00793          	li	a5,46
800050d0:	00f70023          	sb	a5,0(a4)
800050d4:	00170793          	addi	a5,a4,1
800050d8:	00f12423          	sw	a5,8(sp)
800050dc:	e5dfe06f          	j	80003f38 <vsprintf+0xa9c>
800050e0:	00004697          	auipc	a3,0x4
800050e4:	6d868693          	addi	a3,a3,1752 # 800097b8 <sprint_fe>
800050e8:	02d00713          	li	a4,45
800050ec:	00068c13          	mv	s8,a3
800050f0:	12ec8c63          	beq	s9,a4,80005228 <vsprintf+0x1d8c>
800050f4:	6f205c63          	blez	s2,800057ec <vsprintf+0x2350>
800050f8:	00004717          	auipc	a4,0x4
800050fc:	ab870713          	addi	a4,a4,-1352 # 80008bb0 <intpat+0x204>
80005100:	00072603          	lw	a2,0(a4)
80005104:	04e12023          	sw	a4,64(sp)
80005108:	00472703          	lw	a4,4(a4)
8000510c:	19b12423          	sw	s11,392(sp)
80005110:	1fa12e23          	sw	s10,508(sp)
80005114:	04812d83          	lw	s11,72(sp)
80005118:	08012b03          	lw	s6,128(sp)
8000511c:	1f012c83          	lw	s9,496(sp)
80005120:	1f412d03          	lw	s10,500(sp)
80005124:	08c12223          	sw	a2,132(sp)
80005128:	08e12423          	sw	a4,136(sp)
8000512c:	00400913          	li	s2,4
80005130:	00004b97          	auipc	s7,0x4
80005134:	a90b8b93          	addi	s7,s7,-1392 # 80008bc0 <intpat+0x214>
80005138:	16f12423          	sw	a5,360(sp)
8000513c:	17112823          	sw	a7,368(sp)
80005140:	16612c23          	sw	t1,376(sp)
80005144:	19c12023          	sw	t3,384(sp)
80005148:	19012223          	sw	a6,388(sp)
8000514c:	1ed12c23          	sw	a3,504(sp)
80005150:	08412703          	lw	a4,132(sp)
80005154:	08812783          	lw	a5,136(sp)
80005158:	000d8a93          	mv	s5,s11
8000515c:	0d595e63          	bge	s2,s5,80005238 <vsprintf+0x1d9c>
80005160:	000ba603          	lw	a2,0(s7)
80005164:	004ba683          	lw	a3,4(s7)
80005168:	00070513          	mv	a0,a4
8000516c:	00078593          	mv	a1,a5
80005170:	00070c93          	mv	s9,a4
80005174:	00078d13          	mv	s10,a5
80005178:	ffba8a93          	addi	s5,s5,-5
8000517c:	048020ef          	jal	ra,800071c4 <__muldf3>
80005180:	00050713          	mv	a4,a0
80005184:	00058793          	mv	a5,a1
80005188:	fc0a9ae3          	bnez	s5,8000515c <vsprintf+0x1cc0>
8000518c:	01012a83          	lw	s5,16(sp)
80005190:	02e12023          	sw	a4,32(sp)
80005194:	02f12223          	sw	a5,36(sp)
80005198:	03612623          	sw	s6,44(sp)
8000519c:	03512423          	sw	s5,40(sp)
800051a0:	02012603          	lw	a2,32(sp)
800051a4:	02412683          	lw	a3,36(sp)
800051a8:	02812503          	lw	a0,40(sp)
800051ac:	02c12583          	lw	a1,44(sp)
800051b0:	04e12423          	sw	a4,72(sp)
800051b4:	08f12023          	sw	a5,128(sp)
800051b8:	350010ef          	jal	ra,80006508 <__divdf3>
800051bc:	425010ef          	jal	ra,80006de0 <__fixdfsi>
800051c0:	00a12823          	sw	a0,16(sp)
800051c4:	4a1010ef          	jal	ra,80006e64 <__floatsidf>
800051c8:	04812703          	lw	a4,72(sp)
800051cc:	08012783          	lw	a5,128(sp)
800051d0:	fffd8d93          	addi	s11,s11,-1
800051d4:	02e12823          	sw	a4,48(sp)
800051d8:	02f12a23          	sw	a5,52(sp)
800051dc:	03012603          	lw	a2,48(sp)
800051e0:	03412683          	lw	a3,52(sp)
800051e4:	7e1010ef          	jal	ra,800071c4 <__muldf3>
800051e8:	03612e23          	sw	s6,60(sp)
800051ec:	03512c23          	sw	s5,56(sp)
800051f0:	00050613          	mv	a2,a0
800051f4:	00058693          	mv	a3,a1
800051f8:	03812503          	lw	a0,56(sp)
800051fc:	03c12583          	lw	a1,60(sp)
80005200:	6b0020ef          	jal	ra,800078b0 <__subdf3>
80005204:	01012803          	lw	a6,16(sp)
80005208:	00a12823          	sw	a0,16(sp)
8000520c:	00058b13          	mv	s6,a1
80005210:	03080813          	addi	a6,a6,48
80005214:	010c0023          	sb	a6,0(s8)
80005218:	001c0713          	addi	a4,s8,1
8000521c:	040d8863          	beqz	s11,8000526c <vsprintf+0x1dd0>
80005220:	00070c13          	mv	s8,a4
80005224:	f2dff06f          	j	80005150 <vsprintf+0x1cb4>
80005228:	01968023          	sb	s9,0(a3)
8000522c:	00004c17          	auipc	s8,0x4
80005230:	58dc0c13          	addi	s8,s8,1421 # 800097b9 <sprint_fe+0x1>
80005234:	ec1ff06f          	j	800050f4 <vsprintf+0x1c58>
80005238:	00078593          	mv	a1,a5
8000523c:	00078493          	mv	s1,a5
80005240:	00812783          	lw	a5,8(sp)
80005244:	00070513          	mv	a0,a4
80005248:	00070413          	mv	s0,a4
8000524c:	0007a603          	lw	a2,0(a5)
80005250:	0047a683          	lw	a3,4(a5)
80005254:	fffa8a93          	addi	s5,s5,-1
80005258:	76d010ef          	jal	ra,800071c4 <__muldf3>
8000525c:	00050713          	mv	a4,a0
80005260:	00058793          	mv	a5,a1
80005264:	ee0a9ce3          	bnez	s5,8000515c <vsprintf+0x1cc0>
80005268:	f25ff06f          	j	8000518c <vsprintf+0x1cf0>
8000526c:	12812603          	lw	a2,296(sp)
80005270:	05b12423          	sw	s11,72(sp)
80005274:	1fa12a23          	sw	s10,500(sp)
80005278:	08b12023          	sw	a1,128(sp)
8000527c:	1f912823          	sw	s9,496(sp)
80005280:	16812783          	lw	a5,360(sp)
80005284:	17012883          	lw	a7,368(sp)
80005288:	17812303          	lw	t1,376(sp)
8000528c:	18012e03          	lw	t3,384(sp)
80005290:	18412803          	lw	a6,388(sp)
80005294:	18812d83          	lw	s11,392(sp)
80005298:	1f812683          	lw	a3,504(sp)
8000529c:	1fc12d03          	lw	s10,508(sp)
800052a0:	00c04463          	bgtz	a2,800052a8 <vsprintf+0x1e0c>
800052a4:	c41fe06f          	j	80003ee4 <vsprintf+0xa48>
800052a8:	06600613          	li	a2,102
800052ac:	52c80263          	beq	a6,a2,800057d0 <vsprintf+0x2334>
800052b0:	010c00a3          	sb	a6,1(s8)
800052b4:	003c0593          	addi	a1,s8,3
800052b8:	000c0713          	mv	a4,s8
800052bc:	02b00613          	li	a2,43
800052c0:	dc9fe06f          	j	80004088 <vsprintf+0xbec>
800052c4:	02d00c93          	li	s9,45
800052c8:	fd8ff06f          	j	80004aa0 <vsprintf+0x1604>
800052cc:	00003717          	auipc	a4,0x3
800052d0:	6a870713          	addi	a4,a4,1704 # 80008974 <_etext+0x510>
800052d4:	02b00c93          	li	s9,43
800052d8:	b98ff06f          	j	80004670 <vsprintf+0x11d4>
800052dc:	41800733          	neg	a4,s8
800052e0:	12e12423          	sw	a4,296(sp)
800052e4:	02d00c93          	li	s9,45
800052e8:	00070b93          	mv	s7,a4
800052ec:	93cff06f          	j	80004428 <vsprintf+0xf8c>
800052f0:	01c12703          	lw	a4,28(sp)
800052f4:	00188513          	addi	a0,a7,1
800052f8:	00170713          	addi	a4,a4,1
800052fc:	00e12e23          	sw	a4,28(sp)
80005300:	d20ff06f          	j	80004820 <vsprintf+0x1384>
80005304:	ffe30593          	addi	a1,t1,-2
80005308:	00188f13          	addi	t5,a7,1
8000530c:	858ff06f          	j	80004364 <vsprintf+0xec8>
80005310:	00080613          	mv	a2,a6
80005314:	00188f93          	addi	t6,a7,1
80005318:	f5dfe06f          	j	80004274 <vsprintf+0xdd8>
8000531c:	00003717          	auipc	a4,0x3
80005320:	65870713          	addi	a4,a4,1624 # 80008974 <_etext+0x510>
80005324:	02d00c93          	li	s9,45
80005328:	b48ff06f          	j	80004670 <vsprintf+0x11d4>
8000532c:	04012783          	lw	a5,64(sp)
80005330:	0007a703          	lw	a4,0(a5)
80005334:	0047a783          	lw	a5,4(a5)
80005338:	c4dfe06f          	j	80003f84 <vsprintf+0xae8>
8000533c:	4c0b8463          	beqz	s7,80005804 <vsprintf+0x2368>
80005340:	04812b83          	lw	s7,72(sp)
80005344:	09012423          	sw	a6,136(sp)
80005348:	13b12423          	sw	s11,296(sp)
8000534c:	000b8813          	mv	a6,s7
80005350:	000c8d93          	mv	s11,s9
80005354:	16912623          	sw	s1,364(sp)
80005358:	ffc00913          	li	s2,-4
8000535c:	00004a97          	auipc	s5,0x4
80005360:	864a8a93          	addi	s5,s5,-1948 # 80008bc0 <intpat+0x214>
80005364:	00088b13          	mv	s6,a7
80005368:	00030b93          	mv	s7,t1
8000536c:	000e0c93          	mv	s9,t3
80005370:	16812423          	sw	s0,360(sp)
80005374:	00078493          	mv	s1,a5
80005378:	01012823          	sw	a6,16(sp)
8000537c:	03285863          	bge	a6,s2,800053ac <vsprintf+0x1f10>
80005380:	1ea12023          	sw	a0,480(sp)
80005384:	1eb12223          	sw	a1,484(sp)
80005388:	1e012503          	lw	a0,480(sp)
8000538c:	1e412583          	lw	a1,484(sp)
80005390:	000aa603          	lw	a2,0(s5)
80005394:	004aa683          	lw	a3,4(s5)
80005398:	170010ef          	jal	ra,80006508 <__divdf3>
8000539c:	01012803          	lw	a6,16(sp)
800053a0:	00580813          	addi	a6,a6,5
800053a4:	fc081ae3          	bnez	a6,80005378 <vsprintf+0x1edc>
800053a8:	a89ff06f          	j	80004e30 <vsprintf+0x1994>
800053ac:	00812783          	lw	a5,8(sp)
800053b0:	1ea12423          	sw	a0,488(sp)
800053b4:	1eb12623          	sw	a1,492(sp)
800053b8:	1e812503          	lw	a0,488(sp)
800053bc:	1ec12583          	lw	a1,492(sp)
800053c0:	0007a603          	lw	a2,0(a5)
800053c4:	0047a683          	lw	a3,4(a5)
800053c8:	140010ef          	jal	ra,80006508 <__divdf3>
800053cc:	01012803          	lw	a6,16(sp)
800053d0:	00180813          	addi	a6,a6,1
800053d4:	fa0812e3          	bnez	a6,80005378 <vsprintf+0x1edc>
800053d8:	a59ff06f          	j	80004e30 <vsprintf+0x1994>
800053dc:	00288f93          	addi	t6,a7,2
800053e0:	ffd30613          	addi	a2,t1,-3
800053e4:	e91fe06f          	j	80004274 <vsprintf+0xdd8>
800053e8:	01c12703          	lw	a4,28(sp)
800053ec:	00288513          	addi	a0,a7,2
800053f0:	00270713          	addi	a4,a4,2
800053f4:	00e12e23          	sw	a4,28(sp)
800053f8:	c28ff06f          	j	80004820 <vsprintf+0x1384>
800053fc:	ffd30593          	addi	a1,t1,-3
80005400:	00288f13          	addi	t5,a7,2
80005404:	f61fe06f          	j	80004364 <vsprintf+0xec8>
80005408:	00058313          	mv	t1,a1
8000540c:	f44fe06f          	j	80003b50 <vsprintf+0x6b4>
80005410:	02b00c93          	li	s9,43
80005414:	a90ff06f          	j	800046a4 <vsprintf+0x1208>
80005418:	04f12423          	sw	a5,72(sp)
8000541c:	21612c23          	sw	s6,536(sp)
80005420:	00003797          	auipc	a5,0x3
80005424:	79078793          	addi	a5,a5,1936 # 80008bb0 <intpat+0x204>
80005428:	21712e23          	sw	s7,540(sp)
8000542c:	0007a603          	lw	a2,0(a5)
80005430:	0047a683          	lw	a3,4(a5)
80005434:	21812503          	lw	a0,536(sp)
80005438:	21c12583          	lw	a1,540(sp)
8000543c:	17112423          	sw	a7,360(sp)
80005440:	13012423          	sw	a6,296(sp)
80005444:	09c12423          	sw	t3,136(sp)
80005448:	08612223          	sw	t1,132(sp)
8000544c:	04f12023          	sw	a5,64(sp)
80005450:	475010ef          	jal	ra,800070c4 <__ledf2>
80005454:	04812783          	lw	a5,72(sp)
80005458:	08412303          	lw	t1,132(sp)
8000545c:	08812e03          	lw	t3,136(sp)
80005460:	12812803          	lw	a6,296(sp)
80005464:	16812883          	lw	a7,360(sp)
80005468:	00000913          	li	s2,0
8000546c:	00003717          	auipc	a4,0x3
80005470:	76470713          	addi	a4,a4,1892 # 80008bd0 <intpat+0x224>
80005474:	3c055063          	bgez	a0,80005834 <vsprintf+0x2398>
80005478:	00072683          	lw	a3,0(a4)
8000547c:	00472703          	lw	a4,4(a4)
80005480:	17b12423          	sw	s11,360(sp)
80005484:	16912a23          	sw	s1,372(sp)
80005488:	04d12423          	sw	a3,72(sp)
8000548c:	04e12623          	sw	a4,76(sp)
80005490:	09112223          	sw	a7,132(sp)
80005494:	08612423          	sw	t1,136(sp)
80005498:	13c12423          	sw	t3,296(sp)
8000549c:	00080d93          	mv	s11,a6
800054a0:	16812823          	sw	s0,368(sp)
800054a4:	00078493          	mv	s1,a5
800054a8:	07612423          	sw	s6,104(sp)
800054ac:	07712623          	sw	s7,108(sp)
800054b0:	06812503          	lw	a0,104(sp)
800054b4:	06c12583          	lw	a1,108(sp)
800054b8:	04812603          	lw	a2,72(sp)
800054bc:	04c12683          	lw	a3,76(sp)
800054c0:	405010ef          	jal	ra,800070c4 <__ledf2>
800054c4:	20055e63          	bgez	a0,800056e0 <vsprintf+0x2244>
800054c8:	0d612823          	sw	s6,208(sp)
800054cc:	0d712a23          	sw	s7,212(sp)
800054d0:	000aa603          	lw	a2,0(s5)
800054d4:	004aa683          	lw	a3,4(s5)
800054d8:	0d012503          	lw	a0,208(sp)
800054dc:	0d412583          	lw	a1,212(sp)
800054e0:	ffb90913          	addi	s2,s2,-5
800054e4:	4e1010ef          	jal	ra,800071c4 <__muldf3>
800054e8:	04012783          	lw	a5,64(sp)
800054ec:	00050b13          	mv	s6,a0
800054f0:	00058b93          	mv	s7,a1
800054f4:	0007a603          	lw	a2,0(a5)
800054f8:	0047a683          	lw	a3,4(a5)
800054fc:	3c9010ef          	jal	ra,800070c4 <__ledf2>
80005500:	fa0544e3          	bltz	a0,800054a8 <vsprintf+0x200c>
80005504:	41890933          	sub	s2,s2,s8
80005508:	00048793          	mv	a5,s1
8000550c:	000d8813          	mv	a6,s11
80005510:	08412883          	lw	a7,132(sp)
80005514:	08812303          	lw	t1,136(sp)
80005518:	12812e03          	lw	t3,296(sp)
8000551c:	16812d83          	lw	s11,360(sp)
80005520:	17012403          	lw	s0,368(sp)
80005524:	17412483          	lw	s1,372(sp)
80005528:	e9204e63          	bgtz	s2,80004bc4 <vsprintf+0x1728>
8000552c:	a8091ae3          	bnez	s2,80004fc0 <vsprintf+0x1b24>
80005530:	04f12423          	sw	a5,72(sp)
80005534:	01012783          	lw	a5,16(sp)
80005538:	17112823          	sw	a7,368(sp)
8000553c:	17012423          	sw	a6,360(sp)
80005540:	24f12023          	sw	a5,576(sp)
80005544:	08012783          	lw	a5,128(sp)
80005548:	24012503          	lw	a0,576(sp)
8000554c:	00003717          	auipc	a4,0x3
80005550:	66c70713          	addi	a4,a4,1644 # 80008bb8 <intpat+0x20c>
80005554:	24f12223          	sw	a5,580(sp)
80005558:	24412583          	lw	a1,580(sp)
8000555c:	00072603          	lw	a2,0(a4)
80005560:	00472683          	lw	a3,4(a4)
80005564:	49c000ef          	jal	ra,80005a00 <__adddf3>
80005568:	04812783          	lw	a5,72(sp)
8000556c:	08812303          	lw	t1,136(sp)
80005570:	12812e03          	lw	t3,296(sp)
80005574:	16812803          	lw	a6,360(sp)
80005578:	17012883          	lw	a7,368(sp)
8000557c:	08a12023          	sw	a0,128(sp)
80005580:	08b12223          	sw	a1,132(sp)
80005584:	08012903          	lw	s2,128(sp)
80005588:	08412b03          	lw	s6,132(sp)
8000558c:	00f12823          	sw	a5,16(sp)
80005590:	04012783          	lw	a5,64(sp)
80005594:	25212423          	sw	s2,584(sp)
80005598:	25612623          	sw	s6,588(sp)
8000559c:	0007a603          	lw	a2,0(a5)
800055a0:	0047a683          	lw	a3,4(a5)
800055a4:	24812503          	lw	a0,584(sp)
800055a8:	24c12583          	lw	a1,588(sp)
800055ac:	17112423          	sw	a7,360(sp)
800055b0:	13012423          	sw	a6,296(sp)
800055b4:	09c12423          	sw	t3,136(sp)
800055b8:	04612423          	sw	t1,72(sp)
800055bc:	309010ef          	jal	ra,800070c4 <__ledf2>
800055c0:	01012783          	lw	a5,16(sp)
800055c4:	04812303          	lw	t1,72(sp)
800055c8:	08812e03          	lw	t3,136(sp)
800055cc:	12812803          	lw	a6,296(sp)
800055d0:	16812883          	lw	a7,360(sp)
800055d4:	00000b93          	li	s7,0
800055d8:	00003717          	auipc	a4,0x3
800055dc:	5f870713          	addi	a4,a4,1528 # 80008bd0 <intpat+0x224>
800055e0:	aa0552e3          	bgez	a0,80005084 <vsprintf+0x1be8>
800055e4:	00072683          	lw	a3,0(a4)
800055e8:	00472703          	lw	a4,4(a4)
800055ec:	17b12423          	sw	s11,360(sp)
800055f0:	16912a23          	sw	s1,372(sp)
800055f4:	00d12823          	sw	a3,16(sp)
800055f8:	00e12a23          	sw	a4,20(sp)
800055fc:	00003a97          	auipc	s5,0x3
80005600:	5c4a8a93          	addi	s5,s5,1476 # 80008bc0 <intpat+0x214>
80005604:	05112423          	sw	a7,72(sp)
80005608:	08612423          	sw	t1,136(sp)
8000560c:	13c12423          	sw	t3,296(sp)
80005610:	00080d93          	mv	s11,a6
80005614:	16812823          	sw	s0,368(sp)
80005618:	00078493          	mv	s1,a5
8000561c:	07212c23          	sw	s2,120(sp)
80005620:	07612e23          	sw	s6,124(sp)
80005624:	07812503          	lw	a0,120(sp)
80005628:	07c12583          	lw	a1,124(sp)
8000562c:	01012603          	lw	a2,16(sp)
80005630:	01412683          	lw	a3,20(sp)
80005634:	291010ef          	jal	ra,800070c4 <__ledf2>
80005638:	06055263          	bgez	a0,8000569c <vsprintf+0x2200>
8000563c:	11212823          	sw	s2,272(sp)
80005640:	11612a23          	sw	s6,276(sp)
80005644:	000aa603          	lw	a2,0(s5)
80005648:	004aa683          	lw	a3,4(s5)
8000564c:	11012503          	lw	a0,272(sp)
80005650:	11412583          	lw	a1,276(sp)
80005654:	ffbb8b93          	addi	s7,s7,-5
80005658:	36d010ef          	jal	ra,800071c4 <__muldf3>
8000565c:	04012783          	lw	a5,64(sp)
80005660:	00050913          	mv	s2,a0
80005664:	00058b13          	mv	s6,a1
80005668:	0007a603          	lw	a2,0(a5)
8000566c:	0047a683          	lw	a3,4(a5)
80005670:	255010ef          	jal	ra,800070c4 <__ledf2>
80005674:	fa0544e3          	bltz	a0,8000561c <vsprintf+0x2180>
80005678:	00048793          	mv	a5,s1
8000567c:	000d8813          	mv	a6,s11
80005680:	04812883          	lw	a7,72(sp)
80005684:	08812303          	lw	t1,136(sp)
80005688:	12812e03          	lw	t3,296(sp)
8000568c:	16812d83          	lw	s11,360(sp)
80005690:	17012403          	lw	s0,368(sp)
80005694:	17412483          	lw	s1,372(sp)
80005698:	ef0ff06f          	j	80004d88 <vsprintf+0x18ec>
8000569c:	00812783          	lw	a5,8(sp)
800056a0:	11212c23          	sw	s2,280(sp)
800056a4:	11612e23          	sw	s6,284(sp)
800056a8:	0007a603          	lw	a2,0(a5)
800056ac:	0047a683          	lw	a3,4(a5)
800056b0:	11812503          	lw	a0,280(sp)
800056b4:	11c12583          	lw	a1,284(sp)
800056b8:	fffb8b93          	addi	s7,s7,-1
800056bc:	309010ef          	jal	ra,800071c4 <__muldf3>
800056c0:	04012783          	lw	a5,64(sp)
800056c4:	00050913          	mv	s2,a0
800056c8:	00058b13          	mv	s6,a1
800056cc:	0007a603          	lw	a2,0(a5)
800056d0:	0047a683          	lw	a3,4(a5)
800056d4:	1f1010ef          	jal	ra,800070c4 <__ledf2>
800056d8:	f40542e3          	bltz	a0,8000561c <vsprintf+0x2180>
800056dc:	f9dff06f          	j	80005678 <vsprintf+0x21dc>
800056e0:	00812783          	lw	a5,8(sp)
800056e4:	0d612c23          	sw	s6,216(sp)
800056e8:	0d712e23          	sw	s7,220(sp)
800056ec:	0007a603          	lw	a2,0(a5)
800056f0:	0047a683          	lw	a3,4(a5)
800056f4:	0d812503          	lw	a0,216(sp)
800056f8:	0dc12583          	lw	a1,220(sp)
800056fc:	fff90913          	addi	s2,s2,-1
80005700:	2c5010ef          	jal	ra,800071c4 <__muldf3>
80005704:	04012783          	lw	a5,64(sp)
80005708:	00050b13          	mv	s6,a0
8000570c:	00058b93          	mv	s7,a1
80005710:	0007a603          	lw	a2,0(a5)
80005714:	0047a683          	lw	a3,4(a5)
80005718:	1ad010ef          	jal	ra,800070c4 <__ledf2>
8000571c:	d80546e3          	bltz	a0,800054a8 <vsprintf+0x200c>
80005720:	41890933          	sub	s2,s2,s8
80005724:	00048793          	mv	a5,s1
80005728:	000d8813          	mv	a6,s11
8000572c:	08412883          	lw	a7,132(sp)
80005730:	08812303          	lw	t1,136(sp)
80005734:	12812e03          	lw	t3,296(sp)
80005738:	16812d83          	lw	s11,360(sp)
8000573c:	17012403          	lw	s0,368(sp)
80005740:	17412483          	lw	s1,372(sp)
80005744:	c9204063          	bgtz	s2,80004bc4 <vsprintf+0x1728>
80005748:	86091ce3          	bnez	s2,80004fc0 <vsprintf+0x1b24>
8000574c:	04f12423          	sw	a5,72(sp)
80005750:	01012783          	lw	a5,16(sp)
80005754:	17112823          	sw	a7,368(sp)
80005758:	17012423          	sw	a6,360(sp)
8000575c:	22f12423          	sw	a5,552(sp)
80005760:	08012783          	lw	a5,128(sp)
80005764:	22812503          	lw	a0,552(sp)
80005768:	00003717          	auipc	a4,0x3
8000576c:	45070713          	addi	a4,a4,1104 # 80008bb8 <intpat+0x20c>
80005770:	22f12623          	sw	a5,556(sp)
80005774:	22c12583          	lw	a1,556(sp)
80005778:	de5ff06f          	j	8000555c <vsprintf+0x20c0>
8000577c:	00003717          	auipc	a4,0x3
80005780:	43c70713          	addi	a4,a4,1084 # 80008bb8 <intpat+0x20c>
80005784:	00072503          	lw	a0,0(a4)
80005788:	00472583          	lw	a1,4(a4)
8000578c:	00003717          	auipc	a4,0x3
80005790:	43c70713          	addi	a4,a4,1084 # 80008bc8 <intpat+0x21c>
80005794:	00e12423          	sw	a4,8(sp)
80005798:	d71fe06f          	j	80004508 <vsprintf+0x106c>
8000579c:	00068893          	mv	a7,a3
800057a0:	a80fe06f          	j	80003a20 <vsprintf+0x584>
800057a4:	00012e23          	sw	zero,28(sp)
800057a8:	00605463          	blez	t1,800057b0 <vsprintf+0x2314>
800057ac:	81cff06f          	j	800047c8 <vsprintf+0x132c>
800057b0:	001e4783          	lbu	a5,1(t3)
800057b4:	00100713          	li	a4,1
800057b8:	00e12e23          	sw	a4,28(sp)
800057bc:	29012903          	lw	s2,656(sp)
800057c0:	001e0593          	addi	a1,t3,1
800057c4:	00078463          	beqz	a5,800057cc <vsprintf+0x2330>
800057c8:	d31fd06f          	j	800034f8 <vsprintf+0x5c>
800057cc:	d45fd06f          	j	80003510 <vsprintf+0x74>
800057d0:	28412a83          	lw	s5,644(sp)
800057d4:	28012b03          	lw	s6,640(sp)
800057d8:	27c12b83          	lw	s7,636(sp)
800057dc:	00070613          	mv	a2,a4
800057e0:	8f1fe06f          	j	800040d0 <vsprintf+0xc34>
800057e4:	00c12423          	sw	a2,8(sp)
800057e8:	f3cfe06f          	j	80003f24 <vsprintf+0xa88>
800057ec:	00003617          	auipc	a2,0x3
800057f0:	3c460613          	addi	a2,a2,964 # 80008bb0 <intpat+0x204>
800057f4:	000c0713          	mv	a4,s8
800057f8:	04012423          	sw	zero,72(sp)
800057fc:	04c12023          	sw	a2,64(sp)
80005800:	ee4fe06f          	j	80003ee4 <vsprintf+0xa48>
80005804:	41800bb3          	neg	s7,s8
80005808:	e50ff06f          	j	80004e58 <vsprintf+0x19bc>
8000580c:	01c00713          	li	a4,28
80005810:	01875463          	bge	a4,s8,80005818 <vsprintf+0x237c>
80005814:	e49fe06f          	j	8000465c <vsprintf+0x11c0>
80005818:	02d00713          	li	a4,45
8000581c:	00004697          	auipc	a3,0x4
80005820:	f9c68693          	addi	a3,a3,-100 # 800097b8 <sprint_fe>
80005824:	14ec8063          	beq	s9,a4,80005964 <vsprintf+0x24c8>
80005828:	00068713          	mv	a4,a3
8000582c:	04012423          	sw	zero,72(sp)
80005830:	eb4fe06f          	j	80003ee4 <vsprintf+0xa48>
80005834:	41800bb3          	neg	s7,s8
80005838:	000b8913          	mv	s2,s7
8000583c:	f80c1263          	bnez	s8,80004fc0 <vsprintf+0x1b24>
80005840:	04f12423          	sw	a5,72(sp)
80005844:	01012783          	lw	a5,16(sp)
80005848:	00003717          	auipc	a4,0x3
8000584c:	37070713          	addi	a4,a4,880 # 80008bb8 <intpat+0x20c>
80005850:	00072603          	lw	a2,0(a4)
80005854:	22f12023          	sw	a5,544(sp)
80005858:	08012783          	lw	a5,128(sp)
8000585c:	00472683          	lw	a3,4(a4)
80005860:	22012503          	lw	a0,544(sp)
80005864:	22f12223          	sw	a5,548(sp)
80005868:	22412583          	lw	a1,548(sp)
8000586c:	17112823          	sw	a7,368(sp)
80005870:	17012423          	sw	a6,360(sp)
80005874:	13c12423          	sw	t3,296(sp)
80005878:	08612423          	sw	t1,136(sp)
8000587c:	184000ef          	jal	ra,80005a00 <__adddf3>
80005880:	00003797          	auipc	a5,0x3
80005884:	34878793          	addi	a5,a5,840 # 80008bc8 <intpat+0x21c>
80005888:	0007a603          	lw	a2,0(a5)
8000588c:	0047a683          	lw	a3,4(a5)
80005890:	08a12023          	sw	a0,128(sp)
80005894:	08b12223          	sw	a1,132(sp)
80005898:	730010ef          	jal	ra,80006fc8 <__gedf2>
8000589c:	04812783          	lw	a5,72(sp)
800058a0:	08812303          	lw	t1,136(sp)
800058a4:	12812e03          	lw	t3,296(sp)
800058a8:	16812803          	lw	a6,360(sp)
800058ac:	17012883          	lw	a7,368(sp)
800058b0:	c0055e63          	bgez	a0,80004ccc <vsprintf+0x1830>
800058b4:	04012703          	lw	a4,64(sp)
800058b8:	04012423          	sw	zero,72(sp)
800058bc:	00072503          	lw	a0,0(a4)
800058c0:	00472583          	lw	a1,4(a4)
800058c4:	d94ff06f          	j	80004e58 <vsprintf+0x19bc>
800058c8:	04f12023          	sw	a5,64(sp)
800058cc:	01012783          	lw	a5,16(sp)
800058d0:	17112423          	sw	a7,360(sp)
800058d4:	13712423          	sw	s7,296(sp)
800058d8:	22f12823          	sw	a5,560(sp)
800058dc:	08012783          	lw	a5,128(sp)
800058e0:	23012503          	lw	a0,560(sp)
800058e4:	09612423          	sw	s6,136(sp)
800058e8:	22f12a23          	sw	a5,564(sp)
800058ec:	23412583          	lw	a1,564(sp)
800058f0:	04612423          	sw	t1,72(sp)
800058f4:	00003717          	auipc	a4,0x3
800058f8:	2c470713          	addi	a4,a4,708 # 80008bb8 <intpat+0x20c>
800058fc:	00072603          	lw	a2,0(a4)
80005900:	00472683          	lw	a3,4(a4)
80005904:	0fc000ef          	jal	ra,80005a00 <__adddf3>
80005908:	04012783          	lw	a5,64(sp)
8000590c:	04812303          	lw	t1,72(sp)
80005910:	16812883          	lw	a7,360(sp)
80005914:	08a12023          	sw	a0,128(sp)
80005918:	08b12223          	sw	a1,132(sp)
8000591c:	000b0e13          	mv	t3,s6
80005920:	000b8813          	mv	a6,s7
80005924:	ba8ff06f          	j	80004ccc <vsprintf+0x1830>
80005928:	e8091c63          	bnez	s2,80004fc0 <vsprintf+0x1b24>
8000592c:	04f12023          	sw	a5,64(sp)
80005930:	01012783          	lw	a5,16(sp)
80005934:	17112423          	sw	a7,360(sp)
80005938:	13712423          	sw	s7,296(sp)
8000593c:	22f12c23          	sw	a5,568(sp)
80005940:	08012783          	lw	a5,128(sp)
80005944:	23812503          	lw	a0,568(sp)
80005948:	09612423          	sw	s6,136(sp)
8000594c:	22f12e23          	sw	a5,572(sp)
80005950:	23c12583          	lw	a1,572(sp)
80005954:	04612423          	sw	t1,72(sp)
80005958:	00003717          	auipc	a4,0x3
8000595c:	26070713          	addi	a4,a4,608 # 80008bb8 <intpat+0x20c>
80005960:	f9dff06f          	j	800058fc <vsprintf+0x2460>
80005964:	01968023          	sb	s9,0(a3)
80005968:	04012423          	sw	zero,72(sp)
8000596c:	00004717          	auipc	a4,0x4
80005970:	e4d70713          	addi	a4,a4,-435 # 800097b9 <sprint_fe+0x1>
80005974:	d70fe06f          	j	80003ee4 <vsprintf+0xa48>

80005978 <printf>:
80005978:	fc010113          	addi	sp,sp,-64
8000597c:	02410313          	addi	t1,sp,36
80005980:	02b12223          	sw	a1,36(sp)
80005984:	02c12423          	sw	a2,40(sp)
80005988:	00050593          	mv	a1,a0
8000598c:	00030613          	mv	a2,t1
80005990:	00004517          	auipc	a0,0x4
80005994:	c2850513          	addi	a0,a0,-984 # 800095b8 <s>
80005998:	00912a23          	sw	s1,20(sp)
8000599c:	00112e23          	sw	ra,28(sp)
800059a0:	02d12623          	sw	a3,44(sp)
800059a4:	02e12823          	sw	a4,48(sp)
800059a8:	02f12a23          	sw	a5,52(sp)
800059ac:	03012c23          	sw	a6,56(sp)
800059b0:	03112e23          	sw	a7,60(sp)
800059b4:	00612623          	sw	t1,12(sp)
800059b8:	ae5fd0ef          	jal	ra,8000349c <vsprintf>
800059bc:	00050493          	mv	s1,a0
800059c0:	00004517          	auipc	a0,0x4
800059c4:	bf854503          	lbu	a0,-1032(a0) # 800095b8 <s>
800059c8:	02050263          	beqz	a0,800059ec <printf+0x74>
800059cc:	00812c23          	sw	s0,24(sp)
800059d0:	00004417          	auipc	s0,0x4
800059d4:	be940413          	addi	s0,s0,-1047 # 800095b9 <s+0x1>
800059d8:	b1cfd0ef          	jal	ra,80002cf4 <putch>
800059dc:	00044503          	lbu	a0,0(s0)
800059e0:	00140413          	addi	s0,s0,1
800059e4:	fe051ae3          	bnez	a0,800059d8 <printf+0x60>
800059e8:	01812403          	lw	s0,24(sp)
800059ec:	01c12083          	lw	ra,28(sp)
800059f0:	00048513          	mv	a0,s1
800059f4:	01412483          	lw	s1,20(sp)
800059f8:	04010113          	addi	sp,sp,64
800059fc:	00008067          	ret

80005a00 <__adddf3>:
80005a00:	00100337          	lui	t1,0x100
80005a04:	fe010113          	addi	sp,sp,-32
80005a08:	fff30313          	addi	t1,t1,-1 # fffff <_entry_offset+0xfffff>
80005a0c:	0146d713          	srli	a4,a3,0x14
80005a10:	00b377b3          	and	a5,t1,a1
80005a14:	00d37833          	and	a6,t1,a3
80005a18:	01512223          	sw	s5,4(sp)
80005a1c:	0145da93          	srli	s5,a1,0x14
80005a20:	00379793          	slli	a5,a5,0x3
80005a24:	00912a23          	sw	s1,20(sp)
80005a28:	01412423          	sw	s4,8(sp)
80005a2c:	7ffafa93          	andi	s5,s5,2047
80005a30:	01d55a13          	srli	s4,a0,0x1d
80005a34:	01f5d493          	srli	s1,a1,0x1f
80005a38:	00381813          	slli	a6,a6,0x3
80005a3c:	7ff77593          	andi	a1,a4,2047
80005a40:	00112e23          	sw	ra,28(sp)
80005a44:	01d65713          	srli	a4,a2,0x1d
80005a48:	00812c23          	sw	s0,24(sp)
80005a4c:	01212823          	sw	s2,16(sp)
80005a50:	01312623          	sw	s3,12(sp)
80005a54:	01f6d693          	srli	a3,a3,0x1f
80005a58:	00fa6a33          	or	s4,s4,a5
80005a5c:	00060893          	mv	a7,a2
80005a60:	40ba87b3          	sub	a5,s5,a1
80005a64:	01076733          	or	a4,a4,a6
80005a68:	00351e13          	slli	t3,a0,0x3
80005a6c:	00361e93          	slli	t4,a2,0x3
80005a70:	12d48463          	beq	s1,a3,80005b98 <__adddf3+0x198>
80005a74:	04f05863          	blez	a5,80005ac4 <__adddf3+0xc4>
80005a78:	1a059863          	bnez	a1,80005c28 <__adddf3+0x228>
80005a7c:	01d766b3          	or	a3,a4,t4
80005a80:	38068e63          	beqz	a3,80005e1c <__adddf3+0x41c>
80005a84:	fff78693          	addi	a3,a5,-1
80005a88:	78068e63          	beqz	a3,80006224 <__adddf3+0x824>
80005a8c:	7ff00613          	li	a2,2047
80005a90:	46c78c63          	beq	a5,a2,80005f08 <__adddf3+0x508>
80005a94:	03800613          	li	a2,56
80005a98:	6ad65663          	bge	a2,a3,80006144 <__adddf3+0x744>
80005a9c:	fffe0413          	addi	s0,t3,-1
80005aa0:	008e3e33          	sltu	t3,t3,s0
80005aa4:	41ca0a33          	sub	s4,s4,t3
80005aa8:	008a1693          	slli	a3,s4,0x8
80005aac:	00800737          	lui	a4,0x800
80005ab0:	00078a93          	mv	s5,a5
80005ab4:	0406de63          	bgez	a3,80005b10 <__adddf3+0x110>
80005ab8:	fff70a13          	addi	s4,a4,-1 # 7fffff <_entry_offset+0x7fffff>
80005abc:	fff00413          	li	s0,-1
80005ac0:	1980006f          	j	80005c58 <__adddf3+0x258>
80005ac4:	20078263          	beqz	a5,80005cc8 <__adddf3+0x2c8>
80005ac8:	415587b3          	sub	a5,a1,s5
80005acc:	4a0a9863          	bnez	s5,80005f7c <__adddf3+0x57c>
80005ad0:	01ca6633          	or	a2,s4,t3
80005ad4:	6c060e63          	beqz	a2,800061b0 <__adddf3+0x7b0>
80005ad8:	fff78613          	addi	a2,a5,-1
80005adc:	02060ce3          	beqz	a2,80006314 <__adddf3+0x914>
80005ae0:	7ff00513          	li	a0,2047
80005ae4:	7aa78663          	beq	a5,a0,80006290 <__adddf3+0x890>
80005ae8:	03800513          	li	a0,56
80005aec:	10c558e3          	bge	a0,a2,800063fc <__adddf3+0x9fc>
80005af0:	fffe8413          	addi	s0,t4,-1
80005af4:	008ebeb3          	sltu	t4,t4,s0
80005af8:	41d70a33          	sub	s4,a4,t4
80005afc:	008a1613          	slli	a2,s4,0x8
80005b00:	00800737          	lui	a4,0x800
80005b04:	1c0640e3          	bltz	a2,800064c4 <__adddf3+0xac4>
80005b08:	00068493          	mv	s1,a3
80005b0c:	00078a93          	mv	s5,a5
80005b10:	00440793          	addi	a5,s0,4
80005b14:	0087b433          	sltu	s0,a5,s0
80005b18:	008a0a33          	add	s4,s4,s0
80005b1c:	00078413          	mv	s0,a5
80005b20:	008a1793          	slli	a5,s4,0x8
80005b24:	2807d863          	bgez	a5,80005db4 <__adddf3+0x3b4>
80005b28:	001a8793          	addi	a5,s5,1
80005b2c:	7ff00713          	li	a4,2047
80005b30:	00048813          	mv	a6,s1
80005b34:	28e78863          	beq	a5,a4,80005dc4 <__adddf3+0x3c4>
80005b38:	ff800737          	lui	a4,0xff800
80005b3c:	fff70713          	addi	a4,a4,-1 # ff7fffff <_end+0x7f7b5fff>
80005b40:	7ff7f793          	andi	a5,a5,2047
80005b44:	00ea7733          	and	a4,s4,a4
80005b48:	01d71613          	slli	a2,a4,0x1d
80005b4c:	00345413          	srli	s0,s0,0x3
80005b50:	00971713          	slli	a4,a4,0x9
80005b54:	00866633          	or	a2,a2,s0
80005b58:	00c75713          	srli	a4,a4,0xc
80005b5c:	01c12083          	lw	ra,28(sp)
80005b60:	01812403          	lw	s0,24(sp)
80005b64:	01479793          	slli	a5,a5,0x14
80005b68:	00e7e7b3          	or	a5,a5,a4
80005b6c:	01f81713          	slli	a4,a6,0x1f
80005b70:	00e7e7b3          	or	a5,a5,a4
80005b74:	01412483          	lw	s1,20(sp)
80005b78:	01012903          	lw	s2,16(sp)
80005b7c:	00c12983          	lw	s3,12(sp)
80005b80:	00812a03          	lw	s4,8(sp)
80005b84:	00412a83          	lw	s5,4(sp)
80005b88:	00060513          	mv	a0,a2
80005b8c:	00078593          	mv	a1,a5
80005b90:	02010113          	addi	sp,sp,32
80005b94:	00008067          	ret
80005b98:	00048813          	mv	a6,s1
80005b9c:	22f05a63          	blez	a5,80005dd0 <__adddf3+0x3d0>
80005ba0:	1a059063          	bnez	a1,80005d40 <__adddf3+0x340>
80005ba4:	01d766b3          	or	a3,a4,t4
80005ba8:	26068a63          	beqz	a3,80005e1c <__adddf3+0x41c>
80005bac:	fff78693          	addi	a3,a5,-1
80005bb0:	60068a63          	beqz	a3,800061c4 <__adddf3+0x7c4>
80005bb4:	7ff00613          	li	a2,2047
80005bb8:	6ec78c63          	beq	a5,a2,800062b0 <__adddf3+0x8b0>
80005bbc:	03800613          	li	a2,56
80005bc0:	7ad65063          	bge	a2,a3,80006360 <__adddf3+0x960>
80005bc4:	008a1693          	slli	a3,s4,0x8
80005bc8:	00800737          	lui	a4,0x800
80005bcc:	001e0413          	addi	s0,t3,1
80005bd0:	00078a93          	mv	s5,a5
80005bd4:	f206dee3          	bgez	a3,80005b10 <__adddf3+0x110>
80005bd8:	00070a13          	mv	s4,a4
80005bdc:	00000413          	li	s0,0
80005be0:	001a8a93          	addi	s5,s5,1
80005be4:	7ff00793          	li	a5,2047
80005be8:	1cfa8c63          	beq	s5,a5,80005dc0 <__adddf3+0x3c0>
80005bec:	ff8007b7          	lui	a5,0xff800
80005bf0:	fff78793          	addi	a5,a5,-1 # ff7fffff <_end+0x7f7b5fff>
80005bf4:	00fa77b3          	and	a5,s4,a5
80005bf8:	00145713          	srli	a4,s0,0x1
80005bfc:	00147413          	andi	s0,s0,1
80005c00:	01f79693          	slli	a3,a5,0x1f
80005c04:	00876733          	or	a4,a4,s0
80005c08:	0017da13          	srli	s4,a5,0x1
80005c0c:	00e6e433          	or	s0,a3,a4
80005c10:	00747793          	andi	a5,s0,7
80005c14:	f00786e3          	beqz	a5,80005b20 <__adddf3+0x120>
80005c18:	00f47793          	andi	a5,s0,15
80005c1c:	00400713          	li	a4,4
80005c20:	f0e780e3          	beq	a5,a4,80005b20 <__adddf3+0x120>
80005c24:	eedff06f          	j	80005b10 <__adddf3+0x110>
80005c28:	7ff00693          	li	a3,2047
80005c2c:	2cda8e63          	beq	s5,a3,80005f08 <__adddf3+0x508>
80005c30:	03800693          	li	a3,56
80005c34:	22f6d063          	bge	a3,a5,80005e54 <__adddf3+0x454>
80005c38:	fffe0413          	addi	s0,t3,-1
80005c3c:	008e3e33          	sltu	t3,t3,s0
80005c40:	41ca0a33          	sub	s4,s4,t3
80005c44:	008a1713          	slli	a4,s4,0x8
80005c48:	008007b7          	lui	a5,0x800
80005c4c:	ec0752e3          	bgez	a4,80005b10 <__adddf3+0x110>
80005c50:	fff78a13          	addi	s4,a5,-1 # 7fffff <_entry_offset+0x7fffff>
80005c54:	fff00413          	li	s0,-1
80005c58:	000a0513          	mv	a0,s4
80005c5c:	778020ef          	jal	ra,800083d4 <__clzsi2>
80005c60:	ff850793          	addi	a5,a0,-8
80005c64:	02000713          	li	a4,32
80005c68:	40f706b3          	sub	a3,a4,a5
80005c6c:	00d456b3          	srl	a3,s0,a3
80005c70:	00fa1a33          	sll	s4,s4,a5
80005c74:	0146e6b3          	or	a3,a3,s4
80005c78:	00f41433          	sll	s0,s0,a5
80005c7c:	3957ca63          	blt	a5,s5,80006010 <__adddf3+0x610>
80005c80:	415787b3          	sub	a5,a5,s5
80005c84:	00178793          	addi	a5,a5,1
80005c88:	40f70733          	sub	a4,a4,a5
80005c8c:	00e41633          	sll	a2,s0,a4
80005c90:	00c03633          	snez	a2,a2
80005c94:	00f45a33          	srl	s4,s0,a5
80005c98:	00ca6633          	or	a2,s4,a2
80005c9c:	00e69733          	sll	a4,a3,a4
80005ca0:	00c76433          	or	s0,a4,a2
80005ca4:	00f6da33          	srl	s4,a3,a5
80005ca8:	014467b3          	or	a5,s0,s4
80005cac:	00000a93          	li	s5,0
80005cb0:	f60790e3          	bnez	a5,80005c10 <__adddf3+0x210>
80005cb4:	00048813          	mv	a6,s1
80005cb8:	00000793          	li	a5,0
80005cbc:	00000713          	li	a4,0
80005cc0:	00000613          	li	a2,0
80005cc4:	e99ff06f          	j	80005b5c <__adddf3+0x15c>
80005cc8:	001a8793          	addi	a5,s5,1
80005ccc:	7fe7f793          	andi	a5,a5,2046
80005cd0:	30079663          	bnez	a5,80005fdc <__adddf3+0x5dc>
80005cd4:	01ca67b3          	or	a5,s4,t3
80005cd8:	01d76633          	or	a2,a4,t4
80005cdc:	480a9a63          	bnez	s5,80006170 <__adddf3+0x770>
80005ce0:	66078663          	beqz	a5,8000634c <__adddf3+0x94c>
80005ce4:	28060063          	beqz	a2,80005f64 <__adddf3+0x564>
80005ce8:	41de05b3          	sub	a1,t3,t4
80005cec:	00be3633          	sltu	a2,t3,a1
80005cf0:	40ea07b3          	sub	a5,s4,a4
80005cf4:	40c787b3          	sub	a5,a5,a2
80005cf8:	00879613          	slli	a2,a5,0x8
80005cfc:	74065e63          	bgez	a2,80006458 <__adddf3+0xa58>
80005d00:	41ce8e33          	sub	t3,t4,t3
80005d04:	01cebeb3          	sltu	t4,t4,t3
80005d08:	41470733          	sub	a4,a4,s4
80005d0c:	41d70733          	sub	a4,a4,t4
80005d10:	00ee67b3          	or	a5,t3,a4
80005d14:	000e0413          	mv	s0,t3
80005d18:	00068493          	mv	s1,a3
80005d1c:	f8078ce3          	beqz	a5,80005cb4 <__adddf3+0x2b4>
80005d20:	00871793          	slli	a5,a4,0x8
80005d24:	7a07d663          	bgez	a5,800064d0 <__adddf3+0xad0>
80005d28:	ff8007b7          	lui	a5,0xff800
80005d2c:	fff78793          	addi	a5,a5,-1 # ff7fffff <_end+0x7f7b5fff>
80005d30:	00f77733          	and	a4,a4,a5
80005d34:	00068813          	mv	a6,a3
80005d38:	00100793          	li	a5,1
80005d3c:	e0dff06f          	j	80005b48 <__adddf3+0x148>
80005d40:	7ff00693          	li	a3,2047
80005d44:	1cda8263          	beq	s5,a3,80005f08 <__adddf3+0x508>
80005d48:	03800693          	li	a3,56
80005d4c:	34f6ce63          	blt	a3,a5,800060a8 <__adddf3+0x6a8>
80005d50:	008006b7          	lui	a3,0x800
80005d54:	00d76733          	or	a4,a4,a3
80005d58:	01f00693          	li	a3,31
80005d5c:	50f6c463          	blt	a3,a5,80006264 <__adddf3+0x864>
80005d60:	02000613          	li	a2,32
80005d64:	40f60633          	sub	a2,a2,a5
80005d68:	00c716b3          	sll	a3,a4,a2
80005d6c:	00ce9633          	sll	a2,t4,a2
80005d70:	00fedeb3          	srl	t4,t4,a5
80005d74:	00f75733          	srl	a4,a4,a5
80005d78:	00c03633          	snez	a2,a2
80005d7c:	01d6e6b3          	or	a3,a3,t4
80005d80:	00c6e7b3          	or	a5,a3,a2
80005d84:	00ea0a33          	add	s4,s4,a4
80005d88:	01c78e33          	add	t3,a5,t3
80005d8c:	00fe37b3          	sltu	a5,t3,a5
80005d90:	00fa0a33          	add	s4,s4,a5
80005d94:	000e0413          	mv	s0,t3
80005d98:	008a1793          	slli	a5,s4,0x8
80005d9c:	e407c2e3          	bltz	a5,80005be0 <__adddf3+0x1e0>
80005da0:	00747793          	andi	a5,s0,7
80005da4:	74078263          	beqz	a5,800064e8 <__adddf3+0xae8>
80005da8:	00f47793          	andi	a5,s0,15
80005dac:	00400713          	li	a4,4
80005db0:	d6e790e3          	bne	a5,a4,80005b10 <__adddf3+0x110>
80005db4:	000a8793          	mv	a5,s5
80005db8:	00345413          	srli	s0,s0,0x3
80005dbc:	0680006f          	j	80005e24 <__adddf3+0x424>
80005dc0:	000a8793          	mv	a5,s5
80005dc4:	00000713          	li	a4,0
80005dc8:	00000613          	li	a2,0
80005dcc:	d91ff06f          	j	80005b5c <__adddf3+0x15c>
80005dd0:	14078863          	beqz	a5,80005f20 <__adddf3+0x520>
80005dd4:	415587b3          	sub	a5,a1,s5
80005dd8:	2e0a9463          	bnez	s5,800060c0 <__adddf3+0x6c0>
80005ddc:	01ca66b3          	or	a3,s4,t3
80005de0:	5e068e63          	beqz	a3,800063dc <__adddf3+0x9dc>
80005de4:	fff78693          	addi	a3,a5,-1
80005de8:	3c068e63          	beqz	a3,800061c4 <__adddf3+0x7c4>
80005dec:	7ff00613          	li	a2,2047
80005df0:	4cc78c63          	beq	a5,a2,800062c8 <__adddf3+0x8c8>
80005df4:	03800613          	li	a2,56
80005df8:	68d65e63          	bge	a2,a3,80006494 <__adddf3+0xa94>
80005dfc:	00871693          	slli	a3,a4,0x8
80005e00:	00800a37          	lui	s4,0x800
80005e04:	00078a93          	mv	s5,a5
80005e08:	00000413          	li	s0,0
80005e0c:	dc06cae3          	bltz	a3,80005be0 <__adddf3+0x1e0>
80005e10:	001e8413          	addi	s0,t4,1
80005e14:	00070a13          	mv	s4,a4
80005e18:	cf9ff06f          	j	80005b10 <__adddf3+0x110>
80005e1c:	00351413          	slli	s0,a0,0x3
80005e20:	00345413          	srli	s0,s0,0x3
80005e24:	01da1613          	slli	a2,s4,0x1d
80005e28:	7ff00693          	li	a3,2047
80005e2c:	00866633          	or	a2,a2,s0
80005e30:	003a5713          	srli	a4,s4,0x3
80005e34:	0ad79863          	bne	a5,a3,80005ee4 <__adddf3+0x4e4>
80005e38:	00e66633          	or	a2,a2,a4
80005e3c:	0a060e63          	beqz	a2,80005ef8 <__adddf3+0x4f8>
80005e40:	00000813          	li	a6,0
80005e44:	7ff00793          	li	a5,2047
80005e48:	00080737          	lui	a4,0x80
80005e4c:	00000613          	li	a2,0
80005e50:	d0dff06f          	j	80005b5c <__adddf3+0x15c>
80005e54:	008006b7          	lui	a3,0x800
80005e58:	00d76733          	or	a4,a4,a3
80005e5c:	01f00693          	li	a3,31
80005e60:	1cf6c863          	blt	a3,a5,80006030 <__adddf3+0x630>
80005e64:	02000693          	li	a3,32
80005e68:	40f686b3          	sub	a3,a3,a5
80005e6c:	00d71433          	sll	s0,a4,a3
80005e70:	00de96b3          	sll	a3,t4,a3
80005e74:	00fedeb3          	srl	t4,t4,a5
80005e78:	00d036b3          	snez	a3,a3
80005e7c:	01d46433          	or	s0,s0,t4
80005e80:	00f75733          	srl	a4,a4,a5
80005e84:	00d46433          	or	s0,s0,a3
80005e88:	40ea0a33          	sub	s4,s4,a4
80005e8c:	408e0433          	sub	s0,t3,s0
80005e90:	008e3e33          	sltu	t3,t3,s0
80005e94:	41ca0a33          	sub	s4,s4,t3
80005e98:	008a1793          	slli	a5,s4,0x8
80005e9c:	f007d2e3          	bgez	a5,80005da0 <__adddf3+0x3a0>
80005ea0:	009a1a13          	slli	s4,s4,0x9
80005ea4:	009a5a13          	srli	s4,s4,0x9
80005ea8:	da0a18e3          	bnez	s4,80005c58 <__adddf3+0x258>
80005eac:	00040513          	mv	a0,s0
80005eb0:	524020ef          	jal	ra,800083d4 <__clzsi2>
80005eb4:	01850793          	addi	a5,a0,24
80005eb8:	01f00713          	li	a4,31
80005ebc:	daf754e3          	bge	a4,a5,80005c64 <__adddf3+0x264>
80005ec0:	ff850513          	addi	a0,a0,-8
80005ec4:	00a416b3          	sll	a3,s0,a0
80005ec8:	1957da63          	bge	a5,s5,8000605c <__adddf3+0x65c>
80005ecc:	ff800737          	lui	a4,0xff800
80005ed0:	fff70713          	addi	a4,a4,-1 # ff7fffff <_end+0x7f7b5fff>
80005ed4:	00e6f733          	and	a4,a3,a4
80005ed8:	01d71613          	slli	a2,a4,0x1d
80005edc:	40fa87b3          	sub	a5,s5,a5
80005ee0:	00375713          	srli	a4,a4,0x3
80005ee4:	00c71713          	slli	a4,a4,0xc
80005ee8:	00c75713          	srli	a4,a4,0xc
80005eec:	7ff7f793          	andi	a5,a5,2047
80005ef0:	00048813          	mv	a6,s1
80005ef4:	c69ff06f          	j	80005b5c <__adddf3+0x15c>
80005ef8:	00048813          	mv	a6,s1
80005efc:	7ff00793          	li	a5,2047
80005f00:	00000713          	li	a4,0
80005f04:	c59ff06f          	j	80005b5c <__adddf3+0x15c>
80005f08:	00351413          	slli	s0,a0,0x3
80005f0c:	00345513          	srli	a0,s0,0x3
80005f10:	01da1613          	slli	a2,s4,0x1d
80005f14:	00a66633          	or	a2,a2,a0
80005f18:	003a5713          	srli	a4,s4,0x3
80005f1c:	f1dff06f          	j	80005e38 <__adddf3+0x438>
80005f20:	001a8793          	addi	a5,s5,1
80005f24:	7fe7f693          	andi	a3,a5,2046
80005f28:	1c069463          	bnez	a3,800060f0 <__adddf3+0x6f0>
80005f2c:	01ca67b3          	or	a5,s4,t3
80005f30:	4a0a9e63          	bnez	s5,800063ec <__adddf3+0x9ec>
80005f34:	01d766b3          	or	a3,a4,t4
80005f38:	50078463          	beqz	a5,80006440 <__adddf3+0xa40>
80005f3c:	02068463          	beqz	a3,80005f64 <__adddf3+0x564>
80005f40:	01de0eb3          	add	t4,t3,t4
80005f44:	01cebe33          	sltu	t3,t4,t3
80005f48:	00ea0733          	add	a4,s4,a4
80005f4c:	01c70a33          	add	s4,a4,t3
80005f50:	008a1793          	slli	a5,s4,0x8
80005f54:	000e8e13          	mv	t3,t4
80005f58:	5407c263          	bltz	a5,8000649c <__adddf3+0xa9c>
80005f5c:	014ee7b3          	or	a5,t4,s4
80005f60:	d4078ae3          	beqz	a5,80005cb4 <__adddf3+0x2b4>
80005f64:	003e5e13          	srli	t3,t3,0x3
80005f68:	01da1613          	slli	a2,s4,0x1d
80005f6c:	01c66633          	or	a2,a2,t3
80005f70:	003a5713          	srli	a4,s4,0x3
80005f74:	00000793          	li	a5,0
80005f78:	f6dff06f          	j	80005ee4 <__adddf3+0x4e4>
80005f7c:	7ff00613          	li	a2,2047
80005f80:	30c58863          	beq	a1,a2,80006290 <__adddf3+0x890>
80005f84:	03800613          	li	a2,56
80005f88:	1cf64263          	blt	a2,a5,8000614c <__adddf3+0x74c>
80005f8c:	00800637          	lui	a2,0x800
80005f90:	00ca6a33          	or	s4,s4,a2
80005f94:	01f00613          	li	a2,31
80005f98:	34f64463          	blt	a2,a5,800062e0 <__adddf3+0x8e0>
80005f9c:	02000613          	li	a2,32
80005fa0:	40f60633          	sub	a2,a2,a5
80005fa4:	00ca1433          	sll	s0,s4,a2
80005fa8:	00ce1633          	sll	a2,t3,a2
80005fac:	00fe5e33          	srl	t3,t3,a5
80005fb0:	00c03633          	snez	a2,a2
80005fb4:	01c46433          	or	s0,s0,t3
80005fb8:	00fa57b3          	srl	a5,s4,a5
80005fbc:	00c46433          	or	s0,s0,a2
80005fc0:	40f70733          	sub	a4,a4,a5
80005fc4:	408e8433          	sub	s0,t4,s0
80005fc8:	008ebeb3          	sltu	t4,t4,s0
80005fcc:	41d70a33          	sub	s4,a4,t4
80005fd0:	00058a93          	mv	s5,a1
80005fd4:	00068493          	mv	s1,a3
80005fd8:	ec1ff06f          	j	80005e98 <__adddf3+0x498>
80005fdc:	41de0433          	sub	s0,t3,t4
80005fe0:	008e3633          	sltu	a2,t3,s0
80005fe4:	40ea07b3          	sub	a5,s4,a4
80005fe8:	40c787b3          	sub	a5,a5,a2
80005fec:	00879613          	slli	a2,a5,0x8
80005ff0:	1a064263          	bltz	a2,80006194 <__adddf3+0x794>
80005ff4:	00f46633          	or	a2,s0,a5
80005ff8:	00078a13          	mv	s4,a5
80005ffc:	ea0616e3          	bnez	a2,80005ea8 <__adddf3+0x4a8>
80006000:	00000813          	li	a6,0
80006004:	00000793          	li	a5,0
80006008:	00000713          	li	a4,0
8000600c:	b51ff06f          	j	80005b5c <__adddf3+0x15c>
80006010:	ff800a37          	lui	s4,0xff800
80006014:	fffa0a13          	addi	s4,s4,-1 # ff7fffff <_end+0x7f7b5fff>
80006018:	00747713          	andi	a4,s0,7
8000601c:	40fa8ab3          	sub	s5,s5,a5
80006020:	0146fa33          	and	s4,a3,s4
80006024:	d80712e3          	bnez	a4,80005da8 <__adddf3+0x3a8>
80006028:	000a8793          	mv	a5,s5
8000602c:	d8dff06f          	j	80005db8 <__adddf3+0x3b8>
80006030:	fe078693          	addi	a3,a5,-32
80006034:	02000613          	li	a2,32
80006038:	00d756b3          	srl	a3,a4,a3
8000603c:	00c78a63          	beq	a5,a2,80006050 <__adddf3+0x650>
80006040:	04000613          	li	a2,64
80006044:	40f607b3          	sub	a5,a2,a5
80006048:	00f717b3          	sll	a5,a4,a5
8000604c:	00feeeb3          	or	t4,t4,a5
80006050:	01d03433          	snez	s0,t4
80006054:	00d46433          	or	s0,s0,a3
80006058:	e35ff06f          	j	80005e8c <__adddf3+0x48c>
8000605c:	41578433          	sub	s0,a5,s5
80006060:	00140793          	addi	a5,s0,1
80006064:	3cf75663          	bge	a4,a5,80006430 <__adddf3+0xa30>
80006068:	fe140413          	addi	s0,s0,-31
8000606c:	02000713          	li	a4,32
80006070:	0086d433          	srl	s0,a3,s0
80006074:	00e78c63          	beq	a5,a4,8000608c <__adddf3+0x68c>
80006078:	04000713          	li	a4,64
8000607c:	40f707b3          	sub	a5,a4,a5
80006080:	00f697b3          	sll	a5,a3,a5
80006084:	00f037b3          	snez	a5,a5
80006088:	00f46433          	or	s0,s0,a5
8000608c:	c20404e3          	beqz	s0,80005cb4 <__adddf3+0x2b4>
80006090:	00747793          	andi	a5,s0,7
80006094:	00000a93          	li	s5,0
80006098:	b80790e3          	bnez	a5,80005c18 <__adddf3+0x218>
8000609c:	00000a13          	li	s4,0
800060a0:	00345413          	srli	s0,s0,0x3
800060a4:	d81ff06f          	j	80005e24 <__adddf3+0x424>
800060a8:	008a1713          	slli	a4,s4,0x8
800060ac:	008007b7          	lui	a5,0x800
800060b0:	24075e63          	bgez	a4,8000630c <__adddf3+0x90c>
800060b4:	00078a13          	mv	s4,a5
800060b8:	00000413          	li	s0,0
800060bc:	b25ff06f          	j	80005be0 <__adddf3+0x1e0>
800060c0:	7ff00693          	li	a3,2047
800060c4:	20d58263          	beq	a1,a3,800062c8 <__adddf3+0x8c8>
800060c8:	03800693          	li	a3,56
800060cc:	28f6de63          	bge	a3,a5,80006368 <__adddf3+0x968>
800060d0:	00871793          	slli	a5,a4,0x8
800060d4:	00800a37          	lui	s4,0x800
800060d8:	00058a93          	mv	s5,a1
800060dc:	00000413          	li	s0,0
800060e0:	b007c0e3          	bltz	a5,80005be0 <__adddf3+0x1e0>
800060e4:	001e8413          	addi	s0,t4,1
800060e8:	00070a13          	mv	s4,a4
800060ec:	a25ff06f          	j	80005b10 <__adddf3+0x110>
800060f0:	7ff00693          	li	a3,2047
800060f4:	ccd788e3          	beq	a5,a3,80005dc4 <__adddf3+0x3c4>
800060f8:	01de0eb3          	add	t4,t3,t4
800060fc:	01cebe33          	sltu	t3,t4,t3
80006100:	00ea0733          	add	a4,s4,a4
80006104:	01c70733          	add	a4,a4,t3
80006108:	001ede93          	srli	t4,t4,0x1
8000610c:	01f71413          	slli	s0,a4,0x1f
80006110:	007ef693          	andi	a3,t4,7
80006114:	01d46433          	or	s0,s0,t4
80006118:	00175a13          	srli	s4,a4,0x1
8000611c:	3c068c63          	beqz	a3,800064f4 <__adddf3+0xaf4>
80006120:	00f47693          	andi	a3,s0,15
80006124:	00400613          	li	a2,4
80006128:	00078a93          	mv	s5,a5
8000612c:	9ec692e3          	bne	a3,a2,80005b10 <__adddf3+0x110>
80006130:	01da1613          	slli	a2,s4,0x1d
80006134:	00345413          	srli	s0,s0,0x3
80006138:	00866633          	or	a2,a2,s0
8000613c:	00475713          	srli	a4,a4,0x4
80006140:	da5ff06f          	j	80005ee4 <__adddf3+0x4e4>
80006144:	00068793          	mv	a5,a3
80006148:	d15ff06f          	j	80005e5c <__adddf3+0x45c>
8000614c:	fffe8413          	addi	s0,t4,-1
80006150:	008ebeb3          	sltu	t4,t4,s0
80006154:	41d70a33          	sub	s4,a4,t4
80006158:	008a1713          	slli	a4,s4,0x8
8000615c:	008007b7          	lui	a5,0x800
80006160:	24074c63          	bltz	a4,800063b8 <__adddf3+0x9b8>
80006164:	00068493          	mv	s1,a3
80006168:	00058a93          	mv	s5,a1
8000616c:	9a5ff06f          	j	80005b10 <__adddf3+0x110>
80006170:	12079e63          	bnez	a5,800062ac <__adddf3+0x8ac>
80006174:	30060863          	beqz	a2,80006484 <__adddf3+0xa84>
80006178:	00389613          	slli	a2,a7,0x3
8000617c:	01d71793          	slli	a5,a4,0x1d
80006180:	00365613          	srli	a2,a2,0x3
80006184:	00068493          	mv	s1,a3
80006188:	00f66633          	or	a2,a2,a5
8000618c:	00375713          	srli	a4,a4,0x3
80006190:	ca9ff06f          	j	80005e38 <__adddf3+0x438>
80006194:	41ce8e33          	sub	t3,t4,t3
80006198:	01cebeb3          	sltu	t4,t4,t3
8000619c:	41470733          	sub	a4,a4,s4
800061a0:	000e0413          	mv	s0,t3
800061a4:	41d70a33          	sub	s4,a4,t4
800061a8:	00068493          	mv	s1,a3
800061ac:	cfdff06f          	j	80005ea8 <__adddf3+0x4a8>
800061b0:	00389613          	slli	a2,a7,0x3
800061b4:	00365413          	srli	s0,a2,0x3
800061b8:	00068493          	mv	s1,a3
800061bc:	00070a13          	mv	s4,a4
800061c0:	c65ff06f          	j	80005e24 <__adddf3+0x424>
800061c4:	01de0eb3          	add	t4,t3,t4
800061c8:	01cebe33          	sltu	t3,t4,t3
800061cc:	00ea0733          	add	a4,s4,a4
800061d0:	01c70733          	add	a4,a4,t3
800061d4:	00871793          	slli	a5,a4,0x8
800061d8:	1e07d663          	bgez	a5,800063c4 <__adddf3+0x9c4>
800061dc:	ff8007b7          	lui	a5,0xff800
800061e0:	fff78793          	addi	a5,a5,-1 # ff7fffff <_end+0x7f7b5fff>
800061e4:	001ed693          	srli	a3,t4,0x1
800061e8:	00f77733          	and	a4,a4,a5
800061ec:	01f71793          	slli	a5,a4,0x1f
800061f0:	0076f593          	andi	a1,a3,7
800061f4:	00d7e7b3          	or	a5,a5,a3
800061f8:	00175613          	srli	a2,a4,0x1
800061fc:	26058863          	beqz	a1,8000646c <__adddf3+0xa6c>
80006200:	00f7f693          	andi	a3,a5,15
80006204:	00400593          	li	a1,4
80006208:	26b68263          	beq	a3,a1,8000646c <__adddf3+0xa6c>
8000620c:	00b78433          	add	s0,a5,a1
80006210:	00f437b3          	sltu	a5,s0,a5
80006214:	00c78a33          	add	s4,a5,a2
80006218:	00345413          	srli	s0,s0,0x3
8000621c:	00200793          	li	a5,2
80006220:	c05ff06f          	j	80005e24 <__adddf3+0x424>
80006224:	41de0eb3          	sub	t4,t3,t4
80006228:	01de3e33          	sltu	t3,t3,t4
8000622c:	40ea0733          	sub	a4,s4,a4
80006230:	41c70a33          	sub	s4,a4,t3
80006234:	008a1793          	slli	a5,s4,0x8
80006238:	000e8413          	mv	s0,t4
8000623c:	0207c063          	bltz	a5,8000625c <__adddf3+0x85c>
80006240:	003ede93          	srli	t4,t4,0x3
80006244:	01da1613          	slli	a2,s4,0x1d
80006248:	01d66633          	or	a2,a2,t4
8000624c:	003a5713          	srli	a4,s4,0x3
80006250:	00100793          	li	a5,1
80006254:	c91ff06f          	j	80005ee4 <__adddf3+0x4e4>
80006258:	00068493          	mv	s1,a3
8000625c:	00100a93          	li	s5,1
80006260:	c41ff06f          	j	80005ea0 <__adddf3+0x4a0>
80006264:	fe078693          	addi	a3,a5,-32
80006268:	02000613          	li	a2,32
8000626c:	00d756b3          	srl	a3,a4,a3
80006270:	00c78a63          	beq	a5,a2,80006284 <__adddf3+0x884>
80006274:	04000613          	li	a2,64
80006278:	40f607b3          	sub	a5,a2,a5
8000627c:	00f717b3          	sll	a5,a4,a5
80006280:	00feeeb3          	or	t4,t4,a5
80006284:	01d037b3          	snez	a5,t4
80006288:	00d7e7b3          	or	a5,a5,a3
8000628c:	afdff06f          	j	80005d88 <__adddf3+0x388>
80006290:	00389793          	slli	a5,a7,0x3
80006294:	01d71613          	slli	a2,a4,0x1d
80006298:	0037d793          	srli	a5,a5,0x3
8000629c:	00068493          	mv	s1,a3
800062a0:	00f66633          	or	a2,a2,a5
800062a4:	00375713          	srli	a4,a4,0x3
800062a8:	b91ff06f          	j	80005e38 <__adddf3+0x438>
800062ac:	b8061ae3          	bnez	a2,80005e40 <__adddf3+0x440>
800062b0:	00351413          	slli	s0,a0,0x3
800062b4:	00345793          	srli	a5,s0,0x3
800062b8:	01da1613          	slli	a2,s4,0x1d
800062bc:	00c7e633          	or	a2,a5,a2
800062c0:	003a5713          	srli	a4,s4,0x3
800062c4:	b75ff06f          	j	80005e38 <__adddf3+0x438>
800062c8:	00389793          	slli	a5,a7,0x3
800062cc:	01d71613          	slli	a2,a4,0x1d
800062d0:	0037d793          	srli	a5,a5,0x3
800062d4:	00f66633          	or	a2,a2,a5
800062d8:	00375713          	srli	a4,a4,0x3
800062dc:	b5dff06f          	j	80005e38 <__adddf3+0x438>
800062e0:	fe078613          	addi	a2,a5,-32
800062e4:	02000513          	li	a0,32
800062e8:	00ca5633          	srl	a2,s4,a2
800062ec:	00a78a63          	beq	a5,a0,80006300 <__adddf3+0x900>
800062f0:	04000513          	li	a0,64
800062f4:	40f507b3          	sub	a5,a0,a5
800062f8:	00fa17b3          	sll	a5,s4,a5
800062fc:	00fe6e33          	or	t3,t3,a5
80006300:	01c03433          	snez	s0,t3
80006304:	00c46433          	or	s0,s0,a2
80006308:	cbdff06f          	j	80005fc4 <__adddf3+0x5c4>
8000630c:	001e0413          	addi	s0,t3,1
80006310:	801ff06f          	j	80005b10 <__adddf3+0x110>
80006314:	41ce8e33          	sub	t3,t4,t3
80006318:	01cebeb3          	sltu	t4,t4,t3
8000631c:	41470733          	sub	a4,a4,s4
80006320:	41d70a33          	sub	s4,a4,t4
80006324:	008a1793          	slli	a5,s4,0x8
80006328:	000e0413          	mv	s0,t3
8000632c:	f207c6e3          	bltz	a5,80006258 <__adddf3+0x858>
80006330:	003e5e13          	srli	t3,t3,0x3
80006334:	01da1613          	slli	a2,s4,0x1d
80006338:	00068493          	mv	s1,a3
8000633c:	01c66633          	or	a2,a2,t3
80006340:	003a5713          	srli	a4,s4,0x3
80006344:	00100793          	li	a5,1
80006348:	b9dff06f          	j	80005ee4 <__adddf3+0x4e4>
8000634c:	ca060ae3          	beqz	a2,80006000 <__adddf3+0x600>
80006350:	00070a13          	mv	s4,a4
80006354:	000e8e13          	mv	t3,t4
80006358:	00068493          	mv	s1,a3
8000635c:	c09ff06f          	j	80005f64 <__adddf3+0x564>
80006360:	00068793          	mv	a5,a3
80006364:	9f5ff06f          	j	80005d58 <__adddf3+0x358>
80006368:	008006b7          	lui	a3,0x800
8000636c:	00da6a33          	or	s4,s4,a3
80006370:	01f00693          	li	a3,31
80006374:	08f6c863          	blt	a3,a5,80006404 <__adddf3+0xa04>
80006378:	02000613          	li	a2,32
8000637c:	40f60633          	sub	a2,a2,a5
80006380:	00ca16b3          	sll	a3,s4,a2
80006384:	00ce1633          	sll	a2,t3,a2
80006388:	00fe5e33          	srl	t3,t3,a5
8000638c:	00c03633          	snez	a2,a2
80006390:	01c6e6b3          	or	a3,a3,t3
80006394:	00fa57b3          	srl	a5,s4,a5
80006398:	00c6e6b3          	or	a3,a3,a2
8000639c:	00f70733          	add	a4,a4,a5
800063a0:	01d68eb3          	add	t4,a3,t4
800063a4:	00deb6b3          	sltu	a3,t4,a3
800063a8:	00e68a33          	add	s4,a3,a4
800063ac:	000e8413          	mv	s0,t4
800063b0:	00058a93          	mv	s5,a1
800063b4:	9e5ff06f          	j	80005d98 <__adddf3+0x398>
800063b8:	00058a93          	mv	s5,a1
800063bc:	00068493          	mv	s1,a3
800063c0:	891ff06f          	j	80005c50 <__adddf3+0x250>
800063c4:	01d71613          	slli	a2,a4,0x1d
800063c8:	003ede93          	srli	t4,t4,0x3
800063cc:	01d66633          	or	a2,a2,t4
800063d0:	00375713          	srli	a4,a4,0x3
800063d4:	00100793          	li	a5,1
800063d8:	b0dff06f          	j	80005ee4 <__adddf3+0x4e4>
800063dc:	00361613          	slli	a2,a2,0x3
800063e0:	00365413          	srli	s0,a2,0x3
800063e4:	00070a13          	mv	s4,a4
800063e8:	a3dff06f          	j	80005e24 <__adddf3+0x424>
800063ec:	ec078ee3          	beqz	a5,800062c8 <__adddf3+0x8c8>
800063f0:	01d76eb3          	or	t4,a4,t4
800063f4:	a40e96e3          	bnez	t4,80005e40 <__adddf3+0x440>
800063f8:	eb9ff06f          	j	800062b0 <__adddf3+0x8b0>
800063fc:	00060793          	mv	a5,a2
80006400:	b95ff06f          	j	80005f94 <__adddf3+0x594>
80006404:	fe078613          	addi	a2,a5,-32
80006408:	02000693          	li	a3,32
8000640c:	00ca5633          	srl	a2,s4,a2
80006410:	00d78a63          	beq	a5,a3,80006424 <__adddf3+0xa24>
80006414:	04000693          	li	a3,64
80006418:	40f687b3          	sub	a5,a3,a5
8000641c:	00fa17b3          	sll	a5,s4,a5
80006420:	00fe6e33          	or	t3,t3,a5
80006424:	01c036b3          	snez	a3,t3
80006428:	00c6e6b3          	or	a3,a3,a2
8000642c:	f75ff06f          	j	800063a0 <__adddf3+0x9a0>
80006430:	02000713          	li	a4,32
80006434:	40f70733          	sub	a4,a4,a5
80006438:	00000613          	li	a2,0
8000643c:	85dff06f          	j	80005c98 <__adddf3+0x298>
80006440:	86068ae3          	beqz	a3,80005cb4 <__adddf3+0x2b4>
80006444:	000e8413          	mv	s0,t4
80006448:	00070a13          	mv	s4,a4
8000644c:	00000793          	li	a5,0
80006450:	00345413          	srli	s0,s0,0x3
80006454:	9d1ff06f          	j	80005e24 <__adddf3+0x424>
80006458:	00f5e633          	or	a2,a1,a5
8000645c:	ba0602e3          	beqz	a2,80006000 <__adddf3+0x600>
80006460:	00078a13          	mv	s4,a5
80006464:	00058e13          	mv	t3,a1
80006468:	afdff06f          	j	80005f64 <__adddf3+0x564>
8000646c:	0037d793          	srli	a5,a5,0x3
80006470:	01d61613          	slli	a2,a2,0x1d
80006474:	00f66633          	or	a2,a2,a5
80006478:	00475713          	srli	a4,a4,0x4
8000647c:	00200793          	li	a5,2
80006480:	a65ff06f          	j	80005ee4 <__adddf3+0x4e4>
80006484:	00000813          	li	a6,0
80006488:	7ff00793          	li	a5,2047
8000648c:	00080737          	lui	a4,0x80
80006490:	eccff06f          	j	80005b5c <__adddf3+0x15c>
80006494:	00068793          	mv	a5,a3
80006498:	ed9ff06f          	j	80006370 <__adddf3+0x970>
8000649c:	ff800737          	lui	a4,0xff800
800064a0:	fff70713          	addi	a4,a4,-1 # ff7fffff <_end+0x7f7b5fff>
800064a4:	00ea7733          	and	a4,s4,a4
800064a8:	01d71613          	slli	a2,a4,0x1d
800064ac:	003ede93          	srli	t4,t4,0x3
800064b0:	00375713          	srli	a4,a4,0x3
800064b4:	01d66633          	or	a2,a2,t4
800064b8:	00677733          	and	a4,a4,t1
800064bc:	00100793          	li	a5,1
800064c0:	e9cff06f          	j	80005b5c <__adddf3+0x15c>
800064c4:	00078a93          	mv	s5,a5
800064c8:	00068493          	mv	s1,a3
800064cc:	decff06f          	j	80005ab8 <__adddf3+0xb8>
800064d0:	01d71613          	slli	a2,a4,0x1d
800064d4:	003e5e13          	srli	t3,t3,0x3
800064d8:	00ce6633          	or	a2,t3,a2
800064dc:	00375713          	srli	a4,a4,0x3
800064e0:	00000793          	li	a5,0
800064e4:	a01ff06f          	j	80005ee4 <__adddf3+0x4e4>
800064e8:	00345413          	srli	s0,s0,0x3
800064ec:	000a8793          	mv	a5,s5
800064f0:	935ff06f          	j	80005e24 <__adddf3+0x424>
800064f4:	00345413          	srli	s0,s0,0x3
800064f8:	01da1613          	slli	a2,s4,0x1d
800064fc:	00c46633          	or	a2,s0,a2
80006500:	00475713          	srli	a4,a4,0x4
80006504:	9e1ff06f          	j	80005ee4 <__adddf3+0x4e4>

80006508 <__divdf3>:
80006508:	fd010113          	addi	sp,sp,-48
8000650c:	0145d793          	srli	a5,a1,0x14
80006510:	02812423          	sw	s0,40(sp)
80006514:	02912223          	sw	s1,36(sp)
80006518:	01412c23          	sw	s4,24(sp)
8000651c:	01612823          	sw	s6,16(sp)
80006520:	01912223          	sw	s9,4(sp)
80006524:	00c59493          	slli	s1,a1,0xc
80006528:	02112623          	sw	ra,44(sp)
8000652c:	03212023          	sw	s2,32(sp)
80006530:	01312e23          	sw	s3,28(sp)
80006534:	01512a23          	sw	s5,20(sp)
80006538:	01712623          	sw	s7,12(sp)
8000653c:	01812423          	sw	s8,8(sp)
80006540:	01a12023          	sw	s10,0(sp)
80006544:	7ff7f793          	andi	a5,a5,2047
80006548:	00050413          	mv	s0,a0
8000654c:	00060c93          	mv	s9,a2
80006550:	00068a13          	mv	s4,a3
80006554:	00c4d493          	srli	s1,s1,0xc
80006558:	01f5db13          	srli	s6,a1,0x1f
8000655c:	20078063          	beqz	a5,8000675c <__divdf3+0x254>
80006560:	7ff00713          	li	a4,2047
80006564:	0ae78263          	beq	a5,a4,80006608 <__divdf3+0x100>
80006568:	00349493          	slli	s1,s1,0x3
8000656c:	01d55a93          	srli	s5,a0,0x1d
80006570:	009aeab3          	or	s5,s5,s1
80006574:	00800737          	lui	a4,0x800
80006578:	c0178b93          	addi	s7,a5,-1023
8000657c:	00351c13          	slli	s8,a0,0x3
80006580:	00eaeab3          	or	s5,s5,a4
80006584:	00300693          	li	a3,3
80006588:	00100713          	li	a4,1
8000658c:	00200613          	li	a2,2
80006590:	00000493          	li	s1,0
80006594:	00000d13          	li	s10,0
80006598:	014a5793          	srli	a5,s4,0x14
8000659c:	00ca1413          	slli	s0,s4,0xc
800065a0:	7ff7f793          	andi	a5,a5,2047
800065a4:	00c45413          	srli	s0,s0,0xc
800065a8:	01fa5a13          	srli	s4,s4,0x1f
800065ac:	08078c63          	beqz	a5,80006644 <__divdf3+0x13c>
800065b0:	7ff00713          	li	a4,2047
800065b4:	18e78663          	beq	a5,a4,80006740 <__divdf3+0x238>
800065b8:	00341413          	slli	s0,s0,0x3
800065bc:	01dcd713          	srli	a4,s9,0x1d
800065c0:	c0178793          	addi	a5,a5,-1023
800065c4:	00876733          	or	a4,a4,s0
800065c8:	00800437          	lui	s0,0x800
800065cc:	40fb8bb3          	sub	s7,s7,a5
800065d0:	00876433          	or	s0,a4,s0
800065d4:	003c9793          	slli	a5,s9,0x3
800065d8:	00000593          	li	a1,0
800065dc:	014b4633          	xor	a2,s6,s4
800065e0:	00f00713          	li	a4,15
800065e4:	0ff67613          	andi	a2,a2,255
800065e8:	20976e63          	bltu	a4,s1,80006804 <__divdf3+0x2fc>
800065ec:	00002697          	auipc	a3,0x2
800065f0:	57c68693          	addi	a3,a3,1404 # 80008b68 <intpat+0x1bc>
800065f4:	00249493          	slli	s1,s1,0x2
800065f8:	00d484b3          	add	s1,s1,a3
800065fc:	0004a703          	lw	a4,0(s1)
80006600:	00d70733          	add	a4,a4,a3
80006604:	00070067          	jr	a4 # 800000 <_entry_offset+0x800000>
80006608:	00a4eab3          	or	s5,s1,a0
8000660c:	1c0a9263          	bnez	s5,800067d0 <__divdf3+0x2c8>
80006610:	00078b93          	mv	s7,a5
80006614:	014a5793          	srli	a5,s4,0x14
80006618:	00ca1413          	slli	s0,s4,0xc
8000661c:	7ff7f793          	andi	a5,a5,2047
80006620:	00000c13          	li	s8,0
80006624:	00b00693          	li	a3,11
80006628:	00900713          	li	a4,9
8000662c:	00a00613          	li	a2,10
80006630:	00800493          	li	s1,8
80006634:	00200d13          	li	s10,2
80006638:	00c45413          	srli	s0,s0,0xc
8000663c:	01fa5a13          	srli	s4,s4,0x1f
80006640:	f60798e3          	bnez	a5,800065b0 <__divdf3+0xa8>
80006644:	019467b3          	or	a5,s0,s9
80006648:	16078c63          	beqz	a5,800067c0 <__divdf3+0x2b8>
8000664c:	46040e63          	beqz	s0,80006ac8 <__divdf3+0x5c0>
80006650:	00040513          	mv	a0,s0
80006654:	581010ef          	jal	ra,800083d4 <__clzsi2>
80006658:	00050713          	mv	a4,a0
8000665c:	ff550793          	addi	a5,a0,-11
80006660:	01d00693          	li	a3,29
80006664:	40f686b3          	sub	a3,a3,a5
80006668:	ff870793          	addi	a5,a4,-8
8000666c:	00f41433          	sll	s0,s0,a5
80006670:	00dcd6b3          	srl	a3,s9,a3
80006674:	0086e433          	or	s0,a3,s0
80006678:	00fc97b3          	sll	a5,s9,a5
8000667c:	01770733          	add	a4,a4,s7
80006680:	3f370b93          	addi	s7,a4,1011
80006684:	00000593          	li	a1,0
80006688:	f55ff06f          	j	800065dc <__divdf3+0xd4>
8000668c:	000a0613          	mv	a2,s4
80006690:	7ff00793          	li	a5,2047
80006694:	00000693          	li	a3,0
80006698:	00000713          	li	a4,0
8000669c:	02c12083          	lw	ra,44(sp)
800066a0:	02812403          	lw	s0,40(sp)
800066a4:	01479793          	slli	a5,a5,0x14
800066a8:	00d7e7b3          	or	a5,a5,a3
800066ac:	01f61613          	slli	a2,a2,0x1f
800066b0:	00c7e7b3          	or	a5,a5,a2
800066b4:	02412483          	lw	s1,36(sp)
800066b8:	02012903          	lw	s2,32(sp)
800066bc:	01c12983          	lw	s3,28(sp)
800066c0:	01812a03          	lw	s4,24(sp)
800066c4:	01412a83          	lw	s5,20(sp)
800066c8:	01012b03          	lw	s6,16(sp)
800066cc:	00c12b83          	lw	s7,12(sp)
800066d0:	00812c03          	lw	s8,8(sp)
800066d4:	00412c83          	lw	s9,4(sp)
800066d8:	00012d03          	lw	s10,0(sp)
800066dc:	00070513          	mv	a0,a4
800066e0:	00078593          	mv	a1,a5
800066e4:	03010113          	addi	sp,sp,48
800066e8:	00008067          	ret
800066ec:	000b0a13          	mv	s4,s6
800066f0:	000a8413          	mv	s0,s5
800066f4:	000c0793          	mv	a5,s8
800066f8:	000d0593          	mv	a1,s10
800066fc:	00200713          	li	a4,2
80006700:	f8e586e3          	beq	a1,a4,8000668c <__divdf3+0x184>
80006704:	00300713          	li	a4,3
80006708:	02e58263          	beq	a1,a4,8000672c <__divdf3+0x224>
8000670c:	00100713          	li	a4,1
80006710:	3ffb8f93          	addi	t6,s7,1023
80006714:	36e59263          	bne	a1,a4,80006a78 <__divdf3+0x570>
80006718:	000a0613          	mv	a2,s4
8000671c:	00000793          	li	a5,0
80006720:	00000693          	li	a3,0
80006724:	00000713          	li	a4,0
80006728:	f75ff06f          	j	8000669c <__divdf3+0x194>
8000672c:	00000613          	li	a2,0
80006730:	7ff00793          	li	a5,2047
80006734:	000806b7          	lui	a3,0x80
80006738:	00000713          	li	a4,0
8000673c:	f61ff06f          	j	8000669c <__divdf3+0x194>
80006740:	019467b3          	or	a5,s0,s9
80006744:	801b8b93          	addi	s7,s7,-2047
80006748:	0a079663          	bnez	a5,800067f4 <__divdf3+0x2ec>
8000674c:	00060493          	mv	s1,a2
80006750:	00000413          	li	s0,0
80006754:	00200593          	li	a1,2
80006758:	e85ff06f          	j	800065dc <__divdf3+0xd4>
8000675c:	00a4eab3          	or	s5,s1,a0
80006760:	040a8063          	beqz	s5,800067a0 <__divdf3+0x298>
80006764:	38048663          	beqz	s1,80006af0 <__divdf3+0x5e8>
80006768:	00048513          	mv	a0,s1
8000676c:	469010ef          	jal	ra,800083d4 <__clzsi2>
80006770:	00050713          	mv	a4,a0
80006774:	ff550793          	addi	a5,a0,-11
80006778:	01d00a93          	li	s5,29
8000677c:	ff870c13          	addi	s8,a4,-8
80006780:	40fa8ab3          	sub	s5,s5,a5
80006784:	018494b3          	sll	s1,s1,s8
80006788:	01545ab3          	srl	s5,s0,s5
8000678c:	009aeab3          	or	s5,s5,s1
80006790:	01841c33          	sll	s8,s0,s8
80006794:	c0d00793          	li	a5,-1011
80006798:	40e78bb3          	sub	s7,a5,a4
8000679c:	de9ff06f          	j	80006584 <__divdf3+0x7c>
800067a0:	00000c13          	li	s8,0
800067a4:	00700693          	li	a3,7
800067a8:	00500713          	li	a4,5
800067ac:	00600613          	li	a2,6
800067b0:	00400493          	li	s1,4
800067b4:	00000b93          	li	s7,0
800067b8:	00100d13          	li	s10,1
800067bc:	dddff06f          	j	80006598 <__divdf3+0x90>
800067c0:	00070493          	mv	s1,a4
800067c4:	00000413          	li	s0,0
800067c8:	00100593          	li	a1,1
800067cc:	e11ff06f          	j	800065dc <__divdf3+0xd4>
800067d0:	00048a93          	mv	s5,s1
800067d4:	00050c13          	mv	s8,a0
800067d8:	00078b93          	mv	s7,a5
800067dc:	00f00693          	li	a3,15
800067e0:	00d00713          	li	a4,13
800067e4:	00e00613          	li	a2,14
800067e8:	00c00493          	li	s1,12
800067ec:	00300d13          	li	s10,3
800067f0:	da9ff06f          	j	80006598 <__divdf3+0x90>
800067f4:	00068493          	mv	s1,a3
800067f8:	000c8793          	mv	a5,s9
800067fc:	00300593          	li	a1,3
80006800:	dddff06f          	j	800065dc <__divdf3+0xd4>
80006804:	25546a63          	bltu	s0,s5,80006a58 <__divdf3+0x550>
80006808:	248a8663          	beq	s5,s0,80006a54 <__divdf3+0x54c>
8000680c:	000c0693          	mv	a3,s8
80006810:	fffb8b93          	addi	s7,s7,-1
80006814:	00000c13          	li	s8,0
80006818:	00841713          	slli	a4,s0,0x8
8000681c:	01075313          	srli	t1,a4,0x10
80006820:	026ad433          	divu	s0,s5,t1
80006824:	0187d593          	srli	a1,a5,0x18
80006828:	00e5e5b3          	or	a1,a1,a4
8000682c:	01059893          	slli	a7,a1,0x10
80006830:	0108d893          	srli	a7,a7,0x10
80006834:	0106d713          	srli	a4,a3,0x10
80006838:	00879813          	slli	a6,a5,0x8
8000683c:	026afab3          	remu	s5,s5,t1
80006840:	02888533          	mul	a0,a7,s0
80006844:	010a9a93          	slli	s5,s5,0x10
80006848:	015767b3          	or	a5,a4,s5
8000684c:	00a7fa63          	bgeu	a5,a0,80006860 <__divdf3+0x358>
80006850:	00f587b3          	add	a5,a1,a5
80006854:	fff40713          	addi	a4,s0,-1 # 7fffff <_entry_offset+0x7fffff>
80006858:	34b7f263          	bgeu	a5,a1,80006b9c <__divdf3+0x694>
8000685c:	00070413          	mv	s0,a4
80006860:	40a787b3          	sub	a5,a5,a0
80006864:	0267d733          	divu	a4,a5,t1
80006868:	01069693          	slli	a3,a3,0x10
8000686c:	0106d693          	srli	a3,a3,0x10
80006870:	0267f7b3          	remu	a5,a5,t1
80006874:	02e88fb3          	mul	t6,a7,a4
80006878:	01079793          	slli	a5,a5,0x10
8000687c:	00f6e6b3          	or	a3,a3,a5
80006880:	01f6fa63          	bgeu	a3,t6,80006894 <__divdf3+0x38c>
80006884:	00d586b3          	add	a3,a1,a3
80006888:	fff70793          	addi	a5,a4,-1
8000688c:	30b6f063          	bgeu	a3,a1,80006b8c <__divdf3+0x684>
80006890:	00078713          	mv	a4,a5
80006894:	01041413          	slli	s0,s0,0x10
80006898:	00e46433          	or	s0,s0,a4
8000689c:	01041793          	slli	a5,s0,0x10
800068a0:	01081e13          	slli	t3,a6,0x10
800068a4:	0107d793          	srli	a5,a5,0x10
800068a8:	010e5e13          	srli	t3,t3,0x10
800068ac:	01085e93          	srli	t4,a6,0x10
800068b0:	01045513          	srli	a0,s0,0x10
800068b4:	02fe8733          	mul	a4,t4,a5
800068b8:	41f686b3          	sub	a3,a3,t6
800068bc:	03c78f33          	mul	t5,a5,t3
800068c0:	03c50fb3          	mul	t6,a0,t3
800068c4:	010f5793          	srli	a5,t5,0x10
800068c8:	01f70733          	add	a4,a4,t6
800068cc:	00e787b3          	add	a5,a5,a4
800068d0:	03d50533          	mul	a0,a0,t4
800068d4:	01f7f663          	bgeu	a5,t6,800068e0 <__divdf3+0x3d8>
800068d8:	00010737          	lui	a4,0x10
800068dc:	00e50533          	add	a0,a0,a4
800068e0:	010f1f93          	slli	t6,t5,0x10
800068e4:	0107d713          	srli	a4,a5,0x10
800068e8:	01079f13          	slli	t5,a5,0x10
800068ec:	010fdf93          	srli	t6,t6,0x10
800068f0:	00a707b3          	add	a5,a4,a0
800068f4:	01ff0f33          	add	t5,t5,t6
800068f8:	10f6ec63          	bltu	a3,a5,80006a10 <__divdf3+0x508>
800068fc:	10f68863          	beq	a3,a5,80006a0c <__divdf3+0x504>
80006900:	41ec0f33          	sub	t5,s8,t5
80006904:	01ec3c33          	sltu	s8,s8,t5
80006908:	40f686b3          	sub	a3,a3,a5
8000690c:	3ffb8f93          	addi	t6,s7,1023
80006910:	418686b3          	sub	a3,a3,s8
80006914:	000f8713          	mv	a4,t6
80006918:	20d58e63          	beq	a1,a3,80006b34 <__divdf3+0x62c>
8000691c:	0266d7b3          	divu	a5,a3,t1
80006920:	010f5513          	srli	a0,t5,0x10
80006924:	0266f6b3          	remu	a3,a3,t1
80006928:	02f882b3          	mul	t0,a7,a5
8000692c:	01069693          	slli	a3,a3,0x10
80006930:	00d566b3          	or	a3,a0,a3
80006934:	0056fe63          	bgeu	a3,t0,80006950 <__divdf3+0x448>
80006938:	00d586b3          	add	a3,a1,a3
8000693c:	fff78513          	addi	a0,a5,-1
80006940:	28b6e863          	bltu	a3,a1,80006bd0 <__divdf3+0x6c8>
80006944:	2856f663          	bgeu	a3,t0,80006bd0 <__divdf3+0x6c8>
80006948:	ffe78793          	addi	a5,a5,-2
8000694c:	00b686b3          	add	a3,a3,a1
80006950:	405686b3          	sub	a3,a3,t0
80006954:	0266d533          	divu	a0,a3,t1
80006958:	010f1f13          	slli	t5,t5,0x10
8000695c:	010f5f13          	srli	t5,t5,0x10
80006960:	0266f6b3          	remu	a3,a3,t1
80006964:	02a888b3          	mul	a7,a7,a0
80006968:	01069693          	slli	a3,a3,0x10
8000696c:	00df6f33          	or	t5,t5,a3
80006970:	011f7e63          	bgeu	t5,a7,8000698c <__divdf3+0x484>
80006974:	01e58f33          	add	t5,a1,t5
80006978:	fff50693          	addi	a3,a0,-1
8000697c:	24bf6e63          	bltu	t5,a1,80006bd8 <__divdf3+0x6d0>
80006980:	251f7c63          	bgeu	t5,a7,80006bd8 <__divdf3+0x6d0>
80006984:	ffe50513          	addi	a0,a0,-2
80006988:	00bf0f33          	add	t5,t5,a1
8000698c:	01079793          	slli	a5,a5,0x10
80006990:	00a7e7b3          	or	a5,a5,a0
80006994:	01079693          	slli	a3,a5,0x10
80006998:	0106d693          	srli	a3,a3,0x10
8000699c:	0107d293          	srli	t0,a5,0x10
800069a0:	02de8533          	mul	a0,t4,a3
800069a4:	411f0f33          	sub	t5,t5,a7
800069a8:	03c28333          	mul	t1,t0,t3
800069ac:	02de0e33          	mul	t3,t3,a3
800069b0:	00650533          	add	a0,a0,t1
800069b4:	010e5693          	srli	a3,t3,0x10
800069b8:	00a686b3          	add	a3,a3,a0
800069bc:	025e8eb3          	mul	t4,t4,t0
800069c0:	0066f663          	bgeu	a3,t1,800069cc <__divdf3+0x4c4>
800069c4:	00010537          	lui	a0,0x10
800069c8:	00ae8eb3          	add	t4,t4,a0
800069cc:	0106d513          	srli	a0,a3,0x10
800069d0:	010e1e13          	slli	t3,t3,0x10
800069d4:	010e5e13          	srli	t3,t3,0x10
800069d8:	01069693          	slli	a3,a3,0x10
800069dc:	01d50533          	add	a0,a0,t4
800069e0:	01c686b3          	add	a3,a3,t3
800069e4:	12af6863          	bltu	t5,a0,80006b14 <__divdf3+0x60c>
800069e8:	08af0463          	beq	t5,a0,80006a70 <__divdf3+0x568>
800069ec:	c0200693          	li	a3,-1022
800069f0:	0017e793          	ori	a5,a5,1
800069f4:	20dbc663          	blt	s7,a3,80006c00 <__divdf3+0x6f8>
800069f8:	00478513          	addi	a0,a5,4
800069fc:	00f537b3          	sltu	a5,a0,a5
80006a00:	00355513          	srli	a0,a0,0x3
80006a04:	00f40433          	add	s0,s0,a5
80006a08:	0880006f          	j	80006a90 <__divdf3+0x588>
80006a0c:	efec7ae3          	bgeu	s8,t5,80006900 <__divdf3+0x3f8>
80006a10:	010c0733          	add	a4,s8,a6
80006a14:	01873533          	sltu	a0,a4,s8
80006a18:	00b50fb3          	add	t6,a0,a1
80006a1c:	01f686b3          	add	a3,a3,t6
80006a20:	00070c13          	mv	s8,a4
80006a24:	fff40f93          	addi	t6,s0,-1
80006a28:	14d5fc63          	bgeu	a1,a3,80006b80 <__divdf3+0x678>
80006a2c:	00f6e663          	bltu	a3,a5,80006a38 <__divdf3+0x530>
80006a30:	14d79a63          	bne	a5,a3,80006b84 <__divdf3+0x67c>
80006a34:	15e77863          	bgeu	a4,t5,80006b84 <__divdf3+0x67c>
80006a38:	00e80733          	add	a4,a6,a4
80006a3c:	01073533          	sltu	a0,a4,a6
80006a40:	00b50533          	add	a0,a0,a1
80006a44:	ffe40413          	addi	s0,s0,-2
80006a48:	00a686b3          	add	a3,a3,a0
80006a4c:	00070c13          	mv	s8,a4
80006a50:	eb1ff06f          	j	80006900 <__divdf3+0x3f8>
80006a54:	dafc6ce3          	bltu	s8,a5,8000680c <__divdf3+0x304>
80006a58:	01fa9693          	slli	a3,s5,0x1f
80006a5c:	001c5713          	srli	a4,s8,0x1
80006a60:	001ada93          	srli	s5,s5,0x1
80006a64:	00e6e6b3          	or	a3,a3,a4
80006a68:	01fc1c13          	slli	s8,s8,0x1f
80006a6c:	dadff06f          	j	80006818 <__divdf3+0x310>
80006a70:	0a069263          	bnez	a3,80006b14 <__divdf3+0x60c>
80006a74:	00060a13          	mv	s4,a2
80006a78:	000f8713          	mv	a4,t6
80006a7c:	23f05263          	blez	t6,80006ca0 <__divdf3+0x798>
80006a80:	0077f693          	andi	a3,a5,7
80006a84:	12069463          	bnez	a3,80006bac <__divdf3+0x6a4>
80006a88:	0037d513          	srli	a0,a5,0x3
80006a8c:	000a0613          	mv	a2,s4
80006a90:	00741793          	slli	a5,s0,0x7
80006a94:	0007da63          	bgez	a5,80006aa8 <__divdf3+0x5a0>
80006a98:	ff0007b7          	lui	a5,0xff000
80006a9c:	fff78793          	addi	a5,a5,-1 # feffffff <_end+0x7efb5fff>
80006aa0:	400b8713          	addi	a4,s7,1024
80006aa4:	00f47433          	and	s0,s0,a5
80006aa8:	7fe00793          	li	a5,2046
80006aac:	bee7c2e3          	blt	a5,a4,80006690 <__divdf3+0x188>
80006ab0:	01d41693          	slli	a3,s0,0x1d
80006ab4:	00941593          	slli	a1,s0,0x9
80006ab8:	7ff77793          	andi	a5,a4,2047
80006abc:	00a6e733          	or	a4,a3,a0
80006ac0:	00c5d693          	srli	a3,a1,0xc
80006ac4:	bd9ff06f          	j	8000669c <__divdf3+0x194>
80006ac8:	000c8513          	mv	a0,s9
80006acc:	109010ef          	jal	ra,800083d4 <__clzsi2>
80006ad0:	01550793          	addi	a5,a0,21 # 10015 <_entry_offset+0x10015>
80006ad4:	01c00693          	li	a3,28
80006ad8:	02050713          	addi	a4,a0,32
80006adc:	b8f6d2e3          	bge	a3,a5,80006660 <__divdf3+0x158>
80006ae0:	ff850513          	addi	a0,a0,-8
80006ae4:	00ac9433          	sll	s0,s9,a0
80006ae8:	00000793          	li	a5,0
80006aec:	b91ff06f          	j	8000667c <__divdf3+0x174>
80006af0:	0e5010ef          	jal	ra,800083d4 <__clzsi2>
80006af4:	01550793          	addi	a5,a0,21
80006af8:	01c00693          	li	a3,28
80006afc:	02050713          	addi	a4,a0,32
80006b00:	c6f6dce3          	bge	a3,a5,80006778 <__divdf3+0x270>
80006b04:	ff850513          	addi	a0,a0,-8
80006b08:	00a41ab3          	sll	s5,s0,a0
80006b0c:	00000c13          	li	s8,0
80006b10:	c85ff06f          	j	80006794 <__divdf3+0x28c>
80006b14:	01e58f33          	add	t5,a1,t5
80006b18:	000f0893          	mv	a7,t5
80006b1c:	fff78313          	addi	t1,a5,-1
80006b20:	0cbf6063          	bltu	t5,a1,80006be0 <__divdf3+0x6d8>
80006b24:	1aaf6a63          	bltu	t5,a0,80006cd8 <__divdf3+0x7d0>
80006b28:	1caf0c63          	beq	t5,a0,80006d00 <__divdf3+0x7f8>
80006b2c:	00030793          	mv	a5,t1
80006b30:	ebdff06f          	j	800069ec <__divdf3+0x4e4>
80006b34:	00000513          	li	a0,0
80006b38:	00100793          	li	a5,1
80006b3c:	edf044e3          	bgtz	t6,80006a04 <__divdf3+0x4fc>
80006b40:	1a0f9c63          	bnez	t6,80006cf8 <__divdf3+0x7f0>
80006b44:	80000737          	lui	a4,0x80000
80006b48:	01f41793          	slli	a5,s0,0x1f
80006b4c:	fff70713          	addi	a4,a4,-1 # 7fffffff <_end+0xfffb5fff>
80006b50:	00e7e7b3          	or	a5,a5,a4
80006b54:	00145413          	srli	s0,s0,0x1
80006b58:	00478713          	addi	a4,a5,4
80006b5c:	00f737b3          	sltu	a5,a4,a5
80006b60:	00f40433          	add	s0,s0,a5
80006b64:	00070793          	mv	a5,a4
80006b68:	00841713          	slli	a4,s0,0x8
80006b6c:	1c075863          	bgez	a4,80006d3c <__divdf3+0x834>
80006b70:	00100793          	li	a5,1
80006b74:	00000693          	li	a3,0
80006b78:	00000713          	li	a4,0
80006b7c:	b21ff06f          	j	8000669c <__divdf3+0x194>
80006b80:	06d58a63          	beq	a1,a3,80006bf4 <__divdf3+0x6ec>
80006b84:	000f8413          	mv	s0,t6
80006b88:	d79ff06f          	j	80006900 <__divdf3+0x3f8>
80006b8c:	d1f6f2e3          	bgeu	a3,t6,80006890 <__divdf3+0x388>
80006b90:	ffe70713          	addi	a4,a4,-2
80006b94:	00b686b3          	add	a3,a3,a1
80006b98:	cfdff06f          	j	80006894 <__divdf3+0x38c>
80006b9c:	cca7f0e3          	bgeu	a5,a0,8000685c <__divdf3+0x354>
80006ba0:	ffe40413          	addi	s0,s0,-2
80006ba4:	00b787b3          	add	a5,a5,a1
80006ba8:	cb9ff06f          	j	80006860 <__divdf3+0x358>
80006bac:	00f7f693          	andi	a3,a5,15
80006bb0:	00400613          	li	a2,4
80006bb4:	ecc68ae3          	beq	a3,a2,80006a88 <__divdf3+0x580>
80006bb8:	00478513          	addi	a0,a5,4
80006bbc:	00f537b3          	sltu	a5,a0,a5
80006bc0:	000a0613          	mv	a2,s4
80006bc4:	00355513          	srli	a0,a0,0x3
80006bc8:	00f40433          	add	s0,s0,a5
80006bcc:	ec5ff06f          	j	80006a90 <__divdf3+0x588>
80006bd0:	00050793          	mv	a5,a0
80006bd4:	d7dff06f          	j	80006950 <__divdf3+0x448>
80006bd8:	00068513          	mv	a0,a3
80006bdc:	db1ff06f          	j	8000698c <__divdf3+0x484>
80006be0:	00030793          	mv	a5,t1
80006be4:	e0a894e3          	bne	a7,a0,800069ec <__divdf3+0x4e4>
80006be8:	e10692e3          	bne	a3,a6,800069ec <__divdf3+0x4e4>
80006bec:	00060a13          	mv	s4,a2
80006bf0:	e89ff06f          	j	80006a78 <__divdf3+0x570>
80006bf4:	f80518e3          	bnez	a0,80006b84 <__divdf3+0x67c>
80006bf8:	e4f6e0e3          	bltu	a3,a5,80006a38 <__divdf3+0x530>
80006bfc:	e35ff06f          	j	80006a30 <__divdf3+0x528>
80006c00:	c0100713          	li	a4,-1023
80006c04:	02eb9063          	bne	s7,a4,80006c24 <__divdf3+0x71c>
80006c08:	0017d713          	srli	a4,a5,0x1
80006c0c:	00176713          	ori	a4,a4,1
80006c10:	01f41793          	slli	a5,s0,0x1f
80006c14:	00e7e7b3          	or	a5,a5,a4
80006c18:	00145413          	srli	s0,s0,0x1
80006c1c:	f3dff06f          	j	80006b58 <__divdf3+0x650>
80006c20:	000a0613          	mv	a2,s4
80006c24:	00100713          	li	a4,1
80006c28:	41f70733          	sub	a4,a4,t6
80006c2c:	03800693          	li	a3,56
80006c30:	aee6c6e3          	blt	a3,a4,8000671c <__divdf3+0x214>
80006c34:	01f00693          	li	a3,31
80006c38:	0ee6d663          	bge	a3,a4,80006d24 <__divdf3+0x81c>
80006c3c:	fe100693          	li	a3,-31
80006c40:	41f686b3          	sub	a3,a3,t6
80006c44:	02000593          	li	a1,32
80006c48:	00d456b3          	srl	a3,s0,a3
80006c4c:	00b70863          	beq	a4,a1,80006c5c <__divdf3+0x754>
80006c50:	43eb8b93          	addi	s7,s7,1086
80006c54:	01741433          	sll	s0,s0,s7
80006c58:	0087e7b3          	or	a5,a5,s0
80006c5c:	00f037b3          	snez	a5,a5
80006c60:	00d7e7b3          	or	a5,a5,a3
80006c64:	0077f713          	andi	a4,a5,7
80006c68:	00000693          	li	a3,0
80006c6c:	02070263          	beqz	a4,80006c90 <__divdf3+0x788>
80006c70:	00f7f593          	andi	a1,a5,15
80006c74:	00400513          	li	a0,4
80006c78:	00000713          	li	a4,0
80006c7c:	00a58a63          	beq	a1,a0,80006c90 <__divdf3+0x788>
80006c80:	00a785b3          	add	a1,a5,a0
80006c84:	00f5b7b3          	sltu	a5,a1,a5
80006c88:	01d79713          	slli	a4,a5,0x1d
80006c8c:	00058793          	mv	a5,a1
80006c90:	0037d793          	srli	a5,a5,0x3
80006c94:	00e7e733          	or	a4,a5,a4
80006c98:	00000793          	li	a5,0
80006c9c:	a01ff06f          	j	8000669c <__divdf3+0x194>
80006ca0:	f80f90e3          	bnez	t6,80006c20 <__divdf3+0x718>
80006ca4:	0077f693          	andi	a3,a5,7
80006ca8:	0017d613          	srli	a2,a5,0x1
80006cac:	01f00b93          	li	s7,31
80006cb0:	00100713          	li	a4,1
80006cb4:	08069c63          	bnez	a3,80006d4c <__divdf3+0x844>
80006cb8:	01741bb3          	sll	s7,s0,s7
80006cbc:	00d66633          	or	a2,a2,a3
80006cc0:	00cbe7b3          	or	a5,s7,a2
80006cc4:	0077f693          	andi	a3,a5,7
80006cc8:	00e45433          	srl	s0,s0,a4
80006ccc:	04069263          	bnez	a3,80006d10 <__divdf3+0x808>
80006cd0:	000a0613          	mv	a2,s4
80006cd4:	e95ff06f          	j	80006b68 <__divdf3+0x660>
80006cd8:	00181313          	slli	t1,a6,0x1
80006cdc:	010338b3          	sltu	a7,t1,a6
80006ce0:	00b888b3          	add	a7,a7,a1
80006ce4:	011f08b3          	add	a7,t5,a7
80006ce8:	ffe78793          	addi	a5,a5,-2
80006cec:	00030813          	mv	a6,t1
80006cf0:	eea88ce3          	beq	a7,a0,80006be8 <__divdf3+0x6e0>
80006cf4:	cf9ff06f          	j	800069ec <__divdf3+0x4e4>
80006cf8:	fff00793          	li	a5,-1
80006cfc:	f29ff06f          	j	80006c24 <__divdf3+0x71c>
80006d00:	fcd86ce3          	bltu	a6,a3,80006cd8 <__divdf3+0x7d0>
80006d04:	00030793          	mv	a5,t1
80006d08:	cf0692e3          	bne	a3,a6,800069ec <__divdf3+0x4e4>
80006d0c:	ee1ff06f          	j	80006bec <__divdf3+0x6e4>
80006d10:	00f7f713          	andi	a4,a5,15
80006d14:	00400693          	li	a3,4
80006d18:	000a0613          	mv	a2,s4
80006d1c:	e4d706e3          	beq	a4,a3,80006b68 <__divdf3+0x660>
80006d20:	e39ff06f          	j	80006b58 <__divdf3+0x650>
80006d24:	41eb8b93          	addi	s7,s7,1054
80006d28:	017796b3          	sll	a3,a5,s7
80006d2c:	00060a13          	mv	s4,a2
80006d30:	00d036b3          	snez	a3,a3
80006d34:	00e7d633          	srl	a2,a5,a4
80006d38:	f81ff06f          	j	80006cb8 <__divdf3+0x7b0>
80006d3c:	00941693          	slli	a3,s0,0x9
80006d40:	00c6d693          	srli	a3,a3,0xc
80006d44:	01d41713          	slli	a4,s0,0x1d
80006d48:	f49ff06f          	j	80006c90 <__divdf3+0x788>
80006d4c:	00e7f6b3          	and	a3,a5,a4
80006d50:	f69ff06f          	j	80006cb8 <__divdf3+0x7b0>

80006d54 <__eqdf2>:
80006d54:	0145d713          	srli	a4,a1,0x14
80006d58:	001007b7          	lui	a5,0x100
80006d5c:	0146d813          	srli	a6,a3,0x14
80006d60:	fff78793          	addi	a5,a5,-1 # fffff <_entry_offset+0xfffff>
80006d64:	7ff00313          	li	t1,2047
80006d68:	7ff77713          	andi	a4,a4,2047
80006d6c:	00b7fe33          	and	t3,a5,a1
80006d70:	00050893          	mv	a7,a0
80006d74:	00d7f7b3          	and	a5,a5,a3
80006d78:	00687833          	and	a6,a6,t1
80006d7c:	01f5d593          	srli	a1,a1,0x1f
80006d80:	01f6d693          	srli	a3,a3,0x1f
80006d84:	00100513          	li	a0,1
80006d88:	00670c63          	beq	a4,t1,80006da0 <__eqdf2+0x4c>
80006d8c:	00680863          	beq	a6,t1,80006d9c <__eqdf2+0x48>
80006d90:	01071463          	bne	a4,a6,80006d98 <__eqdf2+0x44>
80006d94:	02fe0663          	beq	t3,a5,80006dc0 <__eqdf2+0x6c>
80006d98:	00008067          	ret
80006d9c:	00008067          	ret
80006da0:	fee81ce3          	bne	a6,a4,80006d98 <__eqdf2+0x44>
80006da4:	00fe67b3          	or	a5,t3,a5
80006da8:	00c7e7b3          	or	a5,a5,a2
80006dac:	0117e7b3          	or	a5,a5,a7
80006db0:	fe0794e3          	bnez	a5,80006d98 <__eqdf2+0x44>
80006db4:	40d585b3          	sub	a1,a1,a3
80006db8:	00b03533          	snez	a0,a1
80006dbc:	00008067          	ret
80006dc0:	fcc89ce3          	bne	a7,a2,80006d98 <__eqdf2+0x44>
80006dc4:	00d58a63          	beq	a1,a3,80006dd8 <__eqdf2+0x84>
80006dc8:	fc0718e3          	bnez	a4,80006d98 <__eqdf2+0x44>
80006dcc:	011e6e33          	or	t3,t3,a7
80006dd0:	01c03533          	snez	a0,t3
80006dd4:	00008067          	ret
80006dd8:	00000513          	li	a0,0
80006ddc:	00008067          	ret

80006de0 <__fixdfsi>:
80006de0:	0145d793          	srli	a5,a1,0x14
80006de4:	001006b7          	lui	a3,0x100
80006de8:	fff68713          	addi	a4,a3,-1 # fffff <_entry_offset+0xfffff>
80006dec:	7ff7f793          	andi	a5,a5,2047
80006df0:	3fe00613          	li	a2,1022
80006df4:	00b77733          	and	a4,a4,a1
80006df8:	01f5d593          	srli	a1,a1,0x1f
80006dfc:	00f65e63          	bge	a2,a5,80006e18 <__fixdfsi+0x38>
80006e00:	41d00613          	li	a2,1053
80006e04:	00f65e63          	bge	a2,a5,80006e20 <__fixdfsi+0x40>
80006e08:	80000537          	lui	a0,0x80000
80006e0c:	fff50513          	addi	a0,a0,-1 # 7fffffff <_end+0xfffb5fff>
80006e10:	00a58533          	add	a0,a1,a0
80006e14:	00008067          	ret
80006e18:	00000513          	li	a0,0
80006e1c:	00008067          	ret
80006e20:	43300613          	li	a2,1075
80006e24:	40f60633          	sub	a2,a2,a5
80006e28:	01f00813          	li	a6,31
80006e2c:	00d76733          	or	a4,a4,a3
80006e30:	02c85063          	bge	a6,a2,80006e50 <__fixdfsi+0x70>
80006e34:	41300693          	li	a3,1043
80006e38:	40f687b3          	sub	a5,a3,a5
80006e3c:	00f75733          	srl	a4,a4,a5
80006e40:	40e00533          	neg	a0,a4
80006e44:	fc059ce3          	bnez	a1,80006e1c <__fixdfsi+0x3c>
80006e48:	00070513          	mv	a0,a4
80006e4c:	00008067          	ret
80006e50:	bed78793          	addi	a5,a5,-1043
80006e54:	00f71733          	sll	a4,a4,a5
80006e58:	00c55533          	srl	a0,a0,a2
80006e5c:	00a76733          	or	a4,a4,a0
80006e60:	fe1ff06f          	j	80006e40 <__fixdfsi+0x60>

80006e64 <__floatsidf>:
80006e64:	fe010113          	addi	sp,sp,-32
80006e68:	00112e23          	sw	ra,28(sp)
80006e6c:	00812c23          	sw	s0,24(sp)
80006e70:	00912a23          	sw	s1,20(sp)
80006e74:	01212823          	sw	s2,16(sp)
80006e78:	01312623          	sw	s3,12(sp)
80006e7c:	04050a63          	beqz	a0,80006ed0 <__floatsidf+0x6c>
80006e80:	41f55713          	srai	a4,a0,0x1f
80006e84:	00a744b3          	xor	s1,a4,a0
80006e88:	40e484b3          	sub	s1,s1,a4
80006e8c:	00050793          	mv	a5,a0
80006e90:	00048513          	mv	a0,s1
80006e94:	01f7d413          	srli	s0,a5,0x1f
80006e98:	53c010ef          	jal	ra,800083d4 <__clzsi2>
80006e9c:	41e00793          	li	a5,1054
80006ea0:	40a787b3          	sub	a5,a5,a0
80006ea4:	00a00713          	li	a4,10
80006ea8:	7ff7f793          	andi	a5,a5,2047
80006eac:	06a74463          	blt	a4,a0,80006f14 <__floatsidf+0xb0>
80006eb0:	00b00713          	li	a4,11
80006eb4:	40a70733          	sub	a4,a4,a0
80006eb8:	00e4d733          	srl	a4,s1,a4
80006ebc:	00c71713          	slli	a4,a4,0xc
80006ec0:	01550513          	addi	a0,a0,21
80006ec4:	00c75713          	srli	a4,a4,0xc
80006ec8:	00a494b3          	sll	s1,s1,a0
80006ecc:	0140006f          	j	80006ee0 <__floatsidf+0x7c>
80006ed0:	00000413          	li	s0,0
80006ed4:	00000793          	li	a5,0
80006ed8:	00000713          	li	a4,0
80006edc:	00000493          	li	s1,0
80006ee0:	01479793          	slli	a5,a5,0x14
80006ee4:	01f41413          	slli	s0,s0,0x1f
80006ee8:	00e7e7b3          	or	a5,a5,a4
80006eec:	01c12083          	lw	ra,28(sp)
80006ef0:	0087e7b3          	or	a5,a5,s0
80006ef4:	01812403          	lw	s0,24(sp)
80006ef8:	01012903          	lw	s2,16(sp)
80006efc:	00c12983          	lw	s3,12(sp)
80006f00:	00048513          	mv	a0,s1
80006f04:	00078593          	mv	a1,a5
80006f08:	01412483          	lw	s1,20(sp)
80006f0c:	02010113          	addi	sp,sp,32
80006f10:	00008067          	ret
80006f14:	ff550513          	addi	a0,a0,-11
80006f18:	00a49733          	sll	a4,s1,a0
80006f1c:	00c71713          	slli	a4,a4,0xc
80006f20:	00c75713          	srli	a4,a4,0xc
80006f24:	00000493          	li	s1,0
80006f28:	fb9ff06f          	j	80006ee0 <__floatsidf+0x7c>

80006f2c <__floatunsidf>:
80006f2c:	ff010113          	addi	sp,sp,-16
80006f30:	00812423          	sw	s0,8(sp)
80006f34:	00112623          	sw	ra,12(sp)
80006f38:	01212223          	sw	s2,4(sp)
80006f3c:	01312023          	sw	s3,0(sp)
80006f40:	00050413          	mv	s0,a0
80006f44:	02050e63          	beqz	a0,80006f80 <__floatunsidf+0x54>
80006f48:	48c010ef          	jal	ra,800083d4 <__clzsi2>
80006f4c:	41e00793          	li	a5,1054
80006f50:	40a787b3          	sub	a5,a5,a0
80006f54:	00a00713          	li	a4,10
80006f58:	7ff7f793          	andi	a5,a5,2047
80006f5c:	04a74a63          	blt	a4,a0,80006fb0 <__floatunsidf+0x84>
80006f60:	00b00713          	li	a4,11
80006f64:	40a70733          	sub	a4,a4,a0
80006f68:	00e45733          	srl	a4,s0,a4
80006f6c:	00c71713          	slli	a4,a4,0xc
80006f70:	01550693          	addi	a3,a0,21
80006f74:	00c75713          	srli	a4,a4,0xc
80006f78:	00d41433          	sll	s0,s0,a3
80006f7c:	00c0006f          	j	80006f88 <__floatunsidf+0x5c>
80006f80:	00000793          	li	a5,0
80006f84:	00000713          	li	a4,0
80006f88:	00c12083          	lw	ra,12(sp)
80006f8c:	00040513          	mv	a0,s0
80006f90:	00812403          	lw	s0,8(sp)
80006f94:	01479793          	slli	a5,a5,0x14
80006f98:	00e7e7b3          	or	a5,a5,a4
80006f9c:	00412903          	lw	s2,4(sp)
80006fa0:	00012983          	lw	s3,0(sp)
80006fa4:	00078593          	mv	a1,a5
80006fa8:	01010113          	addi	sp,sp,16
80006fac:	00008067          	ret
80006fb0:	ff550513          	addi	a0,a0,-11
80006fb4:	00a41733          	sll	a4,s0,a0
80006fb8:	00c71713          	slli	a4,a4,0xc
80006fbc:	00c75713          	srli	a4,a4,0xc
80006fc0:	00000413          	li	s0,0
80006fc4:	fc5ff06f          	j	80006f88 <__floatunsidf+0x5c>

80006fc8 <__gedf2>:
80006fc8:	0145d893          	srli	a7,a1,0x14
80006fcc:	001007b7          	lui	a5,0x100
80006fd0:	0146d713          	srli	a4,a3,0x14
80006fd4:	00050813          	mv	a6,a0
80006fd8:	fff78793          	addi	a5,a5,-1 # fffff <_entry_offset+0xfffff>
80006fdc:	7ff00313          	li	t1,2047
80006fe0:	7ff8f893          	andi	a7,a7,2047
80006fe4:	00677533          	and	a0,a4,t1
80006fe8:	00080e13          	mv	t3,a6
80006fec:	00b7f733          	and	a4,a5,a1
80006ff0:	00060e93          	mv	t4,a2
80006ff4:	00d7f7b3          	and	a5,a5,a3
80006ff8:	01f5d593          	srli	a1,a1,0x1f
80006ffc:	01f6d693          	srli	a3,a3,0x1f
80007000:	04688863          	beq	a7,t1,80007050 <__gedf2+0x88>
80007004:	02650463          	beq	a0,t1,8000702c <__gedf2+0x64>
80007008:	06089463          	bnez	a7,80007070 <__gedf2+0xa8>
8000700c:	01076833          	or	a6,a4,a6
80007010:	04051c63          	bnez	a0,80007068 <__gedf2+0xa0>
80007014:	00c7e633          	or	a2,a5,a2
80007018:	08060063          	beqz	a2,80007098 <__gedf2+0xd0>
8000701c:	0a081063          	bnez	a6,800070bc <__gedf2+0xf4>
80007020:	00169513          	slli	a0,a3,0x1
80007024:	fff50513          	addi	a0,a0,-1
80007028:	00008067          	ret
8000702c:	00c7e633          	or	a2,a5,a2
80007030:	08061263          	bnez	a2,800070b4 <__gedf2+0xec>
80007034:	00089663          	bnez	a7,80007040 <__gedf2+0x78>
80007038:	01076733          	or	a4,a4,a6
8000703c:	fe0702e3          	beqz	a4,80007020 <__gedf2+0x58>
80007040:	00d59e63          	bne	a1,a3,8000705c <__gedf2+0x94>
80007044:	00159513          	slli	a0,a1,0x1
80007048:	fff50513          	addi	a0,a0,-1
8000704c:	00008067          	ret
80007050:	01076733          	or	a4,a4,a6
80007054:	06071063          	bnez	a4,800070b4 <__gedf2+0xec>
80007058:	05150463          	beq	a0,a7,800070a0 <__gedf2+0xd8>
8000705c:	40b005b3          	neg	a1,a1
80007060:	0015e513          	ori	a0,a1,1
80007064:	00008067          	ret
80007068:	fa080ce3          	beqz	a6,80007020 <__gedf2+0x58>
8000706c:	fd5ff06f          	j	80007040 <__gedf2+0x78>
80007070:	fe0506e3          	beqz	a0,8000705c <__gedf2+0x94>
80007074:	fed594e3          	bne	a1,a3,8000705c <__gedf2+0x94>
80007078:	ff1542e3          	blt	a0,a7,8000705c <__gedf2+0x94>
8000707c:	fca8c4e3          	blt	a7,a0,80007044 <__gedf2+0x7c>
80007080:	fce7eee3          	bltu	a5,a4,8000705c <__gedf2+0x94>
80007084:	fcf710e3          	bne	a4,a5,80007044 <__gedf2+0x7c>
80007088:	fdceeae3          	bltu	t4,t3,8000705c <__gedf2+0x94>
8000708c:	00000513          	li	a0,0
80007090:	fbde6ae3          	bltu	t3,t4,80007044 <__gedf2+0x7c>
80007094:	00008067          	ret
80007098:	fc0812e3          	bnez	a6,8000705c <__gedf2+0x94>
8000709c:	00008067          	ret
800070a0:	00c7e7b3          	or	a5,a5,a2
800070a4:	00079863          	bnez	a5,800070b4 <__gedf2+0xec>
800070a8:	fad59ae3          	bne	a1,a3,8000705c <__gedf2+0x94>
800070ac:	00000513          	li	a0,0
800070b0:	00008067          	ret
800070b4:	ffe00513          	li	a0,-2
800070b8:	00008067          	ret
800070bc:	fcd582e3          	beq	a1,a3,80007080 <__gedf2+0xb8>
800070c0:	f9dff06f          	j	8000705c <__gedf2+0x94>

800070c4 <__ledf2>:
800070c4:	0145d893          	srli	a7,a1,0x14
800070c8:	001007b7          	lui	a5,0x100
800070cc:	0146d713          	srli	a4,a3,0x14
800070d0:	00050813          	mv	a6,a0
800070d4:	fff78793          	addi	a5,a5,-1 # fffff <_entry_offset+0xfffff>
800070d8:	7ff00313          	li	t1,2047
800070dc:	7ff8f893          	andi	a7,a7,2047
800070e0:	00677533          	and	a0,a4,t1
800070e4:	00080e13          	mv	t3,a6
800070e8:	00b7f733          	and	a4,a5,a1
800070ec:	00060e93          	mv	t4,a2
800070f0:	00d7f7b3          	and	a5,a5,a3
800070f4:	01f5d593          	srli	a1,a1,0x1f
800070f8:	01f6d693          	srli	a3,a3,0x1f
800070fc:	04688e63          	beq	a7,t1,80007158 <__ledf2+0x94>
80007100:	02650463          	beq	a0,t1,80007128 <__ledf2+0x64>
80007104:	06089c63          	bnez	a7,8000717c <__ledf2+0xb8>
80007108:	01076833          	or	a6,a4,a6
8000710c:	0a051063          	bnez	a0,800071ac <__ledf2+0xe8>
80007110:	00c7e633          	or	a2,a5,a2
80007114:	02060e63          	beqz	a2,80007150 <__ledf2+0x8c>
80007118:	0a081263          	bnez	a6,800071bc <__ledf2+0xf8>
8000711c:	00169513          	slli	a0,a3,0x1
80007120:	fff50513          	addi	a0,a0,-1
80007124:	00008067          	ret
80007128:	00c7e633          	or	a2,a5,a2
8000712c:	00200513          	li	a0,2
80007130:	02061263          	bnez	a2,80007154 <__ledf2+0x90>
80007134:	00089663          	bnez	a7,80007140 <__ledf2+0x7c>
80007138:	01076733          	or	a4,a4,a6
8000713c:	fe0700e3          	beqz	a4,8000711c <__ledf2+0x58>
80007140:	06d58063          	beq	a1,a3,800071a0 <__ledf2+0xdc>
80007144:	40b005b3          	neg	a1,a1
80007148:	0015e513          	ori	a0,a1,1
8000714c:	00008067          	ret
80007150:	fe081ae3          	bnez	a6,80007144 <__ledf2+0x80>
80007154:	00008067          	ret
80007158:	01076733          	or	a4,a4,a6
8000715c:	04071c63          	bnez	a4,800071b4 <__ledf2+0xf0>
80007160:	ff1512e3          	bne	a0,a7,80007144 <__ledf2+0x80>
80007164:	00c7e7b3          	or	a5,a5,a2
80007168:	00200513          	li	a0,2
8000716c:	fe0794e3          	bnez	a5,80007154 <__ledf2+0x90>
80007170:	fcd59ae3          	bne	a1,a3,80007144 <__ledf2+0x80>
80007174:	00000513          	li	a0,0
80007178:	00008067          	ret
8000717c:	fc0504e3          	beqz	a0,80007144 <__ledf2+0x80>
80007180:	fcd592e3          	bne	a1,a3,80007144 <__ledf2+0x80>
80007184:	fd1540e3          	blt	a0,a7,80007144 <__ledf2+0x80>
80007188:	00a8cc63          	blt	a7,a0,800071a0 <__ledf2+0xdc>
8000718c:	fae7ece3          	bltu	a5,a4,80007144 <__ledf2+0x80>
80007190:	00f71863          	bne	a4,a5,800071a0 <__ledf2+0xdc>
80007194:	fbcee8e3          	bltu	t4,t3,80007144 <__ledf2+0x80>
80007198:	00000513          	li	a0,0
8000719c:	fbde7ce3          	bgeu	t3,t4,80007154 <__ledf2+0x90>
800071a0:	00159513          	slli	a0,a1,0x1
800071a4:	fff50513          	addi	a0,a0,-1
800071a8:	00008067          	ret
800071ac:	f60808e3          	beqz	a6,8000711c <__ledf2+0x58>
800071b0:	f91ff06f          	j	80007140 <__ledf2+0x7c>
800071b4:	00200513          	li	a0,2
800071b8:	00008067          	ret
800071bc:	fcd588e3          	beq	a1,a3,8000718c <__ledf2+0xc8>
800071c0:	f85ff06f          	j	80007144 <__ledf2+0x80>

800071c4 <__muldf3>:
800071c4:	fd010113          	addi	sp,sp,-48
800071c8:	0145d793          	srli	a5,a1,0x14
800071cc:	02812423          	sw	s0,40(sp)
800071d0:	02912223          	sw	s1,36(sp)
800071d4:	01412c23          	sw	s4,24(sp)
800071d8:	01512a23          	sw	s5,20(sp)
800071dc:	01812423          	sw	s8,8(sp)
800071e0:	00c59413          	slli	s0,a1,0xc
800071e4:	02112623          	sw	ra,44(sp)
800071e8:	03212023          	sw	s2,32(sp)
800071ec:	01312e23          	sw	s3,28(sp)
800071f0:	01612823          	sw	s6,16(sp)
800071f4:	01712623          	sw	s7,12(sp)
800071f8:	01912223          	sw	s9,4(sp)
800071fc:	01a12023          	sw	s10,0(sp)
80007200:	7ff7f793          	andi	a5,a5,2047
80007204:	00050a93          	mv	s5,a0
80007208:	00060c13          	mv	s8,a2
8000720c:	00068493          	mv	s1,a3
80007210:	00c45413          	srli	s0,s0,0xc
80007214:	01f5da13          	srli	s4,a1,0x1f
80007218:	3e078e63          	beqz	a5,80007614 <__muldf3+0x450>
8000721c:	7ff00713          	li	a4,2047
80007220:	0ee78263          	beq	a5,a4,80007304 <__muldf3+0x140>
80007224:	00341413          	slli	s0,s0,0x3
80007228:	01d55713          	srli	a4,a0,0x1d
8000722c:	00876733          	or	a4,a4,s0
80007230:	00800437          	lui	s0,0x800
80007234:	c0178b13          	addi	s6,a5,-1023
80007238:	00351b93          	slli	s7,a0,0x3
8000723c:	00876433          	or	s0,a4,s0
80007240:	00300513          	li	a0,3
80007244:	00100593          	li	a1,1
80007248:	00200693          	li	a3,2
8000724c:	00000c93          	li	s9,0
80007250:	00000d13          	li	s10,0
80007254:	0144d793          	srli	a5,s1,0x14
80007258:	00c49713          	slli	a4,s1,0xc
8000725c:	7ff7f793          	andi	a5,a5,2047
80007260:	00c75a93          	srli	s5,a4,0xc
80007264:	01f4d493          	srli	s1,s1,0x1f
80007268:	0c078c63          	beqz	a5,80007340 <__muldf3+0x17c>
8000726c:	7ff00713          	li	a4,2047
80007270:	36e78663          	beq	a5,a4,800075dc <__muldf3+0x418>
80007274:	c0178793          	addi	a5,a5,-1023
80007278:	00a00713          	li	a4,10
8000727c:	00fb0b33          	add	s6,s6,a5
80007280:	05974e63          	blt	a4,s9,800072dc <__muldf3+0x118>
80007284:	003a9713          	slli	a4,s5,0x3
80007288:	01dc5793          	srli	a5,s8,0x1d
8000728c:	00e7e7b3          	or	a5,a5,a4
80007290:	00200693          	li	a3,2
80007294:	00800737          	lui	a4,0x800
80007298:	00e7eab3          	or	s5,a5,a4
8000729c:	009a4a33          	xor	s4,s4,s1
800072a0:	003c1613          	slli	a2,s8,0x3
800072a4:	00000793          	li	a5,0
800072a8:	0f96d863          	bge	a3,s9,80007398 <__muldf3+0x1d4>
800072ac:	00100693          	li	a3,1
800072b0:	019696b3          	sll	a3,a3,s9
800072b4:	5306f713          	andi	a4,a3,1328
800072b8:	02071263          	bnez	a4,800072dc <__muldf3+0x118>
800072bc:	2406f593          	andi	a1,a3,576
800072c0:	4c059e63          	bnez	a1,8000779c <__muldf3+0x5d8>
800072c4:	0886f693          	andi	a3,a3,136
800072c8:	0c068863          	beqz	a3,80007398 <__muldf3+0x1d4>
800072cc:	00048a13          	mv	s4,s1
800072d0:	000a8413          	mv	s0,s5
800072d4:	00060b93          	mv	s7,a2
800072d8:	00078d13          	mv	s10,a5
800072dc:	00200793          	li	a5,2
800072e0:	36fd0c63          	beq	s10,a5,80007658 <__muldf3+0x494>
800072e4:	00300793          	li	a5,3
800072e8:	4cfd0263          	beq	s10,a5,800077ac <__muldf3+0x5e8>
800072ec:	00100793          	li	a5,1
800072f0:	2cfd1463          	bne	s10,a5,800075b8 <__muldf3+0x3f4>
800072f4:	00000793          	li	a5,0
800072f8:	00000413          	li	s0,0
800072fc:	00000713          	li	a4,0
80007300:	3640006f          	j	80007664 <__muldf3+0x4a0>
80007304:	00a46bb3          	or	s7,s0,a0
80007308:	3c0b9663          	bnez	s7,800076d4 <__muldf3+0x510>
8000730c:	00078b13          	mv	s6,a5
80007310:	0144d793          	srli	a5,s1,0x14
80007314:	00c49713          	slli	a4,s1,0xc
80007318:	7ff7f793          	andi	a5,a5,2047
8000731c:	00000413          	li	s0,0
80007320:	00b00513          	li	a0,11
80007324:	00900593          	li	a1,9
80007328:	00a00693          	li	a3,10
8000732c:	00800c93          	li	s9,8
80007330:	00200d13          	li	s10,2
80007334:	00c75a93          	srli	s5,a4,0xc
80007338:	01f4d493          	srli	s1,s1,0x1f
8000733c:	f20798e3          	bnez	a5,8000726c <__muldf3+0xa8>
80007340:	018ae633          	or	a2,s5,s8
80007344:	3a060863          	beqz	a2,800076f4 <__muldf3+0x530>
80007348:	4a0a8663          	beqz	s5,800077f4 <__muldf3+0x630>
8000734c:	000a8513          	mv	a0,s5
80007350:	084010ef          	jal	ra,800083d4 <__clzsi2>
80007354:	00050793          	mv	a5,a0
80007358:	ff550713          	addi	a4,a0,-11
8000735c:	01d00693          	li	a3,29
80007360:	40e686b3          	sub	a3,a3,a4
80007364:	ff878613          	addi	a2,a5,-8
80007368:	00ca9733          	sll	a4,s5,a2
8000736c:	00dc56b3          	srl	a3,s8,a3
80007370:	00e6eab3          	or	s5,a3,a4
80007374:	00cc1633          	sll	a2,s8,a2
80007378:	40fb07b3          	sub	a5,s6,a5
8000737c:	00a00713          	li	a4,10
80007380:	c0d78b13          	addi	s6,a5,-1011
80007384:	f5974ce3          	blt	a4,s9,800072dc <__muldf3+0x118>
80007388:	00200713          	li	a4,2
8000738c:	009a4a33          	xor	s4,s4,s1
80007390:	00000793          	li	a5,0
80007394:	f1974ce3          	blt	a4,s9,800072ac <__muldf3+0xe8>
80007398:	010b9793          	slli	a5,s7,0x10
8000739c:	01061693          	slli	a3,a2,0x10
800073a0:	0107d793          	srli	a5,a5,0x10
800073a4:	0106d693          	srli	a3,a3,0x10
800073a8:	010bdb93          	srli	s7,s7,0x10
800073ac:	01065613          	srli	a2,a2,0x10
800073b0:	02d78733          	mul	a4,a5,a3
800073b4:	02db8833          	mul	a6,s7,a3
800073b8:	01075513          	srli	a0,a4,0x10
800073bc:	02f605b3          	mul	a1,a2,a5
800073c0:	010585b3          	add	a1,a1,a6
800073c4:	00b50533          	add	a0,a0,a1
800073c8:	02cb8e33          	mul	t3,s7,a2
800073cc:	01057663          	bgeu	a0,a6,800073d8 <__muldf3+0x214>
800073d0:	000105b7          	lui	a1,0x10
800073d4:	00be0e33          	add	t3,t3,a1
800073d8:	010a9313          	slli	t1,s5,0x10
800073dc:	01071713          	slli	a4,a4,0x10
800073e0:	01035313          	srli	t1,t1,0x10
800073e4:	010ada93          	srli	s5,s5,0x10
800073e8:	01075713          	srli	a4,a4,0x10
800073ec:	01051593          	slli	a1,a0,0x10
800073f0:	026b8833          	mul	a6,s7,t1
800073f4:	00e585b3          	add	a1,a1,a4
800073f8:	01055513          	srli	a0,a0,0x10
800073fc:	02678733          	mul	a4,a5,t1
80007400:	02fa87b3          	mul	a5,s5,a5
80007404:	01075893          	srli	a7,a4,0x10
80007408:	010787b3          	add	a5,a5,a6
8000740c:	00f888b3          	add	a7,a7,a5
80007410:	035b8bb3          	mul	s7,s7,s5
80007414:	0108f663          	bgeu	a7,a6,80007420 <__muldf3+0x25c>
80007418:	000107b7          	lui	a5,0x10
8000741c:	00fb8bb3          	add	s7,s7,a5
80007420:	01041793          	slli	a5,s0,0x10
80007424:	01071813          	slli	a6,a4,0x10
80007428:	0107d793          	srli	a5,a5,0x10
8000742c:	01045413          	srli	s0,s0,0x10
80007430:	01085813          	srli	a6,a6,0x10
80007434:	01089713          	slli	a4,a7,0x10
80007438:	02f60f33          	mul	t5,a2,a5
8000743c:	01070733          	add	a4,a4,a6
80007440:	0108d893          	srli	a7,a7,0x10
80007444:	00e50533          	add	a0,a0,a4
80007448:	017888b3          	add	a7,a7,s7
8000744c:	02d40833          	mul	a6,s0,a3
80007450:	02d78eb3          	mul	t4,a5,a3
80007454:	010f0f33          	add	t5,t5,a6
80007458:	010ed693          	srli	a3,t4,0x10
8000745c:	01e686b3          	add	a3,a3,t5
80007460:	02860633          	mul	a2,a2,s0
80007464:	0106f663          	bgeu	a3,a6,80007470 <__muldf3+0x2ac>
80007468:	00010837          	lui	a6,0x10
8000746c:	01060633          	add	a2,a2,a6
80007470:	010e9e93          	slli	t4,t4,0x10
80007474:	01069813          	slli	a6,a3,0x10
80007478:	010ede93          	srli	t4,t4,0x10
8000747c:	0106d693          	srli	a3,a3,0x10
80007480:	01d80eb3          	add	t4,a6,t4
80007484:	00c686b3          	add	a3,a3,a2
80007488:	02640833          	mul	a6,s0,t1
8000748c:	02678633          	mul	a2,a5,t1
80007490:	02fa87b3          	mul	a5,s5,a5
80007494:	01065313          	srli	t1,a2,0x10
80007498:	010787b3          	add	a5,a5,a6
8000749c:	00f30333          	add	t1,t1,a5
800074a0:	028a8ab3          	mul	s5,s5,s0
800074a4:	01037663          	bgeu	t1,a6,800074b0 <__muldf3+0x2ec>
800074a8:	000107b7          	lui	a5,0x10
800074ac:	00fa8ab3          	add	s5,s5,a5
800074b0:	01061613          	slli	a2,a2,0x10
800074b4:	01065613          	srli	a2,a2,0x10
800074b8:	01031793          	slli	a5,t1,0x10
800074bc:	01c50533          	add	a0,a0,t3
800074c0:	00c787b3          	add	a5,a5,a2
800074c4:	01178633          	add	a2,a5,a7
800074c8:	00e53733          	sltu	a4,a0,a4
800074cc:	01d50833          	add	a6,a0,t4
800074d0:	00e60733          	add	a4,a2,a4
800074d4:	00d706b3          	add	a3,a4,a3
800074d8:	00a83533          	sltu	a0,a6,a0
800074dc:	00a68533          	add	a0,a3,a0
800074e0:	00f637b3          	sltu	a5,a2,a5
800074e4:	00c73633          	sltu	a2,a4,a2
800074e8:	00c7e7b3          	or	a5,a5,a2
800074ec:	00e6b733          	sltu	a4,a3,a4
800074f0:	01035313          	srli	t1,t1,0x10
800074f4:	00d536b3          	sltu	a3,a0,a3
800074f8:	006787b3          	add	a5,a5,t1
800074fc:	00d76733          	or	a4,a4,a3
80007500:	00981b93          	slli	s7,a6,0x9
80007504:	00f70733          	add	a4,a4,a5
80007508:	00bbebb3          	or	s7,s7,a1
8000750c:	01570733          	add	a4,a4,s5
80007510:	00971713          	slli	a4,a4,0x9
80007514:	01703bb3          	snez	s7,s7
80007518:	01785813          	srli	a6,a6,0x17
8000751c:	01755413          	srli	s0,a0,0x17
80007520:	010bebb3          	or	s7,s7,a6
80007524:	00951513          	slli	a0,a0,0x9
80007528:	00771793          	slli	a5,a4,0x7
8000752c:	00876433          	or	s0,a4,s0
80007530:	00abebb3          	or	s7,s7,a0
80007534:	0607c663          	bltz	a5,800075a0 <__muldf3+0x3dc>
80007538:	3ffb0793          	addi	a5,s6,1023
8000753c:	1ef05e63          	blez	a5,80007738 <__muldf3+0x574>
80007540:	007bf713          	andi	a4,s7,7
80007544:	02070c63          	beqz	a4,8000757c <__muldf3+0x3b8>
80007548:	00fbf713          	andi	a4,s7,15
8000754c:	00400693          	li	a3,4
80007550:	02d70663          	beq	a4,a3,8000757c <__muldf3+0x3b8>
80007554:	004b8713          	addi	a4,s7,4
80007558:	01773bb3          	sltu	s7,a4,s7
8000755c:	01740433          	add	s0,s0,s7
80007560:	00070b93          	mv	s7,a4
80007564:	00741713          	slli	a4,s0,0x7
80007568:	00075a63          	bgez	a4,8000757c <__muldf3+0x3b8>
8000756c:	ff000737          	lui	a4,0xff000
80007570:	fff70713          	addi	a4,a4,-1 # feffffff <_end+0x7efb5fff>
80007574:	400b0793          	addi	a5,s6,1024
80007578:	00e47433          	and	s0,s0,a4
8000757c:	7fe00713          	li	a4,2046
80007580:	0cf74c63          	blt	a4,a5,80007658 <__muldf3+0x494>
80007584:	01d41713          	slli	a4,s0,0x1d
80007588:	003bdb93          	srli	s7,s7,0x3
8000758c:	00941413          	slli	s0,s0,0x9
80007590:	7ff7f793          	andi	a5,a5,2047
80007594:	01776733          	or	a4,a4,s7
80007598:	00c45413          	srli	s0,s0,0xc
8000759c:	0c80006f          	j	80007664 <__muldf3+0x4a0>
800075a0:	001bd793          	srli	a5,s7,0x1
800075a4:	001bfb93          	andi	s7,s7,1
800075a8:	0177e7b3          	or	a5,a5,s7
800075ac:	01f41b93          	slli	s7,s0,0x1f
800075b0:	0177ebb3          	or	s7,a5,s7
800075b4:	00145413          	srli	s0,s0,0x1
800075b8:	400b0793          	addi	a5,s6,1024
800075bc:	001b0b13          	addi	s6,s6,1
800075c0:	16f05c63          	blez	a5,80007738 <__muldf3+0x574>
800075c4:	007bf713          	andi	a4,s7,7
800075c8:	f8070ee3          	beqz	a4,80007564 <__muldf3+0x3a0>
800075cc:	00fbf713          	andi	a4,s7,15
800075d0:	00400693          	li	a3,4
800075d4:	f8d710e3          	bne	a4,a3,80007554 <__muldf3+0x390>
800075d8:	f8dff06f          	j	80007564 <__muldf3+0x3a0>
800075dc:	018ae633          	or	a2,s5,s8
800075e0:	7ffb0b13          	addi	s6,s6,2047
800075e4:	12061a63          	bnez	a2,80007718 <__muldf3+0x554>
800075e8:	00a00793          	li	a5,10
800075ec:	ced7c8e3          	blt	a5,a3,800072dc <__muldf3+0x118>
800075f0:	00200793          	li	a5,2
800075f4:	009a4a33          	xor	s4,s4,s1
800075f8:	00068c93          	mv	s9,a3
800075fc:	00000a93          	li	s5,0
80007600:	caf696e3          	bne	a3,a5,800072ac <__muldf3+0xe8>
80007604:	00068d13          	mv	s10,a3
80007608:	00000413          	li	s0,0
8000760c:	00000b93          	li	s7,0
80007610:	ccdff06f          	j	800072dc <__muldf3+0x118>
80007614:	00a46bb3          	or	s7,s0,a0
80007618:	080b8e63          	beqz	s7,800076b4 <__muldf3+0x4f0>
8000761c:	1a040a63          	beqz	s0,800077d0 <__muldf3+0x60c>
80007620:	00040513          	mv	a0,s0
80007624:	5b1000ef          	jal	ra,800083d4 <__clzsi2>
80007628:	00050713          	mv	a4,a0
8000762c:	ff550693          	addi	a3,a0,-11
80007630:	01d00793          	li	a5,29
80007634:	ff870b93          	addi	s7,a4,-8
80007638:	40d787b3          	sub	a5,a5,a3
8000763c:	01741433          	sll	s0,s0,s7
80007640:	00fad7b3          	srl	a5,s5,a5
80007644:	0087e433          	or	s0,a5,s0
80007648:	017a9bb3          	sll	s7,s5,s7
8000764c:	c0d00793          	li	a5,-1011
80007650:	40e78b33          	sub	s6,a5,a4
80007654:	bedff06f          	j	80007240 <__muldf3+0x7c>
80007658:	7ff00793          	li	a5,2047
8000765c:	00000413          	li	s0,0
80007660:	00000713          	li	a4,0
80007664:	01479793          	slli	a5,a5,0x14
80007668:	02c12083          	lw	ra,44(sp)
8000766c:	0087e7b3          	or	a5,a5,s0
80007670:	02812403          	lw	s0,40(sp)
80007674:	01fa1593          	slli	a1,s4,0x1f
80007678:	00b7e7b3          	or	a5,a5,a1
8000767c:	02412483          	lw	s1,36(sp)
80007680:	02012903          	lw	s2,32(sp)
80007684:	01c12983          	lw	s3,28(sp)
80007688:	01812a03          	lw	s4,24(sp)
8000768c:	01412a83          	lw	s5,20(sp)
80007690:	01012b03          	lw	s6,16(sp)
80007694:	00c12b83          	lw	s7,12(sp)
80007698:	00812c03          	lw	s8,8(sp)
8000769c:	00412c83          	lw	s9,4(sp)
800076a0:	00012d03          	lw	s10,0(sp)
800076a4:	00070513          	mv	a0,a4
800076a8:	00078593          	mv	a1,a5
800076ac:	03010113          	addi	sp,sp,48
800076b0:	00008067          	ret
800076b4:	00000413          	li	s0,0
800076b8:	00700513          	li	a0,7
800076bc:	00500593          	li	a1,5
800076c0:	00600693          	li	a3,6
800076c4:	00400c93          	li	s9,4
800076c8:	00000b13          	li	s6,0
800076cc:	00100d13          	li	s10,1
800076d0:	b85ff06f          	j	80007254 <__muldf3+0x90>
800076d4:	00050b93          	mv	s7,a0
800076d8:	00078b13          	mv	s6,a5
800076dc:	00f00513          	li	a0,15
800076e0:	00d00593          	li	a1,13
800076e4:	00e00693          	li	a3,14
800076e8:	00c00c93          	li	s9,12
800076ec:	00300d13          	li	s10,3
800076f0:	b65ff06f          	j	80007254 <__muldf3+0x90>
800076f4:	00a00713          	li	a4,10
800076f8:	beb742e3          	blt	a4,a1,800072dc <__muldf3+0x118>
800076fc:	00200713          	li	a4,2
80007700:	009a4a33          	xor	s4,s4,s1
80007704:	18b75863          	bge	a4,a1,80007894 <__muldf3+0x6d0>
80007708:	00058c93          	mv	s9,a1
8000770c:	00000a93          	li	s5,0
80007710:	00100793          	li	a5,1
80007714:	b99ff06f          	j	800072ac <__muldf3+0xe8>
80007718:	00a00713          	li	a4,10
8000771c:	0aa74263          	blt	a4,a0,800077c0 <__muldf3+0x5fc>
80007720:	00100693          	li	a3,1
80007724:	009a4a33          	xor	s4,s4,s1
80007728:	000c0613          	mv	a2,s8
8000772c:	00a696b3          	sll	a3,a3,a0
80007730:	00300793          	li	a5,3
80007734:	b91ff06f          	j	800072c4 <__muldf3+0x100>
80007738:	00100693          	li	a3,1
8000773c:	0e079063          	bnez	a5,8000781c <__muldf3+0x658>
80007740:	41eb0b13          	addi	s6,s6,1054
80007744:	016b97b3          	sll	a5,s7,s6
80007748:	00f037b3          	snez	a5,a5
8000774c:	01641b33          	sll	s6,s0,s6
80007750:	0167e7b3          	or	a5,a5,s6
80007754:	00dbd733          	srl	a4,s7,a3
80007758:	00f76733          	or	a4,a4,a5
8000775c:	00777793          	andi	a5,a4,7
80007760:	00d456b3          	srl	a3,s0,a3
80007764:	02078063          	beqz	a5,80007784 <__muldf3+0x5c0>
80007768:	00f77793          	andi	a5,a4,15
8000776c:	00400613          	li	a2,4
80007770:	00c78a63          	beq	a5,a2,80007784 <__muldf3+0x5c0>
80007774:	00c707b3          	add	a5,a4,a2
80007778:	00e7b733          	sltu	a4,a5,a4
8000777c:	00e686b3          	add	a3,a3,a4
80007780:	00078713          	mv	a4,a5
80007784:	00869793          	slli	a5,a3,0x8
80007788:	1007dc63          	bgez	a5,800078a0 <__muldf3+0x6dc>
8000778c:	00100793          	li	a5,1
80007790:	00000413          	li	s0,0
80007794:	00000713          	li	a4,0
80007798:	ecdff06f          	j	80007664 <__muldf3+0x4a0>
8000779c:	00000a13          	li	s4,0
800077a0:	7ff00793          	li	a5,2047
800077a4:	00080437          	lui	s0,0x80
800077a8:	ebdff06f          	j	80007664 <__muldf3+0x4a0>
800077ac:	00000a13          	li	s4,0
800077b0:	7ff00793          	li	a5,2047
800077b4:	00080437          	lui	s0,0x80
800077b8:	00000713          	li	a4,0
800077bc:	ea9ff06f          	j	80007664 <__muldf3+0x4a0>
800077c0:	00000a13          	li	s4,0
800077c4:	00080437          	lui	s0,0x80
800077c8:	00000713          	li	a4,0
800077cc:	e99ff06f          	j	80007664 <__muldf3+0x4a0>
800077d0:	405000ef          	jal	ra,800083d4 <__clzsi2>
800077d4:	01550693          	addi	a3,a0,21
800077d8:	01c00793          	li	a5,28
800077dc:	02050713          	addi	a4,a0,32
800077e0:	e4d7d8e3          	bge	a5,a3,80007630 <__muldf3+0x46c>
800077e4:	ff850513          	addi	a0,a0,-8
800077e8:	00aa9433          	sll	s0,s5,a0
800077ec:	00000b93          	li	s7,0
800077f0:	e5dff06f          	j	8000764c <__muldf3+0x488>
800077f4:	000c0513          	mv	a0,s8
800077f8:	3dd000ef          	jal	ra,800083d4 <__clzsi2>
800077fc:	01550713          	addi	a4,a0,21
80007800:	01c00693          	li	a3,28
80007804:	02050793          	addi	a5,a0,32
80007808:	b4e6dae3          	bge	a3,a4,8000735c <__muldf3+0x198>
8000780c:	ff850513          	addi	a0,a0,-8
80007810:	00ac1ab3          	sll	s5,s8,a0
80007814:	00000613          	li	a2,0
80007818:	b61ff06f          	j	80007378 <__muldf3+0x1b4>
8000781c:	40f686b3          	sub	a3,a3,a5
80007820:	03800713          	li	a4,56
80007824:	acd748e3          	blt	a4,a3,800072f4 <__muldf3+0x130>
80007828:	01f00713          	li	a4,31
8000782c:	f0d75ae3          	bge	a4,a3,80007740 <__muldf3+0x57c>
80007830:	fe100713          	li	a4,-31
80007834:	40f707b3          	sub	a5,a4,a5
80007838:	02000713          	li	a4,32
8000783c:	00f457b3          	srl	a5,s0,a5
80007840:	00e68863          	beq	a3,a4,80007850 <__muldf3+0x68c>
80007844:	43eb0b13          	addi	s6,s6,1086
80007848:	01641b33          	sll	s6,s0,s6
8000784c:	016bebb3          	or	s7,s7,s6
80007850:	01703733          	snez	a4,s7
80007854:	00f76733          	or	a4,a4,a5
80007858:	00777793          	andi	a5,a4,7
8000785c:	00000413          	li	s0,0
80007860:	02078263          	beqz	a5,80007884 <__muldf3+0x6c0>
80007864:	00f77693          	andi	a3,a4,15
80007868:	00400613          	li	a2,4
8000786c:	00000793          	li	a5,0
80007870:	00c68a63          	beq	a3,a2,80007884 <__muldf3+0x6c0>
80007874:	00c706b3          	add	a3,a4,a2
80007878:	00e6b733          	sltu	a4,a3,a4
8000787c:	01d71793          	slli	a5,a4,0x1d
80007880:	00068713          	mv	a4,a3
80007884:	00375713          	srli	a4,a4,0x3
80007888:	00f76733          	or	a4,a4,a5
8000788c:	00000793          	li	a5,0
80007890:	dd5ff06f          	j	80007664 <__muldf3+0x4a0>
80007894:	00000713          	li	a4,0
80007898:	00000413          	li	s0,0
8000789c:	dc9ff06f          	j	80007664 <__muldf3+0x4a0>
800078a0:	00969413          	slli	s0,a3,0x9
800078a4:	00c45413          	srli	s0,s0,0xc
800078a8:	01d69793          	slli	a5,a3,0x1d
800078ac:	fd9ff06f          	j	80007884 <__muldf3+0x6c0>

800078b0 <__subdf3>:
800078b0:	001007b7          	lui	a5,0x100
800078b4:	fff78793          	addi	a5,a5,-1 # fffff <_entry_offset+0xfffff>
800078b8:	fe010113          	addi	sp,sp,-32
800078bc:	00b7f8b3          	and	a7,a5,a1
800078c0:	0146d813          	srli	a6,a3,0x14
800078c4:	00d7f7b3          	and	a5,a5,a3
800078c8:	0145d313          	srli	t1,a1,0x14
800078cc:	00389893          	slli	a7,a7,0x3
800078d0:	01212823          	sw	s2,16(sp)
800078d4:	01412423          	sw	s4,8(sp)
800078d8:	01f5d913          	srli	s2,a1,0x1f
800078dc:	01512223          	sw	s5,4(sp)
800078e0:	00379793          	slli	a5,a5,0x3
800078e4:	01d55a13          	srli	s4,a0,0x1d
800078e8:	01d65713          	srli	a4,a2,0x1d
800078ec:	7ff00593          	li	a1,2047
800078f0:	00112e23          	sw	ra,28(sp)
800078f4:	00812c23          	sw	s0,24(sp)
800078f8:	00912a23          	sw	s1,20(sp)
800078fc:	01312623          	sw	s3,12(sp)
80007900:	7ff87813          	andi	a6,a6,2047
80007904:	011a6a33          	or	s4,s4,a7
80007908:	00b37ab3          	and	s5,t1,a1
8000790c:	00060e13          	mv	t3,a2
80007910:	00f76733          	or	a4,a4,a5
80007914:	01f6d693          	srli	a3,a3,0x1f
80007918:	00090893          	mv	a7,s2
8000791c:	00351e93          	slli	t4,a0,0x3
80007920:	00361313          	slli	t1,a2,0x3
80007924:	16b80463          	beq	a6,a1,80007a8c <__subdf3+0x1dc>
80007928:	0016c693          	xori	a3,a3,1
8000792c:	410a87b3          	sub	a5,s5,a6
80007930:	04d90863          	beq	s2,a3,80007980 <__subdf3+0xd0>
80007934:	74f05663          	blez	a5,80008080 <__subdf3+0x7d0>
80007938:	1a081063          	bnez	a6,80007ad8 <__subdf3+0x228>
8000793c:	006766b3          	or	a3,a4,t1
80007940:	36068863          	beqz	a3,80007cb0 <__subdf3+0x400>
80007944:	fff78693          	addi	a3,a5,-1
80007948:	76068863          	beqz	a3,800080b8 <__subdf3+0x808>
8000794c:	3ab78263          	beq	a5,a1,80007cf0 <__subdf3+0x440>
80007950:	03800613          	li	a2,56
80007954:	66d65663          	bge	a2,a3,80007fc0 <__subdf3+0x710>
80007958:	fffe8993          	addi	s3,t4,-1
8000795c:	013ebeb3          	sltu	t4,t4,s3
80007960:	41da0a33          	sub	s4,s4,t4
80007964:	008a1693          	slli	a3,s4,0x8
80007968:	00800737          	lui	a4,0x800
8000796c:	00078a93          	mv	s5,a5
80007970:	0806da63          	bgez	a3,80007a04 <__subdf3+0x154>
80007974:	fff70a13          	addi	s4,a4,-1 # 7fffff <_entry_offset+0x7fffff>
80007978:	fff00993          	li	s3,-1
8000797c:	1880006f          	j	80007b04 <__subdf3+0x254>
80007980:	7ef05663          	blez	a5,8000816c <__subdf3+0x8bc>
80007984:	2a081e63          	bnez	a6,80007c40 <__subdf3+0x390>
80007988:	006766b3          	or	a3,a4,t1
8000798c:	32068263          	beqz	a3,80007cb0 <__subdf3+0x400>
80007990:	fff78693          	addi	a3,a5,-1
80007994:	68068463          	beqz	a3,8000801c <__subdf3+0x76c>
80007998:	00b786e3          	beq	a5,a1,800081a4 <__subdf3+0x8f4>
8000799c:	03800613          	li	a2,56
800079a0:	08d65ee3          	bge	a2,a3,8000823c <__subdf3+0x98c>
800079a4:	008a1693          	slli	a3,s4,0x8
800079a8:	00800737          	lui	a4,0x800
800079ac:	001e8993          	addi	s3,t4,1
800079b0:	00078a93          	mv	s5,a5
800079b4:	0406d863          	bgez	a3,80007a04 <__subdf3+0x154>
800079b8:	00070a13          	mv	s4,a4
800079bc:	00000993          	li	s3,0
800079c0:	001a8a93          	addi	s5,s5,1
800079c4:	7ff00793          	li	a5,2047
800079c8:	2cfa8c63          	beq	s5,a5,80007ca0 <__subdf3+0x3f0>
800079cc:	ff8007b7          	lui	a5,0xff800
800079d0:	fff78793          	addi	a5,a5,-1 # ff7fffff <_end+0x7f7b5fff>
800079d4:	00fa77b3          	and	a5,s4,a5
800079d8:	0019d713          	srli	a4,s3,0x1
800079dc:	0019f513          	andi	a0,s3,1
800079e0:	01f79693          	slli	a3,a5,0x1f
800079e4:	00a76733          	or	a4,a4,a0
800079e8:	0017da13          	srli	s4,a5,0x1
800079ec:	00e6e9b3          	or	s3,a3,a4
800079f0:	0079f793          	andi	a5,s3,7
800079f4:	02078063          	beqz	a5,80007a14 <__subdf3+0x164>
800079f8:	00f9f793          	andi	a5,s3,15
800079fc:	00400713          	li	a4,4
80007a00:	00e78a63          	beq	a5,a4,80007a14 <__subdf3+0x164>
80007a04:	00498793          	addi	a5,s3,4
80007a08:	0137b533          	sltu	a0,a5,s3
80007a0c:	00aa0a33          	add	s4,s4,a0
80007a10:	00078993          	mv	s3,a5
80007a14:	008a1793          	slli	a5,s4,0x8
80007a18:	3407da63          	bgez	a5,80007d6c <__subdf3+0x4bc>
80007a1c:	001a8793          	addi	a5,s5,1
80007a20:	7ff00713          	li	a4,2047
80007a24:	00197893          	andi	a7,s2,1
80007a28:	26e78e63          	beq	a5,a4,80007ca4 <__subdf3+0x3f4>
80007a2c:	ff800737          	lui	a4,0xff800
80007a30:	fff70713          	addi	a4,a4,-1 # ff7fffff <_end+0x7f7b5fff>
80007a34:	7ff7f793          	andi	a5,a5,2047
80007a38:	00ea7733          	and	a4,s4,a4
80007a3c:	01d71613          	slli	a2,a4,0x1d
80007a40:	0039d513          	srli	a0,s3,0x3
80007a44:	00971713          	slli	a4,a4,0x9
80007a48:	00a66633          	or	a2,a2,a0
80007a4c:	00c75713          	srli	a4,a4,0xc
80007a50:	01c12083          	lw	ra,28(sp)
80007a54:	01812403          	lw	s0,24(sp)
80007a58:	01479793          	slli	a5,a5,0x14
80007a5c:	00e7e7b3          	or	a5,a5,a4
80007a60:	01f89713          	slli	a4,a7,0x1f
80007a64:	00e7e7b3          	or	a5,a5,a4
80007a68:	01412483          	lw	s1,20(sp)
80007a6c:	01012903          	lw	s2,16(sp)
80007a70:	00c12983          	lw	s3,12(sp)
80007a74:	00812a03          	lw	s4,8(sp)
80007a78:	00412a83          	lw	s5,4(sp)
80007a7c:	00060513          	mv	a0,a2
80007a80:	00078593          	mv	a1,a5
80007a84:	02010113          	addi	sp,sp,32
80007a88:	00008067          	ret
80007a8c:	006767b3          	or	a5,a4,t1
80007a90:	801a8613          	addi	a2,s5,-2047
80007a94:	0e078063          	beqz	a5,80007b74 <__subdf3+0x2c4>
80007a98:	0ed90263          	beq	s2,a3,80007b7c <__subdf3+0x2cc>
80007a9c:	12060663          	beqz	a2,80007bc8 <__subdf3+0x318>
80007aa0:	400a8663          	beqz	s5,80007eac <__subdf3+0x5fc>
80007aa4:	003e1793          	slli	a5,t3,0x3
80007aa8:	01d71613          	slli	a2,a4,0x1d
80007aac:	0037d793          	srli	a5,a5,0x3
80007ab0:	00068913          	mv	s2,a3
80007ab4:	00f66633          	or	a2,a2,a5
80007ab8:	00375713          	srli	a4,a4,0x3
80007abc:	00e66633          	or	a2,a2,a4
80007ac0:	22060063          	beqz	a2,80007ce0 <__subdf3+0x430>
80007ac4:	00000893          	li	a7,0
80007ac8:	7ff00793          	li	a5,2047
80007acc:	00080737          	lui	a4,0x80
80007ad0:	00000613          	li	a2,0
80007ad4:	f7dff06f          	j	80007a50 <__subdf3+0x1a0>
80007ad8:	20ba8c63          	beq	s5,a1,80007cf0 <__subdf3+0x440>
80007adc:	03800693          	li	a3,56
80007ae0:	22f6d463          	bge	a3,a5,80007d08 <__subdf3+0x458>
80007ae4:	fffe8993          	addi	s3,t4,-1
80007ae8:	013ebeb3          	sltu	t4,t4,s3
80007aec:	41da0a33          	sub	s4,s4,t4
80007af0:	008a1713          	slli	a4,s4,0x8
80007af4:	008007b7          	lui	a5,0x800
80007af8:	f00756e3          	bgez	a4,80007a04 <__subdf3+0x154>
80007afc:	fff78a13          	addi	s4,a5,-1 # 7fffff <_entry_offset+0x7fffff>
80007b00:	fff00993          	li	s3,-1
80007b04:	000a0513          	mv	a0,s4
80007b08:	0cd000ef          	jal	ra,800083d4 <__clzsi2>
80007b0c:	ff850793          	addi	a5,a0,-8
80007b10:	02000713          	li	a4,32
80007b14:	40f706b3          	sub	a3,a4,a5
80007b18:	00d9d6b3          	srl	a3,s3,a3
80007b1c:	00fa1a33          	sll	s4,s4,a5
80007b20:	0146e6b3          	or	a3,a3,s4
80007b24:	00f999b3          	sll	s3,s3,a5
80007b28:	3757c263          	blt	a5,s5,80007e8c <__subdf3+0x5dc>
80007b2c:	415787b3          	sub	a5,a5,s5
80007b30:	00178793          	addi	a5,a5,1
80007b34:	40f70733          	sub	a4,a4,a5
80007b38:	00e99633          	sll	a2,s3,a4
80007b3c:	00c03633          	snez	a2,a2
80007b40:	00f9da33          	srl	s4,s3,a5
80007b44:	00ca6633          	or	a2,s4,a2
80007b48:	00e69733          	sll	a4,a3,a4
80007b4c:	00c769b3          	or	s3,a4,a2
80007b50:	00f6da33          	srl	s4,a3,a5
80007b54:	0149e7b3          	or	a5,s3,s4
80007b58:	00000a93          	li	s5,0
80007b5c:	e8079ae3          	bnez	a5,800079f0 <__subdf3+0x140>
80007b60:	00197893          	andi	a7,s2,1
80007b64:	00000793          	li	a5,0
80007b68:	00000713          	li	a4,0
80007b6c:	00000613          	li	a2,0
80007b70:	ee1ff06f          	j	80007a50 <__subdf3+0x1a0>
80007b74:	0016c693          	xori	a3,a3,1
80007b78:	f2d912e3          	bne	s2,a3,80007a9c <__subdf3+0x1ec>
80007b7c:	26060e63          	beqz	a2,80007df8 <__subdf3+0x548>
80007b80:	420a9463          	bnez	s5,80007fa8 <__subdf3+0x6f8>
80007b84:	00080793          	mv	a5,a6
80007b88:	01da66b3          	or	a3,s4,t4
80007b8c:	70068a63          	beqz	a3,800082a0 <__subdf3+0x9f0>
80007b90:	fff78693          	addi	a3,a5,-1
80007b94:	48068463          	beqz	a3,8000801c <__subdf3+0x76c>
80007b98:	7ff00613          	li	a2,2047
80007b9c:	40c78663          	beq	a5,a2,80007fa8 <__subdf3+0x6f8>
80007ba0:	03800613          	li	a2,56
80007ba4:	7ed65c63          	bge	a2,a3,8000839c <__subdf3+0xaec>
80007ba8:	00871693          	slli	a3,a4,0x8
80007bac:	00800a37          	lui	s4,0x800
80007bb0:	00078a93          	mv	s5,a5
80007bb4:	00000993          	li	s3,0
80007bb8:	e006c4e3          	bltz	a3,800079c0 <__subdf3+0x110>
80007bbc:	00130993          	addi	s3,t1,1
80007bc0:	00070a13          	mv	s4,a4
80007bc4:	e41ff06f          	j	80007a04 <__subdf3+0x154>
80007bc8:	001a8793          	addi	a5,s5,1
80007bcc:	7fe7f793          	andi	a5,a5,2046
80007bd0:	28079263          	bnez	a5,80007e54 <__subdf3+0x5a4>
80007bd4:	00676633          	or	a2,a4,t1
80007bd8:	01da67b3          	or	a5,s4,t4
80007bdc:	3e0a9663          	bnez	s5,80007fc8 <__subdf3+0x718>
80007be0:	64078063          	beqz	a5,80008220 <__subdf3+0x970>
80007be4:	24060c63          	beqz	a2,80007e3c <__subdf3+0x58c>
80007be8:	406e85b3          	sub	a1,t4,t1
80007bec:	00beb633          	sltu	a2,t4,a1
80007bf0:	40ea07b3          	sub	a5,s4,a4
80007bf4:	40c787b3          	sub	a5,a5,a2
80007bf8:	00879613          	slli	a2,a5,0x8
80007bfc:	72065e63          	bgez	a2,80008338 <__subdf3+0xa88>
80007c00:	41d30eb3          	sub	t4,t1,t4
80007c04:	01d33333          	sltu	t1,t1,t4
80007c08:	41470733          	sub	a4,a4,s4
80007c0c:	40670733          	sub	a4,a4,t1
80007c10:	00eee7b3          	or	a5,t4,a4
80007c14:	000e8993          	mv	s3,t4
80007c18:	00068913          	mv	s2,a3
80007c1c:	f40782e3          	beqz	a5,80007b60 <__subdf3+0x2b0>
80007c20:	00871793          	slli	a5,a4,0x8
80007c24:	7807d663          	bgez	a5,800083b0 <__subdf3+0xb00>
80007c28:	ff8007b7          	lui	a5,0xff800
80007c2c:	fff78793          	addi	a5,a5,-1 # ff7fffff <_end+0x7f7b5fff>
80007c30:	00f77733          	and	a4,a4,a5
80007c34:	00068893          	mv	a7,a3
80007c38:	00100793          	li	a5,1
80007c3c:	e01ff06f          	j	80007a3c <__subdf3+0x18c>
80007c40:	0aba8863          	beq	s5,a1,80007cf0 <__subdf3+0x440>
80007c44:	03800693          	li	a3,56
80007c48:	2ef6ca63          	blt	a3,a5,80007f3c <__subdf3+0x68c>
80007c4c:	008006b7          	lui	a3,0x800
80007c50:	00d76733          	or	a4,a4,a3
80007c54:	01f00693          	li	a3,31
80007c58:	48f6ca63          	blt	a3,a5,800080ec <__subdf3+0x83c>
80007c5c:	02000613          	li	a2,32
80007c60:	40f60633          	sub	a2,a2,a5
80007c64:	00c716b3          	sll	a3,a4,a2
80007c68:	00c31633          	sll	a2,t1,a2
80007c6c:	00f35333          	srl	t1,t1,a5
80007c70:	00f75733          	srl	a4,a4,a5
80007c74:	00c03633          	snez	a2,a2
80007c78:	0066e6b3          	or	a3,a3,t1
80007c7c:	00c6e7b3          	or	a5,a3,a2
80007c80:	00ea0a33          	add	s4,s4,a4
80007c84:	01d78eb3          	add	t4,a5,t4
80007c88:	00feb7b3          	sltu	a5,t4,a5
80007c8c:	00fa0a33          	add	s4,s4,a5
80007c90:	000e8993          	mv	s3,t4
80007c94:	008a1793          	slli	a5,s4,0x8
80007c98:	d207c4e3          	bltz	a5,800079c0 <__subdf3+0x110>
80007c9c:	0bc0006f          	j	80007d58 <__subdf3+0x4a8>
80007ca0:	000a8793          	mv	a5,s5
80007ca4:	00000713          	li	a4,0
80007ca8:	00000613          	li	a2,0
80007cac:	da5ff06f          	j	80007a50 <__subdf3+0x1a0>
80007cb0:	00351513          	slli	a0,a0,0x3
80007cb4:	00355513          	srli	a0,a0,0x3
80007cb8:	01da1613          	slli	a2,s4,0x1d
80007cbc:	7ff00693          	li	a3,2047
80007cc0:	00a66633          	or	a2,a2,a0
80007cc4:	003a5713          	srli	a4,s4,0x3
80007cc8:	ded78ae3          	beq	a5,a3,80007abc <__subdf3+0x20c>
80007ccc:	00c71713          	slli	a4,a4,0xc
80007cd0:	00c75713          	srli	a4,a4,0xc
80007cd4:	7ff7f793          	andi	a5,a5,2047
80007cd8:	00197893          	andi	a7,s2,1
80007cdc:	d75ff06f          	j	80007a50 <__subdf3+0x1a0>
80007ce0:	00197893          	andi	a7,s2,1
80007ce4:	7ff00793          	li	a5,2047
80007ce8:	00000713          	li	a4,0
80007cec:	d65ff06f          	j	80007a50 <__subdf3+0x1a0>
80007cf0:	00351513          	slli	a0,a0,0x3
80007cf4:	00355513          	srli	a0,a0,0x3
80007cf8:	01da1613          	slli	a2,s4,0x1d
80007cfc:	00a66633          	or	a2,a2,a0
80007d00:	003a5713          	srli	a4,s4,0x3
80007d04:	db9ff06f          	j	80007abc <__subdf3+0x20c>
80007d08:	008006b7          	lui	a3,0x800
80007d0c:	00d76733          	or	a4,a4,a3
80007d10:	01f00693          	li	a3,31
80007d14:	1ef6c063          	blt	a3,a5,80007ef4 <__subdf3+0x644>
80007d18:	02000693          	li	a3,32
80007d1c:	40f686b3          	sub	a3,a3,a5
80007d20:	00d71533          	sll	a0,a4,a3
80007d24:	00d316b3          	sll	a3,t1,a3
80007d28:	00f35333          	srl	t1,t1,a5
80007d2c:	00d036b3          	snez	a3,a3
80007d30:	00656533          	or	a0,a0,t1
80007d34:	00f75733          	srl	a4,a4,a5
80007d38:	00d56533          	or	a0,a0,a3
80007d3c:	40ea0a33          	sub	s4,s4,a4
80007d40:	40ae8533          	sub	a0,t4,a0
80007d44:	00aebeb3          	sltu	t4,t4,a0
80007d48:	41da0a33          	sub	s4,s4,t4
80007d4c:	00050993          	mv	s3,a0
80007d50:	008a1793          	slli	a5,s4,0x8
80007d54:	0207c663          	bltz	a5,80007d80 <__subdf3+0x4d0>
80007d58:	0079f793          	andi	a5,s3,7
80007d5c:	66078663          	beqz	a5,800083c8 <__subdf3+0xb18>
80007d60:	00f9f793          	andi	a5,s3,15
80007d64:	00400713          	li	a4,4
80007d68:	c8e79ee3          	bne	a5,a4,80007a04 <__subdf3+0x154>
80007d6c:	000a8793          	mv	a5,s5
80007d70:	0039d513          	srli	a0,s3,0x3
80007d74:	f45ff06f          	j	80007cb8 <__subdf3+0x408>
80007d78:	00068913          	mv	s2,a3
80007d7c:	00100a93          	li	s5,1
80007d80:	009a1a13          	slli	s4,s4,0x9
80007d84:	009a5a13          	srli	s4,s4,0x9
80007d88:	d60a1ee3          	bnez	s4,80007b04 <__subdf3+0x254>
80007d8c:	00098513          	mv	a0,s3
80007d90:	644000ef          	jal	ra,800083d4 <__clzsi2>
80007d94:	01850793          	addi	a5,a0,24
80007d98:	01f00713          	li	a4,31
80007d9c:	d6f75ae3          	bge	a4,a5,80007b10 <__subdf3+0x260>
80007da0:	ff850513          	addi	a0,a0,-8
80007da4:	00a996b3          	sll	a3,s3,a0
80007da8:	1757cc63          	blt	a5,s5,80007f20 <__subdf3+0x670>
80007dac:	41578533          	sub	a0,a5,s5
80007db0:	00150793          	addi	a5,a0,1
80007db4:	54f75e63          	bge	a4,a5,80008310 <__subdf3+0xa60>
80007db8:	fe150513          	addi	a0,a0,-31
80007dbc:	02000713          	li	a4,32
80007dc0:	00a6d9b3          	srl	s3,a3,a0
80007dc4:	00e78c63          	beq	a5,a4,80007ddc <__subdf3+0x52c>
80007dc8:	04000713          	li	a4,64
80007dcc:	40f707b3          	sub	a5,a4,a5
80007dd0:	00f697b3          	sll	a5,a3,a5
80007dd4:	00f037b3          	snez	a5,a5
80007dd8:	00f9e9b3          	or	s3,s3,a5
80007ddc:	d80982e3          	beqz	s3,80007b60 <__subdf3+0x2b0>
80007de0:	0079f793          	andi	a5,s3,7
80007de4:	00000a93          	li	s5,0
80007de8:	c00798e3          	bnez	a5,800079f8 <__subdf3+0x148>
80007dec:	00000a13          	li	s4,0
80007df0:	0039d513          	srli	a0,s3,0x3
80007df4:	ec5ff06f          	j	80007cb8 <__subdf3+0x408>
80007df8:	001a8793          	addi	a5,s5,1
80007dfc:	7fe7f693          	andi	a3,a5,2046
80007e00:	14069a63          	bnez	a3,80007f54 <__subdf3+0x6a4>
80007e04:	01da67b3          	or	a5,s4,t4
80007e08:	4a0a9463          	bnez	s5,800082b0 <__subdf3+0xa00>
80007e0c:	006766b3          	or	a3,a4,t1
80007e10:	50078863          	beqz	a5,80008320 <__subdf3+0xa70>
80007e14:	02068463          	beqz	a3,80007e3c <__subdf3+0x58c>
80007e18:	006e8333          	add	t1,t4,t1
80007e1c:	01d33eb3          	sltu	t4,t1,t4
80007e20:	00ea0733          	add	a4,s4,a4
80007e24:	01d70a33          	add	s4,a4,t4
80007e28:	008a1793          	slli	a5,s4,0x8
80007e2c:	00030e93          	mv	t4,t1
80007e30:	5407c263          	bltz	a5,80008374 <__subdf3+0xac4>
80007e34:	014367b3          	or	a5,t1,s4
80007e38:	d20784e3          	beqz	a5,80007b60 <__subdf3+0x2b0>
80007e3c:	003ede93          	srli	t4,t4,0x3
80007e40:	01da1613          	slli	a2,s4,0x1d
80007e44:	01d66633          	or	a2,a2,t4
80007e48:	003a5713          	srli	a4,s4,0x3
80007e4c:	00000793          	li	a5,0
80007e50:	e7dff06f          	j	80007ccc <__subdf3+0x41c>
80007e54:	406e8533          	sub	a0,t4,t1
80007e58:	00aeb633          	sltu	a2,t4,a0
80007e5c:	40ea07b3          	sub	a5,s4,a4
80007e60:	40c787b3          	sub	a5,a5,a2
80007e64:	00879613          	slli	a2,a5,0x8
80007e68:	00050993          	mv	s3,a0
80007e6c:	18064063          	bltz	a2,80007fec <__subdf3+0x73c>
80007e70:	00f56633          	or	a2,a0,a5
80007e74:	00078a13          	mv	s4,a5
80007e78:	f00618e3          	bnez	a2,80007d88 <__subdf3+0x4d8>
80007e7c:	00000893          	li	a7,0
80007e80:	00000793          	li	a5,0
80007e84:	00000713          	li	a4,0
80007e88:	bc9ff06f          	j	80007a50 <__subdf3+0x1a0>
80007e8c:	ff800a37          	lui	s4,0xff800
80007e90:	fffa0a13          	addi	s4,s4,-1 # ff7fffff <_end+0x7f7b5fff>
80007e94:	0079f713          	andi	a4,s3,7
80007e98:	40fa8ab3          	sub	s5,s5,a5
80007e9c:	0146fa33          	and	s4,a3,s4
80007ea0:	ec0710e3          	bnez	a4,80007d60 <__subdf3+0x4b0>
80007ea4:	000a8793          	mv	a5,s5
80007ea8:	ec9ff06f          	j	80007d70 <__subdf3+0x4c0>
80007eac:	00080793          	mv	a5,a6
80007eb0:	01da6633          	or	a2,s4,t4
80007eb4:	14060a63          	beqz	a2,80008008 <__subdf3+0x758>
80007eb8:	fff78613          	addi	a2,a5,-1
80007ebc:	32060663          	beqz	a2,800081e8 <__subdf3+0x938>
80007ec0:	7ff00593          	li	a1,2047
80007ec4:	beb780e3          	beq	a5,a1,80007aa4 <__subdf3+0x1f4>
80007ec8:	03800593          	li	a1,56
80007ecc:	40c5d663          	bge	a1,a2,800082d8 <__subdf3+0xa28>
80007ed0:	fff30993          	addi	s3,t1,-1
80007ed4:	01333333          	sltu	t1,t1,s3
80007ed8:	40670a33          	sub	s4,a4,t1
80007edc:	008a1613          	slli	a2,s4,0x8
80007ee0:	00800737          	lui	a4,0x800
80007ee4:	4c064063          	bltz	a2,800083a4 <__subdf3+0xaf4>
80007ee8:	00068913          	mv	s2,a3
80007eec:	00078a93          	mv	s5,a5
80007ef0:	b15ff06f          	j	80007a04 <__subdf3+0x154>
80007ef4:	fe078693          	addi	a3,a5,-32
80007ef8:	02000613          	li	a2,32
80007efc:	00d756b3          	srl	a3,a4,a3
80007f00:	00c78a63          	beq	a5,a2,80007f14 <__subdf3+0x664>
80007f04:	04000613          	li	a2,64
80007f08:	40f607b3          	sub	a5,a2,a5
80007f0c:	00f717b3          	sll	a5,a4,a5
80007f10:	00f36333          	or	t1,t1,a5
80007f14:	00603533          	snez	a0,t1
80007f18:	00d56533          	or	a0,a0,a3
80007f1c:	e25ff06f          	j	80007d40 <__subdf3+0x490>
80007f20:	ff800737          	lui	a4,0xff800
80007f24:	fff70713          	addi	a4,a4,-1 # ff7fffff <_end+0x7f7b5fff>
80007f28:	00e6f733          	and	a4,a3,a4
80007f2c:	01d71613          	slli	a2,a4,0x1d
80007f30:	40fa87b3          	sub	a5,s5,a5
80007f34:	00375713          	srli	a4,a4,0x3
80007f38:	d95ff06f          	j	80007ccc <__subdf3+0x41c>
80007f3c:	008a1713          	slli	a4,s4,0x8
80007f40:	008007b7          	lui	a5,0x800
80007f44:	2e075863          	bgez	a4,80008234 <__subdf3+0x984>
80007f48:	00078a13          	mv	s4,a5
80007f4c:	00000993          	li	s3,0
80007f50:	a71ff06f          	j	800079c0 <__subdf3+0x110>
80007f54:	7ff00693          	li	a3,2047
80007f58:	d4d786e3          	beq	a5,a3,80007ca4 <__subdf3+0x3f4>
80007f5c:	006e8333          	add	t1,t4,t1
80007f60:	01d33eb3          	sltu	t4,t1,t4
80007f64:	00ea0733          	add	a4,s4,a4
80007f68:	01d70733          	add	a4,a4,t4
80007f6c:	00135313          	srli	t1,t1,0x1
80007f70:	01f71513          	slli	a0,a4,0x1f
80007f74:	00737693          	andi	a3,t1,7
80007f78:	006569b3          	or	s3,a0,t1
80007f7c:	00175a13          	srli	s4,a4,0x1
80007f80:	00068a63          	beqz	a3,80007f94 <__subdf3+0x6e4>
80007f84:	00f9f693          	andi	a3,s3,15
80007f88:	00400613          	li	a2,4
80007f8c:	00078a93          	mv	s5,a5
80007f90:	a6c69ae3          	bne	a3,a2,80007a04 <__subdf3+0x154>
80007f94:	0039d513          	srli	a0,s3,0x3
80007f98:	01da1613          	slli	a2,s4,0x1d
80007f9c:	00c56633          	or	a2,a0,a2
80007fa0:	00475713          	srli	a4,a4,0x4
80007fa4:	d29ff06f          	j	80007ccc <__subdf3+0x41c>
80007fa8:	003e1793          	slli	a5,t3,0x3
80007fac:	01d71613          	slli	a2,a4,0x1d
80007fb0:	0037d793          	srli	a5,a5,0x3
80007fb4:	00f66633          	or	a2,a2,a5
80007fb8:	00375713          	srli	a4,a4,0x3
80007fbc:	b01ff06f          	j	80007abc <__subdf3+0x20c>
80007fc0:	00068793          	mv	a5,a3
80007fc4:	d4dff06f          	j	80007d10 <__subdf3+0x460>
80007fc8:	1c079c63          	bnez	a5,800081a0 <__subdf3+0x8f0>
80007fcc:	38060c63          	beqz	a2,80008364 <__subdf3+0xab4>
80007fd0:	003e1613          	slli	a2,t3,0x3
80007fd4:	01d71793          	slli	a5,a4,0x1d
80007fd8:	00365613          	srli	a2,a2,0x3
80007fdc:	00068913          	mv	s2,a3
80007fe0:	00c7e633          	or	a2,a5,a2
80007fe4:	00375713          	srli	a4,a4,0x3
80007fe8:	ad5ff06f          	j	80007abc <__subdf3+0x20c>
80007fec:	41d30eb3          	sub	t4,t1,t4
80007ff0:	01d33333          	sltu	t1,t1,t4
80007ff4:	41470733          	sub	a4,a4,s4
80007ff8:	000e8993          	mv	s3,t4
80007ffc:	40670a33          	sub	s4,a4,t1
80008000:	00068913          	mv	s2,a3
80008004:	d85ff06f          	j	80007d88 <__subdf3+0x4d8>
80008008:	003e1613          	slli	a2,t3,0x3
8000800c:	00365513          	srli	a0,a2,0x3
80008010:	00068913          	mv	s2,a3
80008014:	00070a13          	mv	s4,a4
80008018:	ca1ff06f          	j	80007cb8 <__subdf3+0x408>
8000801c:	006e8333          	add	t1,t4,t1
80008020:	01d33eb3          	sltu	t4,t1,t4
80008024:	00ea0733          	add	a4,s4,a4
80008028:	01d70733          	add	a4,a4,t4
8000802c:	00871793          	slli	a5,a4,0x8
80008030:	2807d863          	bgez	a5,800082c0 <__subdf3+0xa10>
80008034:	ff8007b7          	lui	a5,0xff800
80008038:	fff78793          	addi	a5,a5,-1 # ff7fffff <_end+0x7f7b5fff>
8000803c:	00135693          	srli	a3,t1,0x1
80008040:	00f77733          	and	a4,a4,a5
80008044:	01f71793          	slli	a5,a4,0x1f
80008048:	0076f593          	andi	a1,a3,7
8000804c:	00d7e7b3          	or	a5,a5,a3
80008050:	00175613          	srli	a2,a4,0x1
80008054:	2e058c63          	beqz	a1,8000834c <__subdf3+0xa9c>
80008058:	00f7f693          	andi	a3,a5,15
8000805c:	00400593          	li	a1,4
80008060:	2eb68663          	beq	a3,a1,8000834c <__subdf3+0xa9c>
80008064:	00b78533          	add	a0,a5,a1
80008068:	00f537b3          	sltu	a5,a0,a5
8000806c:	00050993          	mv	s3,a0
80008070:	00c78a33          	add	s4,a5,a2
80008074:	0039d513          	srli	a0,s3,0x3
80008078:	00200793          	li	a5,2
8000807c:	c3dff06f          	j	80007cb8 <__subdf3+0x408>
80008080:	b40784e3          	beqz	a5,80007bc8 <__subdf3+0x318>
80008084:	415807b3          	sub	a5,a6,s5
80008088:	e20a84e3          	beqz	s5,80007eb0 <__subdf3+0x600>
8000808c:	03800613          	li	a2,56
80008090:	08f65463          	bge	a2,a5,80008118 <__subdf3+0x868>
80008094:	fff30993          	addi	s3,t1,-1
80008098:	01333333          	sltu	t1,t1,s3
8000809c:	40670a33          	sub	s4,a4,t1
800080a0:	008a1713          	slli	a4,s4,0x8
800080a4:	008007b7          	lui	a5,0x800
800080a8:	1e074663          	bltz	a4,80008294 <__subdf3+0x9e4>
800080ac:	00068913          	mv	s2,a3
800080b0:	00080a93          	mv	s5,a6
800080b4:	951ff06f          	j	80007a04 <__subdf3+0x154>
800080b8:	406e8333          	sub	t1,t4,t1
800080bc:	006ebeb3          	sltu	t4,t4,t1
800080c0:	40ea0733          	sub	a4,s4,a4
800080c4:	41d70a33          	sub	s4,a4,t4
800080c8:	008a1793          	slli	a5,s4,0x8
800080cc:	00030993          	mv	s3,t1
800080d0:	ca07c6e3          	bltz	a5,80007d7c <__subdf3+0x4cc>
800080d4:	00335313          	srli	t1,t1,0x3
800080d8:	01da1613          	slli	a2,s4,0x1d
800080dc:	00666633          	or	a2,a2,t1
800080e0:	003a5713          	srli	a4,s4,0x3
800080e4:	00100793          	li	a5,1
800080e8:	be5ff06f          	j	80007ccc <__subdf3+0x41c>
800080ec:	fe078693          	addi	a3,a5,-32 # 7fffe0 <_entry_offset+0x7fffe0>
800080f0:	02000613          	li	a2,32
800080f4:	00d756b3          	srl	a3,a4,a3
800080f8:	00c78a63          	beq	a5,a2,8000810c <__subdf3+0x85c>
800080fc:	04000613          	li	a2,64
80008100:	40f607b3          	sub	a5,a2,a5
80008104:	00f717b3          	sll	a5,a4,a5
80008108:	00f36333          	or	t1,t1,a5
8000810c:	006037b3          	snez	a5,t1
80008110:	00d7e7b3          	or	a5,a5,a3
80008114:	b71ff06f          	j	80007c84 <__subdf3+0x3d4>
80008118:	00800637          	lui	a2,0x800
8000811c:	00068913          	mv	s2,a3
80008120:	00ca6a33          	or	s4,s4,a2
80008124:	01f00693          	li	a3,31
80008128:	08f6ca63          	blt	a3,a5,800081bc <__subdf3+0x90c>
8000812c:	02000693          	li	a3,32
80008130:	40f686b3          	sub	a3,a3,a5
80008134:	00da1533          	sll	a0,s4,a3
80008138:	00de96b3          	sll	a3,t4,a3
8000813c:	00fedeb3          	srl	t4,t4,a5
80008140:	00d036b3          	snez	a3,a3
80008144:	01d56533          	or	a0,a0,t4
80008148:	00fa57b3          	srl	a5,s4,a5
8000814c:	00d56533          	or	a0,a0,a3
80008150:	40f70733          	sub	a4,a4,a5
80008154:	40a30533          	sub	a0,t1,a0
80008158:	00a33333          	sltu	t1,t1,a0
8000815c:	40670a33          	sub	s4,a4,t1
80008160:	00050993          	mv	s3,a0
80008164:	00080a93          	mv	s5,a6
80008168:	be9ff06f          	j	80007d50 <__subdf3+0x4a0>
8000816c:	c80786e3          	beqz	a5,80007df8 <__subdf3+0x548>
80008170:	415807b3          	sub	a5,a6,s5
80008174:	a00a8ae3          	beqz	s5,80007b88 <__subdf3+0x2d8>
80008178:	03800693          	li	a3,56
8000817c:	0cf6d463          	bge	a3,a5,80008244 <__subdf3+0x994>
80008180:	00871793          	slli	a5,a4,0x8
80008184:	00800a37          	lui	s4,0x800
80008188:	00080a93          	mv	s5,a6
8000818c:	00000993          	li	s3,0
80008190:	8207c8e3          	bltz	a5,800079c0 <__subdf3+0x110>
80008194:	00130993          	addi	s3,t1,1
80008198:	00070a13          	mv	s4,a4
8000819c:	869ff06f          	j	80007a04 <__subdf3+0x154>
800081a0:	920612e3          	bnez	a2,80007ac4 <__subdf3+0x214>
800081a4:	00351513          	slli	a0,a0,0x3
800081a8:	00355793          	srli	a5,a0,0x3
800081ac:	01da1613          	slli	a2,s4,0x1d
800081b0:	00c7e633          	or	a2,a5,a2
800081b4:	003a5713          	srli	a4,s4,0x3
800081b8:	905ff06f          	j	80007abc <__subdf3+0x20c>
800081bc:	fe078693          	addi	a3,a5,-32
800081c0:	02000613          	li	a2,32
800081c4:	00da56b3          	srl	a3,s4,a3
800081c8:	00c78a63          	beq	a5,a2,800081dc <__subdf3+0x92c>
800081cc:	04000613          	li	a2,64
800081d0:	40f607b3          	sub	a5,a2,a5
800081d4:	00fa17b3          	sll	a5,s4,a5
800081d8:	00feeeb3          	or	t4,t4,a5
800081dc:	01d03533          	snez	a0,t4
800081e0:	00d56533          	or	a0,a0,a3
800081e4:	f71ff06f          	j	80008154 <__subdf3+0x8a4>
800081e8:	41d30eb3          	sub	t4,t1,t4
800081ec:	01d33333          	sltu	t1,t1,t4
800081f0:	41470733          	sub	a4,a4,s4
800081f4:	40670a33          	sub	s4,a4,t1
800081f8:	008a1793          	slli	a5,s4,0x8
800081fc:	000e8993          	mv	s3,t4
80008200:	b607cce3          	bltz	a5,80007d78 <__subdf3+0x4c8>
80008204:	003ede93          	srli	t4,t4,0x3
80008208:	01da1613          	slli	a2,s4,0x1d
8000820c:	00068913          	mv	s2,a3
80008210:	01d66633          	or	a2,a2,t4
80008214:	003a5713          	srli	a4,s4,0x3
80008218:	00100793          	li	a5,1
8000821c:	ab1ff06f          	j	80007ccc <__subdf3+0x41c>
80008220:	c4060ee3          	beqz	a2,80007e7c <__subdf3+0x5cc>
80008224:	00070a13          	mv	s4,a4
80008228:	00030e93          	mv	t4,t1
8000822c:	00068913          	mv	s2,a3
80008230:	c0dff06f          	j	80007e3c <__subdf3+0x58c>
80008234:	001e8993          	addi	s3,t4,1
80008238:	fccff06f          	j	80007a04 <__subdf3+0x154>
8000823c:	00068793          	mv	a5,a3
80008240:	a15ff06f          	j	80007c54 <__subdf3+0x3a4>
80008244:	008006b7          	lui	a3,0x800
80008248:	00da6a33          	or	s4,s4,a3
8000824c:	01f00693          	li	a3,31
80008250:	08f6ca63          	blt	a3,a5,800082e4 <__subdf3+0xa34>
80008254:	02000613          	li	a2,32
80008258:	40f60633          	sub	a2,a2,a5
8000825c:	00ca16b3          	sll	a3,s4,a2
80008260:	00ce9633          	sll	a2,t4,a2
80008264:	00fedeb3          	srl	t4,t4,a5
80008268:	00c03633          	snez	a2,a2
8000826c:	01d6e6b3          	or	a3,a3,t4
80008270:	00fa57b3          	srl	a5,s4,a5
80008274:	00c6e6b3          	or	a3,a3,a2
80008278:	00f70733          	add	a4,a4,a5
8000827c:	00668333          	add	t1,a3,t1
80008280:	00d336b3          	sltu	a3,t1,a3
80008284:	00e68a33          	add	s4,a3,a4
80008288:	00030993          	mv	s3,t1
8000828c:	00080a93          	mv	s5,a6
80008290:	a05ff06f          	j	80007c94 <__subdf3+0x3e4>
80008294:	00080a93          	mv	s5,a6
80008298:	00068913          	mv	s2,a3
8000829c:	861ff06f          	j	80007afc <__subdf3+0x24c>
800082a0:	003e1613          	slli	a2,t3,0x3
800082a4:	00365513          	srli	a0,a2,0x3
800082a8:	00070a13          	mv	s4,a4
800082ac:	a0dff06f          	j	80007cb8 <__subdf3+0x408>
800082b0:	ce078ce3          	beqz	a5,80007fa8 <__subdf3+0x6f8>
800082b4:	00676333          	or	t1,a4,t1
800082b8:	800316e3          	bnez	t1,80007ac4 <__subdf3+0x214>
800082bc:	ee9ff06f          	j	800081a4 <__subdf3+0x8f4>
800082c0:	01d71613          	slli	a2,a4,0x1d
800082c4:	00335313          	srli	t1,t1,0x3
800082c8:	00666633          	or	a2,a2,t1
800082cc:	00375713          	srli	a4,a4,0x3
800082d0:	00100793          	li	a5,1
800082d4:	9f9ff06f          	j	80007ccc <__subdf3+0x41c>
800082d8:	00068913          	mv	s2,a3
800082dc:	00060793          	mv	a5,a2
800082e0:	e45ff06f          	j	80008124 <__subdf3+0x874>
800082e4:	fe078613          	addi	a2,a5,-32
800082e8:	02000693          	li	a3,32
800082ec:	00ca5633          	srl	a2,s4,a2
800082f0:	00d78a63          	beq	a5,a3,80008304 <__subdf3+0xa54>
800082f4:	04000693          	li	a3,64
800082f8:	40f687b3          	sub	a5,a3,a5
800082fc:	00fa17b3          	sll	a5,s4,a5
80008300:	00feeeb3          	or	t4,t4,a5
80008304:	01d036b3          	snez	a3,t4
80008308:	00c6e6b3          	or	a3,a3,a2
8000830c:	f71ff06f          	j	8000827c <__subdf3+0x9cc>
80008310:	02000713          	li	a4,32
80008314:	40f70733          	sub	a4,a4,a5
80008318:	00000613          	li	a2,0
8000831c:	829ff06f          	j	80007b44 <__subdf3+0x294>
80008320:	840680e3          	beqz	a3,80007b60 <__subdf3+0x2b0>
80008324:	00030993          	mv	s3,t1
80008328:	00070a13          	mv	s4,a4
8000832c:	00000793          	li	a5,0
80008330:	0039d513          	srli	a0,s3,0x3
80008334:	985ff06f          	j	80007cb8 <__subdf3+0x408>
80008338:	00f5e633          	or	a2,a1,a5
8000833c:	b40600e3          	beqz	a2,80007e7c <__subdf3+0x5cc>
80008340:	00078a13          	mv	s4,a5
80008344:	00058e93          	mv	t4,a1
80008348:	af5ff06f          	j	80007e3c <__subdf3+0x58c>
8000834c:	0037d793          	srli	a5,a5,0x3
80008350:	01d61613          	slli	a2,a2,0x1d
80008354:	00f66633          	or	a2,a2,a5
80008358:	00475713          	srli	a4,a4,0x4
8000835c:	00200793          	li	a5,2
80008360:	96dff06f          	j	80007ccc <__subdf3+0x41c>
80008364:	00000893          	li	a7,0
80008368:	7ff00793          	li	a5,2047
8000836c:	00080737          	lui	a4,0x80
80008370:	ee0ff06f          	j	80007a50 <__subdf3+0x1a0>
80008374:	ff8007b7          	lui	a5,0xff800
80008378:	fff78793          	addi	a5,a5,-1 # ff7fffff <_end+0x7f7b5fff>
8000837c:	00fa77b3          	and	a5,s4,a5
80008380:	01d79613          	slli	a2,a5,0x1d
80008384:	00335e93          	srli	t4,t1,0x3
80008388:	00979793          	slli	a5,a5,0x9
8000838c:	00c7d713          	srli	a4,a5,0xc
80008390:	01d66633          	or	a2,a2,t4
80008394:	00100793          	li	a5,1
80008398:	eb8ff06f          	j	80007a50 <__subdf3+0x1a0>
8000839c:	00068793          	mv	a5,a3
800083a0:	eadff06f          	j	8000824c <__subdf3+0x99c>
800083a4:	00078a93          	mv	s5,a5
800083a8:	00068913          	mv	s2,a3
800083ac:	dc8ff06f          	j	80007974 <__subdf3+0xc4>
800083b0:	01d71613          	slli	a2,a4,0x1d
800083b4:	003ede93          	srli	t4,t4,0x3
800083b8:	00cee633          	or	a2,t4,a2
800083bc:	00375713          	srli	a4,a4,0x3
800083c0:	00000793          	li	a5,0
800083c4:	909ff06f          	j	80007ccc <__subdf3+0x41c>
800083c8:	0039d513          	srli	a0,s3,0x3
800083cc:	000a8793          	mv	a5,s5
800083d0:	8e9ff06f          	j	80007cb8 <__subdf3+0x408>

800083d4 <__clzsi2>:
800083d4:	000105b7          	lui	a1,0x10
800083d8:	00b535b3          	sltu	a1,a0,a1
800083dc:	00459593          	slli	a1,a1,0x4
800083e0:	01000793          	li	a5,16
800083e4:	40b787b3          	sub	a5,a5,a1
800083e8:	00010737          	lui	a4,0x10
800083ec:	00f557b3          	srl	a5,a0,a5
800083f0:	f0070713          	addi	a4,a4,-256 # ff00 <_entry_offset+0xff00>
800083f4:	00e7f733          	and	a4,a5,a4
800083f8:	00173713          	seqz	a4,a4
800083fc:	00371713          	slli	a4,a4,0x3
80008400:	00800693          	li	a3,8
80008404:	40e686b3          	sub	a3,a3,a4
80008408:	00d7d7b3          	srl	a5,a5,a3
8000840c:	0f07f613          	andi	a2,a5,240
80008410:	00163613          	seqz	a2,a2
80008414:	00261613          	slli	a2,a2,0x2
80008418:	00400693          	li	a3,4
8000841c:	40c686b3          	sub	a3,a3,a2
80008420:	00d7d7b3          	srl	a5,a5,a3
80008424:	00c7f693          	andi	a3,a5,12
80008428:	0016b693          	seqz	a3,a3
8000842c:	00200513          	li	a0,2
80008430:	00169693          	slli	a3,a3,0x1
80008434:	40d50833          	sub	a6,a0,a3
80008438:	0107d7b3          	srl	a5,a5,a6
8000843c:	0017d813          	srli	a6,a5,0x1
80008440:	00b70733          	add	a4,a4,a1
80008444:	00187593          	andi	a1,a6,1
80008448:	00e60633          	add	a2,a2,a4
8000844c:	40f50533          	sub	a0,a0,a5
80008450:	00058463          	beqz	a1,80008458 <__clzsi2+0x84>
80008454:	00000513          	li	a0,0
80008458:	00c686b3          	add	a3,a3,a2
8000845c:	00d50533          	add	a0,a0,a3
80008460:	00008067          	ret
