
test/addi-riscv32-ni.elf:     file format elf32-littleriscv


Disassembly of section .text:

80000000 <_start>:
80000000:	00000413          	li	s0,0
80000004:	00017117          	auipc	sp,0x17
80000008:	ffc10113          	addi	sp,sp,-4 # 80017000 <_end>
8000000c:	08c040ef          	jal	ra,80004098 <_trm_init>

80000010 <main>:
80000010:	010000ef          	jal	ra,80000020 <rvtest_entry_point>
80000014:	00000513          	li	a0,0
80000018:	00008067          	ret
8000001c:	0000                	unimp
	...

80000020 <rvtest_entry_point>:
80000020:	7d5c0837          	lui	a6,0x7d5c0
80000024:	ddb80813          	addi	a6,a6,-549 # 7d5bfddb <absimm+0x382cd8ac>
80000028:	00785893          	srli	a7,a6,0x7
8000002c:	01985793          	srli	a5,a6,0x19
80000030:	00f8e8b3          	or	a7,a7,a5
80000034:	0078d913          	srli	s2,a7,0x7
80000038:	0198d793          	srli	a5,a7,0x19
8000003c:	00f96933          	or	s2,s2,a5
80000040:	00795993          	srli	s3,s2,0x7
80000044:	01995793          	srli	a5,s2,0x19
80000048:	00f9e9b3          	or	s3,s3,a5
8000004c:	0079da13          	srli	s4,s3,0x7
80000050:	0199d793          	srli	a5,s3,0x19
80000054:	00fa6a33          	or	s4,s4,a5
80000058:	007a5a93          	srli	s5,s4,0x7
8000005c:	019a5793          	srli	a5,s4,0x19
80000060:	00faeab3          	or	s5,s5,a5
80000064:	007adb13          	srli	s6,s5,0x7
80000068:	019ad793          	srli	a5,s5,0x19
8000006c:	00fb6b33          	or	s6,s6,a5
80000070:	007b5b93          	srli	s7,s6,0x7
80000074:	019b5793          	srli	a5,s6,0x19
80000078:	00fbebb3          	or	s7,s7,a5
8000007c:	007bdc13          	srli	s8,s7,0x7
80000080:	019bd793          	srli	a5,s7,0x19
80000084:	00fc6c33          	or	s8,s8,a5
80000088:	007c5c93          	srli	s9,s8,0x7
8000008c:	019c5793          	srli	a5,s8,0x19
80000090:	00fcecb3          	or	s9,s9,a5
80000094:	007cdd13          	srli	s10,s9,0x7
80000098:	019cd793          	srli	a5,s9,0x19
8000009c:	00fd6d33          	or	s10,s10,a5
800000a0:	007d5d93          	srli	s11,s10,0x7
800000a4:	019d5793          	srli	a5,s10,0x19
800000a8:	00fdedb3          	or	s11,s11,a5
800000ac:	007dde13          	srli	t3,s11,0x7
800000b0:	019dd793          	srli	a5,s11,0x19
800000b4:	00fe6e33          	or	t3,t3,a5
800000b8:	007e5e93          	srli	t4,t3,0x7
800000bc:	019e5793          	srli	a5,t3,0x19
800000c0:	00feeeb3          	or	t4,t4,a5
800000c4:	007edf13          	srli	t5,t4,0x7
800000c8:	019ed793          	srli	a5,t4,0x19
800000cc:	00ff6f33          	or	t5,t5,a5
800000d0:	feedc0b7          	lui	ra,0xfeedc
800000d4:	ead08093          	addi	ra,ra,-339 # feedbead <imm12+0xfeedc3dd>
800000d8:	0070d113          	srli	sp,ra,0x7
800000dc:	0190d793          	srli	a5,ra,0x19
800000e0:	00f16133          	or	sp,sp,a5
800000e4:	00715193          	srli	gp,sp,0x7
800000e8:	01915793          	srli	a5,sp,0x19
800000ec:	00f1e1b3          	or	gp,gp,a5
800000f0:	0071d213          	srli	tp,gp,0x7
800000f4:	0191d793          	srli	a5,gp,0x19
800000f8:	00f26233          	or	tp,tp,a5
800000fc:	00725293          	srli	t0,tp,0x7
80000100:	01925793          	srli	a5,tp,0x19
80000104:	00f2e2b3          	or	t0,t0,a5
80000108:	0072d313          	srli	t1,t0,0x7
8000010c:	0192d793          	srli	a5,t0,0x19
80000110:	00f36333          	or	t1,t1,a5
80000114:	00735393          	srli	t2,t1,0x7
80000118:	01935793          	srli	a5,t1,0x19
8000011c:	00f3e3b3          	or	t2,t2,a5
80000120:	0073d413          	srli	s0,t2,0x7
80000124:	0193d793          	srli	a5,t2,0x19
80000128:	00f46433          	or	s0,s0,a5
8000012c:	00745493          	srli	s1,s0,0x7
80000130:	01945793          	srli	a5,s0,0x19
80000134:	00f4e4b3          	or	s1,s1,a5
80000138:	0074d513          	srli	a0,s1,0x7
8000013c:	0194d793          	srli	a5,s1,0x19
80000140:	00f56533          	or	a0,a0,a5
80000144:	00755593          	srli	a1,a0,0x7
80000148:	01955793          	srli	a5,a0,0x19
8000014c:	00f5e5b3          	or	a1,a1,a5
80000150:	0075d613          	srli	a2,a1,0x7
80000154:	0195d793          	srli	a5,a1,0x19
80000158:	00f66633          	or	a2,a2,a5
8000015c:	00765693          	srli	a3,a2,0x7
80000160:	01965793          	srli	a5,a2,0x19
80000164:	00f6e6b3          	or	a3,a3,a5

80000168 <rvtest_code_begin>:
80000168:	00000013          	nop
8000016c:	00000013          	nop
80000170:	00000013          	nop
80000174:	00000013          	nop
80000178:	00000013          	nop
8000017c:	00000013          	nop
80000180:	00006717          	auipc	a4,0x6
80000184:	e8470713          	addi	a4,a4,-380 # 80006004 <signature_x14_0>
80000188:	00000013          	nop
8000018c:	00000013          	nop
80000190:	00000013          	nop
80000194:	00000013          	nop
80000198:	00000013          	nop
8000019c:	00000013          	nop

800001a0 <inst_0>:
800001a0:	20000a37          	lui	s4,0x20000
800001a4:	800a0393          	addi	t2,s4,-2048 # 1ffff800 <offset+0x1ffff794>
800001a8:	00772023          	sw	t2,0(a4)
800001ac:	200000b7          	lui	ra,0x20000
800001b0:	80008093          	addi	ra,ra,-2048 # 1ffff800 <offset+0x1ffff794>
800001b4:	00708463          	beq	ra,t2,800001bc <inst_1>
800001b8:	6d50306f          	j	8000408c <bad_trap>

800001bc <inst_1>:
800001bc:	40000193          	li	gp,1024
800001c0:	00018193          	mv	gp,gp
800001c4:	00372223          	sw	gp,4(a4)
800001c8:	40000093          	li	ra,1024
800001cc:	00308463          	beq	ra,gp,800001d4 <inst_2>
800001d0:	6bd0306f          	j	8000408c <bad_trap>

800001d4 <inst_2>:
800001d4:	dff00213          	li	tp,-513
800001d8:	7ff20b13          	addi	s6,tp,2047 # 7ff <offset+0x793>
800001dc:	01672423          	sw	s6,8(a4)
800001e0:	5fe00093          	li	ra,1534
800001e4:	01608463          	beq	ra,s6,800001ec <inst_3>
800001e8:	6a50306f          	j	8000408c <bad_trap>

800001ec <inst_3>:
800001ec:	00000f13          	li	t5,0
800001f0:	001f0593          	addi	a1,t5,1
800001f4:	00b72623          	sw	a1,12(a4)
800001f8:	00100093          	li	ra,1
800001fc:	00b08463          	beq	ra,a1,80000204 <inst_4>
80000200:	68d0306f          	j	8000408c <bad_trap>

80000204 <inst_4>:
80000204:	80000db7          	lui	s11,0x80000
80000208:	010d8f93          	addi	t6,s11,16 # 80000010 <imm12+0x80000540>
8000020c:	01f72823          	sw	t6,16(a4)
80000210:	800000b7          	lui	ra,0x80000
80000214:	01008093          	addi	ra,ra,16 # 80000010 <imm12+0x80000540>
80000218:	01f08463          	beq	ra,t6,80000220 <inst_5>
8000021c:	6710306f          	j	8000408c <bad_trap>

80000220 <inst_5>:
80000220:	800008b7          	lui	a7,0x80000
80000224:	fff88893          	addi	a7,a7,-1 # 7fffffff <imm12+0x8000052f>
80000228:	00688f13          	addi	t5,a7,6
8000022c:	01e72a23          	sw	t5,20(a4)
80000230:	800000b7          	lui	ra,0x80000
80000234:	00508093          	addi	ra,ra,5 # 80000005 <imm12+0x80000535>
80000238:	01e08463          	beq	ra,t5,80000240 <inst_6>
8000023c:	6510306f          	j	8000408c <bad_trap>

80000240 <inst_6>:
80000240:	00100913          	li	s2,1
80000244:	00490e13          	addi	t3,s2,4
80000248:	01c72c23          	sw	t3,24(a4)
8000024c:	00500093          	li	ra,5
80000250:	01c08463          	beq	ra,t3,80000258 <inst_7>
80000254:	6390306f          	j	8000408c <bad_trap>

80000258 <inst_7>:
80000258:	00500693          	li	a3,5
8000025c:	00568313          	addi	t1,a3,5
80000260:	00672e23          	sw	t1,28(a4)
80000264:	00a00093          	li	ra,10
80000268:	00608463          	beq	ra,t1,80000270 <inst_8>
8000026c:	6210306f          	j	8000408c <bad_trap>

80000270 <inst_8>:
80000270:	aaaab537          	lui	a0,0xaaaab
80000274:	aab50513          	addi	a0,a0,-1365 # aaaaaaab <imm12+0xaaaaafdb>
80000278:	fdf50813          	addi	a6,a0,-33
8000027c:	03072023          	sw	a6,32(a4)
80000280:	aaaab0b7          	lui	ra,0xaaaab
80000284:	a8a08093          	addi	ra,ra,-1398 # aaaaaa8a <imm12+0xaaaaafba>
80000288:	01008463          	beq	ra,a6,80000290 <inst_9>
8000028c:	6010306f          	j	8000408c <bad_trap>

80000290 <inst_9>:
80000290:	fef00493          	li	s1,-17
80000294:	00248a93          	addi	s5,s1,2
80000298:	03572223          	sw	s5,36(a4)
8000029c:	ff100093          	li	ra,-15
800002a0:	01508463          	beq	ra,s5,800002a8 <inst_10>
800002a4:	5e90306f          	j	8000408c <bad_trap>

800002a8 <inst_10>:
800002a8:	0000b3b7          	lui	t2,0xb
800002ac:	50538393          	addi	t2,t2,1285 # b505 <offset+0xb499>
800002b0:	00838113          	addi	sp,t2,8
800002b4:	02272423          	sw	sp,40(a4)
800002b8:	0000b0b7          	lui	ra,0xb
800002bc:	50d08093          	addi	ra,ra,1293 # b50d <offset+0xb4a1>
800002c0:	00208463          	beq	ra,sp,800002c8 <inst_11>
800002c4:	5c90306f          	j	8000408c <bad_trap>

800002c8 <inst_11>:
800002c8:	ffff5b37          	lui	s6,0xffff5
800002cc:	afcb0b13          	addi	s6,s6,-1284 # ffff4afc <imm12+0xffff502c>
800002d0:	020b0913          	addi	s2,s6,32
800002d4:	03272623          	sw	s2,44(a4)
800002d8:	ffff50b7          	lui	ra,0xffff5
800002dc:	b1c08093          	addi	ra,ra,-1252 # ffff4b1c <imm12+0xffff504c>
800002e0:	01208463          	beq	ra,s2,800002e8 <inst_12>
800002e4:	5a90306f          	j	8000408c <bad_trap>

800002e8 <inst_12>:
800002e8:	ffe00eb7          	lui	t4,0xffe00
800002ec:	fffe8e93          	addi	t4,t4,-1 # ffdfffff <imm12+0xffe0052f>
800002f0:	040e8013          	addi	zero,t4,64
800002f4:	02072823          	sw	zero,48(a4)
800002f8:	00000093          	li	ra,0
800002fc:	00008463          	beqz	ra,80000304 <inst_13>
80000300:	58d0306f          	j	8000408c <bad_trap>

80000304 <inst_13>:
80000304:	00500c93          	li	s9,5
80000308:	080c8693          	addi	a3,s9,128
8000030c:	02d72a23          	sw	a3,52(a4)
80000310:	08500093          	li	ra,133
80000314:	00d08463          	beq	ra,a3,8000031c <inst_14>
80000318:	5750306f          	j	8000408c <bad_trap>

8000031c <inst_14>:
8000031c:	fe0005b7          	lui	a1,0xfe000
80000320:	fff58593          	addi	a1,a1,-1 # fdffffff <imm12+0xfe00052f>
80000324:	10058e93          	addi	t4,a1,256
80000328:	03d72c23          	sw	t4,56(a4)
8000032c:	fe0000b7          	lui	ra,0xfe000
80000330:	0ff08093          	addi	ra,ra,255 # fe0000ff <imm12+0xfe00062f>
80000334:	01d08463          	beq	ra,t4,8000033c <inst_15>
80000338:	5550306f          	j	8000408c <bad_trap>

8000033c <inst_15>:
8000033c:	01000313          	li	t1,16
80000340:	20030413          	addi	s0,t1,512
80000344:	02872e23          	sw	s0,60(a4)
80000348:	21000093          	li	ra,528
8000034c:	00808463          	beq	ra,s0,80000354 <inst_16>
80000350:	53d0306f          	j	8000408c <bad_trap>

80000354 <inst_16>:
80000354:	00200993          	li	s3,2
80000358:	40098213          	addi	tp,s3,1024
8000035c:	04472023          	sw	tp,64(a4)
80000360:	40200093          	li	ra,1026
80000364:	00408463          	beq	ra,tp,8000036c <inst_17>
80000368:	5250306f          	j	8000408c <bad_trap>

8000036c <inst_17>:
8000036c:	55555637          	lui	a2,0x55555
80000370:	55460613          	addi	a2,a2,1364 # 55555554 <absimm+0x10263025>
80000374:	ffe60513          	addi	a0,a2,-2
80000378:	04a72223          	sw	a0,68(a4)
8000037c:	555550b7          	lui	ra,0x55555
80000380:	55208093          	addi	ra,ra,1362 # 55555552 <absimm+0x10263023>
80000384:	00a08463          	beq	ra,a0,8000038c <inst_18>
80000388:	5050306f          	j	8000408c <bad_trap>

8000038c <inst_18>:
8000038c:	55555fb7          	lui	t6,0x55555
80000390:	555f8f93          	addi	t6,t6,1365 # 55555555 <absimm+0x10263026>
80000394:	ffdf8d13          	addi	s10,t6,-3
80000398:	05a72423          	sw	s10,72(a4)
8000039c:	555550b7          	lui	ra,0x55555
800003a0:	55208093          	addi	ra,ra,1362 # 55555552 <absimm+0x10263023>
800003a4:	01a08463          	beq	ra,s10,800003ac <inst_19>
800003a8:	4e50306f          	j	8000408c <bad_trap>

800003ac <inst_19>:
800003ac:	55555d37          	lui	s10,0x55555
800003b0:	554d0d13          	addi	s10,s10,1364 # 55555554 <absimm+0x10263025>
800003b4:	ffbd0793          	addi	a5,s10,-5
800003b8:	04f72623          	sw	a5,76(a4)
800003bc:	555550b7          	lui	ra,0x55555
800003c0:	54f08093          	addi	ra,ra,1359 # 5555554f <absimm+0x10263020>
800003c4:	00f08463          	beq	ra,a5,800003cc <inst_20>
800003c8:	4c50306f          	j	8000408c <bad_trap>

800003cc <inst_20>:
800003cc:	00300293          	li	t0,3
800003d0:	ff728993          	addi	s3,t0,-9
800003d4:	05372823          	sw	s3,80(a4)
800003d8:	ffa00093          	li	ra,-6
800003dc:	01308463          	beq	ra,s3,800003e4 <inst_21>
800003e0:	4ad0306f          	j	8000408c <bad_trap>

800003e4 <inst_21>:
800003e4:	00000013          	nop
800003e8:	fef00093          	li	ra,-17
800003ec:	04172a23          	sw	ra,84(a4)
800003f0:	fef00213          	li	tp,-17
800003f4:	00120463          	beq	tp,ra,800003fc <inst_21+0x18>
800003f8:	4950306f          	j	8000408c <bad_trap>
800003fc:	00000013          	nop
80000400:	00006197          	auipc	gp,0x6
80000404:	c5c18193          	addi	gp,gp,-932 # 8000605c <signature_x3_0>
80000408:	00000013          	nop
8000040c:	00000013          	nop
80000410:	00000013          	nop
80000414:	00000013          	nop
80000418:	00000013          	nop
8000041c:	00000013          	nop

80000420 <inst_22>:
80000420:	00800c37          	lui	s8,0x800
80000424:	fbfc0b93          	addi	s7,s8,-65 # 7fffbf <offset+0x7fff53>
80000428:	0171a023          	sw	s7,0(gp)
8000042c:	00800237          	lui	tp,0x800
80000430:	fbf20213          	addi	tp,tp,-65 # 7fffbf <offset+0x7fff53>
80000434:	01720463          	beq	tp,s7,8000043c <inst_23>
80000438:	4550306f          	j	8000408c <bad_trap>

8000043c <inst_23>:
8000043c:	fef00793          	li	a5,-17
80000440:	f7f78d93          	addi	s11,a5,-129
80000444:	01b1a223          	sw	s11,4(gp)
80000448:	f6e00213          	li	tp,-146
8000044c:	01b20463          	beq	tp,s11,80000454 <inst_24>
80000450:	43d0306f          	j	8000408c <bad_trap>

80000454 <inst_24>:
80000454:	55555737          	lui	a4,0x55555
80000458:	55570713          	addi	a4,a4,1365 # 55555555 <absimm+0x10263026>
8000045c:	eff70893          	addi	a7,a4,-257
80000460:	0111a423          	sw	a7,8(gp)
80000464:	55555237          	lui	tp,0x55555
80000468:	45420213          	addi	tp,tp,1108 # 55555454 <absimm+0x10262f25>
8000046c:	01120463          	beq	tp,a7,80000474 <inst_25>
80000470:	41d0306f          	j	8000408c <bad_trap>

80000474 <inst_25>:
80000474:	55555ab7          	lui	s5,0x55555
80000478:	556a8a93          	addi	s5,s5,1366 # 55555556 <absimm+0x10263027>
8000047c:	dffa8c93          	addi	s9,s5,-513
80000480:	0191a623          	sw	s9,12(gp)
80000484:	55555237          	lui	tp,0x55555
80000488:	35520213          	addi	tp,tp,853 # 55555355 <absimm+0x10262e26>
8000048c:	01920463          	beq	tp,s9,80000494 <inst_26>
80000490:	3fd0306f          	j	8000408c <bad_trap>

80000494 <inst_26>:
80000494:	000020b7          	lui	ra,0x2
80000498:	bff08c13          	addi	s8,ra,-1025 # 1bff <offset+0x1b93>
8000049c:	0181a823          	sw	s8,16(gp)
800004a0:	00002237          	lui	tp,0x2
800004a4:	bff20213          	addi	tp,tp,-1025 # 1bff <offset+0x1b93>
800004a8:	01820463          	beq	tp,s8,800004b0 <inst_27>
800004ac:	3e10306f          	j	8000408c <bad_trap>

800004b0 <inst_27>:
800004b0:	aaaab837          	lui	a6,0xaaaab
800004b4:	aaa80813          	addi	a6,a6,-1366 # aaaaaaaa <imm12+0xaaaaafda>
800004b8:	55580613          	addi	a2,a6,1365
800004bc:	00c1aa23          	sw	a2,20(gp)
800004c0:	aaaab237          	lui	tp,0xaaaab
800004c4:	fff20213          	addi	tp,tp,-1 # aaaaafff <imm12+0xaaaab52f>
800004c8:	00c20463          	beq	tp,a2,800004d0 <inst_28>
800004cc:	3c10306f          	j	8000408c <bad_trap>

800004d0 <inst_28>:
800004d0:	00000113          	li	sp,0
800004d4:	aaa10713          	addi	a4,sp,-1366
800004d8:	00e1ac23          	sw	a4,24(gp)
800004dc:	aaa00213          	li	tp,-1366
800004e0:	00e20463          	beq	tp,a4,800004e8 <inst_29>
800004e4:	3a90306f          	j	8000408c <bad_trap>

800004e8 <inst_29>:
800004e8:	00400b93          	li	s7,4
800004ec:	004b8a13          	addi	s4,s7,4
800004f0:	0141ae23          	sw	s4,28(gp)
800004f4:	00800213          	li	tp,8
800004f8:	01420463          	beq	tp,s4,80000500 <inst_30>
800004fc:	3910306f          	j	8000408c <bad_trap>

80000500 <inst_30>:
80000500:	00800e13          	li	t3,8
80000504:	010e0293          	addi	t0,t3,16
80000508:	0251a023          	sw	t0,32(gp)
8000050c:	01800213          	li	tp,24
80000510:	00520463          	beq	tp,t0,80000518 <inst_31>
80000514:	3790306f          	j	8000408c <bad_trap>

80000518 <inst_31>:
80000518:	02000413          	li	s0,32
8000051c:	fd440493          	addi	s1,s0,-44
80000520:	0291a223          	sw	s1,36(gp)
80000524:	ff400213          	li	tp,-12
80000528:	00920463          	beq	tp,s1,80000530 <inst_32>
8000052c:	3610306f          	j	8000408c <bad_trap>

80000530 <inst_32>:
80000530:	04000513          	li	a0,64
80000534:	fbf50593          	addi	a1,a0,-65
80000538:	02b1a423          	sw	a1,40(gp)
8000053c:	fff00213          	li	tp,-1
80000540:	00b20463          	beq	tp,a1,80000548 <inst_33>
80000544:	3490306f          	j	8000408c <bad_trap>

80000548 <inst_33>:
80000548:	08000513          	li	a0,128
8000054c:	00550593          	addi	a1,a0,5
80000550:	02b1a623          	sw	a1,44(gp)
80000554:	08500213          	li	tp,133
80000558:	00b20463          	beq	tp,a1,80000560 <inst_34>
8000055c:	3310306f          	j	8000408c <bad_trap>

80000560 <inst_34>:
80000560:	10000513          	li	a0,256
80000564:	c0050593          	addi	a1,a0,-1024
80000568:	02b1a823          	sw	a1,48(gp)
8000056c:	d0000213          	li	tp,-768
80000570:	00b20463          	beq	tp,a1,80000578 <inst_35>
80000574:	3190306f          	j	8000408c <bad_trap>

80000578 <inst_35>:
80000578:	20000513          	li	a0,512
8000057c:	10050593          	addi	a1,a0,256
80000580:	02b1aa23          	sw	a1,52(gp)
80000584:	30000213          	li	tp,768
80000588:	00b20463          	beq	tp,a1,80000590 <inst_36>
8000058c:	3010306f          	j	8000408c <bad_trap>

80000590 <inst_36>:
80000590:	00001537          	lui	a0,0x1
80000594:	80050513          	addi	a0,a0,-2048 # 800 <offset+0x794>
80000598:	ff650593          	addi	a1,a0,-10
8000059c:	02b1ac23          	sw	a1,56(gp)
800005a0:	7f600213          	li	tp,2038
800005a4:	00b20463          	beq	tp,a1,800005ac <inst_37>
800005a8:	2e50306f          	j	8000408c <bad_trap>

800005ac <inst_37>:
800005ac:	00001537          	lui	a0,0x1
800005b0:	04050593          	addi	a1,a0,64 # 1040 <offset+0xfd4>
800005b4:	02b1ae23          	sw	a1,60(gp)
800005b8:	00001237          	lui	tp,0x1
800005bc:	04020213          	addi	tp,tp,64 # 1040 <offset+0xfd4>
800005c0:	00b20463          	beq	tp,a1,800005c8 <inst_38>
800005c4:	2c90306f          	j	8000408c <bad_trap>

800005c8 <inst_38>:
800005c8:	00004537          	lui	a0,0x4
800005cc:	33250593          	addi	a1,a0,818 # 4332 <offset+0x42c6>
800005d0:	04b1a023          	sw	a1,64(gp)
800005d4:	00004237          	lui	tp,0x4
800005d8:	33220213          	addi	tp,tp,818 # 4332 <offset+0x42c6>
800005dc:	00b20463          	beq	tp,a1,800005e4 <inst_39>
800005e0:	2ad0306f          	j	8000408c <bad_trap>

800005e4 <inst_39>:
800005e4:	00008537          	lui	a0,0x8
800005e8:	c0050593          	addi	a1,a0,-1024 # 7c00 <offset+0x7b94>
800005ec:	04b1a223          	sw	a1,68(gp)
800005f0:	00008237          	lui	tp,0x8
800005f4:	c0020213          	addi	tp,tp,-1024 # 7c00 <offset+0x7b94>
800005f8:	00b20463          	beq	tp,a1,80000600 <inst_40>
800005fc:	2910306f          	j	8000408c <bad_trap>

80000600 <inst_40>:
80000600:	00010537          	lui	a0,0x10
80000604:	eff50593          	addi	a1,a0,-257 # feff <offset+0xfe93>
80000608:	04b1a423          	sw	a1,72(gp)
8000060c:	00010237          	lui	tp,0x10
80000610:	eff20213          	addi	tp,tp,-257 # feff <offset+0xfe93>
80000614:	00b20463          	beq	tp,a1,8000061c <inst_41>
80000618:	2750306f          	j	8000408c <bad_trap>

8000061c <inst_41>:
8000061c:	00020537          	lui	a0,0x20
80000620:	00450593          	addi	a1,a0,4 # 20004 <offset+0x1ff98>
80000624:	04b1a623          	sw	a1,76(gp)
80000628:	00020237          	lui	tp,0x20
8000062c:	00420213          	addi	tp,tp,4 # 20004 <offset+0x1ff98>
80000630:	00b20463          	beq	tp,a1,80000638 <inst_42>
80000634:	2590306f          	j	8000408c <bad_trap>

80000638 <inst_42>:
80000638:	00040537          	lui	a0,0x40
8000063c:	00050593          	mv	a1,a0
80000640:	04b1a823          	sw	a1,80(gp)
80000644:	00040237          	lui	tp,0x40
80000648:	00b20463          	beq	tp,a1,80000650 <inst_43>
8000064c:	2410306f          	j	8000408c <bad_trap>

80000650 <inst_43>:
80000650:	00080537          	lui	a0,0x80
80000654:	00550593          	addi	a1,a0,5 # 80005 <offset+0x7ff99>
80000658:	04b1aa23          	sw	a1,84(gp)
8000065c:	00080237          	lui	tp,0x80
80000660:	00520213          	addi	tp,tp,5 # 80005 <offset+0x7ff99>
80000664:	00b20463          	beq	tp,a1,8000066c <inst_44>
80000668:	2250306f          	j	8000408c <bad_trap>

8000066c <inst_44>:
8000066c:	00100537          	lui	a0,0x100
80000670:	02c50593          	addi	a1,a0,44 # 10002c <offset+0xfffc0>
80000674:	04b1ac23          	sw	a1,88(gp)
80000678:	00100237          	lui	tp,0x100
8000067c:	02c20213          	addi	tp,tp,44 # 10002c <offset+0xfffc0>
80000680:	00b20463          	beq	tp,a1,80000688 <inst_45>
80000684:	2090306f          	j	8000408c <bad_trap>

80000688 <inst_45>:
80000688:	00200537          	lui	a0,0x200
8000068c:	ffc50593          	addi	a1,a0,-4 # 1ffffc <offset+0x1fff90>
80000690:	04b1ae23          	sw	a1,92(gp)
80000694:	00200237          	lui	tp,0x200
80000698:	ffc20213          	addi	tp,tp,-4 # 1ffffc <offset+0x1fff90>
8000069c:	00b20463          	beq	tp,a1,800006a4 <inst_46>
800006a0:	1ed0306f          	j	8000408c <bad_trap>

800006a4 <inst_46>:
800006a4:	00400537          	lui	a0,0x400
800006a8:	02e50593          	addi	a1,a0,46 # 40002e <offset+0x3fffc2>
800006ac:	06b1a023          	sw	a1,96(gp)
800006b0:	00400237          	lui	tp,0x400
800006b4:	02e20213          	addi	tp,tp,46 # 40002e <offset+0x3fffc2>
800006b8:	00b20463          	beq	tp,a1,800006c0 <inst_47>
800006bc:	1d10306f          	j	8000408c <bad_trap>

800006c0 <inst_47>:
800006c0:	01000537          	lui	a0,0x1000
800006c4:	c0050593          	addi	a1,a0,-1024 # fffc00 <offset+0xfffb94>
800006c8:	06b1a223          	sw	a1,100(gp)
800006cc:	01000237          	lui	tp,0x1000
800006d0:	c0020213          	addi	tp,tp,-1024 # fffc00 <offset+0xfffb94>
800006d4:	00b20463          	beq	tp,a1,800006dc <inst_48>
800006d8:	1b50306f          	j	8000408c <bad_trap>

800006dc <inst_48>:
800006dc:	02000537          	lui	a0,0x2000
800006e0:	fef50593          	addi	a1,a0,-17 # 1ffffef <offset+0x1ffff83>
800006e4:	06b1a423          	sw	a1,104(gp)
800006e8:	02000237          	lui	tp,0x2000
800006ec:	fef20213          	addi	tp,tp,-17 # 1ffffef <offset+0x1ffff83>
800006f0:	00b20463          	beq	tp,a1,800006f8 <inst_49>
800006f4:	1990306f          	j	8000408c <bad_trap>

800006f8 <inst_49>:
800006f8:	04000537          	lui	a0,0x4000
800006fc:	ffe50593          	addi	a1,a0,-2 # 3fffffe <offset+0x3ffff92>
80000700:	06b1a623          	sw	a1,108(gp)
80000704:	04000237          	lui	tp,0x4000
80000708:	ffe20213          	addi	tp,tp,-2 # 3fffffe <offset+0x3ffff92>
8000070c:	00b20463          	beq	tp,a1,80000714 <inst_50>
80000710:	17d0306f          	j	8000408c <bad_trap>

80000714 <inst_50>:
80000714:	08000537          	lui	a0,0x8000
80000718:	00350593          	addi	a1,a0,3 # 8000003 <offset+0x7ffff97>
8000071c:	06b1a823          	sw	a1,112(gp)
80000720:	08000237          	lui	tp,0x8000
80000724:	00320213          	addi	tp,tp,3 # 8000003 <offset+0x7ffff97>
80000728:	00b20463          	beq	tp,a1,80000730 <inst_51>
8000072c:	1610306f          	j	8000408c <bad_trap>

80000730 <inst_51>:
80000730:	10000537          	lui	a0,0x10000
80000734:	f7f50593          	addi	a1,a0,-129 # fffff7f <offset+0xfffff13>
80000738:	06b1aa23          	sw	a1,116(gp)
8000073c:	10000237          	lui	tp,0x10000
80000740:	f7f20213          	addi	tp,tp,-129 # fffff7f <offset+0xfffff13>
80000744:	00b20463          	beq	tp,a1,8000074c <inst_52>
80000748:	1450306f          	j	8000408c <bad_trap>

8000074c <inst_52>:
8000074c:	40000537          	lui	a0,0x40000
80000750:	ffe50593          	addi	a1,a0,-2 # 3ffffffe <offset+0x3fffff92>
80000754:	06b1ac23          	sw	a1,120(gp)
80000758:	40000237          	lui	tp,0x40000
8000075c:	ffe20213          	addi	tp,tp,-2 # 3ffffffe <offset+0x3fffff92>
80000760:	00b20463          	beq	tp,a1,80000768 <inst_53>
80000764:	1290306f          	j	8000408c <bad_trap>

80000768 <inst_53>:
80000768:	ffe00513          	li	a0,-2
8000076c:	dff50593          	addi	a1,a0,-513
80000770:	06b1ae23          	sw	a1,124(gp)
80000774:	dfd00213          	li	tp,-515
80000778:	00b20463          	beq	tp,a1,80000780 <inst_54>
8000077c:	1110306f          	j	8000408c <bad_trap>

80000780 <inst_54>:
80000780:	ffd00513          	li	a0,-3
80000784:	ff750593          	addi	a1,a0,-9
80000788:	08b1a023          	sw	a1,128(gp)
8000078c:	ff400213          	li	tp,-12
80000790:	00b20463          	beq	tp,a1,80000798 <inst_55>
80000794:	0f90306f          	j	8000408c <bad_trap>

80000798 <inst_55>:
80000798:	ffb00513          	li	a0,-5
8000079c:	fd350593          	addi	a1,a0,-45
800007a0:	08b1a223          	sw	a1,132(gp)
800007a4:	fce00213          	li	tp,-50
800007a8:	00b20463          	beq	tp,a1,800007b0 <inst_56>
800007ac:	0e10306f          	j	8000408c <bad_trap>

800007b0 <inst_56>:
800007b0:	ff700513          	li	a0,-9
800007b4:	33450593          	addi	a1,a0,820
800007b8:	08b1a423          	sw	a1,136(gp)
800007bc:	32b00213          	li	tp,811
800007c0:	00b20463          	beq	tp,a1,800007c8 <inst_57>
800007c4:	0c90306f          	j	8000408c <bad_trap>

800007c8 <inst_57>:
800007c8:	fdf00513          	li	a0,-33
800007cc:	ffb50593          	addi	a1,a0,-5
800007d0:	08b1a623          	sw	a1,140(gp)
800007d4:	fda00213          	li	tp,-38
800007d8:	00b20463          	beq	tp,a1,800007e0 <inst_58>
800007dc:	0b10306f          	j	8000408c <bad_trap>

800007e0 <inst_58>:
800007e0:	fbf00513          	li	a0,-65
800007e4:	ff750593          	addi	a1,a0,-9
800007e8:	08b1a823          	sw	a1,144(gp)
800007ec:	fb600213          	li	tp,-74
800007f0:	00b20463          	beq	tp,a1,800007f8 <inst_59>
800007f4:	0990306f          	j	8000408c <bad_trap>

800007f8 <inst_59>:
800007f8:	f7f00513          	li	a0,-129
800007fc:	fef50593          	addi	a1,a0,-17
80000800:	08b1aa23          	sw	a1,148(gp)
80000804:	f6e00213          	li	tp,-146
80000808:	00b20463          	beq	tp,a1,80000810 <inst_60>
8000080c:	0810306f          	j	8000408c <bad_trap>

80000810 <inst_60>:
80000810:	eff00513          	li	a0,-257
80000814:	20050593          	addi	a1,a0,512
80000818:	08b1ac23          	sw	a1,152(gp)
8000081c:	0ff00213          	li	tp,255
80000820:	00b20463          	beq	tp,a1,80000828 <inst_61>
80000824:	0690306f          	j	8000408c <bad_trap>

80000828 <inst_61>:
80000828:	bff00513          	li	a0,-1025
8000082c:	fd450593          	addi	a1,a0,-44
80000830:	08b1ae23          	sw	a1,156(gp)
80000834:	bd300213          	li	tp,-1069
80000838:	00b20463          	beq	tp,a1,80000840 <inst_62>
8000083c:	0510306f          	j	8000408c <bad_trap>

80000840 <inst_62>:
80000840:	fffff537          	lui	a0,0xfffff
80000844:	7ff50513          	addi	a0,a0,2047 # fffff7ff <imm12+0xfffffd2f>
80000848:	00450593          	addi	a1,a0,4
8000084c:	0ab1a023          	sw	a1,160(gp)
80000850:	80300213          	li	tp,-2045
80000854:	00b20463          	beq	tp,a1,8000085c <inst_63>
80000858:	0350306f          	j	8000408c <bad_trap>

8000085c <inst_63>:
8000085c:	fffff537          	lui	a0,0xfffff
80000860:	fff50513          	addi	a0,a0,-1 # ffffefff <imm12+0xfffff52f>
80000864:	00850593          	addi	a1,a0,8
80000868:	0ab1a223          	sw	a1,164(gp)
8000086c:	fffff237          	lui	tp,0xfffff
80000870:	00720213          	addi	tp,tp,7 # fffff007 <imm12+0xfffff537>
80000874:	00b20463          	beq	tp,a1,8000087c <inst_64>
80000878:	0150306f          	j	8000408c <bad_trap>

8000087c <inst_64>:
8000087c:	ffffe537          	lui	a0,0xffffe
80000880:	fff50513          	addi	a0,a0,-1 # ffffdfff <imm12+0xffffe52f>
80000884:	dff50593          	addi	a1,a0,-513
80000888:	0ab1a423          	sw	a1,168(gp)
8000088c:	ffffe237          	lui	tp,0xffffe
80000890:	dfe20213          	addi	tp,tp,-514 # ffffddfe <imm12+0xffffe32e>
80000894:	00b20463          	beq	tp,a1,8000089c <inst_65>
80000898:	7f40306f          	j	8000408c <bad_trap>

8000089c <inst_65>:
8000089c:	ffffc537          	lui	a0,0xffffc
800008a0:	fff50513          	addi	a0,a0,-1 # ffffbfff <imm12+0xffffc52f>
800008a4:	40050593          	addi	a1,a0,1024
800008a8:	0ab1a623          	sw	a1,172(gp)
800008ac:	ffffc237          	lui	tp,0xffffc
800008b0:	3ff20213          	addi	tp,tp,1023 # ffffc3ff <imm12+0xffffc92f>
800008b4:	00b20463          	beq	tp,a1,800008bc <inst_66>
800008b8:	7d40306f          	j	8000408c <bad_trap>

800008bc <inst_66>:
800008bc:	ffff8537          	lui	a0,0xffff8
800008c0:	fff50513          	addi	a0,a0,-1 # ffff7fff <imm12+0xffff852f>
800008c4:	aaa50593          	addi	a1,a0,-1366
800008c8:	0ab1a823          	sw	a1,176(gp)
800008cc:	ffff8237          	lui	tp,0xffff8
800008d0:	aa920213          	addi	tp,tp,-1367 # ffff7aa9 <imm12+0xffff7fd9>
800008d4:	00b20463          	beq	tp,a1,800008dc <inst_67>
800008d8:	7b40306f          	j	8000408c <bad_trap>

800008dc <inst_67>:
800008dc:	ffff0537          	lui	a0,0xffff0
800008e0:	fff50513          	addi	a0,a0,-1 # fffeffff <imm12+0xffff052f>
800008e4:	00750593          	addi	a1,a0,7
800008e8:	0ab1aa23          	sw	a1,180(gp)
800008ec:	ffff0237          	lui	tp,0xffff0
800008f0:	00620213          	addi	tp,tp,6 # ffff0006 <imm12+0xffff0536>
800008f4:	00b20463          	beq	tp,a1,800008fc <inst_68>
800008f8:	7940306f          	j	8000408c <bad_trap>

800008fc <inst_68>:
800008fc:	fffe0537          	lui	a0,0xfffe0
80000900:	fff50513          	addi	a0,a0,-1 # fffdffff <imm12+0xfffe052f>
80000904:	08050593          	addi	a1,a0,128
80000908:	0ab1ac23          	sw	a1,184(gp)
8000090c:	fffe0237          	lui	tp,0xfffe0
80000910:	07f20213          	addi	tp,tp,127 # fffe007f <imm12+0xfffe05af>
80000914:	00b20463          	beq	tp,a1,8000091c <inst_69>
80000918:	7740306f          	j	8000408c <bad_trap>

8000091c <inst_69>:
8000091c:	fffc0537          	lui	a0,0xfffc0
80000920:	fff50513          	addi	a0,a0,-1 # fffbffff <imm12+0xfffc052f>
80000924:	00850593          	addi	a1,a0,8
80000928:	0ab1ae23          	sw	a1,188(gp)
8000092c:	fffc0237          	lui	tp,0xfffc0
80000930:	00720213          	addi	tp,tp,7 # fffc0007 <imm12+0xfffc0537>
80000934:	00b20463          	beq	tp,a1,8000093c <inst_70>
80000938:	7540306f          	j	8000408c <bad_trap>

8000093c <inst_70>:
8000093c:	fff80537          	lui	a0,0xfff80
80000940:	fff50513          	addi	a0,a0,-1 # fff7ffff <imm12+0xfff8052f>
80000944:	80050593          	addi	a1,a0,-2048
80000948:	0cb1a023          	sw	a1,192(gp)
8000094c:	fff7f237          	lui	tp,0xfff7f
80000950:	7ff20213          	addi	tp,tp,2047 # fff7f7ff <imm12+0xfff7fd2f>
80000954:	00b20463          	beq	tp,a1,8000095c <inst_71>
80000958:	7340306f          	j	8000408c <bad_trap>

8000095c <inst_71>:
8000095c:	fff00537          	lui	a0,0xfff00
80000960:	fff50513          	addi	a0,a0,-1 # ffefffff <imm12+0xfff0052f>
80000964:	fdf50593          	addi	a1,a0,-33
80000968:	0cb1a223          	sw	a1,196(gp)
8000096c:	fff00237          	lui	tp,0xfff00
80000970:	fde20213          	addi	tp,tp,-34 # ffefffde <imm12+0xfff0050e>
80000974:	00b20463          	beq	tp,a1,8000097c <inst_72>
80000978:	7140306f          	j	8000408c <bad_trap>

8000097c <inst_72>:
8000097c:	ffc00537          	lui	a0,0xffc00
80000980:	fff50513          	addi	a0,a0,-1 # ffbfffff <imm12+0xffc0052f>
80000984:	55450593          	addi	a1,a0,1364
80000988:	0cb1a423          	sw	a1,200(gp)
8000098c:	ffc00237          	lui	tp,0xffc00
80000990:	55320213          	addi	tp,tp,1363 # ffc00553 <imm12+0xffc00a83>
80000994:	00b20463          	beq	tp,a1,8000099c <inst_73>
80000998:	6f40306f          	j	8000408c <bad_trap>

8000099c <inst_73>:
8000099c:	ff800537          	lui	a0,0xff800
800009a0:	fff50513          	addi	a0,a0,-1 # ff7fffff <imm12+0xff80052f>
800009a4:	ff650593          	addi	a1,a0,-10
800009a8:	0cb1a623          	sw	a1,204(gp)
800009ac:	ff800237          	lui	tp,0xff800
800009b0:	ff520213          	addi	tp,tp,-11 # ff7ffff5 <imm12+0xff800525>
800009b4:	00b20463          	beq	tp,a1,800009bc <inst_74>
800009b8:	6d40306f          	j	8000408c <bad_trap>

800009bc <inst_74>:
800009bc:	ff000537          	lui	a0,0xff000
800009c0:	fff50513          	addi	a0,a0,-1 # feffffff <imm12+0xff00052f>
800009c4:	02c50593          	addi	a1,a0,44
800009c8:	0cb1a823          	sw	a1,208(gp)
800009cc:	ff000237          	lui	tp,0xff000
800009d0:	02b20213          	addi	tp,tp,43 # ff00002b <imm12+0xff00055b>
800009d4:	00b20463          	beq	tp,a1,800009dc <inst_75>
800009d8:	6b40306f          	j	8000408c <bad_trap>

800009dc <inst_75>:
800009dc:	fc000537          	lui	a0,0xfc000
800009e0:	fff50513          	addi	a0,a0,-1 # fbffffff <imm12+0xfc00052f>
800009e4:	00650593          	addi	a1,a0,6
800009e8:	0cb1aa23          	sw	a1,212(gp)
800009ec:	fc000237          	lui	tp,0xfc000
800009f0:	00520213          	addi	tp,tp,5 # fc000005 <imm12+0xfc000535>
800009f4:	00b20463          	beq	tp,a1,800009fc <inst_76>
800009f8:	6940306f          	j	8000408c <bad_trap>

800009fc <inst_76>:
800009fc:	f8000537          	lui	a0,0xf8000
80000a00:	fff50513          	addi	a0,a0,-1 # f7ffffff <imm12+0xf800052f>
80000a04:	66650593          	addi	a1,a0,1638
80000a08:	0cb1ac23          	sw	a1,216(gp)
80000a0c:	f8000237          	lui	tp,0xf8000
80000a10:	66520213          	addi	tp,tp,1637 # f8000665 <imm12+0xf8000b95>
80000a14:	00b20463          	beq	tp,a1,80000a1c <inst_77>
80000a18:	6740306f          	j	8000408c <bad_trap>

80000a1c <inst_77>:
80000a1c:	f0000537          	lui	a0,0xf0000
80000a20:	fff50513          	addi	a0,a0,-1 # efffffff <imm12+0xf000052f>
80000a24:	02e50593          	addi	a1,a0,46
80000a28:	0cb1ae23          	sw	a1,220(gp)
80000a2c:	f0000237          	lui	tp,0xf0000
80000a30:	02d20213          	addi	tp,tp,45 # f000002d <imm12+0xf000055d>
80000a34:	00b20463          	beq	tp,a1,80000a3c <inst_78>
80000a38:	6540306f          	j	8000408c <bad_trap>

80000a3c <inst_78>:
80000a3c:	e0000537          	lui	a0,0xe0000
80000a40:	fff50513          	addi	a0,a0,-1 # dfffffff <imm12+0xe000052f>
80000a44:	00350593          	addi	a1,a0,3
80000a48:	0eb1a023          	sw	a1,224(gp)
80000a4c:	e0000237          	lui	tp,0xe0000
80000a50:	00220213          	addi	tp,tp,2 # e0000002 <imm12+0xe0000532>
80000a54:	00b20463          	beq	tp,a1,80000a5c <inst_79>
80000a58:	6340306f          	j	8000408c <bad_trap>

80000a5c <inst_79>:
80000a5c:	c0000537          	lui	a0,0xc0000
80000a60:	fff50513          	addi	a0,a0,-1 # bfffffff <imm12+0xc000052f>
80000a64:	66650593          	addi	a1,a0,1638
80000a68:	0eb1a223          	sw	a1,228(gp)
80000a6c:	c0000237          	lui	tp,0xc0000
80000a70:	66520213          	addi	tp,tp,1637 # c0000665 <imm12+0xc0000b95>
80000a74:	00b20463          	beq	tp,a1,80000a7c <inst_80>
80000a78:	6140306f          	j	8000408c <bad_trap>

80000a7c <inst_80>:
80000a7c:	00300513          	li	a0,3
80000a80:	00350593          	addi	a1,a0,3
80000a84:	0eb1a423          	sw	a1,232(gp)
80000a88:	00600213          	li	tp,6
80000a8c:	00b20463          	beq	tp,a1,80000a94 <inst_81>
80000a90:	5fc0306f          	j	8000408c <bad_trap>

80000a94 <inst_81>:
80000a94:	00300513          	li	a0,3
80000a98:	55550593          	addi	a1,a0,1365
80000a9c:	0eb1a623          	sw	a1,236(gp)
80000aa0:	55800213          	li	tp,1368
80000aa4:	00b20463          	beq	tp,a1,80000aac <inst_82>
80000aa8:	5e40306f          	j	8000408c <bad_trap>

80000aac <inst_82>:
80000aac:	00300513          	li	a0,3
80000ab0:	aaa50593          	addi	a1,a0,-1366
80000ab4:	0eb1a823          	sw	a1,240(gp)
80000ab8:	aad00213          	li	tp,-1363
80000abc:	00b20463          	beq	tp,a1,80000ac4 <inst_83>
80000ac0:	5cc0306f          	j	8000408c <bad_trap>

80000ac4 <inst_83>:
80000ac4:	00300513          	li	a0,3
80000ac8:	00550593          	addi	a1,a0,5
80000acc:	0eb1aa23          	sw	a1,244(gp)
80000ad0:	00800213          	li	tp,8
80000ad4:	00b20463          	beq	tp,a1,80000adc <inst_84>
80000ad8:	5b40306f          	j	8000408c <bad_trap>

80000adc <inst_84>:
80000adc:	00300513          	li	a0,3
80000ae0:	33350593          	addi	a1,a0,819
80000ae4:	0eb1ac23          	sw	a1,248(gp)
80000ae8:	33600213          	li	tp,822
80000aec:	00b20463          	beq	tp,a1,80000af4 <inst_85>
80000af0:	59c0306f          	j	8000408c <bad_trap>

80000af4 <inst_85>:
80000af4:	00300513          	li	a0,3
80000af8:	66650593          	addi	a1,a0,1638
80000afc:	0eb1ae23          	sw	a1,252(gp)
80000b00:	66900213          	li	tp,1641
80000b04:	00b20463          	beq	tp,a1,80000b0c <inst_86>
80000b08:	5840306f          	j	8000408c <bad_trap>

80000b0c <inst_86>:
80000b0c:	00300513          	li	a0,3
80000b10:	fd350593          	addi	a1,a0,-45
80000b14:	10b1a023          	sw	a1,256(gp)
80000b18:	fd600213          	li	tp,-42
80000b1c:	00b20463          	beq	tp,a1,80000b24 <inst_87>
80000b20:	56c0306f          	j	8000408c <bad_trap>

80000b24 <inst_87>:
80000b24:	00300513          	li	a0,3
80000b28:	02d50593          	addi	a1,a0,45
80000b2c:	10b1a223          	sw	a1,260(gp)
80000b30:	03000213          	li	tp,48
80000b34:	00b20463          	beq	tp,a1,80000b3c <inst_88>
80000b38:	5540306f          	j	8000408c <bad_trap>

80000b3c <inst_88>:
80000b3c:	00300513          	li	a0,3
80000b40:	00250593          	addi	a1,a0,2
80000b44:	10b1a423          	sw	a1,264(gp)
80000b48:	00500213          	li	tp,5
80000b4c:	00b20463          	beq	tp,a1,80000b54 <inst_89>
80000b50:	53c0306f          	j	8000408c <bad_trap>

80000b54 <inst_89>:
80000b54:	00300513          	li	a0,3
80000b58:	55450593          	addi	a1,a0,1364
80000b5c:	10b1a623          	sw	a1,268(gp)
80000b60:	55700213          	li	tp,1367
80000b64:	00b20463          	beq	tp,a1,80000b6c <inst_90>
80000b68:	5240306f          	j	8000408c <bad_trap>

80000b6c <inst_90>:
80000b6c:	00300513          	li	a0,3
80000b70:	00050593          	mv	a1,a0
80000b74:	10b1a823          	sw	a1,272(gp)
80000b78:	00300213          	li	tp,3
80000b7c:	00b20463          	beq	tp,a1,80000b84 <inst_91>
80000b80:	50c0306f          	j	8000408c <bad_trap>

80000b84 <inst_91>:
80000b84:	00300513          	li	a0,3
80000b88:	00450593          	addi	a1,a0,4
80000b8c:	10b1aa23          	sw	a1,276(gp)
80000b90:	00700213          	li	tp,7
80000b94:	00b20463          	beq	tp,a1,80000b9c <inst_92>
80000b98:	4f40306f          	j	8000408c <bad_trap>

80000b9c <inst_92>:
80000b9c:	00300513          	li	a0,3
80000ba0:	33250593          	addi	a1,a0,818
80000ba4:	10b1ac23          	sw	a1,280(gp)
80000ba8:	33500213          	li	tp,821
80000bac:	00b20463          	beq	tp,a1,80000bb4 <inst_93>
80000bb0:	4dc0306f          	j	8000408c <bad_trap>

80000bb4 <inst_93>:
80000bb4:	00300513          	li	a0,3
80000bb8:	66550593          	addi	a1,a0,1637
80000bbc:	10b1ae23          	sw	a1,284(gp)
80000bc0:	66800213          	li	tp,1640
80000bc4:	00b20463          	beq	tp,a1,80000bcc <inst_94>
80000bc8:	4c40306f          	j	8000408c <bad_trap>

80000bcc <inst_94>:
80000bcc:	00300513          	li	a0,3
80000bd0:	02c50593          	addi	a1,a0,44
80000bd4:	12b1a023          	sw	a1,288(gp)
80000bd8:	02f00213          	li	tp,47
80000bdc:	00b20463          	beq	tp,a1,80000be4 <inst_95>
80000be0:	4ac0306f          	j	8000408c <bad_trap>

80000be4 <inst_95>:
80000be4:	00300513          	li	a0,3
80000be8:	55650593          	addi	a1,a0,1366
80000bec:	12b1a223          	sw	a1,292(gp)
80000bf0:	55900213          	li	tp,1369
80000bf4:	00b20463          	beq	tp,a1,80000bfc <inst_96>
80000bf8:	4940306f          	j	8000408c <bad_trap>

80000bfc <inst_96>:
80000bfc:	00300513          	li	a0,3
80000c00:	aab50593          	addi	a1,a0,-1365
80000c04:	12b1a423          	sw	a1,296(gp)
80000c08:	aae00213          	li	tp,-1362
80000c0c:	00b20463          	beq	tp,a1,80000c14 <inst_97>
80000c10:	47c0306f          	j	8000408c <bad_trap>

80000c14 <inst_97>:
80000c14:	00300513          	li	a0,3
80000c18:	00650593          	addi	a1,a0,6
80000c1c:	12b1a623          	sw	a1,300(gp)
80000c20:	00900213          	li	tp,9
80000c24:	00b20463          	beq	tp,a1,80000c2c <inst_98>
80000c28:	4640306f          	j	8000408c <bad_trap>

80000c2c <inst_98>:
80000c2c:	00300513          	li	a0,3
80000c30:	33450593          	addi	a1,a0,820
80000c34:	12b1a823          	sw	a1,304(gp)
80000c38:	33700213          	li	tp,823
80000c3c:	00b20463          	beq	tp,a1,80000c44 <inst_99>
80000c40:	44c0306f          	j	8000408c <bad_trap>

80000c44 <inst_99>:
80000c44:	00300513          	li	a0,3
80000c48:	66750593          	addi	a1,a0,1639
80000c4c:	12b1aa23          	sw	a1,308(gp)
80000c50:	66a00213          	li	tp,1642
80000c54:	00b20463          	beq	tp,a1,80000c5c <inst_100>
80000c58:	4340306f          	j	8000408c <bad_trap>

80000c5c <inst_100>:
80000c5c:	00300513          	li	a0,3
80000c60:	fd450593          	addi	a1,a0,-44
80000c64:	12b1ac23          	sw	a1,312(gp)
80000c68:	fd700213          	li	tp,-41
80000c6c:	00b20463          	beq	tp,a1,80000c74 <inst_101>
80000c70:	41c0306f          	j	8000408c <bad_trap>

80000c74 <inst_101>:
80000c74:	00300513          	li	a0,3
80000c78:	02e50593          	addi	a1,a0,46
80000c7c:	12b1ae23          	sw	a1,316(gp)
80000c80:	03100213          	li	tp,49
80000c84:	00b20463          	beq	tp,a1,80000c8c <inst_102>
80000c88:	4040306f          	j	8000408c <bad_trap>

80000c8c <inst_102>:
80000c8c:	55555537          	lui	a0,0x55555
80000c90:	55550513          	addi	a0,a0,1365 # 55555555 <absimm+0x10263026>
80000c94:	00350593          	addi	a1,a0,3
80000c98:	14b1a023          	sw	a1,320(gp)
80000c9c:	55555237          	lui	tp,0x55555
80000ca0:	55820213          	addi	tp,tp,1368 # 55555558 <absimm+0x10263029>
80000ca4:	00b20463          	beq	tp,a1,80000cac <inst_103>
80000ca8:	3e40306f          	j	8000408c <bad_trap>

80000cac <inst_103>:
80000cac:	55555537          	lui	a0,0x55555
80000cb0:	55550513          	addi	a0,a0,1365 # 55555555 <absimm+0x10263026>
80000cb4:	55550593          	addi	a1,a0,1365
80000cb8:	14b1a223          	sw	a1,324(gp)
80000cbc:	55556237          	lui	tp,0x55556
80000cc0:	aaa20213          	addi	tp,tp,-1366 # 55555aaa <absimm+0x1026357b>
80000cc4:	00b20463          	beq	tp,a1,80000ccc <inst_104>
80000cc8:	3c40306f          	j	8000408c <bad_trap>

80000ccc <inst_104>:
80000ccc:	55555537          	lui	a0,0x55555
80000cd0:	55550513          	addi	a0,a0,1365 # 55555555 <absimm+0x10263026>
80000cd4:	aaa50593          	addi	a1,a0,-1366
80000cd8:	14b1a423          	sw	a1,328(gp)
80000cdc:	55555237          	lui	tp,0x55555
80000ce0:	fff20213          	addi	tp,tp,-1 # 55554fff <absimm+0x10262ad0>
80000ce4:	00b20463          	beq	tp,a1,80000cec <inst_105>
80000ce8:	3a40306f          	j	8000408c <bad_trap>

80000cec <inst_105>:
80000cec:	55555537          	lui	a0,0x55555
80000cf0:	55550513          	addi	a0,a0,1365 # 55555555 <absimm+0x10263026>
80000cf4:	00550593          	addi	a1,a0,5
80000cf8:	14b1a623          	sw	a1,332(gp)
80000cfc:	55555237          	lui	tp,0x55555
80000d00:	55a20213          	addi	tp,tp,1370 # 5555555a <absimm+0x1026302b>
80000d04:	00b20463          	beq	tp,a1,80000d0c <inst_106>
80000d08:	3840306f          	j	8000408c <bad_trap>

80000d0c <inst_106>:
80000d0c:	55555537          	lui	a0,0x55555
80000d10:	55550513          	addi	a0,a0,1365 # 55555555 <absimm+0x10263026>
80000d14:	33350593          	addi	a1,a0,819
80000d18:	14b1a823          	sw	a1,336(gp)
80000d1c:	55556237          	lui	tp,0x55556
80000d20:	88820213          	addi	tp,tp,-1912 # 55555888 <absimm+0x10263359>
80000d24:	00b20463          	beq	tp,a1,80000d2c <inst_107>
80000d28:	3640306f          	j	8000408c <bad_trap>

80000d2c <inst_107>:
80000d2c:	55555537          	lui	a0,0x55555
80000d30:	55550513          	addi	a0,a0,1365 # 55555555 <absimm+0x10263026>
80000d34:	66650593          	addi	a1,a0,1638
80000d38:	14b1aa23          	sw	a1,340(gp)
80000d3c:	55556237          	lui	tp,0x55556
80000d40:	bbb20213          	addi	tp,tp,-1093 # 55555bbb <absimm+0x1026368c>
80000d44:	00b20463          	beq	tp,a1,80000d4c <inst_108>
80000d48:	3440306f          	j	8000408c <bad_trap>

80000d4c <inst_108>:
80000d4c:	55555537          	lui	a0,0x55555
80000d50:	55550513          	addi	a0,a0,1365 # 55555555 <absimm+0x10263026>
80000d54:	fd350593          	addi	a1,a0,-45
80000d58:	14b1ac23          	sw	a1,344(gp)
80000d5c:	55555237          	lui	tp,0x55555
80000d60:	52820213          	addi	tp,tp,1320 # 55555528 <absimm+0x10262ff9>
80000d64:	00b20463          	beq	tp,a1,80000d6c <inst_109>
80000d68:	3240306f          	j	8000408c <bad_trap>

80000d6c <inst_109>:
80000d6c:	55555537          	lui	a0,0x55555
80000d70:	55550513          	addi	a0,a0,1365 # 55555555 <absimm+0x10263026>
80000d74:	02d50593          	addi	a1,a0,45
80000d78:	14b1ae23          	sw	a1,348(gp)
80000d7c:	55555237          	lui	tp,0x55555
80000d80:	58220213          	addi	tp,tp,1410 # 55555582 <absimm+0x10263053>
80000d84:	00b20463          	beq	tp,a1,80000d8c <inst_110>
80000d88:	3040306f          	j	8000408c <bad_trap>

80000d8c <inst_110>:
80000d8c:	55555537          	lui	a0,0x55555
80000d90:	55550513          	addi	a0,a0,1365 # 55555555 <absimm+0x10263026>
80000d94:	00250593          	addi	a1,a0,2
80000d98:	16b1a023          	sw	a1,352(gp)
80000d9c:	55555237          	lui	tp,0x55555
80000da0:	55720213          	addi	tp,tp,1367 # 55555557 <absimm+0x10263028>
80000da4:	00b20463          	beq	tp,a1,80000dac <inst_111>
80000da8:	2e40306f          	j	8000408c <bad_trap>

80000dac <inst_111>:
80000dac:	55555537          	lui	a0,0x55555
80000db0:	55550513          	addi	a0,a0,1365 # 55555555 <absimm+0x10263026>
80000db4:	55450593          	addi	a1,a0,1364
80000db8:	16b1a223          	sw	a1,356(gp)
80000dbc:	55556237          	lui	tp,0x55556
80000dc0:	aa920213          	addi	tp,tp,-1367 # 55555aa9 <absimm+0x1026357a>
80000dc4:	00b20463          	beq	tp,a1,80000dcc <inst_112>
80000dc8:	2c40306f          	j	8000408c <bad_trap>

80000dcc <inst_112>:
80000dcc:	55555537          	lui	a0,0x55555
80000dd0:	55550513          	addi	a0,a0,1365 # 55555555 <absimm+0x10263026>
80000dd4:	00050593          	mv	a1,a0
80000dd8:	16b1a423          	sw	a1,360(gp)
80000ddc:	55555237          	lui	tp,0x55555
80000de0:	55520213          	addi	tp,tp,1365 # 55555555 <absimm+0x10263026>
80000de4:	00b20463          	beq	tp,a1,80000dec <inst_113>
80000de8:	2a40306f          	j	8000408c <bad_trap>

80000dec <inst_113>:
80000dec:	55555537          	lui	a0,0x55555
80000df0:	55550513          	addi	a0,a0,1365 # 55555555 <absimm+0x10263026>
80000df4:	00450593          	addi	a1,a0,4
80000df8:	16b1a623          	sw	a1,364(gp)
80000dfc:	55555237          	lui	tp,0x55555
80000e00:	55920213          	addi	tp,tp,1369 # 55555559 <absimm+0x1026302a>
80000e04:	00b20463          	beq	tp,a1,80000e0c <inst_114>
80000e08:	2840306f          	j	8000408c <bad_trap>

80000e0c <inst_114>:
80000e0c:	55555537          	lui	a0,0x55555
80000e10:	55550513          	addi	a0,a0,1365 # 55555555 <absimm+0x10263026>
80000e14:	33250593          	addi	a1,a0,818
80000e18:	16b1a823          	sw	a1,368(gp)
80000e1c:	55556237          	lui	tp,0x55556
80000e20:	88720213          	addi	tp,tp,-1913 # 55555887 <absimm+0x10263358>
80000e24:	00b20463          	beq	tp,a1,80000e2c <inst_115>
80000e28:	2640306f          	j	8000408c <bad_trap>

80000e2c <inst_115>:
80000e2c:	55555537          	lui	a0,0x55555
80000e30:	55550513          	addi	a0,a0,1365 # 55555555 <absimm+0x10263026>
80000e34:	66550593          	addi	a1,a0,1637
80000e38:	16b1aa23          	sw	a1,372(gp)
80000e3c:	55556237          	lui	tp,0x55556
80000e40:	bba20213          	addi	tp,tp,-1094 # 55555bba <absimm+0x1026368b>
80000e44:	00b20463          	beq	tp,a1,80000e4c <inst_116>
80000e48:	2440306f          	j	8000408c <bad_trap>

80000e4c <inst_116>:
80000e4c:	55555537          	lui	a0,0x55555
80000e50:	55550513          	addi	a0,a0,1365 # 55555555 <absimm+0x10263026>
80000e54:	02c50593          	addi	a1,a0,44
80000e58:	16b1ac23          	sw	a1,376(gp)
80000e5c:	55555237          	lui	tp,0x55555
80000e60:	58120213          	addi	tp,tp,1409 # 55555581 <absimm+0x10263052>
80000e64:	00b20463          	beq	tp,a1,80000e6c <inst_117>
80000e68:	2240306f          	j	8000408c <bad_trap>

80000e6c <inst_117>:
80000e6c:	55555537          	lui	a0,0x55555
80000e70:	55550513          	addi	a0,a0,1365 # 55555555 <absimm+0x10263026>
80000e74:	55650593          	addi	a1,a0,1366
80000e78:	16b1ae23          	sw	a1,380(gp)
80000e7c:	55556237          	lui	tp,0x55556
80000e80:	aab20213          	addi	tp,tp,-1365 # 55555aab <absimm+0x1026357c>
80000e84:	00b20463          	beq	tp,a1,80000e8c <inst_118>
80000e88:	2040306f          	j	8000408c <bad_trap>

80000e8c <inst_118>:
80000e8c:	55555537          	lui	a0,0x55555
80000e90:	55550513          	addi	a0,a0,1365 # 55555555 <absimm+0x10263026>
80000e94:	aab50593          	addi	a1,a0,-1365
80000e98:	18b1a023          	sw	a1,384(gp)
80000e9c:	55555237          	lui	tp,0x55555
80000ea0:	00b20463          	beq	tp,a1,80000ea8 <inst_119>
80000ea4:	1e80306f          	j	8000408c <bad_trap>

80000ea8 <inst_119>:
80000ea8:	55555537          	lui	a0,0x55555
80000eac:	55550513          	addi	a0,a0,1365 # 55555555 <absimm+0x10263026>
80000eb0:	00650593          	addi	a1,a0,6
80000eb4:	18b1a223          	sw	a1,388(gp)
80000eb8:	55555237          	lui	tp,0x55555
80000ebc:	55b20213          	addi	tp,tp,1371 # 5555555b <absimm+0x1026302c>
80000ec0:	00b20463          	beq	tp,a1,80000ec8 <inst_120>
80000ec4:	1c80306f          	j	8000408c <bad_trap>

80000ec8 <inst_120>:
80000ec8:	55555537          	lui	a0,0x55555
80000ecc:	55550513          	addi	a0,a0,1365 # 55555555 <absimm+0x10263026>
80000ed0:	33450593          	addi	a1,a0,820
80000ed4:	18b1a423          	sw	a1,392(gp)
80000ed8:	55556237          	lui	tp,0x55556
80000edc:	88920213          	addi	tp,tp,-1911 # 55555889 <absimm+0x1026335a>
80000ee0:	00b20463          	beq	tp,a1,80000ee8 <inst_121>
80000ee4:	1a80306f          	j	8000408c <bad_trap>

80000ee8 <inst_121>:
80000ee8:	55555537          	lui	a0,0x55555
80000eec:	55550513          	addi	a0,a0,1365 # 55555555 <absimm+0x10263026>
80000ef0:	66750593          	addi	a1,a0,1639
80000ef4:	18b1a623          	sw	a1,396(gp)
80000ef8:	55556237          	lui	tp,0x55556
80000efc:	bbc20213          	addi	tp,tp,-1092 # 55555bbc <absimm+0x1026368d>
80000f00:	00b20463          	beq	tp,a1,80000f08 <inst_122>
80000f04:	1880306f          	j	8000408c <bad_trap>

80000f08 <inst_122>:
80000f08:	55555537          	lui	a0,0x55555
80000f0c:	55550513          	addi	a0,a0,1365 # 55555555 <absimm+0x10263026>
80000f10:	fd450593          	addi	a1,a0,-44
80000f14:	18b1a823          	sw	a1,400(gp)
80000f18:	55555237          	lui	tp,0x55555
80000f1c:	52920213          	addi	tp,tp,1321 # 55555529 <absimm+0x10262ffa>
80000f20:	00b20463          	beq	tp,a1,80000f28 <inst_123>
80000f24:	1680306f          	j	8000408c <bad_trap>

80000f28 <inst_123>:
80000f28:	55555537          	lui	a0,0x55555
80000f2c:	55550513          	addi	a0,a0,1365 # 55555555 <absimm+0x10263026>
80000f30:	02e50593          	addi	a1,a0,46
80000f34:	18b1aa23          	sw	a1,404(gp)
80000f38:	55555237          	lui	tp,0x55555
80000f3c:	58320213          	addi	tp,tp,1411 # 55555583 <absimm+0x10263054>
80000f40:	00b20463          	beq	tp,a1,80000f48 <inst_124>
80000f44:	1480306f          	j	8000408c <bad_trap>

80000f48 <inst_124>:
80000f48:	aaaab537          	lui	a0,0xaaaab
80000f4c:	aaa50513          	addi	a0,a0,-1366 # aaaaaaaa <imm12+0xaaaaafda>
80000f50:	00350593          	addi	a1,a0,3
80000f54:	18b1ac23          	sw	a1,408(gp)
80000f58:	aaaab237          	lui	tp,0xaaaab
80000f5c:	aad20213          	addi	tp,tp,-1363 # aaaaaaad <imm12+0xaaaaafdd>
80000f60:	00b20463          	beq	tp,a1,80000f68 <inst_125>
80000f64:	1280306f          	j	8000408c <bad_trap>

80000f68 <inst_125>:
80000f68:	aaaab537          	lui	a0,0xaaaab
80000f6c:	aaa50513          	addi	a0,a0,-1366 # aaaaaaaa <imm12+0xaaaaafda>
80000f70:	aaa50593          	addi	a1,a0,-1366
80000f74:	18b1ae23          	sw	a1,412(gp)
80000f78:	aaaaa237          	lui	tp,0xaaaaa
80000f7c:	55420213          	addi	tp,tp,1364 # aaaaa554 <imm12+0xaaaaaa84>
80000f80:	00b20463          	beq	tp,a1,80000f88 <inst_126>
80000f84:	1080306f          	j	8000408c <bad_trap>

80000f88 <inst_126>:
80000f88:	aaaab537          	lui	a0,0xaaaab
80000f8c:	aaa50513          	addi	a0,a0,-1366 # aaaaaaaa <imm12+0xaaaaafda>
80000f90:	00550593          	addi	a1,a0,5
80000f94:	1ab1a023          	sw	a1,416(gp)
80000f98:	aaaab237          	lui	tp,0xaaaab
80000f9c:	aaf20213          	addi	tp,tp,-1361 # aaaaaaaf <imm12+0xaaaaafdf>
80000fa0:	00b20463          	beq	tp,a1,80000fa8 <inst_127>
80000fa4:	0e80306f          	j	8000408c <bad_trap>

80000fa8 <inst_127>:
80000fa8:	aaaab537          	lui	a0,0xaaaab
80000fac:	aaa50513          	addi	a0,a0,-1366 # aaaaaaaa <imm12+0xaaaaafda>
80000fb0:	33350593          	addi	a1,a0,819
80000fb4:	1ab1a223          	sw	a1,420(gp)
80000fb8:	aaaab237          	lui	tp,0xaaaab
80000fbc:	ddd20213          	addi	tp,tp,-547 # aaaaaddd <imm12+0xaaaab30d>
80000fc0:	00b20463          	beq	tp,a1,80000fc8 <inst_128>
80000fc4:	0c80306f          	j	8000408c <bad_trap>

80000fc8 <inst_128>:
80000fc8:	aaaab537          	lui	a0,0xaaaab
80000fcc:	aaa50513          	addi	a0,a0,-1366 # aaaaaaaa <imm12+0xaaaaafda>
80000fd0:	66650593          	addi	a1,a0,1638
80000fd4:	1ab1a423          	sw	a1,424(gp)
80000fd8:	aaaab237          	lui	tp,0xaaaab
80000fdc:	11020213          	addi	tp,tp,272 # aaaab110 <imm12+0xaaaab640>
80000fe0:	00b20463          	beq	tp,a1,80000fe8 <inst_129>
80000fe4:	0a80306f          	j	8000408c <bad_trap>

80000fe8 <inst_129>:
80000fe8:	aaaab537          	lui	a0,0xaaaab
80000fec:	aaa50513          	addi	a0,a0,-1366 # aaaaaaaa <imm12+0xaaaaafda>
80000ff0:	fd350593          	addi	a1,a0,-45
80000ff4:	1ab1a623          	sw	a1,428(gp)
80000ff8:	aaaab237          	lui	tp,0xaaaab
80000ffc:	a7d20213          	addi	tp,tp,-1411 # aaaaaa7d <imm12+0xaaaaafad>
80001000:	00b20463          	beq	tp,a1,80001008 <inst_130>
80001004:	0880306f          	j	8000408c <bad_trap>

80001008 <inst_130>:
80001008:	aaaab537          	lui	a0,0xaaaab
8000100c:	aaa50513          	addi	a0,a0,-1366 # aaaaaaaa <imm12+0xaaaaafda>
80001010:	02d50593          	addi	a1,a0,45
80001014:	1ab1a823          	sw	a1,432(gp)
80001018:	aaaab237          	lui	tp,0xaaaab
8000101c:	ad720213          	addi	tp,tp,-1321 # aaaaaad7 <imm12+0xaaaab007>
80001020:	00b20463          	beq	tp,a1,80001028 <inst_131>
80001024:	0680306f          	j	8000408c <bad_trap>

80001028 <inst_131>:
80001028:	aaaab537          	lui	a0,0xaaaab
8000102c:	aaa50513          	addi	a0,a0,-1366 # aaaaaaaa <imm12+0xaaaaafda>
80001030:	00250593          	addi	a1,a0,2
80001034:	1ab1aa23          	sw	a1,436(gp)
80001038:	aaaab237          	lui	tp,0xaaaab
8000103c:	aac20213          	addi	tp,tp,-1364 # aaaaaaac <imm12+0xaaaaafdc>
80001040:	00b20463          	beq	tp,a1,80001048 <inst_132>
80001044:	0480306f          	j	8000408c <bad_trap>

80001048 <inst_132>:
80001048:	aaaab537          	lui	a0,0xaaaab
8000104c:	aaa50513          	addi	a0,a0,-1366 # aaaaaaaa <imm12+0xaaaaafda>
80001050:	55450593          	addi	a1,a0,1364
80001054:	1ab1ac23          	sw	a1,440(gp)
80001058:	aaaab237          	lui	tp,0xaaaab
8000105c:	ffe20213          	addi	tp,tp,-2 # aaaaaffe <imm12+0xaaaab52e>
80001060:	00b20463          	beq	tp,a1,80001068 <inst_133>
80001064:	0280306f          	j	8000408c <bad_trap>

80001068 <inst_133>:
80001068:	aaaab537          	lui	a0,0xaaaab
8000106c:	aaa50513          	addi	a0,a0,-1366 # aaaaaaaa <imm12+0xaaaaafda>
80001070:	00050593          	mv	a1,a0
80001074:	1ab1ae23          	sw	a1,444(gp)
80001078:	aaaab237          	lui	tp,0xaaaab
8000107c:	aaa20213          	addi	tp,tp,-1366 # aaaaaaaa <imm12+0xaaaaafda>
80001080:	00b20463          	beq	tp,a1,80001088 <inst_134>
80001084:	0080306f          	j	8000408c <bad_trap>

80001088 <inst_134>:
80001088:	aaaab537          	lui	a0,0xaaaab
8000108c:	aaa50513          	addi	a0,a0,-1366 # aaaaaaaa <imm12+0xaaaaafda>
80001090:	00450593          	addi	a1,a0,4
80001094:	1cb1a023          	sw	a1,448(gp)
80001098:	aaaab237          	lui	tp,0xaaaab
8000109c:	aae20213          	addi	tp,tp,-1362 # aaaaaaae <imm12+0xaaaaafde>
800010a0:	00b20463          	beq	tp,a1,800010a8 <inst_135>
800010a4:	7e90206f          	j	8000408c <bad_trap>

800010a8 <inst_135>:
800010a8:	aaaab537          	lui	a0,0xaaaab
800010ac:	aaa50513          	addi	a0,a0,-1366 # aaaaaaaa <imm12+0xaaaaafda>
800010b0:	33250593          	addi	a1,a0,818
800010b4:	1cb1a223          	sw	a1,452(gp)
800010b8:	aaaab237          	lui	tp,0xaaaab
800010bc:	ddc20213          	addi	tp,tp,-548 # aaaaaddc <imm12+0xaaaab30c>
800010c0:	00b20463          	beq	tp,a1,800010c8 <inst_136>
800010c4:	7c90206f          	j	8000408c <bad_trap>

800010c8 <inst_136>:
800010c8:	aaaab537          	lui	a0,0xaaaab
800010cc:	aaa50513          	addi	a0,a0,-1366 # aaaaaaaa <imm12+0xaaaaafda>
800010d0:	66550593          	addi	a1,a0,1637
800010d4:	1cb1a423          	sw	a1,456(gp)
800010d8:	aaaab237          	lui	tp,0xaaaab
800010dc:	10f20213          	addi	tp,tp,271 # aaaab10f <imm12+0xaaaab63f>
800010e0:	00b20463          	beq	tp,a1,800010e8 <inst_137>
800010e4:	7a90206f          	j	8000408c <bad_trap>

800010e8 <inst_137>:
800010e8:	aaaab537          	lui	a0,0xaaaab
800010ec:	aaa50513          	addi	a0,a0,-1366 # aaaaaaaa <imm12+0xaaaaafda>
800010f0:	02c50593          	addi	a1,a0,44
800010f4:	1cb1a623          	sw	a1,460(gp)
800010f8:	aaaab237          	lui	tp,0xaaaab
800010fc:	ad620213          	addi	tp,tp,-1322 # aaaaaad6 <imm12+0xaaaab006>
80001100:	00b20463          	beq	tp,a1,80001108 <inst_138>
80001104:	7890206f          	j	8000408c <bad_trap>

80001108 <inst_138>:
80001108:	aaaab537          	lui	a0,0xaaaab
8000110c:	aaa50513          	addi	a0,a0,-1366 # aaaaaaaa <imm12+0xaaaaafda>
80001110:	55650593          	addi	a1,a0,1366
80001114:	1cb1a823          	sw	a1,464(gp)
80001118:	aaaab237          	lui	tp,0xaaaab
8000111c:	00b20463          	beq	tp,a1,80001124 <inst_139>
80001120:	76d0206f          	j	8000408c <bad_trap>

80001124 <inst_139>:
80001124:	aaaab537          	lui	a0,0xaaaab
80001128:	aaa50513          	addi	a0,a0,-1366 # aaaaaaaa <imm12+0xaaaaafda>
8000112c:	aab50593          	addi	a1,a0,-1365
80001130:	1cb1aa23          	sw	a1,468(gp)
80001134:	aaaaa237          	lui	tp,0xaaaaa
80001138:	55520213          	addi	tp,tp,1365 # aaaaa555 <imm12+0xaaaaaa85>
8000113c:	00b20463          	beq	tp,a1,80001144 <inst_140>
80001140:	74d0206f          	j	8000408c <bad_trap>

80001144 <inst_140>:
80001144:	aaaab537          	lui	a0,0xaaaab
80001148:	aaa50513          	addi	a0,a0,-1366 # aaaaaaaa <imm12+0xaaaaafda>
8000114c:	00650593          	addi	a1,a0,6
80001150:	1cb1ac23          	sw	a1,472(gp)
80001154:	aaaab237          	lui	tp,0xaaaab
80001158:	ab020213          	addi	tp,tp,-1360 # aaaaaab0 <imm12+0xaaaaafe0>
8000115c:	00b20463          	beq	tp,a1,80001164 <inst_141>
80001160:	72d0206f          	j	8000408c <bad_trap>

80001164 <inst_141>:
80001164:	aaaab537          	lui	a0,0xaaaab
80001168:	aaa50513          	addi	a0,a0,-1366 # aaaaaaaa <imm12+0xaaaaafda>
8000116c:	33450593          	addi	a1,a0,820
80001170:	1cb1ae23          	sw	a1,476(gp)
80001174:	aaaab237          	lui	tp,0xaaaab
80001178:	dde20213          	addi	tp,tp,-546 # aaaaadde <imm12+0xaaaab30e>
8000117c:	00b20463          	beq	tp,a1,80001184 <inst_142>
80001180:	70d0206f          	j	8000408c <bad_trap>

80001184 <inst_142>:
80001184:	aaaab537          	lui	a0,0xaaaab
80001188:	aaa50513          	addi	a0,a0,-1366 # aaaaaaaa <imm12+0xaaaaafda>
8000118c:	66750593          	addi	a1,a0,1639
80001190:	1eb1a023          	sw	a1,480(gp)
80001194:	aaaab237          	lui	tp,0xaaaab
80001198:	11120213          	addi	tp,tp,273 # aaaab111 <imm12+0xaaaab641>
8000119c:	00b20463          	beq	tp,a1,800011a4 <inst_143>
800011a0:	6ed0206f          	j	8000408c <bad_trap>

800011a4 <inst_143>:
800011a4:	aaaab537          	lui	a0,0xaaaab
800011a8:	aaa50513          	addi	a0,a0,-1366 # aaaaaaaa <imm12+0xaaaaafda>
800011ac:	fd450593          	addi	a1,a0,-44
800011b0:	1eb1a223          	sw	a1,484(gp)
800011b4:	aaaab237          	lui	tp,0xaaaab
800011b8:	a7e20213          	addi	tp,tp,-1410 # aaaaaa7e <imm12+0xaaaaafae>
800011bc:	00b20463          	beq	tp,a1,800011c4 <inst_144>
800011c0:	6cd0206f          	j	8000408c <bad_trap>

800011c4 <inst_144>:
800011c4:	aaaab537          	lui	a0,0xaaaab
800011c8:	aaa50513          	addi	a0,a0,-1366 # aaaaaaaa <imm12+0xaaaaafda>
800011cc:	02e50593          	addi	a1,a0,46
800011d0:	1eb1a423          	sw	a1,488(gp)
800011d4:	aaaab237          	lui	tp,0xaaaab
800011d8:	ad820213          	addi	tp,tp,-1320 # aaaaaad8 <imm12+0xaaaab008>
800011dc:	00b20463          	beq	tp,a1,800011e4 <inst_145>
800011e0:	6ad0206f          	j	8000408c <bad_trap>

800011e4 <inst_145>:
800011e4:	00500513          	li	a0,5
800011e8:	00350593          	addi	a1,a0,3
800011ec:	1eb1a623          	sw	a1,492(gp)
800011f0:	00800213          	li	tp,8
800011f4:	00b20463          	beq	tp,a1,800011fc <inst_146>
800011f8:	6950206f          	j	8000408c <bad_trap>

800011fc <inst_146>:
800011fc:	00500513          	li	a0,5
80001200:	55550593          	addi	a1,a0,1365
80001204:	1eb1a823          	sw	a1,496(gp)
80001208:	55a00213          	li	tp,1370
8000120c:	00b20463          	beq	tp,a1,80001214 <inst_147>
80001210:	67d0206f          	j	8000408c <bad_trap>

80001214 <inst_147>:
80001214:	00500513          	li	a0,5
80001218:	aaa50593          	addi	a1,a0,-1366
8000121c:	1eb1aa23          	sw	a1,500(gp)
80001220:	aaf00213          	li	tp,-1361
80001224:	00b20463          	beq	tp,a1,8000122c <inst_148>
80001228:	6650206f          	j	8000408c <bad_trap>

8000122c <inst_148>:
8000122c:	00500513          	li	a0,5
80001230:	33350593          	addi	a1,a0,819
80001234:	1eb1ac23          	sw	a1,504(gp)
80001238:	33800213          	li	tp,824
8000123c:	00b20463          	beq	tp,a1,80001244 <inst_149>
80001240:	64d0206f          	j	8000408c <bad_trap>

80001244 <inst_149>:
80001244:	00500513          	li	a0,5
80001248:	66650593          	addi	a1,a0,1638
8000124c:	1eb1ae23          	sw	a1,508(gp)
80001250:	66b00213          	li	tp,1643
80001254:	00b20463          	beq	tp,a1,8000125c <inst_150>
80001258:	6350206f          	j	8000408c <bad_trap>

8000125c <inst_150>:
8000125c:	00500513          	li	a0,5
80001260:	fd350593          	addi	a1,a0,-45
80001264:	20b1a023          	sw	a1,512(gp)
80001268:	fd800213          	li	tp,-40
8000126c:	00b20463          	beq	tp,a1,80001274 <inst_151>
80001270:	61d0206f          	j	8000408c <bad_trap>

80001274 <inst_151>:
80001274:	00500513          	li	a0,5
80001278:	02d50593          	addi	a1,a0,45
8000127c:	20b1a223          	sw	a1,516(gp)
80001280:	03200213          	li	tp,50
80001284:	00b20463          	beq	tp,a1,8000128c <inst_152>
80001288:	6050206f          	j	8000408c <bad_trap>

8000128c <inst_152>:
8000128c:	00500513          	li	a0,5
80001290:	00250593          	addi	a1,a0,2
80001294:	20b1a423          	sw	a1,520(gp)
80001298:	00700213          	li	tp,7
8000129c:	00b20463          	beq	tp,a1,800012a4 <inst_153>
800012a0:	5ed0206f          	j	8000408c <bad_trap>

800012a4 <inst_153>:
800012a4:	00500513          	li	a0,5
800012a8:	55450593          	addi	a1,a0,1364
800012ac:	20b1a623          	sw	a1,524(gp)
800012b0:	55900213          	li	tp,1369
800012b4:	00b20463          	beq	tp,a1,800012bc <inst_154>
800012b8:	5d50206f          	j	8000408c <bad_trap>

800012bc <inst_154>:
800012bc:	00500513          	li	a0,5
800012c0:	00050593          	mv	a1,a0
800012c4:	20b1a823          	sw	a1,528(gp)
800012c8:	00500213          	li	tp,5
800012cc:	00b20463          	beq	tp,a1,800012d4 <inst_155>
800012d0:	5bd0206f          	j	8000408c <bad_trap>

800012d4 <inst_155>:
800012d4:	00500513          	li	a0,5
800012d8:	00450593          	addi	a1,a0,4
800012dc:	20b1aa23          	sw	a1,532(gp)
800012e0:	00900213          	li	tp,9
800012e4:	00b20463          	beq	tp,a1,800012ec <inst_156>
800012e8:	5a50206f          	j	8000408c <bad_trap>

800012ec <inst_156>:
800012ec:	00500513          	li	a0,5
800012f0:	33250593          	addi	a1,a0,818
800012f4:	20b1ac23          	sw	a1,536(gp)
800012f8:	33700213          	li	tp,823
800012fc:	00b20463          	beq	tp,a1,80001304 <inst_157>
80001300:	58d0206f          	j	8000408c <bad_trap>

80001304 <inst_157>:
80001304:	00500513          	li	a0,5
80001308:	66550593          	addi	a1,a0,1637
8000130c:	20b1ae23          	sw	a1,540(gp)
80001310:	66a00213          	li	tp,1642
80001314:	00b20463          	beq	tp,a1,8000131c <inst_158>
80001318:	5750206f          	j	8000408c <bad_trap>

8000131c <inst_158>:
8000131c:	00500513          	li	a0,5
80001320:	02c50593          	addi	a1,a0,44
80001324:	22b1a023          	sw	a1,544(gp)
80001328:	03100213          	li	tp,49
8000132c:	00b20463          	beq	tp,a1,80001334 <inst_159>
80001330:	55d0206f          	j	8000408c <bad_trap>

80001334 <inst_159>:
80001334:	00500513          	li	a0,5
80001338:	55650593          	addi	a1,a0,1366
8000133c:	22b1a223          	sw	a1,548(gp)
80001340:	55b00213          	li	tp,1371
80001344:	00b20463          	beq	tp,a1,8000134c <inst_160>
80001348:	5450206f          	j	8000408c <bad_trap>

8000134c <inst_160>:
8000134c:	00500513          	li	a0,5
80001350:	aab50593          	addi	a1,a0,-1365
80001354:	22b1a423          	sw	a1,552(gp)
80001358:	ab000213          	li	tp,-1360
8000135c:	00b20463          	beq	tp,a1,80001364 <inst_161>
80001360:	52d0206f          	j	8000408c <bad_trap>

80001364 <inst_161>:
80001364:	00500513          	li	a0,5
80001368:	00650593          	addi	a1,a0,6
8000136c:	22b1a623          	sw	a1,556(gp)
80001370:	00b00213          	li	tp,11
80001374:	00b20463          	beq	tp,a1,8000137c <inst_162>
80001378:	5150206f          	j	8000408c <bad_trap>

8000137c <inst_162>:
8000137c:	00500513          	li	a0,5
80001380:	33450593          	addi	a1,a0,820
80001384:	22b1a823          	sw	a1,560(gp)
80001388:	33900213          	li	tp,825
8000138c:	00b20463          	beq	tp,a1,80001394 <inst_163>
80001390:	4fd0206f          	j	8000408c <bad_trap>

80001394 <inst_163>:
80001394:	00500513          	li	a0,5
80001398:	66750593          	addi	a1,a0,1639
8000139c:	22b1aa23          	sw	a1,564(gp)
800013a0:	66c00213          	li	tp,1644
800013a4:	00b20463          	beq	tp,a1,800013ac <inst_164>
800013a8:	4e50206f          	j	8000408c <bad_trap>

800013ac <inst_164>:
800013ac:	00500513          	li	a0,5
800013b0:	fd450593          	addi	a1,a0,-44
800013b4:	22b1ac23          	sw	a1,568(gp)
800013b8:	fd900213          	li	tp,-39
800013bc:	00b20463          	beq	tp,a1,800013c4 <inst_165>
800013c0:	4cd0206f          	j	8000408c <bad_trap>

800013c4 <inst_165>:
800013c4:	00500513          	li	a0,5
800013c8:	02e50593          	addi	a1,a0,46
800013cc:	22b1ae23          	sw	a1,572(gp)
800013d0:	03300213          	li	tp,51
800013d4:	00b20463          	beq	tp,a1,800013dc <inst_166>
800013d8:	4b50206f          	j	8000408c <bad_trap>

800013dc <inst_166>:
800013dc:	33333537          	lui	a0,0x33333
800013e0:	33350513          	addi	a0,a0,819 # 33333333 <offset+0x333332c7>
800013e4:	00350593          	addi	a1,a0,3
800013e8:	24b1a023          	sw	a1,576(gp)
800013ec:	33333237          	lui	tp,0x33333
800013f0:	33620213          	addi	tp,tp,822 # 33333336 <offset+0x333332ca>
800013f4:	00b20463          	beq	tp,a1,800013fc <inst_167>
800013f8:	4950206f          	j	8000408c <bad_trap>

800013fc <inst_167>:
800013fc:	33333537          	lui	a0,0x33333
80001400:	33350513          	addi	a0,a0,819 # 33333333 <offset+0x333332c7>
80001404:	55550593          	addi	a1,a0,1365
80001408:	24b1a223          	sw	a1,580(gp)
8000140c:	33334237          	lui	tp,0x33334
80001410:	88820213          	addi	tp,tp,-1912 # 33333888 <offset+0x3333381c>
80001414:	00b20463          	beq	tp,a1,8000141c <inst_168>
80001418:	4750206f          	j	8000408c <bad_trap>

8000141c <inst_168>:
8000141c:	33333537          	lui	a0,0x33333
80001420:	33350513          	addi	a0,a0,819 # 33333333 <offset+0x333332c7>
80001424:	aaa50593          	addi	a1,a0,-1366
80001428:	24b1a423          	sw	a1,584(gp)
8000142c:	33333237          	lui	tp,0x33333
80001430:	ddd20213          	addi	tp,tp,-547 # 33332ddd <offset+0x33332d71>
80001434:	00b20463          	beq	tp,a1,8000143c <inst_169>
80001438:	4550206f          	j	8000408c <bad_trap>

8000143c <inst_169>:
8000143c:	33333537          	lui	a0,0x33333
80001440:	33350513          	addi	a0,a0,819 # 33333333 <offset+0x333332c7>
80001444:	00550593          	addi	a1,a0,5
80001448:	24b1a623          	sw	a1,588(gp)
8000144c:	33333237          	lui	tp,0x33333
80001450:	33820213          	addi	tp,tp,824 # 33333338 <offset+0x333332cc>
80001454:	00b20463          	beq	tp,a1,8000145c <inst_170>
80001458:	4350206f          	j	8000408c <bad_trap>

8000145c <inst_170>:
8000145c:	33333537          	lui	a0,0x33333
80001460:	33350513          	addi	a0,a0,819 # 33333333 <offset+0x333332c7>
80001464:	33350593          	addi	a1,a0,819
80001468:	24b1a823          	sw	a1,592(gp)
8000146c:	33333237          	lui	tp,0x33333
80001470:	66620213          	addi	tp,tp,1638 # 33333666 <offset+0x333335fa>
80001474:	00b20463          	beq	tp,a1,8000147c <inst_171>
80001478:	4150206f          	j	8000408c <bad_trap>

8000147c <inst_171>:
8000147c:	33333537          	lui	a0,0x33333
80001480:	33350513          	addi	a0,a0,819 # 33333333 <offset+0x333332c7>
80001484:	66650593          	addi	a1,a0,1638
80001488:	24b1aa23          	sw	a1,596(gp)
8000148c:	33334237          	lui	tp,0x33334
80001490:	99920213          	addi	tp,tp,-1639 # 33333999 <offset+0x3333392d>
80001494:	00b20463          	beq	tp,a1,8000149c <inst_172>
80001498:	3f50206f          	j	8000408c <bad_trap>

8000149c <inst_172>:
8000149c:	33333537          	lui	a0,0x33333
800014a0:	33350513          	addi	a0,a0,819 # 33333333 <offset+0x333332c7>
800014a4:	fd350593          	addi	a1,a0,-45
800014a8:	24b1ac23          	sw	a1,600(gp)
800014ac:	33333237          	lui	tp,0x33333
800014b0:	30620213          	addi	tp,tp,774 # 33333306 <offset+0x3333329a>
800014b4:	00b20463          	beq	tp,a1,800014bc <inst_173>
800014b8:	3d50206f          	j	8000408c <bad_trap>

800014bc <inst_173>:
800014bc:	33333537          	lui	a0,0x33333
800014c0:	33350513          	addi	a0,a0,819 # 33333333 <offset+0x333332c7>
800014c4:	02d50593          	addi	a1,a0,45
800014c8:	24b1ae23          	sw	a1,604(gp)
800014cc:	33333237          	lui	tp,0x33333
800014d0:	36020213          	addi	tp,tp,864 # 33333360 <offset+0x333332f4>
800014d4:	00b20463          	beq	tp,a1,800014dc <inst_174>
800014d8:	3b50206f          	j	8000408c <bad_trap>

800014dc <inst_174>:
800014dc:	33333537          	lui	a0,0x33333
800014e0:	33350513          	addi	a0,a0,819 # 33333333 <offset+0x333332c7>
800014e4:	00250593          	addi	a1,a0,2
800014e8:	26b1a023          	sw	a1,608(gp)
800014ec:	33333237          	lui	tp,0x33333
800014f0:	33520213          	addi	tp,tp,821 # 33333335 <offset+0x333332c9>
800014f4:	00b20463          	beq	tp,a1,800014fc <inst_175>
800014f8:	3950206f          	j	8000408c <bad_trap>

800014fc <inst_175>:
800014fc:	33333537          	lui	a0,0x33333
80001500:	33350513          	addi	a0,a0,819 # 33333333 <offset+0x333332c7>
80001504:	55450593          	addi	a1,a0,1364
80001508:	26b1a223          	sw	a1,612(gp)
8000150c:	33334237          	lui	tp,0x33334
80001510:	88720213          	addi	tp,tp,-1913 # 33333887 <offset+0x3333381b>
80001514:	00b20463          	beq	tp,a1,8000151c <inst_176>
80001518:	3750206f          	j	8000408c <bad_trap>

8000151c <inst_176>:
8000151c:	33333537          	lui	a0,0x33333
80001520:	33350513          	addi	a0,a0,819 # 33333333 <offset+0x333332c7>
80001524:	00050593          	mv	a1,a0
80001528:	26b1a423          	sw	a1,616(gp)
8000152c:	33333237          	lui	tp,0x33333
80001530:	33320213          	addi	tp,tp,819 # 33333333 <offset+0x333332c7>
80001534:	00b20463          	beq	tp,a1,8000153c <inst_177>
80001538:	3550206f          	j	8000408c <bad_trap>

8000153c <inst_177>:
8000153c:	33333537          	lui	a0,0x33333
80001540:	33350513          	addi	a0,a0,819 # 33333333 <offset+0x333332c7>
80001544:	00450593          	addi	a1,a0,4
80001548:	26b1a623          	sw	a1,620(gp)
8000154c:	33333237          	lui	tp,0x33333
80001550:	33720213          	addi	tp,tp,823 # 33333337 <offset+0x333332cb>
80001554:	00b20463          	beq	tp,a1,8000155c <inst_178>
80001558:	3350206f          	j	8000408c <bad_trap>

8000155c <inst_178>:
8000155c:	33333537          	lui	a0,0x33333
80001560:	33350513          	addi	a0,a0,819 # 33333333 <offset+0x333332c7>
80001564:	33250593          	addi	a1,a0,818
80001568:	26b1a823          	sw	a1,624(gp)
8000156c:	33333237          	lui	tp,0x33333
80001570:	66520213          	addi	tp,tp,1637 # 33333665 <offset+0x333335f9>
80001574:	00b20463          	beq	tp,a1,8000157c <inst_179>
80001578:	3150206f          	j	8000408c <bad_trap>

8000157c <inst_179>:
8000157c:	33333537          	lui	a0,0x33333
80001580:	33350513          	addi	a0,a0,819 # 33333333 <offset+0x333332c7>
80001584:	66550593          	addi	a1,a0,1637
80001588:	26b1aa23          	sw	a1,628(gp)
8000158c:	33334237          	lui	tp,0x33334
80001590:	99820213          	addi	tp,tp,-1640 # 33333998 <offset+0x3333392c>
80001594:	00b20463          	beq	tp,a1,8000159c <inst_180>
80001598:	2f50206f          	j	8000408c <bad_trap>

8000159c <inst_180>:
8000159c:	33333537          	lui	a0,0x33333
800015a0:	33350513          	addi	a0,a0,819 # 33333333 <offset+0x333332c7>
800015a4:	02c50593          	addi	a1,a0,44
800015a8:	26b1ac23          	sw	a1,632(gp)
800015ac:	33333237          	lui	tp,0x33333
800015b0:	35f20213          	addi	tp,tp,863 # 3333335f <offset+0x333332f3>
800015b4:	00b20463          	beq	tp,a1,800015bc <inst_181>
800015b8:	2d50206f          	j	8000408c <bad_trap>

800015bc <inst_181>:
800015bc:	33333537          	lui	a0,0x33333
800015c0:	33350513          	addi	a0,a0,819 # 33333333 <offset+0x333332c7>
800015c4:	55650593          	addi	a1,a0,1366
800015c8:	26b1ae23          	sw	a1,636(gp)
800015cc:	33334237          	lui	tp,0x33334
800015d0:	88920213          	addi	tp,tp,-1911 # 33333889 <offset+0x3333381d>
800015d4:	00b20463          	beq	tp,a1,800015dc <inst_182>
800015d8:	2b50206f          	j	8000408c <bad_trap>

800015dc <inst_182>:
800015dc:	33333537          	lui	a0,0x33333
800015e0:	33350513          	addi	a0,a0,819 # 33333333 <offset+0x333332c7>
800015e4:	aab50593          	addi	a1,a0,-1365
800015e8:	28b1a023          	sw	a1,640(gp)
800015ec:	33333237          	lui	tp,0x33333
800015f0:	dde20213          	addi	tp,tp,-546 # 33332dde <offset+0x33332d72>
800015f4:	00b20463          	beq	tp,a1,800015fc <inst_183>
800015f8:	2950206f          	j	8000408c <bad_trap>

800015fc <inst_183>:
800015fc:	33333537          	lui	a0,0x33333
80001600:	33350513          	addi	a0,a0,819 # 33333333 <offset+0x333332c7>
80001604:	00650593          	addi	a1,a0,6
80001608:	28b1a223          	sw	a1,644(gp)
8000160c:	33333237          	lui	tp,0x33333
80001610:	33920213          	addi	tp,tp,825 # 33333339 <offset+0x333332cd>
80001614:	00b20463          	beq	tp,a1,8000161c <inst_184>
80001618:	2750206f          	j	8000408c <bad_trap>

8000161c <inst_184>:
8000161c:	33333537          	lui	a0,0x33333
80001620:	33350513          	addi	a0,a0,819 # 33333333 <offset+0x333332c7>
80001624:	33450593          	addi	a1,a0,820
80001628:	28b1a423          	sw	a1,648(gp)
8000162c:	33333237          	lui	tp,0x33333
80001630:	66720213          	addi	tp,tp,1639 # 33333667 <offset+0x333335fb>
80001634:	00b20463          	beq	tp,a1,8000163c <inst_185>
80001638:	2550206f          	j	8000408c <bad_trap>

8000163c <inst_185>:
8000163c:	33333537          	lui	a0,0x33333
80001640:	33350513          	addi	a0,a0,819 # 33333333 <offset+0x333332c7>
80001644:	66750593          	addi	a1,a0,1639
80001648:	28b1a623          	sw	a1,652(gp)
8000164c:	33334237          	lui	tp,0x33334
80001650:	99a20213          	addi	tp,tp,-1638 # 3333399a <offset+0x3333392e>
80001654:	00b20463          	beq	tp,a1,8000165c <inst_186>
80001658:	2350206f          	j	8000408c <bad_trap>

8000165c <inst_186>:
8000165c:	33333537          	lui	a0,0x33333
80001660:	33350513          	addi	a0,a0,819 # 33333333 <offset+0x333332c7>
80001664:	fd450593          	addi	a1,a0,-44
80001668:	28b1a823          	sw	a1,656(gp)
8000166c:	33333237          	lui	tp,0x33333
80001670:	30720213          	addi	tp,tp,775 # 33333307 <offset+0x3333329b>
80001674:	00b20463          	beq	tp,a1,8000167c <inst_187>
80001678:	2150206f          	j	8000408c <bad_trap>

8000167c <inst_187>:
8000167c:	33333537          	lui	a0,0x33333
80001680:	33350513          	addi	a0,a0,819 # 33333333 <offset+0x333332c7>
80001684:	02e50593          	addi	a1,a0,46
80001688:	28b1aa23          	sw	a1,660(gp)
8000168c:	33333237          	lui	tp,0x33333
80001690:	36120213          	addi	tp,tp,865 # 33333361 <offset+0x333332f5>
80001694:	00b20463          	beq	tp,a1,8000169c <inst_188>
80001698:	1f50206f          	j	8000408c <bad_trap>

8000169c <inst_188>:
8000169c:	66666537          	lui	a0,0x66666
800016a0:	66650513          	addi	a0,a0,1638 # 66666666 <absimm+0x21374137>
800016a4:	00350593          	addi	a1,a0,3
800016a8:	28b1ac23          	sw	a1,664(gp)
800016ac:	66666237          	lui	tp,0x66666
800016b0:	66920213          	addi	tp,tp,1641 # 66666669 <absimm+0x2137413a>
800016b4:	00b20463          	beq	tp,a1,800016bc <inst_189>
800016b8:	1d50206f          	j	8000408c <bad_trap>

800016bc <inst_189>:
800016bc:	66666537          	lui	a0,0x66666
800016c0:	66650513          	addi	a0,a0,1638 # 66666666 <absimm+0x21374137>
800016c4:	55550593          	addi	a1,a0,1365
800016c8:	28b1ae23          	sw	a1,668(gp)
800016cc:	66667237          	lui	tp,0x66667
800016d0:	bbb20213          	addi	tp,tp,-1093 # 66666bbb <absimm+0x2137468c>
800016d4:	00b20463          	beq	tp,a1,800016dc <inst_190>
800016d8:	1b50206f          	j	8000408c <bad_trap>

800016dc <inst_190>:
800016dc:	66666537          	lui	a0,0x66666
800016e0:	66650513          	addi	a0,a0,1638 # 66666666 <absimm+0x21374137>
800016e4:	aaa50593          	addi	a1,a0,-1366
800016e8:	2ab1a023          	sw	a1,672(gp)
800016ec:	66666237          	lui	tp,0x66666
800016f0:	11020213          	addi	tp,tp,272 # 66666110 <absimm+0x21373be1>
800016f4:	00b20463          	beq	tp,a1,800016fc <inst_191>
800016f8:	1950206f          	j	8000408c <bad_trap>

800016fc <inst_191>:
800016fc:	66666537          	lui	a0,0x66666
80001700:	66650513          	addi	a0,a0,1638 # 66666666 <absimm+0x21374137>
80001704:	00550593          	addi	a1,a0,5
80001708:	2ab1a223          	sw	a1,676(gp)
8000170c:	66666237          	lui	tp,0x66666
80001710:	66b20213          	addi	tp,tp,1643 # 6666666b <absimm+0x2137413c>
80001714:	00b20463          	beq	tp,a1,8000171c <inst_192>
80001718:	1750206f          	j	8000408c <bad_trap>

8000171c <inst_192>:
8000171c:	66666537          	lui	a0,0x66666
80001720:	66650513          	addi	a0,a0,1638 # 66666666 <absimm+0x21374137>
80001724:	33350593          	addi	a1,a0,819
80001728:	2ab1a423          	sw	a1,680(gp)
8000172c:	66667237          	lui	tp,0x66667
80001730:	99920213          	addi	tp,tp,-1639 # 66666999 <absimm+0x2137446a>
80001734:	00b20463          	beq	tp,a1,8000173c <inst_193>
80001738:	1550206f          	j	8000408c <bad_trap>

8000173c <inst_193>:
8000173c:	66666537          	lui	a0,0x66666
80001740:	66650513          	addi	a0,a0,1638 # 66666666 <absimm+0x21374137>
80001744:	66650593          	addi	a1,a0,1638
80001748:	2ab1a623          	sw	a1,684(gp)
8000174c:	66667237          	lui	tp,0x66667
80001750:	ccc20213          	addi	tp,tp,-820 # 66666ccc <absimm+0x2137479d>
80001754:	00b20463          	beq	tp,a1,8000175c <inst_194>
80001758:	1350206f          	j	8000408c <bad_trap>

8000175c <inst_194>:
8000175c:	66666537          	lui	a0,0x66666
80001760:	66650513          	addi	a0,a0,1638 # 66666666 <absimm+0x21374137>
80001764:	fd350593          	addi	a1,a0,-45
80001768:	2ab1a823          	sw	a1,688(gp)
8000176c:	66666237          	lui	tp,0x66666
80001770:	63920213          	addi	tp,tp,1593 # 66666639 <absimm+0x2137410a>
80001774:	00b20463          	beq	tp,a1,8000177c <inst_195>
80001778:	1150206f          	j	8000408c <bad_trap>

8000177c <inst_195>:
8000177c:	66666537          	lui	a0,0x66666
80001780:	66650513          	addi	a0,a0,1638 # 66666666 <absimm+0x21374137>
80001784:	02d50593          	addi	a1,a0,45
80001788:	2ab1aa23          	sw	a1,692(gp)
8000178c:	66666237          	lui	tp,0x66666
80001790:	69320213          	addi	tp,tp,1683 # 66666693 <absimm+0x21374164>
80001794:	00b20463          	beq	tp,a1,8000179c <inst_196>
80001798:	0f50206f          	j	8000408c <bad_trap>

8000179c <inst_196>:
8000179c:	66666537          	lui	a0,0x66666
800017a0:	66650513          	addi	a0,a0,1638 # 66666666 <absimm+0x21374137>
800017a4:	00250593          	addi	a1,a0,2
800017a8:	2ab1ac23          	sw	a1,696(gp)
800017ac:	66666237          	lui	tp,0x66666
800017b0:	66820213          	addi	tp,tp,1640 # 66666668 <absimm+0x21374139>
800017b4:	00b20463          	beq	tp,a1,800017bc <inst_197>
800017b8:	0d50206f          	j	8000408c <bad_trap>

800017bc <inst_197>:
800017bc:	66666537          	lui	a0,0x66666
800017c0:	66650513          	addi	a0,a0,1638 # 66666666 <absimm+0x21374137>
800017c4:	55450593          	addi	a1,a0,1364
800017c8:	2ab1ae23          	sw	a1,700(gp)
800017cc:	66667237          	lui	tp,0x66667
800017d0:	bba20213          	addi	tp,tp,-1094 # 66666bba <absimm+0x2137468b>
800017d4:	00b20463          	beq	tp,a1,800017dc <inst_198>
800017d8:	0b50206f          	j	8000408c <bad_trap>

800017dc <inst_198>:
800017dc:	66666537          	lui	a0,0x66666
800017e0:	66650513          	addi	a0,a0,1638 # 66666666 <absimm+0x21374137>
800017e4:	00050593          	mv	a1,a0
800017e8:	2cb1a023          	sw	a1,704(gp)
800017ec:	66666237          	lui	tp,0x66666
800017f0:	66620213          	addi	tp,tp,1638 # 66666666 <absimm+0x21374137>
800017f4:	00b20463          	beq	tp,a1,800017fc <inst_199>
800017f8:	0950206f          	j	8000408c <bad_trap>

800017fc <inst_199>:
800017fc:	66666537          	lui	a0,0x66666
80001800:	66650513          	addi	a0,a0,1638 # 66666666 <absimm+0x21374137>
80001804:	00450593          	addi	a1,a0,4
80001808:	2cb1a223          	sw	a1,708(gp)
8000180c:	66666237          	lui	tp,0x66666
80001810:	66a20213          	addi	tp,tp,1642 # 6666666a <absimm+0x2137413b>
80001814:	00b20463          	beq	tp,a1,8000181c <inst_200>
80001818:	0750206f          	j	8000408c <bad_trap>

8000181c <inst_200>:
8000181c:	66666537          	lui	a0,0x66666
80001820:	66650513          	addi	a0,a0,1638 # 66666666 <absimm+0x21374137>
80001824:	33250593          	addi	a1,a0,818
80001828:	2cb1a423          	sw	a1,712(gp)
8000182c:	66667237          	lui	tp,0x66667
80001830:	99820213          	addi	tp,tp,-1640 # 66666998 <absimm+0x21374469>
80001834:	00b20463          	beq	tp,a1,8000183c <inst_201>
80001838:	0550206f          	j	8000408c <bad_trap>

8000183c <inst_201>:
8000183c:	66666537          	lui	a0,0x66666
80001840:	66650513          	addi	a0,a0,1638 # 66666666 <absimm+0x21374137>
80001844:	66550593          	addi	a1,a0,1637
80001848:	2cb1a623          	sw	a1,716(gp)
8000184c:	66667237          	lui	tp,0x66667
80001850:	ccb20213          	addi	tp,tp,-821 # 66666ccb <absimm+0x2137479c>
80001854:	00b20463          	beq	tp,a1,8000185c <inst_202>
80001858:	0350206f          	j	8000408c <bad_trap>

8000185c <inst_202>:
8000185c:	66666537          	lui	a0,0x66666
80001860:	66650513          	addi	a0,a0,1638 # 66666666 <absimm+0x21374137>
80001864:	02c50593          	addi	a1,a0,44
80001868:	2cb1a823          	sw	a1,720(gp)
8000186c:	66666237          	lui	tp,0x66666
80001870:	69220213          	addi	tp,tp,1682 # 66666692 <absimm+0x21374163>
80001874:	00b20463          	beq	tp,a1,8000187c <inst_203>
80001878:	0150206f          	j	8000408c <bad_trap>

8000187c <inst_203>:
8000187c:	66666537          	lui	a0,0x66666
80001880:	66650513          	addi	a0,a0,1638 # 66666666 <absimm+0x21374137>
80001884:	55650593          	addi	a1,a0,1366
80001888:	2cb1aa23          	sw	a1,724(gp)
8000188c:	66667237          	lui	tp,0x66667
80001890:	bbc20213          	addi	tp,tp,-1092 # 66666bbc <absimm+0x2137468d>
80001894:	00b20463          	beq	tp,a1,8000189c <inst_204>
80001898:	7f40206f          	j	8000408c <bad_trap>

8000189c <inst_204>:
8000189c:	66666537          	lui	a0,0x66666
800018a0:	66650513          	addi	a0,a0,1638 # 66666666 <absimm+0x21374137>
800018a4:	aab50593          	addi	a1,a0,-1365
800018a8:	2cb1ac23          	sw	a1,728(gp)
800018ac:	66666237          	lui	tp,0x66666
800018b0:	11120213          	addi	tp,tp,273 # 66666111 <absimm+0x21373be2>
800018b4:	00b20463          	beq	tp,a1,800018bc <inst_205>
800018b8:	7d40206f          	j	8000408c <bad_trap>

800018bc <inst_205>:
800018bc:	66666537          	lui	a0,0x66666
800018c0:	66650513          	addi	a0,a0,1638 # 66666666 <absimm+0x21374137>
800018c4:	00650593          	addi	a1,a0,6
800018c8:	2cb1ae23          	sw	a1,732(gp)
800018cc:	66666237          	lui	tp,0x66666
800018d0:	66c20213          	addi	tp,tp,1644 # 6666666c <absimm+0x2137413d>
800018d4:	00b20463          	beq	tp,a1,800018dc <inst_206>
800018d8:	7b40206f          	j	8000408c <bad_trap>

800018dc <inst_206>:
800018dc:	66666537          	lui	a0,0x66666
800018e0:	66650513          	addi	a0,a0,1638 # 66666666 <absimm+0x21374137>
800018e4:	33450593          	addi	a1,a0,820
800018e8:	2eb1a023          	sw	a1,736(gp)
800018ec:	66667237          	lui	tp,0x66667
800018f0:	99a20213          	addi	tp,tp,-1638 # 6666699a <absimm+0x2137446b>
800018f4:	00b20463          	beq	tp,a1,800018fc <inst_207>
800018f8:	7940206f          	j	8000408c <bad_trap>

800018fc <inst_207>:
800018fc:	66666537          	lui	a0,0x66666
80001900:	66650513          	addi	a0,a0,1638 # 66666666 <absimm+0x21374137>
80001904:	66750593          	addi	a1,a0,1639
80001908:	2eb1a223          	sw	a1,740(gp)
8000190c:	66667237          	lui	tp,0x66667
80001910:	ccd20213          	addi	tp,tp,-819 # 66666ccd <absimm+0x2137479e>
80001914:	00b20463          	beq	tp,a1,8000191c <inst_208>
80001918:	7740206f          	j	8000408c <bad_trap>

8000191c <inst_208>:
8000191c:	66666537          	lui	a0,0x66666
80001920:	66650513          	addi	a0,a0,1638 # 66666666 <absimm+0x21374137>
80001924:	fd450593          	addi	a1,a0,-44
80001928:	2eb1a423          	sw	a1,744(gp)
8000192c:	66666237          	lui	tp,0x66666
80001930:	63a20213          	addi	tp,tp,1594 # 6666663a <absimm+0x2137410b>
80001934:	00b20463          	beq	tp,a1,8000193c <inst_209>
80001938:	7540206f          	j	8000408c <bad_trap>

8000193c <inst_209>:
8000193c:	66666537          	lui	a0,0x66666
80001940:	66650513          	addi	a0,a0,1638 # 66666666 <absimm+0x21374137>
80001944:	02e50593          	addi	a1,a0,46
80001948:	2eb1a623          	sw	a1,748(gp)
8000194c:	66666237          	lui	tp,0x66666
80001950:	69420213          	addi	tp,tp,1684 # 66666694 <absimm+0x21374165>
80001954:	00b20463          	beq	tp,a1,8000195c <inst_210>
80001958:	7340206f          	j	8000408c <bad_trap>

8000195c <inst_210>:
8000195c:	ffff5537          	lui	a0,0xffff5
80001960:	afc50513          	addi	a0,a0,-1284 # ffff4afc <imm12+0xffff502c>
80001964:	00350593          	addi	a1,a0,3
80001968:	2eb1a823          	sw	a1,752(gp)
8000196c:	ffff5237          	lui	tp,0xffff5
80001970:	aff20213          	addi	tp,tp,-1281 # ffff4aff <imm12+0xffff502f>
80001974:	00b20463          	beq	tp,a1,8000197c <inst_211>
80001978:	7140206f          	j	8000408c <bad_trap>

8000197c <inst_211>:
8000197c:	ffff5537          	lui	a0,0xffff5
80001980:	afc50513          	addi	a0,a0,-1284 # ffff4afc <imm12+0xffff502c>
80001984:	55550593          	addi	a1,a0,1365
80001988:	2eb1aa23          	sw	a1,756(gp)
8000198c:	ffff5237          	lui	tp,0xffff5
80001990:	05120213          	addi	tp,tp,81 # ffff5051 <imm12+0xffff5581>
80001994:	00b20463          	beq	tp,a1,8000199c <inst_212>
80001998:	6f40206f          	j	8000408c <bad_trap>

8000199c <inst_212>:
8000199c:	ffff5537          	lui	a0,0xffff5
800019a0:	afc50513          	addi	a0,a0,-1284 # ffff4afc <imm12+0xffff502c>
800019a4:	aaa50593          	addi	a1,a0,-1366
800019a8:	2eb1ac23          	sw	a1,760(gp)
800019ac:	ffff4237          	lui	tp,0xffff4
800019b0:	5a620213          	addi	tp,tp,1446 # ffff45a6 <imm12+0xffff4ad6>
800019b4:	00b20463          	beq	tp,a1,800019bc <inst_213>
800019b8:	6d40206f          	j	8000408c <bad_trap>

800019bc <inst_213>:
800019bc:	ffff5537          	lui	a0,0xffff5
800019c0:	afc50513          	addi	a0,a0,-1284 # ffff4afc <imm12+0xffff502c>
800019c4:	00550593          	addi	a1,a0,5
800019c8:	2eb1ae23          	sw	a1,764(gp)
800019cc:	ffff5237          	lui	tp,0xffff5
800019d0:	b0120213          	addi	tp,tp,-1279 # ffff4b01 <imm12+0xffff5031>
800019d4:	00b20463          	beq	tp,a1,800019dc <inst_214>
800019d8:	6b40206f          	j	8000408c <bad_trap>

800019dc <inst_214>:
800019dc:	ffff5537          	lui	a0,0xffff5
800019e0:	afc50513          	addi	a0,a0,-1284 # ffff4afc <imm12+0xffff502c>
800019e4:	33350593          	addi	a1,a0,819
800019e8:	30b1a023          	sw	a1,768(gp)
800019ec:	ffff5237          	lui	tp,0xffff5
800019f0:	e2f20213          	addi	tp,tp,-465 # ffff4e2f <imm12+0xffff535f>
800019f4:	00b20463          	beq	tp,a1,800019fc <inst_215>
800019f8:	6940206f          	j	8000408c <bad_trap>

800019fc <inst_215>:
800019fc:	ffff5537          	lui	a0,0xffff5
80001a00:	afc50513          	addi	a0,a0,-1284 # ffff4afc <imm12+0xffff502c>
80001a04:	66650593          	addi	a1,a0,1638
80001a08:	30b1a223          	sw	a1,772(gp)
80001a0c:	ffff5237          	lui	tp,0xffff5
80001a10:	16220213          	addi	tp,tp,354 # ffff5162 <imm12+0xffff5692>
80001a14:	00b20463          	beq	tp,a1,80001a1c <inst_216>
80001a18:	6740206f          	j	8000408c <bad_trap>

80001a1c <inst_216>:
80001a1c:	ffff5537          	lui	a0,0xffff5
80001a20:	afc50513          	addi	a0,a0,-1284 # ffff4afc <imm12+0xffff502c>
80001a24:	fd350593          	addi	a1,a0,-45
80001a28:	30b1a423          	sw	a1,776(gp)
80001a2c:	ffff5237          	lui	tp,0xffff5
80001a30:	acf20213          	addi	tp,tp,-1329 # ffff4acf <imm12+0xffff4fff>
80001a34:	00b20463          	beq	tp,a1,80001a3c <inst_217>
80001a38:	6540206f          	j	8000408c <bad_trap>

80001a3c <inst_217>:
80001a3c:	ffff5537          	lui	a0,0xffff5
80001a40:	afc50513          	addi	a0,a0,-1284 # ffff4afc <imm12+0xffff502c>
80001a44:	02d50593          	addi	a1,a0,45
80001a48:	30b1a623          	sw	a1,780(gp)
80001a4c:	ffff5237          	lui	tp,0xffff5
80001a50:	b2920213          	addi	tp,tp,-1239 # ffff4b29 <imm12+0xffff5059>
80001a54:	00b20463          	beq	tp,a1,80001a5c <inst_218>
80001a58:	6340206f          	j	8000408c <bad_trap>

80001a5c <inst_218>:
80001a5c:	ffff5537          	lui	a0,0xffff5
80001a60:	afc50513          	addi	a0,a0,-1284 # ffff4afc <imm12+0xffff502c>
80001a64:	00250593          	addi	a1,a0,2
80001a68:	30b1a823          	sw	a1,784(gp)
80001a6c:	ffff5237          	lui	tp,0xffff5
80001a70:	afe20213          	addi	tp,tp,-1282 # ffff4afe <imm12+0xffff502e>
80001a74:	00b20463          	beq	tp,a1,80001a7c <inst_219>
80001a78:	6140206f          	j	8000408c <bad_trap>

80001a7c <inst_219>:
80001a7c:	ffff5537          	lui	a0,0xffff5
80001a80:	afc50513          	addi	a0,a0,-1284 # ffff4afc <imm12+0xffff502c>
80001a84:	55450593          	addi	a1,a0,1364
80001a88:	30b1aa23          	sw	a1,788(gp)
80001a8c:	ffff5237          	lui	tp,0xffff5
80001a90:	05020213          	addi	tp,tp,80 # ffff5050 <imm12+0xffff5580>
80001a94:	00b20463          	beq	tp,a1,80001a9c <inst_220>
80001a98:	5f40206f          	j	8000408c <bad_trap>

80001a9c <inst_220>:
80001a9c:	ffff5537          	lui	a0,0xffff5
80001aa0:	afc50513          	addi	a0,a0,-1284 # ffff4afc <imm12+0xffff502c>
80001aa4:	00050593          	mv	a1,a0
80001aa8:	30b1ac23          	sw	a1,792(gp)
80001aac:	ffff5237          	lui	tp,0xffff5
80001ab0:	afc20213          	addi	tp,tp,-1284 # ffff4afc <imm12+0xffff502c>
80001ab4:	00b20463          	beq	tp,a1,80001abc <inst_221>
80001ab8:	5d40206f          	j	8000408c <bad_trap>

80001abc <inst_221>:
80001abc:	ffff5537          	lui	a0,0xffff5
80001ac0:	afc50513          	addi	a0,a0,-1284 # ffff4afc <imm12+0xffff502c>
80001ac4:	00450593          	addi	a1,a0,4
80001ac8:	30b1ae23          	sw	a1,796(gp)
80001acc:	ffff5237          	lui	tp,0xffff5
80001ad0:	b0020213          	addi	tp,tp,-1280 # ffff4b00 <imm12+0xffff5030>
80001ad4:	00b20463          	beq	tp,a1,80001adc <inst_222>
80001ad8:	5b40206f          	j	8000408c <bad_trap>

80001adc <inst_222>:
80001adc:	ffff5537          	lui	a0,0xffff5
80001ae0:	afc50513          	addi	a0,a0,-1284 # ffff4afc <imm12+0xffff502c>
80001ae4:	33250593          	addi	a1,a0,818
80001ae8:	32b1a023          	sw	a1,800(gp)
80001aec:	ffff5237          	lui	tp,0xffff5
80001af0:	e2e20213          	addi	tp,tp,-466 # ffff4e2e <imm12+0xffff535e>
80001af4:	00b20463          	beq	tp,a1,80001afc <inst_223>
80001af8:	5940206f          	j	8000408c <bad_trap>

80001afc <inst_223>:
80001afc:	ffff5537          	lui	a0,0xffff5
80001b00:	afc50513          	addi	a0,a0,-1284 # ffff4afc <imm12+0xffff502c>
80001b04:	66550593          	addi	a1,a0,1637
80001b08:	32b1a223          	sw	a1,804(gp)
80001b0c:	ffff5237          	lui	tp,0xffff5
80001b10:	16120213          	addi	tp,tp,353 # ffff5161 <imm12+0xffff5691>
80001b14:	00b20463          	beq	tp,a1,80001b1c <inst_224>
80001b18:	5740206f          	j	8000408c <bad_trap>

80001b1c <inst_224>:
80001b1c:	ffff5537          	lui	a0,0xffff5
80001b20:	afc50513          	addi	a0,a0,-1284 # ffff4afc <imm12+0xffff502c>
80001b24:	02c50593          	addi	a1,a0,44
80001b28:	32b1a423          	sw	a1,808(gp)
80001b2c:	ffff5237          	lui	tp,0xffff5
80001b30:	b2820213          	addi	tp,tp,-1240 # ffff4b28 <imm12+0xffff5058>
80001b34:	00b20463          	beq	tp,a1,80001b3c <inst_225>
80001b38:	5540206f          	j	8000408c <bad_trap>

80001b3c <inst_225>:
80001b3c:	ffff5537          	lui	a0,0xffff5
80001b40:	afc50513          	addi	a0,a0,-1284 # ffff4afc <imm12+0xffff502c>
80001b44:	55650593          	addi	a1,a0,1366
80001b48:	32b1a623          	sw	a1,812(gp)
80001b4c:	ffff5237          	lui	tp,0xffff5
80001b50:	05220213          	addi	tp,tp,82 # ffff5052 <imm12+0xffff5582>
80001b54:	00b20463          	beq	tp,a1,80001b5c <inst_226>
80001b58:	5340206f          	j	8000408c <bad_trap>

80001b5c <inst_226>:
80001b5c:	ffff5537          	lui	a0,0xffff5
80001b60:	afc50513          	addi	a0,a0,-1284 # ffff4afc <imm12+0xffff502c>
80001b64:	aab50593          	addi	a1,a0,-1365
80001b68:	32b1a823          	sw	a1,816(gp)
80001b6c:	ffff4237          	lui	tp,0xffff4
80001b70:	5a720213          	addi	tp,tp,1447 # ffff45a7 <imm12+0xffff4ad7>
80001b74:	00b20463          	beq	tp,a1,80001b7c <inst_227>
80001b78:	5140206f          	j	8000408c <bad_trap>

80001b7c <inst_227>:
80001b7c:	ffff5537          	lui	a0,0xffff5
80001b80:	afc50513          	addi	a0,a0,-1284 # ffff4afc <imm12+0xffff502c>
80001b84:	00650593          	addi	a1,a0,6
80001b88:	32b1aa23          	sw	a1,820(gp)
80001b8c:	ffff5237          	lui	tp,0xffff5
80001b90:	b0220213          	addi	tp,tp,-1278 # ffff4b02 <imm12+0xffff5032>
80001b94:	00b20463          	beq	tp,a1,80001b9c <inst_228>
80001b98:	4f40206f          	j	8000408c <bad_trap>

80001b9c <inst_228>:
80001b9c:	ffff5537          	lui	a0,0xffff5
80001ba0:	afc50513          	addi	a0,a0,-1284 # ffff4afc <imm12+0xffff502c>
80001ba4:	33450593          	addi	a1,a0,820
80001ba8:	32b1ac23          	sw	a1,824(gp)
80001bac:	ffff5237          	lui	tp,0xffff5
80001bb0:	e3020213          	addi	tp,tp,-464 # ffff4e30 <imm12+0xffff5360>
80001bb4:	00b20463          	beq	tp,a1,80001bbc <inst_229>
80001bb8:	4d40206f          	j	8000408c <bad_trap>

80001bbc <inst_229>:
80001bbc:	ffff5537          	lui	a0,0xffff5
80001bc0:	afc50513          	addi	a0,a0,-1284 # ffff4afc <imm12+0xffff502c>
80001bc4:	66750593          	addi	a1,a0,1639
80001bc8:	32b1ae23          	sw	a1,828(gp)
80001bcc:	ffff5237          	lui	tp,0xffff5
80001bd0:	16320213          	addi	tp,tp,355 # ffff5163 <imm12+0xffff5693>
80001bd4:	00b20463          	beq	tp,a1,80001bdc <inst_230>
80001bd8:	4b40206f          	j	8000408c <bad_trap>

80001bdc <inst_230>:
80001bdc:	ffff5537          	lui	a0,0xffff5
80001be0:	afc50513          	addi	a0,a0,-1284 # ffff4afc <imm12+0xffff502c>
80001be4:	fd450593          	addi	a1,a0,-44
80001be8:	34b1a023          	sw	a1,832(gp)
80001bec:	ffff5237          	lui	tp,0xffff5
80001bf0:	ad020213          	addi	tp,tp,-1328 # ffff4ad0 <imm12+0xffff5000>
80001bf4:	00b20463          	beq	tp,a1,80001bfc <inst_231>
80001bf8:	4940206f          	j	8000408c <bad_trap>

80001bfc <inst_231>:
80001bfc:	ffff5537          	lui	a0,0xffff5
80001c00:	afc50513          	addi	a0,a0,-1284 # ffff4afc <imm12+0xffff502c>
80001c04:	02e50593          	addi	a1,a0,46
80001c08:	34b1a223          	sw	a1,836(gp)
80001c0c:	ffff5237          	lui	tp,0xffff5
80001c10:	b2a20213          	addi	tp,tp,-1238 # ffff4b2a <imm12+0xffff505a>
80001c14:	00b20463          	beq	tp,a1,80001c1c <inst_232>
80001c18:	4740206f          	j	8000408c <bad_trap>

80001c1c <inst_232>:
80001c1c:	0000b537          	lui	a0,0xb
80001c20:	50450513          	addi	a0,a0,1284 # b504 <offset+0xb498>
80001c24:	00350593          	addi	a1,a0,3
80001c28:	34b1a423          	sw	a1,840(gp)
80001c2c:	0000b237          	lui	tp,0xb
80001c30:	50720213          	addi	tp,tp,1287 # b507 <offset+0xb49b>
80001c34:	00b20463          	beq	tp,a1,80001c3c <inst_233>
80001c38:	4540206f          	j	8000408c <bad_trap>

80001c3c <inst_233>:
80001c3c:	0000b537          	lui	a0,0xb
80001c40:	50450513          	addi	a0,a0,1284 # b504 <offset+0xb498>
80001c44:	55550593          	addi	a1,a0,1365
80001c48:	34b1a623          	sw	a1,844(gp)
80001c4c:	0000c237          	lui	tp,0xc
80001c50:	a5920213          	addi	tp,tp,-1447 # ba59 <offset+0xb9ed>
80001c54:	00b20463          	beq	tp,a1,80001c5c <inst_234>
80001c58:	4340206f          	j	8000408c <bad_trap>

80001c5c <inst_234>:
80001c5c:	0000b537          	lui	a0,0xb
80001c60:	50450513          	addi	a0,a0,1284 # b504 <offset+0xb498>
80001c64:	aaa50593          	addi	a1,a0,-1366
80001c68:	34b1a823          	sw	a1,848(gp)
80001c6c:	0000b237          	lui	tp,0xb
80001c70:	fae20213          	addi	tp,tp,-82 # afae <offset+0xaf42>
80001c74:	00b20463          	beq	tp,a1,80001c7c <inst_235>
80001c78:	4140206f          	j	8000408c <bad_trap>

80001c7c <inst_235>:
80001c7c:	0000b537          	lui	a0,0xb
80001c80:	50450513          	addi	a0,a0,1284 # b504 <offset+0xb498>
80001c84:	00550593          	addi	a1,a0,5
80001c88:	34b1aa23          	sw	a1,852(gp)
80001c8c:	0000b237          	lui	tp,0xb
80001c90:	50920213          	addi	tp,tp,1289 # b509 <offset+0xb49d>
80001c94:	00b20463          	beq	tp,a1,80001c9c <inst_236>
80001c98:	3f40206f          	j	8000408c <bad_trap>

80001c9c <inst_236>:
80001c9c:	0000b537          	lui	a0,0xb
80001ca0:	50450513          	addi	a0,a0,1284 # b504 <offset+0xb498>
80001ca4:	33350593          	addi	a1,a0,819
80001ca8:	34b1ac23          	sw	a1,856(gp)
80001cac:	0000c237          	lui	tp,0xc
80001cb0:	83720213          	addi	tp,tp,-1993 # b837 <offset+0xb7cb>
80001cb4:	00b20463          	beq	tp,a1,80001cbc <inst_237>
80001cb8:	3d40206f          	j	8000408c <bad_trap>

80001cbc <inst_237>:
80001cbc:	0000b537          	lui	a0,0xb
80001cc0:	50450513          	addi	a0,a0,1284 # b504 <offset+0xb498>
80001cc4:	66650593          	addi	a1,a0,1638
80001cc8:	34b1ae23          	sw	a1,860(gp)
80001ccc:	0000c237          	lui	tp,0xc
80001cd0:	b6a20213          	addi	tp,tp,-1174 # bb6a <offset+0xbafe>
80001cd4:	00b20463          	beq	tp,a1,80001cdc <inst_238>
80001cd8:	3b40206f          	j	8000408c <bad_trap>

80001cdc <inst_238>:
80001cdc:	0000b537          	lui	a0,0xb
80001ce0:	50450513          	addi	a0,a0,1284 # b504 <offset+0xb498>
80001ce4:	fd350593          	addi	a1,a0,-45
80001ce8:	36b1a023          	sw	a1,864(gp)
80001cec:	0000b237          	lui	tp,0xb
80001cf0:	4d720213          	addi	tp,tp,1239 # b4d7 <offset+0xb46b>
80001cf4:	00b20463          	beq	tp,a1,80001cfc <inst_239>
80001cf8:	3940206f          	j	8000408c <bad_trap>

80001cfc <inst_239>:
80001cfc:	0000b537          	lui	a0,0xb
80001d00:	50450513          	addi	a0,a0,1284 # b504 <offset+0xb498>
80001d04:	02d50593          	addi	a1,a0,45
80001d08:	36b1a223          	sw	a1,868(gp)
80001d0c:	0000b237          	lui	tp,0xb
80001d10:	53120213          	addi	tp,tp,1329 # b531 <offset+0xb4c5>
80001d14:	00b20463          	beq	tp,a1,80001d1c <inst_240>
80001d18:	3740206f          	j	8000408c <bad_trap>

80001d1c <inst_240>:
80001d1c:	0000b537          	lui	a0,0xb
80001d20:	50450513          	addi	a0,a0,1284 # b504 <offset+0xb498>
80001d24:	00250593          	addi	a1,a0,2
80001d28:	36b1a423          	sw	a1,872(gp)
80001d2c:	0000b237          	lui	tp,0xb
80001d30:	50620213          	addi	tp,tp,1286 # b506 <offset+0xb49a>
80001d34:	00b20463          	beq	tp,a1,80001d3c <inst_241>
80001d38:	3540206f          	j	8000408c <bad_trap>

80001d3c <inst_241>:
80001d3c:	0000b537          	lui	a0,0xb
80001d40:	50450513          	addi	a0,a0,1284 # b504 <offset+0xb498>
80001d44:	55450593          	addi	a1,a0,1364
80001d48:	36b1a623          	sw	a1,876(gp)
80001d4c:	0000c237          	lui	tp,0xc
80001d50:	a5820213          	addi	tp,tp,-1448 # ba58 <offset+0xb9ec>
80001d54:	00b20463          	beq	tp,a1,80001d5c <inst_242>
80001d58:	3340206f          	j	8000408c <bad_trap>

80001d5c <inst_242>:
80001d5c:	0000b537          	lui	a0,0xb
80001d60:	50450513          	addi	a0,a0,1284 # b504 <offset+0xb498>
80001d64:	00050593          	mv	a1,a0
80001d68:	36b1a823          	sw	a1,880(gp)
80001d6c:	0000b237          	lui	tp,0xb
80001d70:	50420213          	addi	tp,tp,1284 # b504 <offset+0xb498>
80001d74:	00b20463          	beq	tp,a1,80001d7c <inst_243>
80001d78:	3140206f          	j	8000408c <bad_trap>

80001d7c <inst_243>:
80001d7c:	0000b537          	lui	a0,0xb
80001d80:	50450513          	addi	a0,a0,1284 # b504 <offset+0xb498>
80001d84:	00450593          	addi	a1,a0,4
80001d88:	36b1aa23          	sw	a1,884(gp)
80001d8c:	0000b237          	lui	tp,0xb
80001d90:	50820213          	addi	tp,tp,1288 # b508 <offset+0xb49c>
80001d94:	00b20463          	beq	tp,a1,80001d9c <inst_244>
80001d98:	2f40206f          	j	8000408c <bad_trap>

80001d9c <inst_244>:
80001d9c:	0000b537          	lui	a0,0xb
80001da0:	50450513          	addi	a0,a0,1284 # b504 <offset+0xb498>
80001da4:	33250593          	addi	a1,a0,818
80001da8:	36b1ac23          	sw	a1,888(gp)
80001dac:	0000c237          	lui	tp,0xc
80001db0:	83620213          	addi	tp,tp,-1994 # b836 <offset+0xb7ca>
80001db4:	00b20463          	beq	tp,a1,80001dbc <inst_245>
80001db8:	2d40206f          	j	8000408c <bad_trap>

80001dbc <inst_245>:
80001dbc:	0000b537          	lui	a0,0xb
80001dc0:	50450513          	addi	a0,a0,1284 # b504 <offset+0xb498>
80001dc4:	66550593          	addi	a1,a0,1637
80001dc8:	36b1ae23          	sw	a1,892(gp)
80001dcc:	0000c237          	lui	tp,0xc
80001dd0:	b6920213          	addi	tp,tp,-1175 # bb69 <offset+0xbafd>
80001dd4:	00b20463          	beq	tp,a1,80001ddc <inst_246>
80001dd8:	2b40206f          	j	8000408c <bad_trap>

80001ddc <inst_246>:
80001ddc:	0000b537          	lui	a0,0xb
80001de0:	50450513          	addi	a0,a0,1284 # b504 <offset+0xb498>
80001de4:	02c50593          	addi	a1,a0,44
80001de8:	38b1a023          	sw	a1,896(gp)
80001dec:	0000b237          	lui	tp,0xb
80001df0:	53020213          	addi	tp,tp,1328 # b530 <offset+0xb4c4>
80001df4:	00b20463          	beq	tp,a1,80001dfc <inst_247>
80001df8:	2940206f          	j	8000408c <bad_trap>

80001dfc <inst_247>:
80001dfc:	0000b537          	lui	a0,0xb
80001e00:	50450513          	addi	a0,a0,1284 # b504 <offset+0xb498>
80001e04:	55650593          	addi	a1,a0,1366
80001e08:	38b1a223          	sw	a1,900(gp)
80001e0c:	0000c237          	lui	tp,0xc
80001e10:	a5a20213          	addi	tp,tp,-1446 # ba5a <offset+0xb9ee>
80001e14:	00b20463          	beq	tp,a1,80001e1c <inst_248>
80001e18:	2740206f          	j	8000408c <bad_trap>

80001e1c <inst_248>:
80001e1c:	0000b537          	lui	a0,0xb
80001e20:	50450513          	addi	a0,a0,1284 # b504 <offset+0xb498>
80001e24:	aab50593          	addi	a1,a0,-1365
80001e28:	38b1a423          	sw	a1,904(gp)
80001e2c:	0000b237          	lui	tp,0xb
80001e30:	faf20213          	addi	tp,tp,-81 # afaf <offset+0xaf43>
80001e34:	00b20463          	beq	tp,a1,80001e3c <inst_249>
80001e38:	2540206f          	j	8000408c <bad_trap>

80001e3c <inst_249>:
80001e3c:	0000b537          	lui	a0,0xb
80001e40:	50450513          	addi	a0,a0,1284 # b504 <offset+0xb498>
80001e44:	00650593          	addi	a1,a0,6
80001e48:	38b1a623          	sw	a1,908(gp)
80001e4c:	0000b237          	lui	tp,0xb
80001e50:	50a20213          	addi	tp,tp,1290 # b50a <offset+0xb49e>
80001e54:	00b20463          	beq	tp,a1,80001e5c <inst_250>
80001e58:	2340206f          	j	8000408c <bad_trap>

80001e5c <inst_250>:
80001e5c:	0000b537          	lui	a0,0xb
80001e60:	50450513          	addi	a0,a0,1284 # b504 <offset+0xb498>
80001e64:	33450593          	addi	a1,a0,820
80001e68:	38b1a823          	sw	a1,912(gp)
80001e6c:	0000c237          	lui	tp,0xc
80001e70:	83820213          	addi	tp,tp,-1992 # b838 <offset+0xb7cc>
80001e74:	00b20463          	beq	tp,a1,80001e7c <inst_251>
80001e78:	2140206f          	j	8000408c <bad_trap>

80001e7c <inst_251>:
80001e7c:	0000b537          	lui	a0,0xb
80001e80:	50450513          	addi	a0,a0,1284 # b504 <offset+0xb498>
80001e84:	66750593          	addi	a1,a0,1639
80001e88:	38b1aa23          	sw	a1,916(gp)
80001e8c:	0000c237          	lui	tp,0xc
80001e90:	b6b20213          	addi	tp,tp,-1173 # bb6b <offset+0xbaff>
80001e94:	00b20463          	beq	tp,a1,80001e9c <inst_252>
80001e98:	1f40206f          	j	8000408c <bad_trap>

80001e9c <inst_252>:
80001e9c:	0000b537          	lui	a0,0xb
80001ea0:	50450513          	addi	a0,a0,1284 # b504 <offset+0xb498>
80001ea4:	fd450593          	addi	a1,a0,-44
80001ea8:	38b1ac23          	sw	a1,920(gp)
80001eac:	0000b237          	lui	tp,0xb
80001eb0:	4d820213          	addi	tp,tp,1240 # b4d8 <offset+0xb46c>
80001eb4:	00b20463          	beq	tp,a1,80001ebc <inst_253>
80001eb8:	1d40206f          	j	8000408c <bad_trap>

80001ebc <inst_253>:
80001ebc:	0000b537          	lui	a0,0xb
80001ec0:	50450513          	addi	a0,a0,1284 # b504 <offset+0xb498>
80001ec4:	02e50593          	addi	a1,a0,46
80001ec8:	38b1ae23          	sw	a1,924(gp)
80001ecc:	0000b237          	lui	tp,0xb
80001ed0:	53220213          	addi	tp,tp,1330 # b532 <offset+0xb4c6>
80001ed4:	00b20463          	beq	tp,a1,80001edc <inst_254>
80001ed8:	1b40206f          	j	8000408c <bad_trap>

80001edc <inst_254>:
80001edc:	00200513          	li	a0,2
80001ee0:	00350593          	addi	a1,a0,3
80001ee4:	3ab1a023          	sw	a1,928(gp)
80001ee8:	00500213          	li	tp,5
80001eec:	00b20463          	beq	tp,a1,80001ef4 <inst_255>
80001ef0:	19c0206f          	j	8000408c <bad_trap>

80001ef4 <inst_255>:
80001ef4:	00200513          	li	a0,2
80001ef8:	55550593          	addi	a1,a0,1365
80001efc:	3ab1a223          	sw	a1,932(gp)
80001f00:	55700213          	li	tp,1367
80001f04:	00b20463          	beq	tp,a1,80001f0c <inst_256>
80001f08:	1840206f          	j	8000408c <bad_trap>

80001f0c <inst_256>:
80001f0c:	00200513          	li	a0,2
80001f10:	aaa50593          	addi	a1,a0,-1366
80001f14:	3ab1a423          	sw	a1,936(gp)
80001f18:	aac00213          	li	tp,-1364
80001f1c:	00b20463          	beq	tp,a1,80001f24 <inst_257>
80001f20:	16c0206f          	j	8000408c <bad_trap>

80001f24 <inst_257>:
80001f24:	00200513          	li	a0,2
80001f28:	00550593          	addi	a1,a0,5
80001f2c:	3ab1a623          	sw	a1,940(gp)
80001f30:	00700213          	li	tp,7
80001f34:	00b20463          	beq	tp,a1,80001f3c <inst_258>
80001f38:	1540206f          	j	8000408c <bad_trap>

80001f3c <inst_258>:
80001f3c:	00200513          	li	a0,2
80001f40:	33350593          	addi	a1,a0,819
80001f44:	3ab1a823          	sw	a1,944(gp)
80001f48:	33500213          	li	tp,821
80001f4c:	00b20463          	beq	tp,a1,80001f54 <inst_259>
80001f50:	13c0206f          	j	8000408c <bad_trap>

80001f54 <inst_259>:
80001f54:	00200513          	li	a0,2
80001f58:	66650593          	addi	a1,a0,1638
80001f5c:	3ab1aa23          	sw	a1,948(gp)
80001f60:	66800213          	li	tp,1640
80001f64:	00b20463          	beq	tp,a1,80001f6c <inst_260>
80001f68:	1240206f          	j	8000408c <bad_trap>

80001f6c <inst_260>:
80001f6c:	00200513          	li	a0,2
80001f70:	fd350593          	addi	a1,a0,-45
80001f74:	3ab1ac23          	sw	a1,952(gp)
80001f78:	fd500213          	li	tp,-43
80001f7c:	00b20463          	beq	tp,a1,80001f84 <inst_261>
80001f80:	10c0206f          	j	8000408c <bad_trap>

80001f84 <inst_261>:
80001f84:	00200513          	li	a0,2
80001f88:	02d50593          	addi	a1,a0,45
80001f8c:	3ab1ae23          	sw	a1,956(gp)
80001f90:	02f00213          	li	tp,47
80001f94:	00b20463          	beq	tp,a1,80001f9c <inst_262>
80001f98:	0f40206f          	j	8000408c <bad_trap>

80001f9c <inst_262>:
80001f9c:	00200513          	li	a0,2
80001fa0:	00250593          	addi	a1,a0,2
80001fa4:	3cb1a023          	sw	a1,960(gp)
80001fa8:	00400213          	li	tp,4
80001fac:	00b20463          	beq	tp,a1,80001fb4 <inst_263>
80001fb0:	0dc0206f          	j	8000408c <bad_trap>

80001fb4 <inst_263>:
80001fb4:	00200513          	li	a0,2
80001fb8:	55450593          	addi	a1,a0,1364
80001fbc:	3cb1a223          	sw	a1,964(gp)
80001fc0:	55600213          	li	tp,1366
80001fc4:	00b20463          	beq	tp,a1,80001fcc <inst_264>
80001fc8:	0c40206f          	j	8000408c <bad_trap>

80001fcc <inst_264>:
80001fcc:	00200513          	li	a0,2
80001fd0:	00050593          	mv	a1,a0
80001fd4:	3cb1a423          	sw	a1,968(gp)
80001fd8:	00200213          	li	tp,2
80001fdc:	00b20463          	beq	tp,a1,80001fe4 <inst_265>
80001fe0:	0ac0206f          	j	8000408c <bad_trap>

80001fe4 <inst_265>:
80001fe4:	00200513          	li	a0,2
80001fe8:	00450593          	addi	a1,a0,4
80001fec:	3cb1a623          	sw	a1,972(gp)
80001ff0:	00600213          	li	tp,6
80001ff4:	00b20463          	beq	tp,a1,80001ffc <inst_266>
80001ff8:	0940206f          	j	8000408c <bad_trap>

80001ffc <inst_266>:
80001ffc:	00200513          	li	a0,2
80002000:	33250593          	addi	a1,a0,818
80002004:	3cb1a823          	sw	a1,976(gp)
80002008:	33400213          	li	tp,820
8000200c:	00b20463          	beq	tp,a1,80002014 <inst_267>
80002010:	07c0206f          	j	8000408c <bad_trap>

80002014 <inst_267>:
80002014:	00200513          	li	a0,2
80002018:	66550593          	addi	a1,a0,1637
8000201c:	3cb1aa23          	sw	a1,980(gp)
80002020:	66700213          	li	tp,1639
80002024:	00b20463          	beq	tp,a1,8000202c <inst_268>
80002028:	0640206f          	j	8000408c <bad_trap>

8000202c <inst_268>:
8000202c:	00200513          	li	a0,2
80002030:	02c50593          	addi	a1,a0,44
80002034:	3cb1ac23          	sw	a1,984(gp)
80002038:	02e00213          	li	tp,46
8000203c:	00b20463          	beq	tp,a1,80002044 <inst_269>
80002040:	04c0206f          	j	8000408c <bad_trap>

80002044 <inst_269>:
80002044:	00200513          	li	a0,2
80002048:	55650593          	addi	a1,a0,1366
8000204c:	3cb1ae23          	sw	a1,988(gp)
80002050:	55800213          	li	tp,1368
80002054:	00b20463          	beq	tp,a1,8000205c <inst_270>
80002058:	0340206f          	j	8000408c <bad_trap>

8000205c <inst_270>:
8000205c:	00200513          	li	a0,2
80002060:	aab50593          	addi	a1,a0,-1365
80002064:	3eb1a023          	sw	a1,992(gp)
80002068:	aad00213          	li	tp,-1363
8000206c:	00b20463          	beq	tp,a1,80002074 <inst_271>
80002070:	01c0206f          	j	8000408c <bad_trap>

80002074 <inst_271>:
80002074:	00200513          	li	a0,2
80002078:	00650593          	addi	a1,a0,6
8000207c:	3eb1a223          	sw	a1,996(gp)
80002080:	00800213          	li	tp,8
80002084:	00b20463          	beq	tp,a1,8000208c <inst_272>
80002088:	0040206f          	j	8000408c <bad_trap>

8000208c <inst_272>:
8000208c:	00200513          	li	a0,2
80002090:	33450593          	addi	a1,a0,820
80002094:	3eb1a423          	sw	a1,1000(gp)
80002098:	33600213          	li	tp,822
8000209c:	00b20463          	beq	tp,a1,800020a4 <inst_273>
800020a0:	7ed0106f          	j	8000408c <bad_trap>

800020a4 <inst_273>:
800020a4:	00200513          	li	a0,2
800020a8:	66750593          	addi	a1,a0,1639
800020ac:	3eb1a623          	sw	a1,1004(gp)
800020b0:	66900213          	li	tp,1641
800020b4:	00b20463          	beq	tp,a1,800020bc <inst_274>
800020b8:	7d50106f          	j	8000408c <bad_trap>

800020bc <inst_274>:
800020bc:	00200513          	li	a0,2
800020c0:	fd450593          	addi	a1,a0,-44
800020c4:	3eb1a823          	sw	a1,1008(gp)
800020c8:	fd600213          	li	tp,-42
800020cc:	00b20463          	beq	tp,a1,800020d4 <inst_275>
800020d0:	7bd0106f          	j	8000408c <bad_trap>

800020d4 <inst_275>:
800020d4:	00200513          	li	a0,2
800020d8:	02e50593          	addi	a1,a0,46
800020dc:	3eb1aa23          	sw	a1,1012(gp)
800020e0:	03000213          	li	tp,48
800020e4:	00b20463          	beq	tp,a1,800020ec <inst_276>
800020e8:	7a50106f          	j	8000408c <bad_trap>

800020ec <inst_276>:
800020ec:	55555537          	lui	a0,0x55555
800020f0:	55450513          	addi	a0,a0,1364 # 55555554 <absimm+0x10263025>
800020f4:	00350593          	addi	a1,a0,3
800020f8:	3eb1ac23          	sw	a1,1016(gp)
800020fc:	55555237          	lui	tp,0x55555
80002100:	55720213          	addi	tp,tp,1367 # 55555557 <absimm+0x10263028>
80002104:	00b20463          	beq	tp,a1,8000210c <inst_277>
80002108:	7850106f          	j	8000408c <bad_trap>

8000210c <inst_277>:
8000210c:	55555537          	lui	a0,0x55555
80002110:	55450513          	addi	a0,a0,1364 # 55555554 <absimm+0x10263025>
80002114:	55550593          	addi	a1,a0,1365
80002118:	3eb1ae23          	sw	a1,1020(gp)
8000211c:	55556237          	lui	tp,0x55556
80002120:	aa920213          	addi	tp,tp,-1367 # 55555aa9 <absimm+0x1026357a>
80002124:	00b20463          	beq	tp,a1,8000212c <inst_278>
80002128:	7650106f          	j	8000408c <bad_trap>

8000212c <inst_278>:
8000212c:	55555537          	lui	a0,0x55555
80002130:	55450513          	addi	a0,a0,1364 # 55555554 <absimm+0x10263025>
80002134:	aaa50593          	addi	a1,a0,-1366
80002138:	40b1a023          	sw	a1,1024(gp)
8000213c:	55555237          	lui	tp,0x55555
80002140:	ffe20213          	addi	tp,tp,-2 # 55554ffe <absimm+0x10262acf>
80002144:	00b20463          	beq	tp,a1,8000214c <inst_279>
80002148:	7450106f          	j	8000408c <bad_trap>

8000214c <inst_279>:
8000214c:	55555537          	lui	a0,0x55555
80002150:	55450513          	addi	a0,a0,1364 # 55555554 <absimm+0x10263025>
80002154:	00550593          	addi	a1,a0,5
80002158:	40b1a223          	sw	a1,1028(gp)
8000215c:	55555237          	lui	tp,0x55555
80002160:	55920213          	addi	tp,tp,1369 # 55555559 <absimm+0x1026302a>
80002164:	00b20463          	beq	tp,a1,8000216c <inst_280>
80002168:	7250106f          	j	8000408c <bad_trap>

8000216c <inst_280>:
8000216c:	55555537          	lui	a0,0x55555
80002170:	55450513          	addi	a0,a0,1364 # 55555554 <absimm+0x10263025>
80002174:	33350593          	addi	a1,a0,819
80002178:	40b1a423          	sw	a1,1032(gp)
8000217c:	55556237          	lui	tp,0x55556
80002180:	88720213          	addi	tp,tp,-1913 # 55555887 <absimm+0x10263358>
80002184:	00b20463          	beq	tp,a1,8000218c <inst_281>
80002188:	7050106f          	j	8000408c <bad_trap>

8000218c <inst_281>:
8000218c:	55555537          	lui	a0,0x55555
80002190:	55450513          	addi	a0,a0,1364 # 55555554 <absimm+0x10263025>
80002194:	66650593          	addi	a1,a0,1638
80002198:	40b1a623          	sw	a1,1036(gp)
8000219c:	55556237          	lui	tp,0x55556
800021a0:	bba20213          	addi	tp,tp,-1094 # 55555bba <absimm+0x1026368b>
800021a4:	00b20463          	beq	tp,a1,800021ac <inst_282>
800021a8:	6e50106f          	j	8000408c <bad_trap>

800021ac <inst_282>:
800021ac:	55555537          	lui	a0,0x55555
800021b0:	55450513          	addi	a0,a0,1364 # 55555554 <absimm+0x10263025>
800021b4:	fd350593          	addi	a1,a0,-45
800021b8:	40b1a823          	sw	a1,1040(gp)
800021bc:	55555237          	lui	tp,0x55555
800021c0:	52720213          	addi	tp,tp,1319 # 55555527 <absimm+0x10262ff8>
800021c4:	00b20463          	beq	tp,a1,800021cc <inst_283>
800021c8:	6c50106f          	j	8000408c <bad_trap>

800021cc <inst_283>:
800021cc:	55555537          	lui	a0,0x55555
800021d0:	55450513          	addi	a0,a0,1364 # 55555554 <absimm+0x10263025>
800021d4:	02d50593          	addi	a1,a0,45
800021d8:	40b1aa23          	sw	a1,1044(gp)
800021dc:	55555237          	lui	tp,0x55555
800021e0:	58120213          	addi	tp,tp,1409 # 55555581 <absimm+0x10263052>
800021e4:	00b20463          	beq	tp,a1,800021ec <inst_284>
800021e8:	6a50106f          	j	8000408c <bad_trap>

800021ec <inst_284>:
800021ec:	55555537          	lui	a0,0x55555
800021f0:	55450513          	addi	a0,a0,1364 # 55555554 <absimm+0x10263025>
800021f4:	00250593          	addi	a1,a0,2
800021f8:	40b1ac23          	sw	a1,1048(gp)
800021fc:	55555237          	lui	tp,0x55555
80002200:	55620213          	addi	tp,tp,1366 # 55555556 <absimm+0x10263027>
80002204:	00b20463          	beq	tp,a1,8000220c <inst_285>
80002208:	6850106f          	j	8000408c <bad_trap>

8000220c <inst_285>:
8000220c:	55555537          	lui	a0,0x55555
80002210:	55450513          	addi	a0,a0,1364 # 55555554 <absimm+0x10263025>
80002214:	55450593          	addi	a1,a0,1364
80002218:	40b1ae23          	sw	a1,1052(gp)
8000221c:	55556237          	lui	tp,0x55556
80002220:	aa820213          	addi	tp,tp,-1368 # 55555aa8 <absimm+0x10263579>
80002224:	00b20463          	beq	tp,a1,8000222c <inst_286>
80002228:	6650106f          	j	8000408c <bad_trap>

8000222c <inst_286>:
8000222c:	55555537          	lui	a0,0x55555
80002230:	55450513          	addi	a0,a0,1364 # 55555554 <absimm+0x10263025>
80002234:	00050593          	mv	a1,a0
80002238:	42b1a023          	sw	a1,1056(gp)
8000223c:	55555237          	lui	tp,0x55555
80002240:	55420213          	addi	tp,tp,1364 # 55555554 <absimm+0x10263025>
80002244:	00b20463          	beq	tp,a1,8000224c <inst_287>
80002248:	6450106f          	j	8000408c <bad_trap>

8000224c <inst_287>:
8000224c:	55555537          	lui	a0,0x55555
80002250:	55450513          	addi	a0,a0,1364 # 55555554 <absimm+0x10263025>
80002254:	00450593          	addi	a1,a0,4
80002258:	42b1a223          	sw	a1,1060(gp)
8000225c:	55555237          	lui	tp,0x55555
80002260:	55820213          	addi	tp,tp,1368 # 55555558 <absimm+0x10263029>
80002264:	00b20463          	beq	tp,a1,8000226c <inst_288>
80002268:	6250106f          	j	8000408c <bad_trap>

8000226c <inst_288>:
8000226c:	55555537          	lui	a0,0x55555
80002270:	55450513          	addi	a0,a0,1364 # 55555554 <absimm+0x10263025>
80002274:	33250593          	addi	a1,a0,818
80002278:	42b1a423          	sw	a1,1064(gp)
8000227c:	55556237          	lui	tp,0x55556
80002280:	88620213          	addi	tp,tp,-1914 # 55555886 <absimm+0x10263357>
80002284:	00b20463          	beq	tp,a1,8000228c <inst_289>
80002288:	6050106f          	j	8000408c <bad_trap>

8000228c <inst_289>:
8000228c:	55555537          	lui	a0,0x55555
80002290:	55450513          	addi	a0,a0,1364 # 55555554 <absimm+0x10263025>
80002294:	66550593          	addi	a1,a0,1637
80002298:	42b1a623          	sw	a1,1068(gp)
8000229c:	55556237          	lui	tp,0x55556
800022a0:	bb920213          	addi	tp,tp,-1095 # 55555bb9 <absimm+0x1026368a>
800022a4:	00b20463          	beq	tp,a1,800022ac <inst_290>
800022a8:	5e50106f          	j	8000408c <bad_trap>

800022ac <inst_290>:
800022ac:	55555537          	lui	a0,0x55555
800022b0:	55450513          	addi	a0,a0,1364 # 55555554 <absimm+0x10263025>
800022b4:	02c50593          	addi	a1,a0,44
800022b8:	42b1a823          	sw	a1,1072(gp)
800022bc:	55555237          	lui	tp,0x55555
800022c0:	58020213          	addi	tp,tp,1408 # 55555580 <absimm+0x10263051>
800022c4:	00b20463          	beq	tp,a1,800022cc <inst_291>
800022c8:	5c50106f          	j	8000408c <bad_trap>

800022cc <inst_291>:
800022cc:	55555537          	lui	a0,0x55555
800022d0:	55450513          	addi	a0,a0,1364 # 55555554 <absimm+0x10263025>
800022d4:	55650593          	addi	a1,a0,1366
800022d8:	42b1aa23          	sw	a1,1076(gp)
800022dc:	55556237          	lui	tp,0x55556
800022e0:	aaa20213          	addi	tp,tp,-1366 # 55555aaa <absimm+0x1026357b>
800022e4:	00b20463          	beq	tp,a1,800022ec <inst_292>
800022e8:	5a50106f          	j	8000408c <bad_trap>

800022ec <inst_292>:
800022ec:	55555537          	lui	a0,0x55555
800022f0:	55450513          	addi	a0,a0,1364 # 55555554 <absimm+0x10263025>
800022f4:	aab50593          	addi	a1,a0,-1365
800022f8:	42b1ac23          	sw	a1,1080(gp)
800022fc:	55555237          	lui	tp,0x55555
80002300:	fff20213          	addi	tp,tp,-1 # 55554fff <absimm+0x10262ad0>
80002304:	00b20463          	beq	tp,a1,8000230c <inst_293>
80002308:	5850106f          	j	8000408c <bad_trap>

8000230c <inst_293>:
8000230c:	55555537          	lui	a0,0x55555
80002310:	55450513          	addi	a0,a0,1364 # 55555554 <absimm+0x10263025>
80002314:	00650593          	addi	a1,a0,6
80002318:	42b1ae23          	sw	a1,1084(gp)
8000231c:	55555237          	lui	tp,0x55555
80002320:	55a20213          	addi	tp,tp,1370 # 5555555a <absimm+0x1026302b>
80002324:	00b20463          	beq	tp,a1,8000232c <inst_294>
80002328:	5650106f          	j	8000408c <bad_trap>

8000232c <inst_294>:
8000232c:	55555537          	lui	a0,0x55555
80002330:	55450513          	addi	a0,a0,1364 # 55555554 <absimm+0x10263025>
80002334:	33450593          	addi	a1,a0,820
80002338:	44b1a023          	sw	a1,1088(gp)
8000233c:	55556237          	lui	tp,0x55556
80002340:	88820213          	addi	tp,tp,-1912 # 55555888 <absimm+0x10263359>
80002344:	00b20463          	beq	tp,a1,8000234c <inst_295>
80002348:	5450106f          	j	8000408c <bad_trap>

8000234c <inst_295>:
8000234c:	55555537          	lui	a0,0x55555
80002350:	55450513          	addi	a0,a0,1364 # 55555554 <absimm+0x10263025>
80002354:	66750593          	addi	a1,a0,1639
80002358:	44b1a223          	sw	a1,1092(gp)
8000235c:	55556237          	lui	tp,0x55556
80002360:	bbb20213          	addi	tp,tp,-1093 # 55555bbb <absimm+0x1026368c>
80002364:	00b20463          	beq	tp,a1,8000236c <inst_296>
80002368:	5250106f          	j	8000408c <bad_trap>

8000236c <inst_296>:
8000236c:	55555537          	lui	a0,0x55555
80002370:	55450513          	addi	a0,a0,1364 # 55555554 <absimm+0x10263025>
80002374:	fd450593          	addi	a1,a0,-44
80002378:	44b1a423          	sw	a1,1096(gp)
8000237c:	55555237          	lui	tp,0x55555
80002380:	52820213          	addi	tp,tp,1320 # 55555528 <absimm+0x10262ff9>
80002384:	00b20463          	beq	tp,a1,8000238c <inst_297>
80002388:	5050106f          	j	8000408c <bad_trap>

8000238c <inst_297>:
8000238c:	55555537          	lui	a0,0x55555
80002390:	55450513          	addi	a0,a0,1364 # 55555554 <absimm+0x10263025>
80002394:	02e50593          	addi	a1,a0,46
80002398:	44b1a623          	sw	a1,1100(gp)
8000239c:	55555237          	lui	tp,0x55555
800023a0:	58220213          	addi	tp,tp,1410 # 55555582 <absimm+0x10263053>
800023a4:	00b20463          	beq	tp,a1,800023ac <inst_298>
800023a8:	4e50106f          	j	8000408c <bad_trap>

800023ac <inst_298>:
800023ac:	00000513          	li	a0,0
800023b0:	00350593          	addi	a1,a0,3
800023b4:	44b1a823          	sw	a1,1104(gp)
800023b8:	00300213          	li	tp,3
800023bc:	00b20463          	beq	tp,a1,800023c4 <inst_299>
800023c0:	4cd0106f          	j	8000408c <bad_trap>

800023c4 <inst_299>:
800023c4:	00000513          	li	a0,0
800023c8:	55550593          	addi	a1,a0,1365
800023cc:	44b1aa23          	sw	a1,1108(gp)
800023d0:	55500213          	li	tp,1365
800023d4:	00b20463          	beq	tp,a1,800023dc <inst_300>
800023d8:	4b50106f          	j	8000408c <bad_trap>

800023dc <inst_300>:
800023dc:	00000513          	li	a0,0
800023e0:	00550593          	addi	a1,a0,5
800023e4:	44b1ac23          	sw	a1,1112(gp)
800023e8:	00500213          	li	tp,5
800023ec:	00b20463          	beq	tp,a1,800023f4 <inst_301>
800023f0:	49d0106f          	j	8000408c <bad_trap>

800023f4 <inst_301>:
800023f4:	00000513          	li	a0,0
800023f8:	33350593          	addi	a1,a0,819
800023fc:	44b1ae23          	sw	a1,1116(gp)
80002400:	33300213          	li	tp,819
80002404:	00b20463          	beq	tp,a1,8000240c <inst_302>
80002408:	4850106f          	j	8000408c <bad_trap>

8000240c <inst_302>:
8000240c:	00000513          	li	a0,0
80002410:	66650593          	addi	a1,a0,1638
80002414:	46b1a023          	sw	a1,1120(gp)
80002418:	66600213          	li	tp,1638
8000241c:	00b20463          	beq	tp,a1,80002424 <inst_303>
80002420:	46d0106f          	j	8000408c <bad_trap>

80002424 <inst_303>:
80002424:	00000513          	li	a0,0
80002428:	fd350593          	addi	a1,a0,-45
8000242c:	46b1a223          	sw	a1,1124(gp)
80002430:	fd300213          	li	tp,-45
80002434:	00b20463          	beq	tp,a1,8000243c <inst_304>
80002438:	4550106f          	j	8000408c <bad_trap>

8000243c <inst_304>:
8000243c:	00000513          	li	a0,0
80002440:	02d50593          	addi	a1,a0,45
80002444:	46b1a423          	sw	a1,1128(gp)
80002448:	02d00213          	li	tp,45
8000244c:	00b20463          	beq	tp,a1,80002454 <inst_305>
80002450:	43d0106f          	j	8000408c <bad_trap>

80002454 <inst_305>:
80002454:	33333537          	lui	a0,0x33333
80002458:	33450513          	addi	a0,a0,820 # 33333334 <offset+0x333332c8>
8000245c:	33250593          	addi	a1,a0,818
80002460:	46b1a623          	sw	a1,1132(gp)
80002464:	33333237          	lui	tp,0x33333
80002468:	66620213          	addi	tp,tp,1638 # 33333666 <offset+0x333335fa>
8000246c:	00b20463          	beq	tp,a1,80002474 <inst_306>
80002470:	41d0106f          	j	8000408c <bad_trap>

80002474 <inst_306>:
80002474:	33333537          	lui	a0,0x33333
80002478:	33450513          	addi	a0,a0,820 # 33333334 <offset+0x333332c8>
8000247c:	66550593          	addi	a1,a0,1637
80002480:	46b1a823          	sw	a1,1136(gp)
80002484:	33334237          	lui	tp,0x33334
80002488:	99920213          	addi	tp,tp,-1639 # 33333999 <offset+0x3333392d>
8000248c:	00b20463          	beq	tp,a1,80002494 <inst_307>
80002490:	3fd0106f          	j	8000408c <bad_trap>

80002494 <inst_307>:
80002494:	33333537          	lui	a0,0x33333
80002498:	33450513          	addi	a0,a0,820 # 33333334 <offset+0x333332c8>
8000249c:	02c50593          	addi	a1,a0,44
800024a0:	46b1aa23          	sw	a1,1140(gp)
800024a4:	33333237          	lui	tp,0x33333
800024a8:	36020213          	addi	tp,tp,864 # 33333360 <offset+0x333332f4>
800024ac:	00b20463          	beq	tp,a1,800024b4 <inst_308>
800024b0:	3dd0106f          	j	8000408c <bad_trap>

800024b4 <inst_308>:
800024b4:	33333537          	lui	a0,0x33333
800024b8:	33450513          	addi	a0,a0,820 # 33333334 <offset+0x333332c8>
800024bc:	55650593          	addi	a1,a0,1366
800024c0:	46b1ac23          	sw	a1,1144(gp)
800024c4:	33334237          	lui	tp,0x33334
800024c8:	88a20213          	addi	tp,tp,-1910 # 3333388a <offset+0x3333381e>
800024cc:	00b20463          	beq	tp,a1,800024d4 <inst_309>
800024d0:	3bd0106f          	j	8000408c <bad_trap>

800024d4 <inst_309>:
800024d4:	33333537          	lui	a0,0x33333
800024d8:	33450513          	addi	a0,a0,820 # 33333334 <offset+0x333332c8>
800024dc:	aab50593          	addi	a1,a0,-1365
800024e0:	46b1ae23          	sw	a1,1148(gp)
800024e4:	33333237          	lui	tp,0x33333
800024e8:	ddf20213          	addi	tp,tp,-545 # 33332ddf <offset+0x33332d73>
800024ec:	00b20463          	beq	tp,a1,800024f4 <inst_310>
800024f0:	39d0106f          	j	8000408c <bad_trap>

800024f4 <inst_310>:
800024f4:	33333537          	lui	a0,0x33333
800024f8:	33450513          	addi	a0,a0,820 # 33333334 <offset+0x333332c8>
800024fc:	00650593          	addi	a1,a0,6
80002500:	48b1a023          	sw	a1,1152(gp)
80002504:	33333237          	lui	tp,0x33333
80002508:	33a20213          	addi	tp,tp,826 # 3333333a <offset+0x333332ce>
8000250c:	00b20463          	beq	tp,a1,80002514 <inst_311>
80002510:	37d0106f          	j	8000408c <bad_trap>

80002514 <inst_311>:
80002514:	33333537          	lui	a0,0x33333
80002518:	33450513          	addi	a0,a0,820 # 33333334 <offset+0x333332c8>
8000251c:	33450593          	addi	a1,a0,820
80002520:	48b1a223          	sw	a1,1156(gp)
80002524:	33333237          	lui	tp,0x33333
80002528:	66820213          	addi	tp,tp,1640 # 33333668 <offset+0x333335fc>
8000252c:	00b20463          	beq	tp,a1,80002534 <inst_312>
80002530:	35d0106f          	j	8000408c <bad_trap>

80002534 <inst_312>:
80002534:	33333537          	lui	a0,0x33333
80002538:	33450513          	addi	a0,a0,820 # 33333334 <offset+0x333332c8>
8000253c:	66750593          	addi	a1,a0,1639
80002540:	48b1a423          	sw	a1,1160(gp)
80002544:	33334237          	lui	tp,0x33334
80002548:	99b20213          	addi	tp,tp,-1637 # 3333399b <offset+0x3333392f>
8000254c:	00b20463          	beq	tp,a1,80002554 <inst_313>
80002550:	33d0106f          	j	8000408c <bad_trap>

80002554 <inst_313>:
80002554:	33333537          	lui	a0,0x33333
80002558:	33450513          	addi	a0,a0,820 # 33333334 <offset+0x333332c8>
8000255c:	fd450593          	addi	a1,a0,-44
80002560:	48b1a623          	sw	a1,1164(gp)
80002564:	33333237          	lui	tp,0x33333
80002568:	30820213          	addi	tp,tp,776 # 33333308 <offset+0x3333329c>
8000256c:	00b20463          	beq	tp,a1,80002574 <inst_314>
80002570:	31d0106f          	j	8000408c <bad_trap>

80002574 <inst_314>:
80002574:	33333537          	lui	a0,0x33333
80002578:	33450513          	addi	a0,a0,820 # 33333334 <offset+0x333332c8>
8000257c:	02e50593          	addi	a1,a0,46
80002580:	48b1a823          	sw	a1,1168(gp)
80002584:	33333237          	lui	tp,0x33333
80002588:	36220213          	addi	tp,tp,866 # 33333362 <offset+0x333332f6>
8000258c:	00b20463          	beq	tp,a1,80002594 <inst_315>
80002590:	2fd0106f          	j	8000408c <bad_trap>

80002594 <inst_315>:
80002594:	66666537          	lui	a0,0x66666
80002598:	66750513          	addi	a0,a0,1639 # 66666667 <absimm+0x21374138>
8000259c:	00350593          	addi	a1,a0,3
800025a0:	48b1aa23          	sw	a1,1172(gp)
800025a4:	66666237          	lui	tp,0x66666
800025a8:	66a20213          	addi	tp,tp,1642 # 6666666a <absimm+0x2137413b>
800025ac:	00b20463          	beq	tp,a1,800025b4 <inst_316>
800025b0:	2dd0106f          	j	8000408c <bad_trap>

800025b4 <inst_316>:
800025b4:	66666537          	lui	a0,0x66666
800025b8:	66750513          	addi	a0,a0,1639 # 66666667 <absimm+0x21374138>
800025bc:	55550593          	addi	a1,a0,1365
800025c0:	48b1ac23          	sw	a1,1176(gp)
800025c4:	66667237          	lui	tp,0x66667
800025c8:	bbc20213          	addi	tp,tp,-1092 # 66666bbc <absimm+0x2137468d>
800025cc:	00b20463          	beq	tp,a1,800025d4 <inst_317>
800025d0:	2bd0106f          	j	8000408c <bad_trap>

800025d4 <inst_317>:
800025d4:	66666537          	lui	a0,0x66666
800025d8:	66750513          	addi	a0,a0,1639 # 66666667 <absimm+0x21374138>
800025dc:	aaa50593          	addi	a1,a0,-1366
800025e0:	48b1ae23          	sw	a1,1180(gp)
800025e4:	66666237          	lui	tp,0x66666
800025e8:	11120213          	addi	tp,tp,273 # 66666111 <absimm+0x21373be2>
800025ec:	00b20463          	beq	tp,a1,800025f4 <inst_318>
800025f0:	29d0106f          	j	8000408c <bad_trap>

800025f4 <inst_318>:
800025f4:	66666537          	lui	a0,0x66666
800025f8:	66750513          	addi	a0,a0,1639 # 66666667 <absimm+0x21374138>
800025fc:	00550593          	addi	a1,a0,5
80002600:	4ab1a023          	sw	a1,1184(gp)
80002604:	66666237          	lui	tp,0x66666
80002608:	66c20213          	addi	tp,tp,1644 # 6666666c <absimm+0x2137413d>
8000260c:	00b20463          	beq	tp,a1,80002614 <inst_319>
80002610:	27d0106f          	j	8000408c <bad_trap>

80002614 <inst_319>:
80002614:	66666537          	lui	a0,0x66666
80002618:	66750513          	addi	a0,a0,1639 # 66666667 <absimm+0x21374138>
8000261c:	33350593          	addi	a1,a0,819
80002620:	4ab1a223          	sw	a1,1188(gp)
80002624:	66667237          	lui	tp,0x66667
80002628:	99a20213          	addi	tp,tp,-1638 # 6666699a <absimm+0x2137446b>
8000262c:	00b20463          	beq	tp,a1,80002634 <inst_320>
80002630:	25d0106f          	j	8000408c <bad_trap>

80002634 <inst_320>:
80002634:	66666537          	lui	a0,0x66666
80002638:	66750513          	addi	a0,a0,1639 # 66666667 <absimm+0x21374138>
8000263c:	66650593          	addi	a1,a0,1638
80002640:	4ab1a423          	sw	a1,1192(gp)
80002644:	66667237          	lui	tp,0x66667
80002648:	ccd20213          	addi	tp,tp,-819 # 66666ccd <absimm+0x2137479e>
8000264c:	00b20463          	beq	tp,a1,80002654 <inst_321>
80002650:	23d0106f          	j	8000408c <bad_trap>

80002654 <inst_321>:
80002654:	66666537          	lui	a0,0x66666
80002658:	66750513          	addi	a0,a0,1639 # 66666667 <absimm+0x21374138>
8000265c:	fd350593          	addi	a1,a0,-45
80002660:	4ab1a623          	sw	a1,1196(gp)
80002664:	66666237          	lui	tp,0x66666
80002668:	63a20213          	addi	tp,tp,1594 # 6666663a <absimm+0x2137410b>
8000266c:	00b20463          	beq	tp,a1,80002674 <inst_322>
80002670:	21d0106f          	j	8000408c <bad_trap>

80002674 <inst_322>:
80002674:	66666537          	lui	a0,0x66666
80002678:	66750513          	addi	a0,a0,1639 # 66666667 <absimm+0x21374138>
8000267c:	02d50593          	addi	a1,a0,45
80002680:	4ab1a823          	sw	a1,1200(gp)
80002684:	66666237          	lui	tp,0x66666
80002688:	69420213          	addi	tp,tp,1684 # 66666694 <absimm+0x21374165>
8000268c:	00b20463          	beq	tp,a1,80002694 <inst_323>
80002690:	1fd0106f          	j	8000408c <bad_trap>

80002694 <inst_323>:
80002694:	66666537          	lui	a0,0x66666
80002698:	66750513          	addi	a0,a0,1639 # 66666667 <absimm+0x21374138>
8000269c:	00250593          	addi	a1,a0,2
800026a0:	4ab1aa23          	sw	a1,1204(gp)
800026a4:	66666237          	lui	tp,0x66666
800026a8:	66920213          	addi	tp,tp,1641 # 66666669 <absimm+0x2137413a>
800026ac:	00b20463          	beq	tp,a1,800026b4 <inst_324>
800026b0:	1dd0106f          	j	8000408c <bad_trap>

800026b4 <inst_324>:
800026b4:	66666537          	lui	a0,0x66666
800026b8:	66750513          	addi	a0,a0,1639 # 66666667 <absimm+0x21374138>
800026bc:	55450593          	addi	a1,a0,1364
800026c0:	4ab1ac23          	sw	a1,1208(gp)
800026c4:	66667237          	lui	tp,0x66667
800026c8:	bbb20213          	addi	tp,tp,-1093 # 66666bbb <absimm+0x2137468c>
800026cc:	00b20463          	beq	tp,a1,800026d4 <inst_325>
800026d0:	1bd0106f          	j	8000408c <bad_trap>

800026d4 <inst_325>:
800026d4:	66666537          	lui	a0,0x66666
800026d8:	66750513          	addi	a0,a0,1639 # 66666667 <absimm+0x21374138>
800026dc:	00050593          	mv	a1,a0
800026e0:	4ab1ae23          	sw	a1,1212(gp)
800026e4:	66666237          	lui	tp,0x66666
800026e8:	66720213          	addi	tp,tp,1639 # 66666667 <absimm+0x21374138>
800026ec:	00b20463          	beq	tp,a1,800026f4 <inst_326>
800026f0:	19d0106f          	j	8000408c <bad_trap>

800026f4 <inst_326>:
800026f4:	66666537          	lui	a0,0x66666
800026f8:	66750513          	addi	a0,a0,1639 # 66666667 <absimm+0x21374138>
800026fc:	00450593          	addi	a1,a0,4
80002700:	4cb1a023          	sw	a1,1216(gp)
80002704:	66666237          	lui	tp,0x66666
80002708:	66b20213          	addi	tp,tp,1643 # 6666666b <absimm+0x2137413c>
8000270c:	00b20463          	beq	tp,a1,80002714 <inst_327>
80002710:	17d0106f          	j	8000408c <bad_trap>

80002714 <inst_327>:
80002714:	66666537          	lui	a0,0x66666
80002718:	66750513          	addi	a0,a0,1639 # 66666667 <absimm+0x21374138>
8000271c:	33250593          	addi	a1,a0,818
80002720:	4cb1a223          	sw	a1,1220(gp)
80002724:	66667237          	lui	tp,0x66667
80002728:	99920213          	addi	tp,tp,-1639 # 66666999 <absimm+0x2137446a>
8000272c:	00b20463          	beq	tp,a1,80002734 <inst_328>
80002730:	15d0106f          	j	8000408c <bad_trap>

80002734 <inst_328>:
80002734:	66666537          	lui	a0,0x66666
80002738:	66750513          	addi	a0,a0,1639 # 66666667 <absimm+0x21374138>
8000273c:	66550593          	addi	a1,a0,1637
80002740:	4cb1a423          	sw	a1,1224(gp)
80002744:	66667237          	lui	tp,0x66667
80002748:	ccc20213          	addi	tp,tp,-820 # 66666ccc <absimm+0x2137479d>
8000274c:	00b20463          	beq	tp,a1,80002754 <inst_329>
80002750:	13d0106f          	j	8000408c <bad_trap>

80002754 <inst_329>:
80002754:	66666537          	lui	a0,0x66666
80002758:	66750513          	addi	a0,a0,1639 # 66666667 <absimm+0x21374138>
8000275c:	02c50593          	addi	a1,a0,44
80002760:	4cb1a623          	sw	a1,1228(gp)
80002764:	66666237          	lui	tp,0x66666
80002768:	69320213          	addi	tp,tp,1683 # 66666693 <absimm+0x21374164>
8000276c:	00b20463          	beq	tp,a1,80002774 <inst_330>
80002770:	11d0106f          	j	8000408c <bad_trap>

80002774 <inst_330>:
80002774:	66666537          	lui	a0,0x66666
80002778:	66750513          	addi	a0,a0,1639 # 66666667 <absimm+0x21374138>
8000277c:	55650593          	addi	a1,a0,1366
80002780:	4cb1a823          	sw	a1,1232(gp)
80002784:	66667237          	lui	tp,0x66667
80002788:	bbd20213          	addi	tp,tp,-1091 # 66666bbd <absimm+0x2137468e>
8000278c:	00b20463          	beq	tp,a1,80002794 <inst_331>
80002790:	0fd0106f          	j	8000408c <bad_trap>

80002794 <inst_331>:
80002794:	66666537          	lui	a0,0x66666
80002798:	66750513          	addi	a0,a0,1639 # 66666667 <absimm+0x21374138>
8000279c:	aab50593          	addi	a1,a0,-1365
800027a0:	4cb1aa23          	sw	a1,1236(gp)
800027a4:	66666237          	lui	tp,0x66666
800027a8:	11220213          	addi	tp,tp,274 # 66666112 <absimm+0x21373be3>
800027ac:	00b20463          	beq	tp,a1,800027b4 <inst_332>
800027b0:	0dd0106f          	j	8000408c <bad_trap>

800027b4 <inst_332>:
800027b4:	66666537          	lui	a0,0x66666
800027b8:	66750513          	addi	a0,a0,1639 # 66666667 <absimm+0x21374138>
800027bc:	00650593          	addi	a1,a0,6
800027c0:	4cb1ac23          	sw	a1,1240(gp)
800027c4:	66666237          	lui	tp,0x66666
800027c8:	66d20213          	addi	tp,tp,1645 # 6666666d <absimm+0x2137413e>
800027cc:	00b20463          	beq	tp,a1,800027d4 <inst_333>
800027d0:	0bd0106f          	j	8000408c <bad_trap>

800027d4 <inst_333>:
800027d4:	66666537          	lui	a0,0x66666
800027d8:	66750513          	addi	a0,a0,1639 # 66666667 <absimm+0x21374138>
800027dc:	33450593          	addi	a1,a0,820
800027e0:	4cb1ae23          	sw	a1,1244(gp)
800027e4:	66667237          	lui	tp,0x66667
800027e8:	99b20213          	addi	tp,tp,-1637 # 6666699b <absimm+0x2137446c>
800027ec:	00b20463          	beq	tp,a1,800027f4 <inst_334>
800027f0:	09d0106f          	j	8000408c <bad_trap>

800027f4 <inst_334>:
800027f4:	66666537          	lui	a0,0x66666
800027f8:	66750513          	addi	a0,a0,1639 # 66666667 <absimm+0x21374138>
800027fc:	66750593          	addi	a1,a0,1639
80002800:	4eb1a023          	sw	a1,1248(gp)
80002804:	66667237          	lui	tp,0x66667
80002808:	cce20213          	addi	tp,tp,-818 # 66666cce <absimm+0x2137479f>
8000280c:	00b20463          	beq	tp,a1,80002814 <inst_335>
80002810:	07d0106f          	j	8000408c <bad_trap>

80002814 <inst_335>:
80002814:	66666537          	lui	a0,0x66666
80002818:	66750513          	addi	a0,a0,1639 # 66666667 <absimm+0x21374138>
8000281c:	fd450593          	addi	a1,a0,-44
80002820:	4eb1a223          	sw	a1,1252(gp)
80002824:	66666237          	lui	tp,0x66666
80002828:	63b20213          	addi	tp,tp,1595 # 6666663b <absimm+0x2137410c>
8000282c:	00b20463          	beq	tp,a1,80002834 <inst_336>
80002830:	05d0106f          	j	8000408c <bad_trap>

80002834 <inst_336>:
80002834:	66666537          	lui	a0,0x66666
80002838:	66750513          	addi	a0,a0,1639 # 66666667 <absimm+0x21374138>
8000283c:	02e50593          	addi	a1,a0,46
80002840:	4eb1a423          	sw	a1,1256(gp)
80002844:	66666237          	lui	tp,0x66666
80002848:	69520213          	addi	tp,tp,1685 # 66666695 <absimm+0x21374166>
8000284c:	00b20463          	beq	tp,a1,80002854 <inst_337>
80002850:	03d0106f          	j	8000408c <bad_trap>

80002854 <inst_337>:
80002854:	ffff5537          	lui	a0,0xffff5
80002858:	afd50513          	addi	a0,a0,-1283 # ffff4afd <imm12+0xffff502d>
8000285c:	00350593          	addi	a1,a0,3
80002860:	4eb1a623          	sw	a1,1260(gp)
80002864:	ffff5237          	lui	tp,0xffff5
80002868:	b0020213          	addi	tp,tp,-1280 # ffff4b00 <imm12+0xffff5030>
8000286c:	00b20463          	beq	tp,a1,80002874 <inst_338>
80002870:	01d0106f          	j	8000408c <bad_trap>

80002874 <inst_338>:
80002874:	ffff5537          	lui	a0,0xffff5
80002878:	afd50513          	addi	a0,a0,-1283 # ffff4afd <imm12+0xffff502d>
8000287c:	55550593          	addi	a1,a0,1365
80002880:	4eb1a823          	sw	a1,1264(gp)
80002884:	ffff5237          	lui	tp,0xffff5
80002888:	05220213          	addi	tp,tp,82 # ffff5052 <imm12+0xffff5582>
8000288c:	00b20463          	beq	tp,a1,80002894 <inst_339>
80002890:	7fc0106f          	j	8000408c <bad_trap>

80002894 <inst_339>:
80002894:	ffff5537          	lui	a0,0xffff5
80002898:	afd50513          	addi	a0,a0,-1283 # ffff4afd <imm12+0xffff502d>
8000289c:	aaa50593          	addi	a1,a0,-1366
800028a0:	4eb1aa23          	sw	a1,1268(gp)
800028a4:	ffff4237          	lui	tp,0xffff4
800028a8:	5a720213          	addi	tp,tp,1447 # ffff45a7 <imm12+0xffff4ad7>
800028ac:	00b20463          	beq	tp,a1,800028b4 <inst_340>
800028b0:	7dc0106f          	j	8000408c <bad_trap>

800028b4 <inst_340>:
800028b4:	ffff5537          	lui	a0,0xffff5
800028b8:	afd50513          	addi	a0,a0,-1283 # ffff4afd <imm12+0xffff502d>
800028bc:	00550593          	addi	a1,a0,5
800028c0:	4eb1ac23          	sw	a1,1272(gp)
800028c4:	ffff5237          	lui	tp,0xffff5
800028c8:	b0220213          	addi	tp,tp,-1278 # ffff4b02 <imm12+0xffff5032>
800028cc:	00b20463          	beq	tp,a1,800028d4 <inst_341>
800028d0:	7bc0106f          	j	8000408c <bad_trap>

800028d4 <inst_341>:
800028d4:	ffff5537          	lui	a0,0xffff5
800028d8:	afd50513          	addi	a0,a0,-1283 # ffff4afd <imm12+0xffff502d>
800028dc:	33350593          	addi	a1,a0,819
800028e0:	4eb1ae23          	sw	a1,1276(gp)
800028e4:	ffff5237          	lui	tp,0xffff5
800028e8:	e3020213          	addi	tp,tp,-464 # ffff4e30 <imm12+0xffff5360>
800028ec:	00b20463          	beq	tp,a1,800028f4 <inst_342>
800028f0:	79c0106f          	j	8000408c <bad_trap>

800028f4 <inst_342>:
800028f4:	ffff5537          	lui	a0,0xffff5
800028f8:	afd50513          	addi	a0,a0,-1283 # ffff4afd <imm12+0xffff502d>
800028fc:	66650593          	addi	a1,a0,1638
80002900:	50b1a023          	sw	a1,1280(gp)
80002904:	ffff5237          	lui	tp,0xffff5
80002908:	16320213          	addi	tp,tp,355 # ffff5163 <imm12+0xffff5693>
8000290c:	00b20463          	beq	tp,a1,80002914 <inst_343>
80002910:	77c0106f          	j	8000408c <bad_trap>

80002914 <inst_343>:
80002914:	ffff5537          	lui	a0,0xffff5
80002918:	afd50513          	addi	a0,a0,-1283 # ffff4afd <imm12+0xffff502d>
8000291c:	fd350593          	addi	a1,a0,-45
80002920:	50b1a223          	sw	a1,1284(gp)
80002924:	ffff5237          	lui	tp,0xffff5
80002928:	ad020213          	addi	tp,tp,-1328 # ffff4ad0 <imm12+0xffff5000>
8000292c:	00b20463          	beq	tp,a1,80002934 <inst_344>
80002930:	75c0106f          	j	8000408c <bad_trap>

80002934 <inst_344>:
80002934:	ffff5537          	lui	a0,0xffff5
80002938:	afd50513          	addi	a0,a0,-1283 # ffff4afd <imm12+0xffff502d>
8000293c:	02d50593          	addi	a1,a0,45
80002940:	50b1a423          	sw	a1,1288(gp)
80002944:	ffff5237          	lui	tp,0xffff5
80002948:	b2a20213          	addi	tp,tp,-1238 # ffff4b2a <imm12+0xffff505a>
8000294c:	00b20463          	beq	tp,a1,80002954 <inst_345>
80002950:	73c0106f          	j	8000408c <bad_trap>

80002954 <inst_345>:
80002954:	ffff5537          	lui	a0,0xffff5
80002958:	afd50513          	addi	a0,a0,-1283 # ffff4afd <imm12+0xffff502d>
8000295c:	00250593          	addi	a1,a0,2
80002960:	50b1a623          	sw	a1,1292(gp)
80002964:	ffff5237          	lui	tp,0xffff5
80002968:	aff20213          	addi	tp,tp,-1281 # ffff4aff <imm12+0xffff502f>
8000296c:	00b20463          	beq	tp,a1,80002974 <inst_346>
80002970:	71c0106f          	j	8000408c <bad_trap>

80002974 <inst_346>:
80002974:	ffff5537          	lui	a0,0xffff5
80002978:	afd50513          	addi	a0,a0,-1283 # ffff4afd <imm12+0xffff502d>
8000297c:	55450593          	addi	a1,a0,1364
80002980:	50b1a823          	sw	a1,1296(gp)
80002984:	ffff5237          	lui	tp,0xffff5
80002988:	05120213          	addi	tp,tp,81 # ffff5051 <imm12+0xffff5581>
8000298c:	00b20463          	beq	tp,a1,80002994 <inst_347>
80002990:	6fc0106f          	j	8000408c <bad_trap>

80002994 <inst_347>:
80002994:	ffff5537          	lui	a0,0xffff5
80002998:	afd50513          	addi	a0,a0,-1283 # ffff4afd <imm12+0xffff502d>
8000299c:	00050593          	mv	a1,a0
800029a0:	50b1aa23          	sw	a1,1300(gp)
800029a4:	ffff5237          	lui	tp,0xffff5
800029a8:	afd20213          	addi	tp,tp,-1283 # ffff4afd <imm12+0xffff502d>
800029ac:	00b20463          	beq	tp,a1,800029b4 <inst_348>
800029b0:	6dc0106f          	j	8000408c <bad_trap>

800029b4 <inst_348>:
800029b4:	ffff5537          	lui	a0,0xffff5
800029b8:	afd50513          	addi	a0,a0,-1283 # ffff4afd <imm12+0xffff502d>
800029bc:	00450593          	addi	a1,a0,4
800029c0:	50b1ac23          	sw	a1,1304(gp)
800029c4:	ffff5237          	lui	tp,0xffff5
800029c8:	b0120213          	addi	tp,tp,-1279 # ffff4b01 <imm12+0xffff5031>
800029cc:	00b20463          	beq	tp,a1,800029d4 <inst_349>
800029d0:	6bc0106f          	j	8000408c <bad_trap>

800029d4 <inst_349>:
800029d4:	ffff5537          	lui	a0,0xffff5
800029d8:	afd50513          	addi	a0,a0,-1283 # ffff4afd <imm12+0xffff502d>
800029dc:	33250593          	addi	a1,a0,818
800029e0:	50b1ae23          	sw	a1,1308(gp)
800029e4:	ffff5237          	lui	tp,0xffff5
800029e8:	e2f20213          	addi	tp,tp,-465 # ffff4e2f <imm12+0xffff535f>
800029ec:	00b20463          	beq	tp,a1,800029f4 <inst_350>
800029f0:	69c0106f          	j	8000408c <bad_trap>

800029f4 <inst_350>:
800029f4:	ffff5537          	lui	a0,0xffff5
800029f8:	afd50513          	addi	a0,a0,-1283 # ffff4afd <imm12+0xffff502d>
800029fc:	66550593          	addi	a1,a0,1637
80002a00:	52b1a023          	sw	a1,1312(gp)
80002a04:	ffff5237          	lui	tp,0xffff5
80002a08:	16220213          	addi	tp,tp,354 # ffff5162 <imm12+0xffff5692>
80002a0c:	00b20463          	beq	tp,a1,80002a14 <inst_351>
80002a10:	67c0106f          	j	8000408c <bad_trap>

80002a14 <inst_351>:
80002a14:	ffff5537          	lui	a0,0xffff5
80002a18:	afd50513          	addi	a0,a0,-1283 # ffff4afd <imm12+0xffff502d>
80002a1c:	02c50593          	addi	a1,a0,44
80002a20:	52b1a223          	sw	a1,1316(gp)
80002a24:	ffff5237          	lui	tp,0xffff5
80002a28:	b2920213          	addi	tp,tp,-1239 # ffff4b29 <imm12+0xffff5059>
80002a2c:	00b20463          	beq	tp,a1,80002a34 <inst_352>
80002a30:	65c0106f          	j	8000408c <bad_trap>

80002a34 <inst_352>:
80002a34:	ffff5537          	lui	a0,0xffff5
80002a38:	afd50513          	addi	a0,a0,-1283 # ffff4afd <imm12+0xffff502d>
80002a3c:	55650593          	addi	a1,a0,1366
80002a40:	52b1a423          	sw	a1,1320(gp)
80002a44:	ffff5237          	lui	tp,0xffff5
80002a48:	05320213          	addi	tp,tp,83 # ffff5053 <imm12+0xffff5583>
80002a4c:	00b20463          	beq	tp,a1,80002a54 <inst_353>
80002a50:	63c0106f          	j	8000408c <bad_trap>

80002a54 <inst_353>:
80002a54:	ffff5537          	lui	a0,0xffff5
80002a58:	afd50513          	addi	a0,a0,-1283 # ffff4afd <imm12+0xffff502d>
80002a5c:	aab50593          	addi	a1,a0,-1365
80002a60:	52b1a623          	sw	a1,1324(gp)
80002a64:	ffff4237          	lui	tp,0xffff4
80002a68:	5a820213          	addi	tp,tp,1448 # ffff45a8 <imm12+0xffff4ad8>
80002a6c:	00b20463          	beq	tp,a1,80002a74 <inst_354>
80002a70:	61c0106f          	j	8000408c <bad_trap>

80002a74 <inst_354>:
80002a74:	ffff5537          	lui	a0,0xffff5
80002a78:	afd50513          	addi	a0,a0,-1283 # ffff4afd <imm12+0xffff502d>
80002a7c:	00650593          	addi	a1,a0,6
80002a80:	52b1a823          	sw	a1,1328(gp)
80002a84:	ffff5237          	lui	tp,0xffff5
80002a88:	b0320213          	addi	tp,tp,-1277 # ffff4b03 <imm12+0xffff5033>
80002a8c:	00b20463          	beq	tp,a1,80002a94 <inst_355>
80002a90:	5fc0106f          	j	8000408c <bad_trap>

80002a94 <inst_355>:
80002a94:	ffff5537          	lui	a0,0xffff5
80002a98:	afd50513          	addi	a0,a0,-1283 # ffff4afd <imm12+0xffff502d>
80002a9c:	33450593          	addi	a1,a0,820
80002aa0:	52b1aa23          	sw	a1,1332(gp)
80002aa4:	ffff5237          	lui	tp,0xffff5
80002aa8:	e3120213          	addi	tp,tp,-463 # ffff4e31 <imm12+0xffff5361>
80002aac:	00b20463          	beq	tp,a1,80002ab4 <inst_356>
80002ab0:	5dc0106f          	j	8000408c <bad_trap>

80002ab4 <inst_356>:
80002ab4:	ffff5537          	lui	a0,0xffff5
80002ab8:	afd50513          	addi	a0,a0,-1283 # ffff4afd <imm12+0xffff502d>
80002abc:	66750593          	addi	a1,a0,1639
80002ac0:	52b1ac23          	sw	a1,1336(gp)
80002ac4:	ffff5237          	lui	tp,0xffff5
80002ac8:	16420213          	addi	tp,tp,356 # ffff5164 <imm12+0xffff5694>
80002acc:	00b20463          	beq	tp,a1,80002ad4 <inst_357>
80002ad0:	5bc0106f          	j	8000408c <bad_trap>

80002ad4 <inst_357>:
80002ad4:	ffff5537          	lui	a0,0xffff5
80002ad8:	afd50513          	addi	a0,a0,-1283 # ffff4afd <imm12+0xffff502d>
80002adc:	fd450593          	addi	a1,a0,-44
80002ae0:	52b1ae23          	sw	a1,1340(gp)
80002ae4:	ffff5237          	lui	tp,0xffff5
80002ae8:	ad120213          	addi	tp,tp,-1327 # ffff4ad1 <imm12+0xffff5001>
80002aec:	00b20463          	beq	tp,a1,80002af4 <inst_358>
80002af0:	59c0106f          	j	8000408c <bad_trap>

80002af4 <inst_358>:
80002af4:	ffff5537          	lui	a0,0xffff5
80002af8:	afd50513          	addi	a0,a0,-1283 # ffff4afd <imm12+0xffff502d>
80002afc:	02e50593          	addi	a1,a0,46
80002b00:	54b1a023          	sw	a1,1344(gp)
80002b04:	ffff5237          	lui	tp,0xffff5
80002b08:	b2b20213          	addi	tp,tp,-1237 # ffff4b2b <imm12+0xffff505b>
80002b0c:	00b20463          	beq	tp,a1,80002b14 <inst_359>
80002b10:	57c0106f          	j	8000408c <bad_trap>

80002b14 <inst_359>:
80002b14:	0000b537          	lui	a0,0xb
80002b18:	50550513          	addi	a0,a0,1285 # b505 <offset+0xb499>
80002b1c:	00350593          	addi	a1,a0,3
80002b20:	54b1a223          	sw	a1,1348(gp)
80002b24:	0000b237          	lui	tp,0xb
80002b28:	50820213          	addi	tp,tp,1288 # b508 <offset+0xb49c>
80002b2c:	00b20463          	beq	tp,a1,80002b34 <inst_360>
80002b30:	55c0106f          	j	8000408c <bad_trap>

80002b34 <inst_360>:
80002b34:	0000b537          	lui	a0,0xb
80002b38:	50550513          	addi	a0,a0,1285 # b505 <offset+0xb499>
80002b3c:	55550593          	addi	a1,a0,1365
80002b40:	54b1a423          	sw	a1,1352(gp)
80002b44:	0000c237          	lui	tp,0xc
80002b48:	a5a20213          	addi	tp,tp,-1446 # ba5a <offset+0xb9ee>
80002b4c:	00b20463          	beq	tp,a1,80002b54 <inst_361>
80002b50:	53c0106f          	j	8000408c <bad_trap>

80002b54 <inst_361>:
80002b54:	0000b537          	lui	a0,0xb
80002b58:	50550513          	addi	a0,a0,1285 # b505 <offset+0xb499>
80002b5c:	aaa50593          	addi	a1,a0,-1366
80002b60:	54b1a623          	sw	a1,1356(gp)
80002b64:	0000b237          	lui	tp,0xb
80002b68:	faf20213          	addi	tp,tp,-81 # afaf <offset+0xaf43>
80002b6c:	00b20463          	beq	tp,a1,80002b74 <inst_362>
80002b70:	51c0106f          	j	8000408c <bad_trap>

80002b74 <inst_362>:
80002b74:	0000b537          	lui	a0,0xb
80002b78:	50550513          	addi	a0,a0,1285 # b505 <offset+0xb499>
80002b7c:	00550593          	addi	a1,a0,5
80002b80:	54b1a823          	sw	a1,1360(gp)
80002b84:	0000b237          	lui	tp,0xb
80002b88:	50a20213          	addi	tp,tp,1290 # b50a <offset+0xb49e>
80002b8c:	00b20463          	beq	tp,a1,80002b94 <inst_363>
80002b90:	4fc0106f          	j	8000408c <bad_trap>

80002b94 <inst_363>:
80002b94:	0000b537          	lui	a0,0xb
80002b98:	50550513          	addi	a0,a0,1285 # b505 <offset+0xb499>
80002b9c:	33350593          	addi	a1,a0,819
80002ba0:	54b1aa23          	sw	a1,1364(gp)
80002ba4:	0000c237          	lui	tp,0xc
80002ba8:	83820213          	addi	tp,tp,-1992 # b838 <offset+0xb7cc>
80002bac:	00b20463          	beq	tp,a1,80002bb4 <inst_364>
80002bb0:	4dc0106f          	j	8000408c <bad_trap>

80002bb4 <inst_364>:
80002bb4:	0000b537          	lui	a0,0xb
80002bb8:	50550513          	addi	a0,a0,1285 # b505 <offset+0xb499>
80002bbc:	66650593          	addi	a1,a0,1638
80002bc0:	54b1ac23          	sw	a1,1368(gp)
80002bc4:	0000c237          	lui	tp,0xc
80002bc8:	b6b20213          	addi	tp,tp,-1173 # bb6b <offset+0xbaff>
80002bcc:	00b20463          	beq	tp,a1,80002bd4 <inst_365>
80002bd0:	4bc0106f          	j	8000408c <bad_trap>

80002bd4 <inst_365>:
80002bd4:	0000b537          	lui	a0,0xb
80002bd8:	50550513          	addi	a0,a0,1285 # b505 <offset+0xb499>
80002bdc:	fd350593          	addi	a1,a0,-45
80002be0:	54b1ae23          	sw	a1,1372(gp)
80002be4:	0000b237          	lui	tp,0xb
80002be8:	4d820213          	addi	tp,tp,1240 # b4d8 <offset+0xb46c>
80002bec:	00b20463          	beq	tp,a1,80002bf4 <inst_366>
80002bf0:	49c0106f          	j	8000408c <bad_trap>

80002bf4 <inst_366>:
80002bf4:	0000b537          	lui	a0,0xb
80002bf8:	50550513          	addi	a0,a0,1285 # b505 <offset+0xb499>
80002bfc:	02d50593          	addi	a1,a0,45
80002c00:	56b1a023          	sw	a1,1376(gp)
80002c04:	0000b237          	lui	tp,0xb
80002c08:	53220213          	addi	tp,tp,1330 # b532 <offset+0xb4c6>
80002c0c:	00b20463          	beq	tp,a1,80002c14 <inst_367>
80002c10:	47c0106f          	j	8000408c <bad_trap>

80002c14 <inst_367>:
80002c14:	0000b537          	lui	a0,0xb
80002c18:	50550513          	addi	a0,a0,1285 # b505 <offset+0xb499>
80002c1c:	00250593          	addi	a1,a0,2
80002c20:	56b1a223          	sw	a1,1380(gp)
80002c24:	0000b237          	lui	tp,0xb
80002c28:	50720213          	addi	tp,tp,1287 # b507 <offset+0xb49b>
80002c2c:	00b20463          	beq	tp,a1,80002c34 <inst_368>
80002c30:	45c0106f          	j	8000408c <bad_trap>

80002c34 <inst_368>:
80002c34:	0000b537          	lui	a0,0xb
80002c38:	50550513          	addi	a0,a0,1285 # b505 <offset+0xb499>
80002c3c:	55450593          	addi	a1,a0,1364
80002c40:	56b1a423          	sw	a1,1384(gp)
80002c44:	0000c237          	lui	tp,0xc
80002c48:	a5920213          	addi	tp,tp,-1447 # ba59 <offset+0xb9ed>
80002c4c:	00b20463          	beq	tp,a1,80002c54 <inst_369>
80002c50:	43c0106f          	j	8000408c <bad_trap>

80002c54 <inst_369>:
80002c54:	0000b537          	lui	a0,0xb
80002c58:	50550513          	addi	a0,a0,1285 # b505 <offset+0xb499>
80002c5c:	00050593          	mv	a1,a0
80002c60:	56b1a623          	sw	a1,1388(gp)
80002c64:	0000b237          	lui	tp,0xb
80002c68:	50520213          	addi	tp,tp,1285 # b505 <offset+0xb499>
80002c6c:	00b20463          	beq	tp,a1,80002c74 <inst_370>
80002c70:	41c0106f          	j	8000408c <bad_trap>

80002c74 <inst_370>:
80002c74:	0000b537          	lui	a0,0xb
80002c78:	50550513          	addi	a0,a0,1285 # b505 <offset+0xb499>
80002c7c:	00450593          	addi	a1,a0,4
80002c80:	56b1a823          	sw	a1,1392(gp)
80002c84:	0000b237          	lui	tp,0xb
80002c88:	50920213          	addi	tp,tp,1289 # b509 <offset+0xb49d>
80002c8c:	00b20463          	beq	tp,a1,80002c94 <inst_371>
80002c90:	3fc0106f          	j	8000408c <bad_trap>

80002c94 <inst_371>:
80002c94:	0000b537          	lui	a0,0xb
80002c98:	50550513          	addi	a0,a0,1285 # b505 <offset+0xb499>
80002c9c:	33250593          	addi	a1,a0,818
80002ca0:	56b1aa23          	sw	a1,1396(gp)
80002ca4:	0000c237          	lui	tp,0xc
80002ca8:	83720213          	addi	tp,tp,-1993 # b837 <offset+0xb7cb>
80002cac:	00b20463          	beq	tp,a1,80002cb4 <inst_372>
80002cb0:	3dc0106f          	j	8000408c <bad_trap>

80002cb4 <inst_372>:
80002cb4:	0000b537          	lui	a0,0xb
80002cb8:	50550513          	addi	a0,a0,1285 # b505 <offset+0xb499>
80002cbc:	66550593          	addi	a1,a0,1637
80002cc0:	56b1ac23          	sw	a1,1400(gp)
80002cc4:	0000c237          	lui	tp,0xc
80002cc8:	b6a20213          	addi	tp,tp,-1174 # bb6a <offset+0xbafe>
80002ccc:	00b20463          	beq	tp,a1,80002cd4 <inst_373>
80002cd0:	3bc0106f          	j	8000408c <bad_trap>

80002cd4 <inst_373>:
80002cd4:	0000b537          	lui	a0,0xb
80002cd8:	50550513          	addi	a0,a0,1285 # b505 <offset+0xb499>
80002cdc:	02c50593          	addi	a1,a0,44
80002ce0:	56b1ae23          	sw	a1,1404(gp)
80002ce4:	0000b237          	lui	tp,0xb
80002ce8:	53120213          	addi	tp,tp,1329 # b531 <offset+0xb4c5>
80002cec:	00b20463          	beq	tp,a1,80002cf4 <inst_374>
80002cf0:	39c0106f          	j	8000408c <bad_trap>

80002cf4 <inst_374>:
80002cf4:	0000b537          	lui	a0,0xb
80002cf8:	50550513          	addi	a0,a0,1285 # b505 <offset+0xb499>
80002cfc:	55650593          	addi	a1,a0,1366
80002d00:	58b1a023          	sw	a1,1408(gp)
80002d04:	0000c237          	lui	tp,0xc
80002d08:	a5b20213          	addi	tp,tp,-1445 # ba5b <offset+0xb9ef>
80002d0c:	00b20463          	beq	tp,a1,80002d14 <inst_375>
80002d10:	37c0106f          	j	8000408c <bad_trap>

80002d14 <inst_375>:
80002d14:	0000b537          	lui	a0,0xb
80002d18:	50550513          	addi	a0,a0,1285 # b505 <offset+0xb499>
80002d1c:	aab50593          	addi	a1,a0,-1365
80002d20:	58b1a223          	sw	a1,1412(gp)
80002d24:	0000b237          	lui	tp,0xb
80002d28:	fb020213          	addi	tp,tp,-80 # afb0 <offset+0xaf44>
80002d2c:	00b20463          	beq	tp,a1,80002d34 <inst_376>
80002d30:	35c0106f          	j	8000408c <bad_trap>

80002d34 <inst_376>:
80002d34:	0000b537          	lui	a0,0xb
80002d38:	50550513          	addi	a0,a0,1285 # b505 <offset+0xb499>
80002d3c:	00650593          	addi	a1,a0,6
80002d40:	58b1a423          	sw	a1,1416(gp)
80002d44:	0000b237          	lui	tp,0xb
80002d48:	50b20213          	addi	tp,tp,1291 # b50b <offset+0xb49f>
80002d4c:	00b20463          	beq	tp,a1,80002d54 <inst_377>
80002d50:	33c0106f          	j	8000408c <bad_trap>

80002d54 <inst_377>:
80002d54:	0000b537          	lui	a0,0xb
80002d58:	50550513          	addi	a0,a0,1285 # b505 <offset+0xb499>
80002d5c:	33450593          	addi	a1,a0,820
80002d60:	58b1a623          	sw	a1,1420(gp)
80002d64:	0000c237          	lui	tp,0xc
80002d68:	83920213          	addi	tp,tp,-1991 # b839 <offset+0xb7cd>
80002d6c:	00b20463          	beq	tp,a1,80002d74 <inst_378>
80002d70:	31c0106f          	j	8000408c <bad_trap>

80002d74 <inst_378>:
80002d74:	0000b537          	lui	a0,0xb
80002d78:	50550513          	addi	a0,a0,1285 # b505 <offset+0xb499>
80002d7c:	66750593          	addi	a1,a0,1639
80002d80:	58b1a823          	sw	a1,1424(gp)
80002d84:	0000c237          	lui	tp,0xc
80002d88:	b6c20213          	addi	tp,tp,-1172 # bb6c <offset+0xbb00>
80002d8c:	00b20463          	beq	tp,a1,80002d94 <inst_379>
80002d90:	2fc0106f          	j	8000408c <bad_trap>

80002d94 <inst_379>:
80002d94:	0000b537          	lui	a0,0xb
80002d98:	50550513          	addi	a0,a0,1285 # b505 <offset+0xb499>
80002d9c:	fd450593          	addi	a1,a0,-44
80002da0:	58b1aa23          	sw	a1,1428(gp)
80002da4:	0000b237          	lui	tp,0xb
80002da8:	4d920213          	addi	tp,tp,1241 # b4d9 <offset+0xb46d>
80002dac:	00b20463          	beq	tp,a1,80002db4 <inst_380>
80002db0:	2dc0106f          	j	8000408c <bad_trap>

80002db4 <inst_380>:
80002db4:	0000b537          	lui	a0,0xb
80002db8:	50550513          	addi	a0,a0,1285 # b505 <offset+0xb499>
80002dbc:	02e50593          	addi	a1,a0,46
80002dc0:	58b1ac23          	sw	a1,1432(gp)
80002dc4:	0000b237          	lui	tp,0xb
80002dc8:	53320213          	addi	tp,tp,1331 # b533 <offset+0xb4c7>
80002dcc:	00b20463          	beq	tp,a1,80002dd4 <inst_381>
80002dd0:	2bc0106f          	j	8000408c <bad_trap>

80002dd4 <inst_381>:
80002dd4:	00000513          	li	a0,0
80002dd8:	00250593          	addi	a1,a0,2
80002ddc:	58b1ae23          	sw	a1,1436(gp)
80002de0:	00200213          	li	tp,2
80002de4:	00b20463          	beq	tp,a1,80002dec <inst_382>
80002de8:	2a40106f          	j	8000408c <bad_trap>

80002dec <inst_382>:
80002dec:	00000513          	li	a0,0
80002df0:	55450593          	addi	a1,a0,1364
80002df4:	5ab1a023          	sw	a1,1440(gp)
80002df8:	55400213          	li	tp,1364
80002dfc:	00b20463          	beq	tp,a1,80002e04 <inst_383>
80002e00:	28c0106f          	j	8000408c <bad_trap>

80002e04 <inst_383>:
80002e04:	00000513          	li	a0,0
80002e08:	00050593          	mv	a1,a0
80002e0c:	5ab1a223          	sw	a1,1444(gp)
80002e10:	00000213          	li	tp,0
80002e14:	00b20463          	beq	tp,a1,80002e1c <inst_384>
80002e18:	2740106f          	j	8000408c <bad_trap>

80002e1c <inst_384>:
80002e1c:	00000513          	li	a0,0
80002e20:	00450593          	addi	a1,a0,4
80002e24:	5ab1a423          	sw	a1,1448(gp)
80002e28:	00400213          	li	tp,4
80002e2c:	00b20463          	beq	tp,a1,80002e34 <inst_385>
80002e30:	25c0106f          	j	8000408c <bad_trap>

80002e34 <inst_385>:
80002e34:	00000513          	li	a0,0
80002e38:	33250593          	addi	a1,a0,818
80002e3c:	5ab1a623          	sw	a1,1452(gp)
80002e40:	33200213          	li	tp,818
80002e44:	00b20463          	beq	tp,a1,80002e4c <inst_386>
80002e48:	2440106f          	j	8000408c <bad_trap>

80002e4c <inst_386>:
80002e4c:	00000513          	li	a0,0
80002e50:	66550593          	addi	a1,a0,1637
80002e54:	5ab1a823          	sw	a1,1456(gp)
80002e58:	66500213          	li	tp,1637
80002e5c:	00b20463          	beq	tp,a1,80002e64 <inst_387>
80002e60:	22c0106f          	j	8000408c <bad_trap>

80002e64 <inst_387>:
80002e64:	00000513          	li	a0,0
80002e68:	02c50593          	addi	a1,a0,44
80002e6c:	5ab1aa23          	sw	a1,1460(gp)
80002e70:	02c00213          	li	tp,44
80002e74:	00b20463          	beq	tp,a1,80002e7c <inst_388>
80002e78:	2140106f          	j	8000408c <bad_trap>

80002e7c <inst_388>:
80002e7c:	00000513          	li	a0,0
80002e80:	55650593          	addi	a1,a0,1366
80002e84:	5ab1ac23          	sw	a1,1464(gp)
80002e88:	55600213          	li	tp,1366
80002e8c:	00b20463          	beq	tp,a1,80002e94 <inst_389>
80002e90:	1fc0106f          	j	8000408c <bad_trap>

80002e94 <inst_389>:
80002e94:	00000513          	li	a0,0
80002e98:	aab50593          	addi	a1,a0,-1365
80002e9c:	5ab1ae23          	sw	a1,1468(gp)
80002ea0:	aab00213          	li	tp,-1365
80002ea4:	00b20463          	beq	tp,a1,80002eac <inst_390>
80002ea8:	1e40106f          	j	8000408c <bad_trap>

80002eac <inst_390>:
80002eac:	00000513          	li	a0,0
80002eb0:	00650593          	addi	a1,a0,6
80002eb4:	5cb1a023          	sw	a1,1472(gp)
80002eb8:	00600213          	li	tp,6
80002ebc:	00b20463          	beq	tp,a1,80002ec4 <inst_391>
80002ec0:	1cc0106f          	j	8000408c <bad_trap>

80002ec4 <inst_391>:
80002ec4:	00000513          	li	a0,0
80002ec8:	33450593          	addi	a1,a0,820
80002ecc:	5cb1a223          	sw	a1,1476(gp)
80002ed0:	33400213          	li	tp,820
80002ed4:	00b20463          	beq	tp,a1,80002edc <inst_392>
80002ed8:	1b40106f          	j	8000408c <bad_trap>

80002edc <inst_392>:
80002edc:	00000513          	li	a0,0
80002ee0:	66750593          	addi	a1,a0,1639
80002ee4:	5cb1a423          	sw	a1,1480(gp)
80002ee8:	66700213          	li	tp,1639
80002eec:	00b20463          	beq	tp,a1,80002ef4 <inst_393>
80002ef0:	19c0106f          	j	8000408c <bad_trap>

80002ef4 <inst_393>:
80002ef4:	00000513          	li	a0,0
80002ef8:	fd450593          	addi	a1,a0,-44
80002efc:	5cb1a623          	sw	a1,1484(gp)
80002f00:	fd400213          	li	tp,-44
80002f04:	00b20463          	beq	tp,a1,80002f0c <inst_394>
80002f08:	1840106f          	j	8000408c <bad_trap>

80002f0c <inst_394>:
80002f0c:	00000513          	li	a0,0
80002f10:	02e50593          	addi	a1,a0,46
80002f14:	5cb1a823          	sw	a1,1488(gp)
80002f18:	02e00213          	li	tp,46
80002f1c:	00b20463          	beq	tp,a1,80002f24 <inst_395>
80002f20:	16c0106f          	j	8000408c <bad_trap>

80002f24 <inst_395>:
80002f24:	00400513          	li	a0,4
80002f28:	00350593          	addi	a1,a0,3
80002f2c:	5cb1aa23          	sw	a1,1492(gp)
80002f30:	00700213          	li	tp,7
80002f34:	00b20463          	beq	tp,a1,80002f3c <inst_396>
80002f38:	1540106f          	j	8000408c <bad_trap>

80002f3c <inst_396>:
80002f3c:	00400513          	li	a0,4
80002f40:	55550593          	addi	a1,a0,1365
80002f44:	5cb1ac23          	sw	a1,1496(gp)
80002f48:	55900213          	li	tp,1369
80002f4c:	00b20463          	beq	tp,a1,80002f54 <inst_397>
80002f50:	13c0106f          	j	8000408c <bad_trap>

80002f54 <inst_397>:
80002f54:	00400513          	li	a0,4
80002f58:	aaa50593          	addi	a1,a0,-1366
80002f5c:	5cb1ae23          	sw	a1,1500(gp)
80002f60:	aae00213          	li	tp,-1362
80002f64:	00b20463          	beq	tp,a1,80002f6c <inst_398>
80002f68:	1240106f          	j	8000408c <bad_trap>

80002f6c <inst_398>:
80002f6c:	00400513          	li	a0,4
80002f70:	00550593          	addi	a1,a0,5
80002f74:	5eb1a023          	sw	a1,1504(gp)
80002f78:	00900213          	li	tp,9
80002f7c:	00b20463          	beq	tp,a1,80002f84 <inst_399>
80002f80:	10c0106f          	j	8000408c <bad_trap>

80002f84 <inst_399>:
80002f84:	00400513          	li	a0,4
80002f88:	33350593          	addi	a1,a0,819
80002f8c:	5eb1a223          	sw	a1,1508(gp)
80002f90:	33700213          	li	tp,823
80002f94:	00b20463          	beq	tp,a1,80002f9c <inst_400>
80002f98:	0f40106f          	j	8000408c <bad_trap>

80002f9c <inst_400>:
80002f9c:	00400513          	li	a0,4
80002fa0:	66650593          	addi	a1,a0,1638
80002fa4:	5eb1a423          	sw	a1,1512(gp)
80002fa8:	66a00213          	li	tp,1642
80002fac:	00b20463          	beq	tp,a1,80002fb4 <inst_401>
80002fb0:	0dc0106f          	j	8000408c <bad_trap>

80002fb4 <inst_401>:
80002fb4:	00400513          	li	a0,4
80002fb8:	fd350593          	addi	a1,a0,-45
80002fbc:	5eb1a623          	sw	a1,1516(gp)
80002fc0:	fd700213          	li	tp,-41
80002fc4:	00b20463          	beq	tp,a1,80002fcc <inst_402>
80002fc8:	0c40106f          	j	8000408c <bad_trap>

80002fcc <inst_402>:
80002fcc:	00400513          	li	a0,4
80002fd0:	02d50593          	addi	a1,a0,45
80002fd4:	5eb1a823          	sw	a1,1520(gp)
80002fd8:	03100213          	li	tp,49
80002fdc:	00b20463          	beq	tp,a1,80002fe4 <inst_403>
80002fe0:	0ac0106f          	j	8000408c <bad_trap>

80002fe4 <inst_403>:
80002fe4:	00400513          	li	a0,4
80002fe8:	00250593          	addi	a1,a0,2
80002fec:	5eb1aa23          	sw	a1,1524(gp)
80002ff0:	00600213          	li	tp,6
80002ff4:	00b20463          	beq	tp,a1,80002ffc <inst_404>
80002ff8:	0940106f          	j	8000408c <bad_trap>

80002ffc <inst_404>:
80002ffc:	00400513          	li	a0,4
80003000:	55450593          	addi	a1,a0,1364
80003004:	5eb1ac23          	sw	a1,1528(gp)
80003008:	55800213          	li	tp,1368
8000300c:	00b20463          	beq	tp,a1,80003014 <inst_405>
80003010:	07c0106f          	j	8000408c <bad_trap>

80003014 <inst_405>:
80003014:	00400513          	li	a0,4
80003018:	00050593          	mv	a1,a0
8000301c:	5eb1ae23          	sw	a1,1532(gp)
80003020:	00400213          	li	tp,4
80003024:	00b20463          	beq	tp,a1,8000302c <inst_406>
80003028:	0640106f          	j	8000408c <bad_trap>

8000302c <inst_406>:
8000302c:	00400513          	li	a0,4
80003030:	33250593          	addi	a1,a0,818
80003034:	60b1a023          	sw	a1,1536(gp)
80003038:	33600213          	li	tp,822
8000303c:	00b20463          	beq	tp,a1,80003044 <inst_407>
80003040:	04c0106f          	j	8000408c <bad_trap>

80003044 <inst_407>:
80003044:	00400513          	li	a0,4
80003048:	66550593          	addi	a1,a0,1637
8000304c:	60b1a223          	sw	a1,1540(gp)
80003050:	66900213          	li	tp,1641
80003054:	00b20463          	beq	tp,a1,8000305c <inst_408>
80003058:	0340106f          	j	8000408c <bad_trap>

8000305c <inst_408>:
8000305c:	00400513          	li	a0,4
80003060:	02c50593          	addi	a1,a0,44
80003064:	60b1a423          	sw	a1,1544(gp)
80003068:	03000213          	li	tp,48
8000306c:	00b20463          	beq	tp,a1,80003074 <inst_409>
80003070:	01c0106f          	j	8000408c <bad_trap>

80003074 <inst_409>:
80003074:	00400513          	li	a0,4
80003078:	55650593          	addi	a1,a0,1366
8000307c:	60b1a623          	sw	a1,1548(gp)
80003080:	55a00213          	li	tp,1370
80003084:	00b20463          	beq	tp,a1,8000308c <inst_410>
80003088:	0040106f          	j	8000408c <bad_trap>

8000308c <inst_410>:
8000308c:	00400513          	li	a0,4
80003090:	aab50593          	addi	a1,a0,-1365
80003094:	60b1a823          	sw	a1,1552(gp)
80003098:	aaf00213          	li	tp,-1361
8000309c:	7eb218e3          	bne	tp,a1,8000408c <bad_trap>

800030a0 <inst_411>:
800030a0:	00400513          	li	a0,4
800030a4:	00650593          	addi	a1,a0,6
800030a8:	60b1aa23          	sw	a1,1556(gp)
800030ac:	00a00213          	li	tp,10
800030b0:	7cb21ee3          	bne	tp,a1,8000408c <bad_trap>

800030b4 <inst_412>:
800030b4:	00400513          	li	a0,4
800030b8:	33450593          	addi	a1,a0,820
800030bc:	60b1ac23          	sw	a1,1560(gp)
800030c0:	33800213          	li	tp,824
800030c4:	7cb214e3          	bne	tp,a1,8000408c <bad_trap>

800030c8 <inst_413>:
800030c8:	00400513          	li	a0,4
800030cc:	66750593          	addi	a1,a0,1639
800030d0:	60b1ae23          	sw	a1,1564(gp)
800030d4:	66b00213          	li	tp,1643
800030d8:	7ab21ae3          	bne	tp,a1,8000408c <bad_trap>

800030dc <inst_414>:
800030dc:	00400513          	li	a0,4
800030e0:	fd450593          	addi	a1,a0,-44
800030e4:	62b1a023          	sw	a1,1568(gp)
800030e8:	fd800213          	li	tp,-40
800030ec:	7ab210e3          	bne	tp,a1,8000408c <bad_trap>

800030f0 <inst_415>:
800030f0:	00400513          	li	a0,4
800030f4:	02e50593          	addi	a1,a0,46
800030f8:	62b1a223          	sw	a1,1572(gp)
800030fc:	03200213          	li	tp,50
80003100:	78b216e3          	bne	tp,a1,8000408c <bad_trap>

80003104 <inst_416>:
80003104:	33333537          	lui	a0,0x33333
80003108:	33250513          	addi	a0,a0,818 # 33333332 <offset+0x333332c6>
8000310c:	00350593          	addi	a1,a0,3
80003110:	62b1a423          	sw	a1,1576(gp)
80003114:	33333237          	lui	tp,0x33333
80003118:	33520213          	addi	tp,tp,821 # 33333335 <offset+0x333332c9>
8000311c:	76b218e3          	bne	tp,a1,8000408c <bad_trap>

80003120 <inst_417>:
80003120:	33333537          	lui	a0,0x33333
80003124:	33250513          	addi	a0,a0,818 # 33333332 <offset+0x333332c6>
80003128:	55550593          	addi	a1,a0,1365
8000312c:	62b1a623          	sw	a1,1580(gp)
80003130:	33334237          	lui	tp,0x33334
80003134:	88720213          	addi	tp,tp,-1913 # 33333887 <offset+0x3333381b>
80003138:	74b21ae3          	bne	tp,a1,8000408c <bad_trap>

8000313c <inst_418>:
8000313c:	33333537          	lui	a0,0x33333
80003140:	33250513          	addi	a0,a0,818 # 33333332 <offset+0x333332c6>
80003144:	aaa50593          	addi	a1,a0,-1366
80003148:	62b1a823          	sw	a1,1584(gp)
8000314c:	33333237          	lui	tp,0x33333
80003150:	ddc20213          	addi	tp,tp,-548 # 33332ddc <offset+0x33332d70>
80003154:	72b21ce3          	bne	tp,a1,8000408c <bad_trap>

80003158 <inst_419>:
80003158:	33333537          	lui	a0,0x33333
8000315c:	33250513          	addi	a0,a0,818 # 33333332 <offset+0x333332c6>
80003160:	00550593          	addi	a1,a0,5
80003164:	62b1aa23          	sw	a1,1588(gp)
80003168:	33333237          	lui	tp,0x33333
8000316c:	33720213          	addi	tp,tp,823 # 33333337 <offset+0x333332cb>
80003170:	70b21ee3          	bne	tp,a1,8000408c <bad_trap>

80003174 <inst_420>:
80003174:	33333537          	lui	a0,0x33333
80003178:	33250513          	addi	a0,a0,818 # 33333332 <offset+0x333332c6>
8000317c:	33350593          	addi	a1,a0,819
80003180:	62b1ac23          	sw	a1,1592(gp)
80003184:	33333237          	lui	tp,0x33333
80003188:	66520213          	addi	tp,tp,1637 # 33333665 <offset+0x333335f9>
8000318c:	70b210e3          	bne	tp,a1,8000408c <bad_trap>

80003190 <inst_421>:
80003190:	33333537          	lui	a0,0x33333
80003194:	33250513          	addi	a0,a0,818 # 33333332 <offset+0x333332c6>
80003198:	66650593          	addi	a1,a0,1638
8000319c:	62b1ae23          	sw	a1,1596(gp)
800031a0:	33334237          	lui	tp,0x33334
800031a4:	99820213          	addi	tp,tp,-1640 # 33333998 <offset+0x3333392c>
800031a8:	6eb212e3          	bne	tp,a1,8000408c <bad_trap>

800031ac <inst_422>:
800031ac:	33333537          	lui	a0,0x33333
800031b0:	33250513          	addi	a0,a0,818 # 33333332 <offset+0x333332c6>
800031b4:	fd350593          	addi	a1,a0,-45
800031b8:	64b1a023          	sw	a1,1600(gp)
800031bc:	33333237          	lui	tp,0x33333
800031c0:	30520213          	addi	tp,tp,773 # 33333305 <offset+0x33333299>
800031c4:	6cb214e3          	bne	tp,a1,8000408c <bad_trap>

800031c8 <inst_423>:
800031c8:	33333537          	lui	a0,0x33333
800031cc:	33250513          	addi	a0,a0,818 # 33333332 <offset+0x333332c6>
800031d0:	02d50593          	addi	a1,a0,45
800031d4:	64b1a223          	sw	a1,1604(gp)
800031d8:	33333237          	lui	tp,0x33333
800031dc:	35f20213          	addi	tp,tp,863 # 3333335f <offset+0x333332f3>
800031e0:	6ab216e3          	bne	tp,a1,8000408c <bad_trap>

800031e4 <inst_424>:
800031e4:	33333537          	lui	a0,0x33333
800031e8:	33250513          	addi	a0,a0,818 # 33333332 <offset+0x333332c6>
800031ec:	00250593          	addi	a1,a0,2
800031f0:	64b1a423          	sw	a1,1608(gp)
800031f4:	33333237          	lui	tp,0x33333
800031f8:	33420213          	addi	tp,tp,820 # 33333334 <offset+0x333332c8>
800031fc:	68b218e3          	bne	tp,a1,8000408c <bad_trap>

80003200 <inst_425>:
80003200:	33333537          	lui	a0,0x33333
80003204:	33250513          	addi	a0,a0,818 # 33333332 <offset+0x333332c6>
80003208:	55450593          	addi	a1,a0,1364
8000320c:	64b1a623          	sw	a1,1612(gp)
80003210:	33334237          	lui	tp,0x33334
80003214:	88620213          	addi	tp,tp,-1914 # 33333886 <offset+0x3333381a>
80003218:	66b21ae3          	bne	tp,a1,8000408c <bad_trap>

8000321c <inst_426>:
8000321c:	33333537          	lui	a0,0x33333
80003220:	33250513          	addi	a0,a0,818 # 33333332 <offset+0x333332c6>
80003224:	00050593          	mv	a1,a0
80003228:	64b1a823          	sw	a1,1616(gp)
8000322c:	33333237          	lui	tp,0x33333
80003230:	33220213          	addi	tp,tp,818 # 33333332 <offset+0x333332c6>
80003234:	64b21ce3          	bne	tp,a1,8000408c <bad_trap>

80003238 <inst_427>:
80003238:	33333537          	lui	a0,0x33333
8000323c:	33250513          	addi	a0,a0,818 # 33333332 <offset+0x333332c6>
80003240:	00450593          	addi	a1,a0,4
80003244:	64b1aa23          	sw	a1,1620(gp)
80003248:	33333237          	lui	tp,0x33333
8000324c:	33620213          	addi	tp,tp,822 # 33333336 <offset+0x333332ca>
80003250:	62b21ee3          	bne	tp,a1,8000408c <bad_trap>

80003254 <inst_428>:
80003254:	33333537          	lui	a0,0x33333
80003258:	33250513          	addi	a0,a0,818 # 33333332 <offset+0x333332c6>
8000325c:	33250593          	addi	a1,a0,818
80003260:	64b1ac23          	sw	a1,1624(gp)
80003264:	33333237          	lui	tp,0x33333
80003268:	66420213          	addi	tp,tp,1636 # 33333664 <offset+0x333335f8>
8000326c:	62b210e3          	bne	tp,a1,8000408c <bad_trap>

80003270 <inst_429>:
80003270:	33333537          	lui	a0,0x33333
80003274:	33250513          	addi	a0,a0,818 # 33333332 <offset+0x333332c6>
80003278:	66550593          	addi	a1,a0,1637
8000327c:	64b1ae23          	sw	a1,1628(gp)
80003280:	33334237          	lui	tp,0x33334
80003284:	99720213          	addi	tp,tp,-1641 # 33333997 <offset+0x3333392b>
80003288:	60b212e3          	bne	tp,a1,8000408c <bad_trap>

8000328c <inst_430>:
8000328c:	33333537          	lui	a0,0x33333
80003290:	33250513          	addi	a0,a0,818 # 33333332 <offset+0x333332c6>
80003294:	02c50593          	addi	a1,a0,44
80003298:	66b1a023          	sw	a1,1632(gp)
8000329c:	33333237          	lui	tp,0x33333
800032a0:	35e20213          	addi	tp,tp,862 # 3333335e <offset+0x333332f2>
800032a4:	5eb214e3          	bne	tp,a1,8000408c <bad_trap>

800032a8 <inst_431>:
800032a8:	33333537          	lui	a0,0x33333
800032ac:	33250513          	addi	a0,a0,818 # 33333332 <offset+0x333332c6>
800032b0:	55650593          	addi	a1,a0,1366
800032b4:	66b1a223          	sw	a1,1636(gp)
800032b8:	33334237          	lui	tp,0x33334
800032bc:	88820213          	addi	tp,tp,-1912 # 33333888 <offset+0x3333381c>
800032c0:	5cb216e3          	bne	tp,a1,8000408c <bad_trap>

800032c4 <inst_432>:
800032c4:	33333537          	lui	a0,0x33333
800032c8:	33250513          	addi	a0,a0,818 # 33333332 <offset+0x333332c6>
800032cc:	aab50593          	addi	a1,a0,-1365
800032d0:	66b1a423          	sw	a1,1640(gp)
800032d4:	33333237          	lui	tp,0x33333
800032d8:	ddd20213          	addi	tp,tp,-547 # 33332ddd <offset+0x33332d71>
800032dc:	5ab218e3          	bne	tp,a1,8000408c <bad_trap>

800032e0 <inst_433>:
800032e0:	33333537          	lui	a0,0x33333
800032e4:	33250513          	addi	a0,a0,818 # 33333332 <offset+0x333332c6>
800032e8:	00650593          	addi	a1,a0,6
800032ec:	66b1a623          	sw	a1,1644(gp)
800032f0:	33333237          	lui	tp,0x33333
800032f4:	33820213          	addi	tp,tp,824 # 33333338 <offset+0x333332cc>
800032f8:	58b21ae3          	bne	tp,a1,8000408c <bad_trap>

800032fc <inst_434>:
800032fc:	33333537          	lui	a0,0x33333
80003300:	33250513          	addi	a0,a0,818 # 33333332 <offset+0x333332c6>
80003304:	33450593          	addi	a1,a0,820
80003308:	66b1a823          	sw	a1,1648(gp)
8000330c:	33333237          	lui	tp,0x33333
80003310:	66620213          	addi	tp,tp,1638 # 33333666 <offset+0x333335fa>
80003314:	56b21ce3          	bne	tp,a1,8000408c <bad_trap>

80003318 <inst_435>:
80003318:	33333537          	lui	a0,0x33333
8000331c:	33250513          	addi	a0,a0,818 # 33333332 <offset+0x333332c6>
80003320:	66750593          	addi	a1,a0,1639
80003324:	66b1aa23          	sw	a1,1652(gp)
80003328:	33334237          	lui	tp,0x33334
8000332c:	99920213          	addi	tp,tp,-1639 # 33333999 <offset+0x3333392d>
80003330:	54b21ee3          	bne	tp,a1,8000408c <bad_trap>

80003334 <inst_436>:
80003334:	33333537          	lui	a0,0x33333
80003338:	33250513          	addi	a0,a0,818 # 33333332 <offset+0x333332c6>
8000333c:	fd450593          	addi	a1,a0,-44
80003340:	66b1ac23          	sw	a1,1656(gp)
80003344:	33333237          	lui	tp,0x33333
80003348:	30620213          	addi	tp,tp,774 # 33333306 <offset+0x3333329a>
8000334c:	54b210e3          	bne	tp,a1,8000408c <bad_trap>

80003350 <inst_437>:
80003350:	33333537          	lui	a0,0x33333
80003354:	33250513          	addi	a0,a0,818 # 33333332 <offset+0x333332c6>
80003358:	02e50593          	addi	a1,a0,46
8000335c:	66b1ae23          	sw	a1,1660(gp)
80003360:	33333237          	lui	tp,0x33333
80003364:	36020213          	addi	tp,tp,864 # 33333360 <offset+0x333332f4>
80003368:	52b212e3          	bne	tp,a1,8000408c <bad_trap>

8000336c <inst_438>:
8000336c:	66666537          	lui	a0,0x66666
80003370:	66550513          	addi	a0,a0,1637 # 66666665 <absimm+0x21374136>
80003374:	00350593          	addi	a1,a0,3
80003378:	68b1a023          	sw	a1,1664(gp)
8000337c:	66666237          	lui	tp,0x66666
80003380:	66820213          	addi	tp,tp,1640 # 66666668 <absimm+0x21374139>
80003384:	50b214e3          	bne	tp,a1,8000408c <bad_trap>

80003388 <inst_439>:
80003388:	66666537          	lui	a0,0x66666
8000338c:	66550513          	addi	a0,a0,1637 # 66666665 <absimm+0x21374136>
80003390:	55550593          	addi	a1,a0,1365
80003394:	68b1a223          	sw	a1,1668(gp)
80003398:	66667237          	lui	tp,0x66667
8000339c:	bba20213          	addi	tp,tp,-1094 # 66666bba <absimm+0x2137468b>
800033a0:	4eb216e3          	bne	tp,a1,8000408c <bad_trap>

800033a4 <inst_440>:
800033a4:	66666537          	lui	a0,0x66666
800033a8:	66550513          	addi	a0,a0,1637 # 66666665 <absimm+0x21374136>
800033ac:	aaa50593          	addi	a1,a0,-1366
800033b0:	68b1a423          	sw	a1,1672(gp)
800033b4:	66666237          	lui	tp,0x66666
800033b8:	10f20213          	addi	tp,tp,271 # 6666610f <absimm+0x21373be0>
800033bc:	4cb218e3          	bne	tp,a1,8000408c <bad_trap>

800033c0 <inst_441>:
800033c0:	66666537          	lui	a0,0x66666
800033c4:	66550513          	addi	a0,a0,1637 # 66666665 <absimm+0x21374136>
800033c8:	00550593          	addi	a1,a0,5
800033cc:	68b1a623          	sw	a1,1676(gp)
800033d0:	66666237          	lui	tp,0x66666
800033d4:	66a20213          	addi	tp,tp,1642 # 6666666a <absimm+0x2137413b>
800033d8:	4ab21ae3          	bne	tp,a1,8000408c <bad_trap>

800033dc <inst_442>:
800033dc:	66666537          	lui	a0,0x66666
800033e0:	66550513          	addi	a0,a0,1637 # 66666665 <absimm+0x21374136>
800033e4:	33350593          	addi	a1,a0,819
800033e8:	68b1a823          	sw	a1,1680(gp)
800033ec:	66667237          	lui	tp,0x66667
800033f0:	99820213          	addi	tp,tp,-1640 # 66666998 <absimm+0x21374469>
800033f4:	48b21ce3          	bne	tp,a1,8000408c <bad_trap>

800033f8 <inst_443>:
800033f8:	66666537          	lui	a0,0x66666
800033fc:	66550513          	addi	a0,a0,1637 # 66666665 <absimm+0x21374136>
80003400:	66650593          	addi	a1,a0,1638
80003404:	68b1aa23          	sw	a1,1684(gp)
80003408:	66667237          	lui	tp,0x66667
8000340c:	ccb20213          	addi	tp,tp,-821 # 66666ccb <absimm+0x2137479c>
80003410:	46b21ee3          	bne	tp,a1,8000408c <bad_trap>

80003414 <inst_444>:
80003414:	66666537          	lui	a0,0x66666
80003418:	66550513          	addi	a0,a0,1637 # 66666665 <absimm+0x21374136>
8000341c:	fd350593          	addi	a1,a0,-45
80003420:	68b1ac23          	sw	a1,1688(gp)
80003424:	66666237          	lui	tp,0x66666
80003428:	63820213          	addi	tp,tp,1592 # 66666638 <absimm+0x21374109>
8000342c:	46b210e3          	bne	tp,a1,8000408c <bad_trap>

80003430 <inst_445>:
80003430:	66666537          	lui	a0,0x66666
80003434:	66550513          	addi	a0,a0,1637 # 66666665 <absimm+0x21374136>
80003438:	02d50593          	addi	a1,a0,45
8000343c:	68b1ae23          	sw	a1,1692(gp)
80003440:	66666237          	lui	tp,0x66666
80003444:	69220213          	addi	tp,tp,1682 # 66666692 <absimm+0x21374163>
80003448:	44b212e3          	bne	tp,a1,8000408c <bad_trap>

8000344c <inst_446>:
8000344c:	66666537          	lui	a0,0x66666
80003450:	66550513          	addi	a0,a0,1637 # 66666665 <absimm+0x21374136>
80003454:	00250593          	addi	a1,a0,2
80003458:	6ab1a023          	sw	a1,1696(gp)
8000345c:	66666237          	lui	tp,0x66666
80003460:	66720213          	addi	tp,tp,1639 # 66666667 <absimm+0x21374138>
80003464:	42b214e3          	bne	tp,a1,8000408c <bad_trap>

80003468 <inst_447>:
80003468:	66666537          	lui	a0,0x66666
8000346c:	66550513          	addi	a0,a0,1637 # 66666665 <absimm+0x21374136>
80003470:	55450593          	addi	a1,a0,1364
80003474:	6ab1a223          	sw	a1,1700(gp)
80003478:	66667237          	lui	tp,0x66667
8000347c:	bb920213          	addi	tp,tp,-1095 # 66666bb9 <absimm+0x2137468a>
80003480:	40b216e3          	bne	tp,a1,8000408c <bad_trap>

80003484 <inst_448>:
80003484:	66666537          	lui	a0,0x66666
80003488:	66550513          	addi	a0,a0,1637 # 66666665 <absimm+0x21374136>
8000348c:	00050593          	mv	a1,a0
80003490:	6ab1a423          	sw	a1,1704(gp)
80003494:	66666237          	lui	tp,0x66666
80003498:	66520213          	addi	tp,tp,1637 # 66666665 <absimm+0x21374136>
8000349c:	3eb218e3          	bne	tp,a1,8000408c <bad_trap>

800034a0 <inst_449>:
800034a0:	66666537          	lui	a0,0x66666
800034a4:	66550513          	addi	a0,a0,1637 # 66666665 <absimm+0x21374136>
800034a8:	00450593          	addi	a1,a0,4
800034ac:	6ab1a623          	sw	a1,1708(gp)
800034b0:	66666237          	lui	tp,0x66666
800034b4:	66920213          	addi	tp,tp,1641 # 66666669 <absimm+0x2137413a>
800034b8:	3cb21ae3          	bne	tp,a1,8000408c <bad_trap>

800034bc <inst_450>:
800034bc:	66666537          	lui	a0,0x66666
800034c0:	66550513          	addi	a0,a0,1637 # 66666665 <absimm+0x21374136>
800034c4:	33250593          	addi	a1,a0,818
800034c8:	6ab1a823          	sw	a1,1712(gp)
800034cc:	66667237          	lui	tp,0x66667
800034d0:	99720213          	addi	tp,tp,-1641 # 66666997 <absimm+0x21374468>
800034d4:	3ab21ce3          	bne	tp,a1,8000408c <bad_trap>

800034d8 <inst_451>:
800034d8:	66666537          	lui	a0,0x66666
800034dc:	66550513          	addi	a0,a0,1637 # 66666665 <absimm+0x21374136>
800034e0:	66550593          	addi	a1,a0,1637
800034e4:	6ab1aa23          	sw	a1,1716(gp)
800034e8:	66667237          	lui	tp,0x66667
800034ec:	cca20213          	addi	tp,tp,-822 # 66666cca <absimm+0x2137479b>
800034f0:	38b21ee3          	bne	tp,a1,8000408c <bad_trap>

800034f4 <inst_452>:
800034f4:	66666537          	lui	a0,0x66666
800034f8:	66550513          	addi	a0,a0,1637 # 66666665 <absimm+0x21374136>
800034fc:	02c50593          	addi	a1,a0,44
80003500:	6ab1ac23          	sw	a1,1720(gp)
80003504:	66666237          	lui	tp,0x66666
80003508:	69120213          	addi	tp,tp,1681 # 66666691 <absimm+0x21374162>
8000350c:	38b210e3          	bne	tp,a1,8000408c <bad_trap>

80003510 <inst_453>:
80003510:	66666537          	lui	a0,0x66666
80003514:	66550513          	addi	a0,a0,1637 # 66666665 <absimm+0x21374136>
80003518:	55650593          	addi	a1,a0,1366
8000351c:	6ab1ae23          	sw	a1,1724(gp)
80003520:	66667237          	lui	tp,0x66667
80003524:	bbb20213          	addi	tp,tp,-1093 # 66666bbb <absimm+0x2137468c>
80003528:	36b212e3          	bne	tp,a1,8000408c <bad_trap>

8000352c <inst_454>:
8000352c:	66666537          	lui	a0,0x66666
80003530:	66550513          	addi	a0,a0,1637 # 66666665 <absimm+0x21374136>
80003534:	aab50593          	addi	a1,a0,-1365
80003538:	6cb1a023          	sw	a1,1728(gp)
8000353c:	66666237          	lui	tp,0x66666
80003540:	11020213          	addi	tp,tp,272 # 66666110 <absimm+0x21373be1>
80003544:	34b214e3          	bne	tp,a1,8000408c <bad_trap>

80003548 <inst_455>:
80003548:	66666537          	lui	a0,0x66666
8000354c:	66550513          	addi	a0,a0,1637 # 66666665 <absimm+0x21374136>
80003550:	00650593          	addi	a1,a0,6
80003554:	6cb1a223          	sw	a1,1732(gp)
80003558:	66666237          	lui	tp,0x66666
8000355c:	66b20213          	addi	tp,tp,1643 # 6666666b <absimm+0x2137413c>
80003560:	32b216e3          	bne	tp,a1,8000408c <bad_trap>

80003564 <inst_456>:
80003564:	66666537          	lui	a0,0x66666
80003568:	66550513          	addi	a0,a0,1637 # 66666665 <absimm+0x21374136>
8000356c:	33450593          	addi	a1,a0,820
80003570:	6cb1a423          	sw	a1,1736(gp)
80003574:	66667237          	lui	tp,0x66667
80003578:	99920213          	addi	tp,tp,-1639 # 66666999 <absimm+0x2137446a>
8000357c:	30b218e3          	bne	tp,a1,8000408c <bad_trap>

80003580 <inst_457>:
80003580:	66666537          	lui	a0,0x66666
80003584:	66550513          	addi	a0,a0,1637 # 66666665 <absimm+0x21374136>
80003588:	66750593          	addi	a1,a0,1639
8000358c:	6cb1a623          	sw	a1,1740(gp)
80003590:	66667237          	lui	tp,0x66667
80003594:	ccc20213          	addi	tp,tp,-820 # 66666ccc <absimm+0x2137479d>
80003598:	2eb21ae3          	bne	tp,a1,8000408c <bad_trap>

8000359c <inst_458>:
8000359c:	66666537          	lui	a0,0x66666
800035a0:	66550513          	addi	a0,a0,1637 # 66666665 <absimm+0x21374136>
800035a4:	fd450593          	addi	a1,a0,-44
800035a8:	6cb1a823          	sw	a1,1744(gp)
800035ac:	66666237          	lui	tp,0x66666
800035b0:	63920213          	addi	tp,tp,1593 # 66666639 <absimm+0x2137410a>
800035b4:	2cb21ce3          	bne	tp,a1,8000408c <bad_trap>

800035b8 <inst_459>:
800035b8:	66666537          	lui	a0,0x66666
800035bc:	66550513          	addi	a0,a0,1637 # 66666665 <absimm+0x21374136>
800035c0:	02e50593          	addi	a1,a0,46
800035c4:	6cb1aa23          	sw	a1,1748(gp)
800035c8:	66666237          	lui	tp,0x66666
800035cc:	69320213          	addi	tp,tp,1683 # 66666693 <absimm+0x21374164>
800035d0:	2ab21ee3          	bne	tp,a1,8000408c <bad_trap>

800035d4 <inst_460>:
800035d4:	0000b537          	lui	a0,0xb
800035d8:	50350513          	addi	a0,a0,1283 # b503 <offset+0xb497>
800035dc:	00350593          	addi	a1,a0,3
800035e0:	6cb1ac23          	sw	a1,1752(gp)
800035e4:	0000b237          	lui	tp,0xb
800035e8:	50620213          	addi	tp,tp,1286 # b506 <offset+0xb49a>
800035ec:	2ab210e3          	bne	tp,a1,8000408c <bad_trap>

800035f0 <inst_461>:
800035f0:	0000b537          	lui	a0,0xb
800035f4:	50350513          	addi	a0,a0,1283 # b503 <offset+0xb497>
800035f8:	55550593          	addi	a1,a0,1365
800035fc:	6cb1ae23          	sw	a1,1756(gp)
80003600:	0000c237          	lui	tp,0xc
80003604:	a5820213          	addi	tp,tp,-1448 # ba58 <offset+0xb9ec>
80003608:	28b212e3          	bne	tp,a1,8000408c <bad_trap>

8000360c <inst_462>:
8000360c:	0000b537          	lui	a0,0xb
80003610:	50350513          	addi	a0,a0,1283 # b503 <offset+0xb497>
80003614:	aaa50593          	addi	a1,a0,-1366
80003618:	6eb1a023          	sw	a1,1760(gp)
8000361c:	0000b237          	lui	tp,0xb
80003620:	fad20213          	addi	tp,tp,-83 # afad <offset+0xaf41>
80003624:	26b214e3          	bne	tp,a1,8000408c <bad_trap>

80003628 <inst_463>:
80003628:	0000b537          	lui	a0,0xb
8000362c:	50350513          	addi	a0,a0,1283 # b503 <offset+0xb497>
80003630:	00550593          	addi	a1,a0,5
80003634:	6eb1a223          	sw	a1,1764(gp)
80003638:	0000b237          	lui	tp,0xb
8000363c:	50820213          	addi	tp,tp,1288 # b508 <offset+0xb49c>
80003640:	24b216e3          	bne	tp,a1,8000408c <bad_trap>

80003644 <inst_464>:
80003644:	0000b537          	lui	a0,0xb
80003648:	50350513          	addi	a0,a0,1283 # b503 <offset+0xb497>
8000364c:	33350593          	addi	a1,a0,819
80003650:	6eb1a423          	sw	a1,1768(gp)
80003654:	0000c237          	lui	tp,0xc
80003658:	83620213          	addi	tp,tp,-1994 # b836 <offset+0xb7ca>
8000365c:	22b218e3          	bne	tp,a1,8000408c <bad_trap>

80003660 <inst_465>:
80003660:	0000b537          	lui	a0,0xb
80003664:	50350513          	addi	a0,a0,1283 # b503 <offset+0xb497>
80003668:	66650593          	addi	a1,a0,1638
8000366c:	6eb1a623          	sw	a1,1772(gp)
80003670:	0000c237          	lui	tp,0xc
80003674:	b6920213          	addi	tp,tp,-1175 # bb69 <offset+0xbafd>
80003678:	20b21ae3          	bne	tp,a1,8000408c <bad_trap>

8000367c <inst_466>:
8000367c:	0000b537          	lui	a0,0xb
80003680:	50350513          	addi	a0,a0,1283 # b503 <offset+0xb497>
80003684:	fd350593          	addi	a1,a0,-45
80003688:	6eb1a823          	sw	a1,1776(gp)
8000368c:	0000b237          	lui	tp,0xb
80003690:	4d620213          	addi	tp,tp,1238 # b4d6 <offset+0xb46a>
80003694:	1eb21ce3          	bne	tp,a1,8000408c <bad_trap>

80003698 <inst_467>:
80003698:	0000b537          	lui	a0,0xb
8000369c:	50350513          	addi	a0,a0,1283 # b503 <offset+0xb497>
800036a0:	02d50593          	addi	a1,a0,45
800036a4:	6eb1aa23          	sw	a1,1780(gp)
800036a8:	0000b237          	lui	tp,0xb
800036ac:	53020213          	addi	tp,tp,1328 # b530 <offset+0xb4c4>
800036b0:	1cb21ee3          	bne	tp,a1,8000408c <bad_trap>

800036b4 <inst_468>:
800036b4:	0000b537          	lui	a0,0xb
800036b8:	50350513          	addi	a0,a0,1283 # b503 <offset+0xb497>
800036bc:	00250593          	addi	a1,a0,2
800036c0:	6eb1ac23          	sw	a1,1784(gp)
800036c4:	0000b237          	lui	tp,0xb
800036c8:	50520213          	addi	tp,tp,1285 # b505 <offset+0xb499>
800036cc:	1cb210e3          	bne	tp,a1,8000408c <bad_trap>

800036d0 <inst_469>:
800036d0:	0000b537          	lui	a0,0xb
800036d4:	50350513          	addi	a0,a0,1283 # b503 <offset+0xb497>
800036d8:	55450593          	addi	a1,a0,1364
800036dc:	6eb1ae23          	sw	a1,1788(gp)
800036e0:	0000c237          	lui	tp,0xc
800036e4:	a5720213          	addi	tp,tp,-1449 # ba57 <offset+0xb9eb>
800036e8:	1ab212e3          	bne	tp,a1,8000408c <bad_trap>

800036ec <inst_470>:
800036ec:	0000b537          	lui	a0,0xb
800036f0:	50350513          	addi	a0,a0,1283 # b503 <offset+0xb497>
800036f4:	00050593          	mv	a1,a0
800036f8:	70b1a023          	sw	a1,1792(gp)
800036fc:	0000b237          	lui	tp,0xb
80003700:	50320213          	addi	tp,tp,1283 # b503 <offset+0xb497>
80003704:	18b214e3          	bne	tp,a1,8000408c <bad_trap>

80003708 <inst_471>:
80003708:	0000b537          	lui	a0,0xb
8000370c:	50350513          	addi	a0,a0,1283 # b503 <offset+0xb497>
80003710:	00450593          	addi	a1,a0,4
80003714:	70b1a223          	sw	a1,1796(gp)
80003718:	0000b237          	lui	tp,0xb
8000371c:	50720213          	addi	tp,tp,1287 # b507 <offset+0xb49b>
80003720:	16b216e3          	bne	tp,a1,8000408c <bad_trap>

80003724 <inst_472>:
80003724:	0000b537          	lui	a0,0xb
80003728:	50350513          	addi	a0,a0,1283 # b503 <offset+0xb497>
8000372c:	33250593          	addi	a1,a0,818
80003730:	70b1a423          	sw	a1,1800(gp)
80003734:	0000c237          	lui	tp,0xc
80003738:	83520213          	addi	tp,tp,-1995 # b835 <offset+0xb7c9>
8000373c:	14b218e3          	bne	tp,a1,8000408c <bad_trap>

80003740 <inst_473>:
80003740:	0000b537          	lui	a0,0xb
80003744:	50350513          	addi	a0,a0,1283 # b503 <offset+0xb497>
80003748:	66550593          	addi	a1,a0,1637
8000374c:	70b1a623          	sw	a1,1804(gp)
80003750:	0000c237          	lui	tp,0xc
80003754:	b6820213          	addi	tp,tp,-1176 # bb68 <offset+0xbafc>
80003758:	12b21ae3          	bne	tp,a1,8000408c <bad_trap>

8000375c <inst_474>:
8000375c:	0000b537          	lui	a0,0xb
80003760:	50350513          	addi	a0,a0,1283 # b503 <offset+0xb497>
80003764:	02c50593          	addi	a1,a0,44
80003768:	70b1a823          	sw	a1,1808(gp)
8000376c:	0000b237          	lui	tp,0xb
80003770:	52f20213          	addi	tp,tp,1327 # b52f <offset+0xb4c3>
80003774:	10b21ce3          	bne	tp,a1,8000408c <bad_trap>

80003778 <inst_475>:
80003778:	0000b537          	lui	a0,0xb
8000377c:	50350513          	addi	a0,a0,1283 # b503 <offset+0xb497>
80003780:	55650593          	addi	a1,a0,1366
80003784:	70b1aa23          	sw	a1,1812(gp)
80003788:	0000c237          	lui	tp,0xc
8000378c:	a5920213          	addi	tp,tp,-1447 # ba59 <offset+0xb9ed>
80003790:	0eb21ee3          	bne	tp,a1,8000408c <bad_trap>

80003794 <inst_476>:
80003794:	0000b537          	lui	a0,0xb
80003798:	50350513          	addi	a0,a0,1283 # b503 <offset+0xb497>
8000379c:	aab50593          	addi	a1,a0,-1365
800037a0:	70b1ac23          	sw	a1,1816(gp)
800037a4:	0000b237          	lui	tp,0xb
800037a8:	fae20213          	addi	tp,tp,-82 # afae <offset+0xaf42>
800037ac:	0eb210e3          	bne	tp,a1,8000408c <bad_trap>

800037b0 <inst_477>:
800037b0:	0000b537          	lui	a0,0xb
800037b4:	50350513          	addi	a0,a0,1283 # b503 <offset+0xb497>
800037b8:	00650593          	addi	a1,a0,6
800037bc:	70b1ae23          	sw	a1,1820(gp)
800037c0:	0000b237          	lui	tp,0xb
800037c4:	50920213          	addi	tp,tp,1289 # b509 <offset+0xb49d>
800037c8:	0cb212e3          	bne	tp,a1,8000408c <bad_trap>

800037cc <inst_478>:
800037cc:	0000b537          	lui	a0,0xb
800037d0:	50350513          	addi	a0,a0,1283 # b503 <offset+0xb497>
800037d4:	33450593          	addi	a1,a0,820
800037d8:	72b1a023          	sw	a1,1824(gp)
800037dc:	0000c237          	lui	tp,0xc
800037e0:	83720213          	addi	tp,tp,-1993 # b837 <offset+0xb7cb>
800037e4:	0ab214e3          	bne	tp,a1,8000408c <bad_trap>

800037e8 <inst_479>:
800037e8:	0000b537          	lui	a0,0xb
800037ec:	50350513          	addi	a0,a0,1283 # b503 <offset+0xb497>
800037f0:	66750593          	addi	a1,a0,1639
800037f4:	72b1a223          	sw	a1,1828(gp)
800037f8:	0000c237          	lui	tp,0xc
800037fc:	b6a20213          	addi	tp,tp,-1174 # bb6a <offset+0xbafe>
80003800:	08b216e3          	bne	tp,a1,8000408c <bad_trap>

80003804 <inst_480>:
80003804:	0000b537          	lui	a0,0xb
80003808:	50350513          	addi	a0,a0,1283 # b503 <offset+0xb497>
8000380c:	fd450593          	addi	a1,a0,-44
80003810:	72b1a423          	sw	a1,1832(gp)
80003814:	0000b237          	lui	tp,0xb
80003818:	4d720213          	addi	tp,tp,1239 # b4d7 <offset+0xb46b>
8000381c:	06b218e3          	bne	tp,a1,8000408c <bad_trap>

80003820 <inst_481>:
80003820:	0000b537          	lui	a0,0xb
80003824:	50350513          	addi	a0,a0,1283 # b503 <offset+0xb497>
80003828:	02e50593          	addi	a1,a0,46
8000382c:	72b1a623          	sw	a1,1836(gp)
80003830:	0000b237          	lui	tp,0xb
80003834:	53120213          	addi	tp,tp,1329 # b531 <offset+0xb4c5>
80003838:	04b21ae3          	bne	tp,a1,8000408c <bad_trap>

8000383c <inst_482>:
8000383c:	55555537          	lui	a0,0x55555
80003840:	55650513          	addi	a0,a0,1366 # 55555556 <absimm+0x10263027>
80003844:	00350593          	addi	a1,a0,3
80003848:	72b1a823          	sw	a1,1840(gp)
8000384c:	55555237          	lui	tp,0x55555
80003850:	55920213          	addi	tp,tp,1369 # 55555559 <absimm+0x1026302a>
80003854:	02b21ce3          	bne	tp,a1,8000408c <bad_trap>

80003858 <inst_483>:
80003858:	55555537          	lui	a0,0x55555
8000385c:	55650513          	addi	a0,a0,1366 # 55555556 <absimm+0x10263027>
80003860:	55550593          	addi	a1,a0,1365
80003864:	72b1aa23          	sw	a1,1844(gp)
80003868:	55556237          	lui	tp,0x55556
8000386c:	aab20213          	addi	tp,tp,-1365 # 55555aab <absimm+0x1026357c>
80003870:	00b21ee3          	bne	tp,a1,8000408c <bad_trap>

80003874 <inst_484>:
80003874:	55555537          	lui	a0,0x55555
80003878:	55650513          	addi	a0,a0,1366 # 55555556 <absimm+0x10263027>
8000387c:	aaa50593          	addi	a1,a0,-1366
80003880:	72b1ac23          	sw	a1,1848(gp)
80003884:	55555237          	lui	tp,0x55555
80003888:	00b212e3          	bne	tp,a1,8000408c <bad_trap>

8000388c <inst_485>:
8000388c:	55555537          	lui	a0,0x55555
80003890:	55650513          	addi	a0,a0,1366 # 55555556 <absimm+0x10263027>
80003894:	00550593          	addi	a1,a0,5
80003898:	72b1ae23          	sw	a1,1852(gp)
8000389c:	55555237          	lui	tp,0x55555
800038a0:	55b20213          	addi	tp,tp,1371 # 5555555b <absimm+0x1026302c>
800038a4:	7eb21463          	bne	tp,a1,8000408c <bad_trap>

800038a8 <inst_486>:
800038a8:	55555537          	lui	a0,0x55555
800038ac:	55650513          	addi	a0,a0,1366 # 55555556 <absimm+0x10263027>
800038b0:	33350593          	addi	a1,a0,819
800038b4:	74b1a023          	sw	a1,1856(gp)
800038b8:	55556237          	lui	tp,0x55556
800038bc:	88920213          	addi	tp,tp,-1911 # 55555889 <absimm+0x1026335a>
800038c0:	7cb21663          	bne	tp,a1,8000408c <bad_trap>

800038c4 <inst_487>:
800038c4:	55555537          	lui	a0,0x55555
800038c8:	55650513          	addi	a0,a0,1366 # 55555556 <absimm+0x10263027>
800038cc:	66650593          	addi	a1,a0,1638
800038d0:	74b1a223          	sw	a1,1860(gp)
800038d4:	55556237          	lui	tp,0x55556
800038d8:	bbc20213          	addi	tp,tp,-1092 # 55555bbc <absimm+0x1026368d>
800038dc:	7ab21863          	bne	tp,a1,8000408c <bad_trap>

800038e0 <inst_488>:
800038e0:	55555537          	lui	a0,0x55555
800038e4:	55650513          	addi	a0,a0,1366 # 55555556 <absimm+0x10263027>
800038e8:	fd350593          	addi	a1,a0,-45
800038ec:	74b1a423          	sw	a1,1864(gp)
800038f0:	55555237          	lui	tp,0x55555
800038f4:	52920213          	addi	tp,tp,1321 # 55555529 <absimm+0x10262ffa>
800038f8:	78b21a63          	bne	tp,a1,8000408c <bad_trap>

800038fc <inst_489>:
800038fc:	55555537          	lui	a0,0x55555
80003900:	55650513          	addi	a0,a0,1366 # 55555556 <absimm+0x10263027>
80003904:	02d50593          	addi	a1,a0,45
80003908:	74b1a623          	sw	a1,1868(gp)
8000390c:	55555237          	lui	tp,0x55555
80003910:	58320213          	addi	tp,tp,1411 # 55555583 <absimm+0x10263054>
80003914:	76b21c63          	bne	tp,a1,8000408c <bad_trap>

80003918 <inst_490>:
80003918:	55555537          	lui	a0,0x55555
8000391c:	55650513          	addi	a0,a0,1366 # 55555556 <absimm+0x10263027>
80003920:	00250593          	addi	a1,a0,2
80003924:	74b1a823          	sw	a1,1872(gp)
80003928:	55555237          	lui	tp,0x55555
8000392c:	55820213          	addi	tp,tp,1368 # 55555558 <absimm+0x10263029>
80003930:	74b21e63          	bne	tp,a1,8000408c <bad_trap>

80003934 <inst_491>:
80003934:	55555537          	lui	a0,0x55555
80003938:	55650513          	addi	a0,a0,1366 # 55555556 <absimm+0x10263027>
8000393c:	55450593          	addi	a1,a0,1364
80003940:	74b1aa23          	sw	a1,1876(gp)
80003944:	55556237          	lui	tp,0x55556
80003948:	aaa20213          	addi	tp,tp,-1366 # 55555aaa <absimm+0x1026357b>
8000394c:	74b21063          	bne	tp,a1,8000408c <bad_trap>

80003950 <inst_492>:
80003950:	55555537          	lui	a0,0x55555
80003954:	55650513          	addi	a0,a0,1366 # 55555556 <absimm+0x10263027>
80003958:	00050593          	mv	a1,a0
8000395c:	74b1ac23          	sw	a1,1880(gp)
80003960:	55555237          	lui	tp,0x55555
80003964:	55620213          	addi	tp,tp,1366 # 55555556 <absimm+0x10263027>
80003968:	72b21263          	bne	tp,a1,8000408c <bad_trap>

8000396c <inst_493>:
8000396c:	55555537          	lui	a0,0x55555
80003970:	55650513          	addi	a0,a0,1366 # 55555556 <absimm+0x10263027>
80003974:	00450593          	addi	a1,a0,4
80003978:	74b1ae23          	sw	a1,1884(gp)
8000397c:	55555237          	lui	tp,0x55555
80003980:	55a20213          	addi	tp,tp,1370 # 5555555a <absimm+0x1026302b>
80003984:	70b21463          	bne	tp,a1,8000408c <bad_trap>

80003988 <inst_494>:
80003988:	55555537          	lui	a0,0x55555
8000398c:	55650513          	addi	a0,a0,1366 # 55555556 <absimm+0x10263027>
80003990:	33250593          	addi	a1,a0,818
80003994:	76b1a023          	sw	a1,1888(gp)
80003998:	55556237          	lui	tp,0x55556
8000399c:	88820213          	addi	tp,tp,-1912 # 55555888 <absimm+0x10263359>
800039a0:	6eb21663          	bne	tp,a1,8000408c <bad_trap>

800039a4 <inst_495>:
800039a4:	55555537          	lui	a0,0x55555
800039a8:	55650513          	addi	a0,a0,1366 # 55555556 <absimm+0x10263027>
800039ac:	66550593          	addi	a1,a0,1637
800039b0:	76b1a223          	sw	a1,1892(gp)
800039b4:	55556237          	lui	tp,0x55556
800039b8:	bbb20213          	addi	tp,tp,-1093 # 55555bbb <absimm+0x1026368c>
800039bc:	6cb21863          	bne	tp,a1,8000408c <bad_trap>

800039c0 <inst_496>:
800039c0:	55555537          	lui	a0,0x55555
800039c4:	55650513          	addi	a0,a0,1366 # 55555556 <absimm+0x10263027>
800039c8:	02c50593          	addi	a1,a0,44
800039cc:	76b1a423          	sw	a1,1896(gp)
800039d0:	55555237          	lui	tp,0x55555
800039d4:	58220213          	addi	tp,tp,1410 # 55555582 <absimm+0x10263053>
800039d8:	6ab21a63          	bne	tp,a1,8000408c <bad_trap>

800039dc <inst_497>:
800039dc:	55555537          	lui	a0,0x55555
800039e0:	55650513          	addi	a0,a0,1366 # 55555556 <absimm+0x10263027>
800039e4:	55650593          	addi	a1,a0,1366
800039e8:	76b1a623          	sw	a1,1900(gp)
800039ec:	55556237          	lui	tp,0x55556
800039f0:	aac20213          	addi	tp,tp,-1364 # 55555aac <absimm+0x1026357d>
800039f4:	68b21c63          	bne	tp,a1,8000408c <bad_trap>

800039f8 <inst_498>:
800039f8:	55555537          	lui	a0,0x55555
800039fc:	55650513          	addi	a0,a0,1366 # 55555556 <absimm+0x10263027>
80003a00:	aab50593          	addi	a1,a0,-1365
80003a04:	76b1a823          	sw	a1,1904(gp)
80003a08:	55555237          	lui	tp,0x55555
80003a0c:	00120213          	addi	tp,tp,1 # 55555001 <absimm+0x10262ad2>
80003a10:	66b21e63          	bne	tp,a1,8000408c <bad_trap>

80003a14 <inst_499>:
80003a14:	55555537          	lui	a0,0x55555
80003a18:	55650513          	addi	a0,a0,1366 # 55555556 <absimm+0x10263027>
80003a1c:	00650593          	addi	a1,a0,6
80003a20:	76b1aa23          	sw	a1,1908(gp)
80003a24:	55555237          	lui	tp,0x55555
80003a28:	55c20213          	addi	tp,tp,1372 # 5555555c <absimm+0x1026302d>
80003a2c:	66b21063          	bne	tp,a1,8000408c <bad_trap>

80003a30 <inst_500>:
80003a30:	55555537          	lui	a0,0x55555
80003a34:	55650513          	addi	a0,a0,1366 # 55555556 <absimm+0x10263027>
80003a38:	33450593          	addi	a1,a0,820
80003a3c:	76b1ac23          	sw	a1,1912(gp)
80003a40:	55556237          	lui	tp,0x55556
80003a44:	88a20213          	addi	tp,tp,-1910 # 5555588a <absimm+0x1026335b>
80003a48:	64b21263          	bne	tp,a1,8000408c <bad_trap>

80003a4c <inst_501>:
80003a4c:	55555537          	lui	a0,0x55555
80003a50:	55650513          	addi	a0,a0,1366 # 55555556 <absimm+0x10263027>
80003a54:	66750593          	addi	a1,a0,1639
80003a58:	76b1ae23          	sw	a1,1916(gp)
80003a5c:	55556237          	lui	tp,0x55556
80003a60:	bbd20213          	addi	tp,tp,-1091 # 55555bbd <absimm+0x1026368e>
80003a64:	62b21463          	bne	tp,a1,8000408c <bad_trap>

80003a68 <inst_502>:
80003a68:	55555537          	lui	a0,0x55555
80003a6c:	55650513          	addi	a0,a0,1366 # 55555556 <absimm+0x10263027>
80003a70:	fd450593          	addi	a1,a0,-44
80003a74:	78b1a023          	sw	a1,1920(gp)
80003a78:	55555237          	lui	tp,0x55555
80003a7c:	52a20213          	addi	tp,tp,1322 # 5555552a <absimm+0x10262ffb>
80003a80:	60b21663          	bne	tp,a1,8000408c <bad_trap>

80003a84 <inst_503>:
80003a84:	55555537          	lui	a0,0x55555
80003a88:	55650513          	addi	a0,a0,1366 # 55555556 <absimm+0x10263027>
80003a8c:	02e50593          	addi	a1,a0,46
80003a90:	78b1a223          	sw	a1,1924(gp)
80003a94:	55555237          	lui	tp,0x55555
80003a98:	58420213          	addi	tp,tp,1412 # 55555584 <absimm+0x10263055>
80003a9c:	5eb21863          	bne	tp,a1,8000408c <bad_trap>

80003aa0 <inst_504>:
80003aa0:	aaaab537          	lui	a0,0xaaaab
80003aa4:	aab50513          	addi	a0,a0,-1365 # aaaaaaab <imm12+0xaaaaafdb>
80003aa8:	00350593          	addi	a1,a0,3
80003aac:	78b1a423          	sw	a1,1928(gp)
80003ab0:	aaaab237          	lui	tp,0xaaaab
80003ab4:	aae20213          	addi	tp,tp,-1362 # aaaaaaae <imm12+0xaaaaafde>
80003ab8:	5cb21a63          	bne	tp,a1,8000408c <bad_trap>

80003abc <inst_505>:
80003abc:	aaaab537          	lui	a0,0xaaaab
80003ac0:	aab50513          	addi	a0,a0,-1365 # aaaaaaab <imm12+0xaaaaafdb>
80003ac4:	55550593          	addi	a1,a0,1365
80003ac8:	78b1a623          	sw	a1,1932(gp)
80003acc:	aaaab237          	lui	tp,0xaaaab
80003ad0:	5ab21e63          	bne	tp,a1,8000408c <bad_trap>

80003ad4 <inst_506>:
80003ad4:	aaaab537          	lui	a0,0xaaaab
80003ad8:	aab50513          	addi	a0,a0,-1365 # aaaaaaab <imm12+0xaaaaafdb>
80003adc:	aaa50593          	addi	a1,a0,-1366
80003ae0:	78b1a823          	sw	a1,1936(gp)
80003ae4:	aaaaa237          	lui	tp,0xaaaaa
80003ae8:	55520213          	addi	tp,tp,1365 # aaaaa555 <imm12+0xaaaaaa85>
80003aec:	5ab21063          	bne	tp,a1,8000408c <bad_trap>

80003af0 <inst_507>:
80003af0:	aaaab537          	lui	a0,0xaaaab
80003af4:	aab50513          	addi	a0,a0,-1365 # aaaaaaab <imm12+0xaaaaafdb>
80003af8:	00550593          	addi	a1,a0,5
80003afc:	78b1aa23          	sw	a1,1940(gp)
80003b00:	aaaab237          	lui	tp,0xaaaab
80003b04:	ab020213          	addi	tp,tp,-1360 # aaaaaab0 <imm12+0xaaaaafe0>
80003b08:	58b21263          	bne	tp,a1,8000408c <bad_trap>

80003b0c <inst_508>:
80003b0c:	aaaab537          	lui	a0,0xaaaab
80003b10:	aab50513          	addi	a0,a0,-1365 # aaaaaaab <imm12+0xaaaaafdb>
80003b14:	33350593          	addi	a1,a0,819
80003b18:	78b1ac23          	sw	a1,1944(gp)
80003b1c:	aaaab237          	lui	tp,0xaaaab
80003b20:	dde20213          	addi	tp,tp,-546 # aaaaadde <imm12+0xaaaab30e>
80003b24:	56b21463          	bne	tp,a1,8000408c <bad_trap>

80003b28 <inst_509>:
80003b28:	aaaab537          	lui	a0,0xaaaab
80003b2c:	aab50513          	addi	a0,a0,-1365 # aaaaaaab <imm12+0xaaaaafdb>
80003b30:	66650593          	addi	a1,a0,1638
80003b34:	78b1ae23          	sw	a1,1948(gp)
80003b38:	aaaab237          	lui	tp,0xaaaab
80003b3c:	11120213          	addi	tp,tp,273 # aaaab111 <imm12+0xaaaab641>
80003b40:	54b21663          	bne	tp,a1,8000408c <bad_trap>

80003b44 <inst_510>:
80003b44:	aaaab537          	lui	a0,0xaaaab
80003b48:	aab50513          	addi	a0,a0,-1365 # aaaaaaab <imm12+0xaaaaafdb>
80003b4c:	fd350593          	addi	a1,a0,-45
80003b50:	7ab1a023          	sw	a1,1952(gp)
80003b54:	aaaab237          	lui	tp,0xaaaab
80003b58:	a7e20213          	addi	tp,tp,-1410 # aaaaaa7e <imm12+0xaaaaafae>
80003b5c:	52b21863          	bne	tp,a1,8000408c <bad_trap>

80003b60 <inst_511>:
80003b60:	aaaab537          	lui	a0,0xaaaab
80003b64:	aab50513          	addi	a0,a0,-1365 # aaaaaaab <imm12+0xaaaaafdb>
80003b68:	02d50593          	addi	a1,a0,45
80003b6c:	7ab1a223          	sw	a1,1956(gp)
80003b70:	aaaab237          	lui	tp,0xaaaab
80003b74:	ad820213          	addi	tp,tp,-1320 # aaaaaad8 <imm12+0xaaaab008>
80003b78:	50b21a63          	bne	tp,a1,8000408c <bad_trap>

80003b7c <inst_512>:
80003b7c:	aaaab537          	lui	a0,0xaaaab
80003b80:	aab50513          	addi	a0,a0,-1365 # aaaaaaab <imm12+0xaaaaafdb>
80003b84:	00250593          	addi	a1,a0,2
80003b88:	7ab1a423          	sw	a1,1960(gp)
80003b8c:	aaaab237          	lui	tp,0xaaaab
80003b90:	aad20213          	addi	tp,tp,-1363 # aaaaaaad <imm12+0xaaaaafdd>
80003b94:	4eb21c63          	bne	tp,a1,8000408c <bad_trap>

80003b98 <inst_513>:
80003b98:	aaaab537          	lui	a0,0xaaaab
80003b9c:	aab50513          	addi	a0,a0,-1365 # aaaaaaab <imm12+0xaaaaafdb>
80003ba0:	55450593          	addi	a1,a0,1364
80003ba4:	7ab1a623          	sw	a1,1964(gp)
80003ba8:	aaaab237          	lui	tp,0xaaaab
80003bac:	fff20213          	addi	tp,tp,-1 # aaaaafff <imm12+0xaaaab52f>
80003bb0:	4cb21e63          	bne	tp,a1,8000408c <bad_trap>

80003bb4 <inst_514>:
80003bb4:	aaaab537          	lui	a0,0xaaaab
80003bb8:	aab50513          	addi	a0,a0,-1365 # aaaaaaab <imm12+0xaaaaafdb>
80003bbc:	00050593          	mv	a1,a0
80003bc0:	7ab1a823          	sw	a1,1968(gp)
80003bc4:	aaaab237          	lui	tp,0xaaaab
80003bc8:	aab20213          	addi	tp,tp,-1365 # aaaaaaab <imm12+0xaaaaafdb>
80003bcc:	4cb21063          	bne	tp,a1,8000408c <bad_trap>

80003bd0 <inst_515>:
80003bd0:	aaaab537          	lui	a0,0xaaaab
80003bd4:	aab50513          	addi	a0,a0,-1365 # aaaaaaab <imm12+0xaaaaafdb>
80003bd8:	00450593          	addi	a1,a0,4
80003bdc:	7ab1aa23          	sw	a1,1972(gp)
80003be0:	aaaab237          	lui	tp,0xaaaab
80003be4:	aaf20213          	addi	tp,tp,-1361 # aaaaaaaf <imm12+0xaaaaafdf>
80003be8:	4ab21263          	bne	tp,a1,8000408c <bad_trap>

80003bec <inst_516>:
80003bec:	aaaab537          	lui	a0,0xaaaab
80003bf0:	aab50513          	addi	a0,a0,-1365 # aaaaaaab <imm12+0xaaaaafdb>
80003bf4:	33250593          	addi	a1,a0,818
80003bf8:	7ab1ac23          	sw	a1,1976(gp)
80003bfc:	aaaab237          	lui	tp,0xaaaab
80003c00:	ddd20213          	addi	tp,tp,-547 # aaaaaddd <imm12+0xaaaab30d>
80003c04:	48b21463          	bne	tp,a1,8000408c <bad_trap>

80003c08 <inst_517>:
80003c08:	aaaab537          	lui	a0,0xaaaab
80003c0c:	aab50513          	addi	a0,a0,-1365 # aaaaaaab <imm12+0xaaaaafdb>
80003c10:	66550593          	addi	a1,a0,1637
80003c14:	7ab1ae23          	sw	a1,1980(gp)
80003c18:	aaaab237          	lui	tp,0xaaaab
80003c1c:	11020213          	addi	tp,tp,272 # aaaab110 <imm12+0xaaaab640>
80003c20:	46b21663          	bne	tp,a1,8000408c <bad_trap>

80003c24 <inst_518>:
80003c24:	aaaab537          	lui	a0,0xaaaab
80003c28:	aab50513          	addi	a0,a0,-1365 # aaaaaaab <imm12+0xaaaaafdb>
80003c2c:	02c50593          	addi	a1,a0,44
80003c30:	7cb1a023          	sw	a1,1984(gp)
80003c34:	aaaab237          	lui	tp,0xaaaab
80003c38:	ad720213          	addi	tp,tp,-1321 # aaaaaad7 <imm12+0xaaaab007>
80003c3c:	44b21863          	bne	tp,a1,8000408c <bad_trap>

80003c40 <inst_519>:
80003c40:	aaaab537          	lui	a0,0xaaaab
80003c44:	aab50513          	addi	a0,a0,-1365 # aaaaaaab <imm12+0xaaaaafdb>
80003c48:	55650593          	addi	a1,a0,1366
80003c4c:	7cb1a223          	sw	a1,1988(gp)
80003c50:	aaaab237          	lui	tp,0xaaaab
80003c54:	00120213          	addi	tp,tp,1 # aaaab001 <imm12+0xaaaab531>
80003c58:	42b21a63          	bne	tp,a1,8000408c <bad_trap>

80003c5c <inst_520>:
80003c5c:	aaaab537          	lui	a0,0xaaaab
80003c60:	aab50513          	addi	a0,a0,-1365 # aaaaaaab <imm12+0xaaaaafdb>
80003c64:	aab50593          	addi	a1,a0,-1365
80003c68:	7cb1a423          	sw	a1,1992(gp)
80003c6c:	aaaaa237          	lui	tp,0xaaaaa
80003c70:	55620213          	addi	tp,tp,1366 # aaaaa556 <imm12+0xaaaaaa86>
80003c74:	40b21c63          	bne	tp,a1,8000408c <bad_trap>

80003c78 <inst_521>:
80003c78:	aaaab537          	lui	a0,0xaaaab
80003c7c:	aab50513          	addi	a0,a0,-1365 # aaaaaaab <imm12+0xaaaaafdb>
80003c80:	00650593          	addi	a1,a0,6
80003c84:	7cb1a623          	sw	a1,1996(gp)
80003c88:	aaaab237          	lui	tp,0xaaaab
80003c8c:	ab120213          	addi	tp,tp,-1359 # aaaaaab1 <imm12+0xaaaaafe1>
80003c90:	3eb21e63          	bne	tp,a1,8000408c <bad_trap>

80003c94 <inst_522>:
80003c94:	aaaab537          	lui	a0,0xaaaab
80003c98:	aab50513          	addi	a0,a0,-1365 # aaaaaaab <imm12+0xaaaaafdb>
80003c9c:	33450593          	addi	a1,a0,820
80003ca0:	7cb1a823          	sw	a1,2000(gp)
80003ca4:	aaaab237          	lui	tp,0xaaaab
80003ca8:	ddf20213          	addi	tp,tp,-545 # aaaaaddf <imm12+0xaaaab30f>
80003cac:	3eb21063          	bne	tp,a1,8000408c <bad_trap>

80003cb0 <inst_523>:
80003cb0:	aaaab537          	lui	a0,0xaaaab
80003cb4:	aab50513          	addi	a0,a0,-1365 # aaaaaaab <imm12+0xaaaaafdb>
80003cb8:	66750593          	addi	a1,a0,1639
80003cbc:	7cb1aa23          	sw	a1,2004(gp)
80003cc0:	aaaab237          	lui	tp,0xaaaab
80003cc4:	11220213          	addi	tp,tp,274 # aaaab112 <imm12+0xaaaab642>
80003cc8:	3cb21263          	bne	tp,a1,8000408c <bad_trap>

80003ccc <inst_524>:
80003ccc:	aaaab537          	lui	a0,0xaaaab
80003cd0:	aab50513          	addi	a0,a0,-1365 # aaaaaaab <imm12+0xaaaaafdb>
80003cd4:	fd450593          	addi	a1,a0,-44
80003cd8:	7cb1ac23          	sw	a1,2008(gp)
80003cdc:	aaaab237          	lui	tp,0xaaaab
80003ce0:	a7f20213          	addi	tp,tp,-1409 # aaaaaa7f <imm12+0xaaaaafaf>
80003ce4:	3ab21463          	bne	tp,a1,8000408c <bad_trap>

80003ce8 <inst_525>:
80003ce8:	aaaab537          	lui	a0,0xaaaab
80003cec:	aab50513          	addi	a0,a0,-1365 # aaaaaaab <imm12+0xaaaaafdb>
80003cf0:	02e50593          	addi	a1,a0,46
80003cf4:	7cb1ae23          	sw	a1,2012(gp)
80003cf8:	aaaab237          	lui	tp,0xaaaab
80003cfc:	ad920213          	addi	tp,tp,-1319 # aaaaaad9 <imm12+0xaaaab009>
80003d00:	38b21663          	bne	tp,a1,8000408c <bad_trap>

80003d04 <inst_526>:
80003d04:	00600513          	li	a0,6
80003d08:	00350593          	addi	a1,a0,3
80003d0c:	7eb1a023          	sw	a1,2016(gp)
80003d10:	00900213          	li	tp,9
80003d14:	36b21c63          	bne	tp,a1,8000408c <bad_trap>

80003d18 <inst_527>:
80003d18:	00600513          	li	a0,6
80003d1c:	55550593          	addi	a1,a0,1365
80003d20:	7eb1a223          	sw	a1,2020(gp)
80003d24:	55b00213          	li	tp,1371
80003d28:	36b21263          	bne	tp,a1,8000408c <bad_trap>

80003d2c <inst_528>:
80003d2c:	00600513          	li	a0,6
80003d30:	aaa50593          	addi	a1,a0,-1366
80003d34:	7eb1a423          	sw	a1,2024(gp)
80003d38:	ab000213          	li	tp,-1360
80003d3c:	34b21863          	bne	tp,a1,8000408c <bad_trap>

80003d40 <inst_529>:
80003d40:	00600513          	li	a0,6
80003d44:	00550593          	addi	a1,a0,5
80003d48:	7eb1a623          	sw	a1,2028(gp)
80003d4c:	00b00213          	li	tp,11
80003d50:	32b21e63          	bne	tp,a1,8000408c <bad_trap>

80003d54 <inst_530>:
80003d54:	00600513          	li	a0,6
80003d58:	33350593          	addi	a1,a0,819
80003d5c:	7eb1a823          	sw	a1,2032(gp)
80003d60:	33900213          	li	tp,825
80003d64:	32b21463          	bne	tp,a1,8000408c <bad_trap>

80003d68 <inst_531>:
80003d68:	00600513          	li	a0,6
80003d6c:	66650593          	addi	a1,a0,1638
80003d70:	7eb1aa23          	sw	a1,2036(gp)
80003d74:	66c00213          	li	tp,1644
80003d78:	30b21a63          	bne	tp,a1,8000408c <bad_trap>

80003d7c <inst_532>:
80003d7c:	00600513          	li	a0,6
80003d80:	fd350593          	addi	a1,a0,-45
80003d84:	7eb1ac23          	sw	a1,2040(gp)
80003d88:	fd900213          	li	tp,-39
80003d8c:	30b21063          	bne	tp,a1,8000408c <bad_trap>

80003d90 <inst_533>:
80003d90:	00600513          	li	a0,6
80003d94:	02d50593          	addi	a1,a0,45
80003d98:	7eb1ae23          	sw	a1,2044(gp)
80003d9c:	03300213          	li	tp,51
80003da0:	2eb21663          	bne	tp,a1,8000408c <bad_trap>
80003da4:	00000013          	nop
80003da8:	00000013          	nop
80003dac:	00000013          	nop
80003db0:	00000013          	nop
80003db4:	00000013          	nop
80003db8:	00000013          	nop
80003dbc:	00000013          	nop
80003dc0:	00003197          	auipc	gp,0x3
80003dc4:	a9c18193          	addi	gp,gp,-1380 # 8000685c <signature_x3_1>
80003dc8:	00000013          	nop
80003dcc:	00000013          	nop
80003dd0:	00000013          	nop
80003dd4:	00000013          	nop
80003dd8:	00000013          	nop
80003ddc:	00000013          	nop

80003de0 <inst_534>:
80003de0:	00600513          	li	a0,6
80003de4:	00250593          	addi	a1,a0,2
80003de8:	00b1a023          	sw	a1,0(gp)
80003dec:	00800213          	li	tp,8
80003df0:	28b21e63          	bne	tp,a1,8000408c <bad_trap>

80003df4 <inst_535>:
80003df4:	00600513          	li	a0,6
80003df8:	55450593          	addi	a1,a0,1364
80003dfc:	00b1a223          	sw	a1,4(gp)
80003e00:	55a00213          	li	tp,1370
80003e04:	28b21463          	bne	tp,a1,8000408c <bad_trap>

80003e08 <inst_536>:
80003e08:	00600513          	li	a0,6
80003e0c:	00050593          	mv	a1,a0
80003e10:	00b1a423          	sw	a1,8(gp)
80003e14:	00600213          	li	tp,6
80003e18:	26b21a63          	bne	tp,a1,8000408c <bad_trap>

80003e1c <inst_537>:
80003e1c:	00600513          	li	a0,6
80003e20:	00450593          	addi	a1,a0,4
80003e24:	00b1a623          	sw	a1,12(gp)
80003e28:	00a00213          	li	tp,10
80003e2c:	26b21063          	bne	tp,a1,8000408c <bad_trap>

80003e30 <inst_538>:
80003e30:	00600513          	li	a0,6
80003e34:	33250593          	addi	a1,a0,818
80003e38:	00b1a823          	sw	a1,16(gp)
80003e3c:	33800213          	li	tp,824
80003e40:	24b21663          	bne	tp,a1,8000408c <bad_trap>

80003e44 <inst_539>:
80003e44:	00600513          	li	a0,6
80003e48:	66550593          	addi	a1,a0,1637
80003e4c:	00b1aa23          	sw	a1,20(gp)
80003e50:	66b00213          	li	tp,1643
80003e54:	22b21c63          	bne	tp,a1,8000408c <bad_trap>

80003e58 <inst_540>:
80003e58:	00600513          	li	a0,6
80003e5c:	02c50593          	addi	a1,a0,44
80003e60:	00b1ac23          	sw	a1,24(gp)
80003e64:	03200213          	li	tp,50
80003e68:	22b21263          	bne	tp,a1,8000408c <bad_trap>

80003e6c <inst_541>:
80003e6c:	00600513          	li	a0,6
80003e70:	55650593          	addi	a1,a0,1366
80003e74:	00b1ae23          	sw	a1,28(gp)
80003e78:	55c00213          	li	tp,1372
80003e7c:	20b21863          	bne	tp,a1,8000408c <bad_trap>

80003e80 <inst_542>:
80003e80:	00600513          	li	a0,6
80003e84:	aab50593          	addi	a1,a0,-1365
80003e88:	02b1a023          	sw	a1,32(gp)
80003e8c:	ab100213          	li	tp,-1359
80003e90:	1eb21e63          	bne	tp,a1,8000408c <bad_trap>

80003e94 <inst_543>:
80003e94:	00600513          	li	a0,6
80003e98:	00650593          	addi	a1,a0,6
80003e9c:	02b1a223          	sw	a1,36(gp)
80003ea0:	00c00213          	li	tp,12
80003ea4:	1eb21463          	bne	tp,a1,8000408c <bad_trap>

80003ea8 <inst_544>:
80003ea8:	00600513          	li	a0,6
80003eac:	33450593          	addi	a1,a0,820
80003eb0:	02b1a423          	sw	a1,40(gp)
80003eb4:	33a00213          	li	tp,826
80003eb8:	1cb21a63          	bne	tp,a1,8000408c <bad_trap>

80003ebc <inst_545>:
80003ebc:	00600513          	li	a0,6
80003ec0:	66750593          	addi	a1,a0,1639
80003ec4:	02b1a623          	sw	a1,44(gp)
80003ec8:	66d00213          	li	tp,1645
80003ecc:	1cb21063          	bne	tp,a1,8000408c <bad_trap>

80003ed0 <inst_546>:
80003ed0:	00600513          	li	a0,6
80003ed4:	fd450593          	addi	a1,a0,-44
80003ed8:	02b1a823          	sw	a1,48(gp)
80003edc:	fda00213          	li	tp,-38
80003ee0:	1ab21663          	bne	tp,a1,8000408c <bad_trap>

80003ee4 <inst_547>:
80003ee4:	00600513          	li	a0,6
80003ee8:	02e50593          	addi	a1,a0,46
80003eec:	02b1aa23          	sw	a1,52(gp)
80003ef0:	03400213          	li	tp,52
80003ef4:	18b21c63          	bne	tp,a1,8000408c <bad_trap>

80003ef8 <inst_548>:
80003ef8:	33333537          	lui	a0,0x33333
80003efc:	33450513          	addi	a0,a0,820 # 33333334 <offset+0x333332c8>
80003f00:	00350593          	addi	a1,a0,3
80003f04:	02b1ac23          	sw	a1,56(gp)
80003f08:	33333237          	lui	tp,0x33333
80003f0c:	33720213          	addi	tp,tp,823 # 33333337 <offset+0x333332cb>
80003f10:	16b21e63          	bne	tp,a1,8000408c <bad_trap>

80003f14 <inst_549>:
80003f14:	33333537          	lui	a0,0x33333
80003f18:	33450513          	addi	a0,a0,820 # 33333334 <offset+0x333332c8>
80003f1c:	55550593          	addi	a1,a0,1365
80003f20:	02b1ae23          	sw	a1,60(gp)
80003f24:	33334237          	lui	tp,0x33334
80003f28:	88920213          	addi	tp,tp,-1911 # 33333889 <offset+0x3333381d>
80003f2c:	16b21063          	bne	tp,a1,8000408c <bad_trap>

80003f30 <inst_550>:
80003f30:	33333537          	lui	a0,0x33333
80003f34:	33450513          	addi	a0,a0,820 # 33333334 <offset+0x333332c8>
80003f38:	aaa50593          	addi	a1,a0,-1366
80003f3c:	04b1a023          	sw	a1,64(gp)
80003f40:	33333237          	lui	tp,0x33333
80003f44:	dde20213          	addi	tp,tp,-546 # 33332dde <offset+0x33332d72>
80003f48:	14b21263          	bne	tp,a1,8000408c <bad_trap>

80003f4c <inst_551>:
80003f4c:	33333537          	lui	a0,0x33333
80003f50:	33450513          	addi	a0,a0,820 # 33333334 <offset+0x333332c8>
80003f54:	00550593          	addi	a1,a0,5
80003f58:	04b1a223          	sw	a1,68(gp)
80003f5c:	33333237          	lui	tp,0x33333
80003f60:	33920213          	addi	tp,tp,825 # 33333339 <offset+0x333332cd>
80003f64:	12b21463          	bne	tp,a1,8000408c <bad_trap>

80003f68 <inst_552>:
80003f68:	33333537          	lui	a0,0x33333
80003f6c:	33450513          	addi	a0,a0,820 # 33333334 <offset+0x333332c8>
80003f70:	33350593          	addi	a1,a0,819
80003f74:	04b1a423          	sw	a1,72(gp)
80003f78:	33333237          	lui	tp,0x33333
80003f7c:	66720213          	addi	tp,tp,1639 # 33333667 <offset+0x333335fb>
80003f80:	10b21663          	bne	tp,a1,8000408c <bad_trap>

80003f84 <inst_553>:
80003f84:	33333537          	lui	a0,0x33333
80003f88:	33450513          	addi	a0,a0,820 # 33333334 <offset+0x333332c8>
80003f8c:	66650593          	addi	a1,a0,1638
80003f90:	04b1a623          	sw	a1,76(gp)
80003f94:	33334237          	lui	tp,0x33334
80003f98:	99a20213          	addi	tp,tp,-1638 # 3333399a <offset+0x3333392e>
80003f9c:	0eb21863          	bne	tp,a1,8000408c <bad_trap>

80003fa0 <inst_554>:
80003fa0:	33333537          	lui	a0,0x33333
80003fa4:	33450513          	addi	a0,a0,820 # 33333334 <offset+0x333332c8>
80003fa8:	fd350593          	addi	a1,a0,-45
80003fac:	04b1a823          	sw	a1,80(gp)
80003fb0:	33333237          	lui	tp,0x33333
80003fb4:	30720213          	addi	tp,tp,775 # 33333307 <offset+0x3333329b>
80003fb8:	0cb21a63          	bne	tp,a1,8000408c <bad_trap>

80003fbc <inst_555>:
80003fbc:	33333537          	lui	a0,0x33333
80003fc0:	33450513          	addi	a0,a0,820 # 33333334 <offset+0x333332c8>
80003fc4:	02d50593          	addi	a1,a0,45
80003fc8:	04b1aa23          	sw	a1,84(gp)
80003fcc:	33333237          	lui	tp,0x33333
80003fd0:	36120213          	addi	tp,tp,865 # 33333361 <offset+0x333332f5>
80003fd4:	0ab21c63          	bne	tp,a1,8000408c <bad_trap>

80003fd8 <inst_556>:
80003fd8:	33333537          	lui	a0,0x33333
80003fdc:	33450513          	addi	a0,a0,820 # 33333334 <offset+0x333332c8>
80003fe0:	00250593          	addi	a1,a0,2
80003fe4:	04b1ac23          	sw	a1,88(gp)
80003fe8:	33333237          	lui	tp,0x33333
80003fec:	33620213          	addi	tp,tp,822 # 33333336 <offset+0x333332ca>
80003ff0:	08b21e63          	bne	tp,a1,8000408c <bad_trap>

80003ff4 <inst_557>:
80003ff4:	33333537          	lui	a0,0x33333
80003ff8:	33450513          	addi	a0,a0,820 # 33333334 <offset+0x333332c8>
80003ffc:	55450593          	addi	a1,a0,1364
80004000:	04b1ae23          	sw	a1,92(gp)
80004004:	33334237          	lui	tp,0x33334
80004008:	88820213          	addi	tp,tp,-1912 # 33333888 <offset+0x3333381c>
8000400c:	08b21063          	bne	tp,a1,8000408c <bad_trap>

80004010 <inst_558>:
80004010:	33333537          	lui	a0,0x33333
80004014:	33450513          	addi	a0,a0,820 # 33333334 <offset+0x333332c8>
80004018:	00050593          	mv	a1,a0
8000401c:	06b1a023          	sw	a1,96(gp)
80004020:	33333237          	lui	tp,0x33333
80004024:	33420213          	addi	tp,tp,820 # 33333334 <offset+0x333332c8>
80004028:	06b21263          	bne	tp,a1,8000408c <bad_trap>

8000402c <inst_559>:
8000402c:	33333537          	lui	a0,0x33333
80004030:	33450513          	addi	a0,a0,820 # 33333334 <offset+0x333332c8>
80004034:	00450593          	addi	a1,a0,4
80004038:	06b1a223          	sw	a1,100(gp)
8000403c:	33333237          	lui	tp,0x33333
80004040:	33820213          	addi	tp,tp,824 # 33333338 <offset+0x333332cc>
80004044:	04b21463          	bne	tp,a1,8000408c <bad_trap>

80004048 <inst_560>:
80004048:	ffe00537          	lui	a0,0xffe00
8000404c:	fff50513          	addi	a0,a0,-1 # ffdfffff <imm12+0xffe0052f>
80004050:	04050593          	addi	a1,a0,64
80004054:	06b1a423          	sw	a1,104(gp)
80004058:	ffe00237          	lui	tp,0xffe00
8000405c:	03f20213          	addi	tp,tp,63 # ffe0003f <imm12+0xffe0056f>
80004060:	02b21663          	bne	tp,a1,8000408c <bad_trap>

80004064 <cleanup_epilogs>:
80004064:	0200006f          	j	80004084 <exit_cleanup>

80004068 <abort_tests>:
80004068:	17812483          	lw	s1,376(sp)
8000406c:	18012303          	lw	t1,384(sp)
80004070:	00930333          	add	t1,t1,s1
80004074:	bad0e337          	lui	t1,0xbad0e
80004078:	ad030313          	addi	t1,t1,-1328 # bad0dad0 <imm12+0xbad0e000>
8000407c:	fe64ae23          	sw	t1,-4(s1)
80004080:	0040006f          	j	80004084 <exit_cleanup>

80004084 <exit_cleanup>:
80004084:	00000513          	li	a0,0
80004088:	00c000ef          	jal	ra,80004094 <halt>

8000408c <bad_trap>:
8000408c:	00100513          	li	a0,1
80004090:	004000ef          	jal	ra,80004094 <halt>

80004094 <halt>:
80004094:	0000006f          	j	80004094 <halt>

80004098 <_trm_init>:
80004098:	ff010113          	addi	sp,sp,-16
8000409c:	00000517          	auipc	a0,0x0
800040a0:	01450513          	addi	a0,a0,20 # 800040b0 <_etext>
800040a4:	00112623          	sw	ra,12(sp)
800040a8:	f69fb0ef          	jal	ra,80000010 <main>
800040ac:	0000006f          	j	800040ac <_trm_init+0x14>
