
test/and-riscv32-ni.elf:     file format elf32-littleriscv


Disassembly of section .text:

80000000 <_start>:
80000000:	00000413          	li	s0,0
80000004:	00018117          	auipc	sp,0x18
80000008:	ffc10113          	addi	sp,sp,-4 # 80018000 <_end>
8000000c:	048050ef          	jal	ra,80005054 <_trm_init>

80000010 <main>:
80000010:	010000ef          	jal	ra,80000020 <rvtest_entry_point>
80000014:	00000513          	li	a0,0
80000018:	00008067          	ret
8000001c:	0000                	unimp
	...

80000020 <rvtest_entry_point>:
80000020:	7d5c0837          	lui	a6,0x7d5c0
80000024:	ddb80813          	addi	a6,a6,-549 # 7d5bfddb <absimm+0x382cd8ac>
80000028:	00785893          	srli	a7,a6,0x7
8000002c:	01985793          	srli	a5,a6,0x19
80000030:	00f8e8b3          	or	a7,a7,a5
80000034:	0078d913          	srli	s2,a7,0x7
80000038:	0198d793          	srli	a5,a7,0x19
8000003c:	00f96933          	or	s2,s2,a5
80000040:	00795993          	srli	s3,s2,0x7
80000044:	01995793          	srli	a5,s2,0x19
80000048:	00f9e9b3          	or	s3,s3,a5
8000004c:	0079da13          	srli	s4,s3,0x7
80000050:	0199d793          	srli	a5,s3,0x19
80000054:	00fa6a33          	or	s4,s4,a5
80000058:	007a5a93          	srli	s5,s4,0x7
8000005c:	019a5793          	srli	a5,s4,0x19
80000060:	00faeab3          	or	s5,s5,a5
80000064:	007adb13          	srli	s6,s5,0x7
80000068:	019ad793          	srli	a5,s5,0x19
8000006c:	00fb6b33          	or	s6,s6,a5
80000070:	007b5b93          	srli	s7,s6,0x7
80000074:	019b5793          	srli	a5,s6,0x19
80000078:	00fbebb3          	or	s7,s7,a5
8000007c:	007bdc13          	srli	s8,s7,0x7
80000080:	019bd793          	srli	a5,s7,0x19
80000084:	00fc6c33          	or	s8,s8,a5
80000088:	007c5c93          	srli	s9,s8,0x7
8000008c:	019c5793          	srli	a5,s8,0x19
80000090:	00fcecb3          	or	s9,s9,a5
80000094:	007cdd13          	srli	s10,s9,0x7
80000098:	019cd793          	srli	a5,s9,0x19
8000009c:	00fd6d33          	or	s10,s10,a5
800000a0:	007d5d93          	srli	s11,s10,0x7
800000a4:	019d5793          	srli	a5,s10,0x19
800000a8:	00fdedb3          	or	s11,s11,a5
800000ac:	007dde13          	srli	t3,s11,0x7
800000b0:	019dd793          	srli	a5,s11,0x19
800000b4:	00fe6e33          	or	t3,t3,a5
800000b8:	007e5e93          	srli	t4,t3,0x7
800000bc:	019e5793          	srli	a5,t3,0x19
800000c0:	00feeeb3          	or	t4,t4,a5
800000c4:	007edf13          	srli	t5,t4,0x7
800000c8:	019ed793          	srli	a5,t4,0x19
800000cc:	00ff6f33          	or	t5,t5,a5
800000d0:	feedc0b7          	lui	ra,0xfeedc
800000d4:	ead08093          	addi	ra,ra,-339 # feedbead <imm12+0xfeedc3dd>
800000d8:	0070d113          	srli	sp,ra,0x7
800000dc:	0190d793          	srli	a5,ra,0x19
800000e0:	00f16133          	or	sp,sp,a5
800000e4:	00715193          	srli	gp,sp,0x7
800000e8:	01915793          	srli	a5,sp,0x19
800000ec:	00f1e1b3          	or	gp,gp,a5
800000f0:	0071d213          	srli	tp,gp,0x7
800000f4:	0191d793          	srli	a5,gp,0x19
800000f8:	00f26233          	or	tp,tp,a5
800000fc:	00725293          	srli	t0,tp,0x7
80000100:	01925793          	srli	a5,tp,0x19
80000104:	00f2e2b3          	or	t0,t0,a5
80000108:	0072d313          	srli	t1,t0,0x7
8000010c:	0192d793          	srli	a5,t0,0x19
80000110:	00f36333          	or	t1,t1,a5
80000114:	00735393          	srli	t2,t1,0x7
80000118:	01935793          	srli	a5,t1,0x19
8000011c:	00f3e3b3          	or	t2,t2,a5
80000120:	0073d413          	srli	s0,t2,0x7
80000124:	0193d793          	srli	a5,t2,0x19
80000128:	00f46433          	or	s0,s0,a5
8000012c:	00745493          	srli	s1,s0,0x7
80000130:	01945793          	srli	a5,s0,0x19
80000134:	00f4e4b3          	or	s1,s1,a5
80000138:	0074d513          	srli	a0,s1,0x7
8000013c:	0194d793          	srli	a5,s1,0x19
80000140:	00f56533          	or	a0,a0,a5
80000144:	00755593          	srli	a1,a0,0x7
80000148:	01955793          	srli	a5,a0,0x19
8000014c:	00f5e5b3          	or	a1,a1,a5
80000150:	0075d613          	srli	a2,a1,0x7
80000154:	0195d793          	srli	a5,a1,0x19
80000158:	00f66633          	or	a2,a2,a5
8000015c:	00765693          	srli	a3,a2,0x7
80000160:	01965793          	srli	a5,a2,0x19
80000164:	00f6e6b3          	or	a3,a3,a5

80000168 <rvtest_code_begin>:
80000168:	00000013          	nop
8000016c:	00000013          	nop
80000170:	00000013          	nop
80000174:	00000013          	nop
80000178:	00000013          	nop
8000017c:	00000013          	nop
80000180:	00007317          	auipc	t1,0x7
80000184:	e8430313          	addi	t1,t1,-380 # 80007004 <signature_x6_0>
80000188:	00000013          	nop
8000018c:	00000013          	nop
80000190:	00000013          	nop
80000194:	00000013          	nop
80000198:	00000013          	nop
8000019c:	00000013          	nop

800001a0 <inst_0>:
800001a0:	00004c37          	lui	s8,0x4
800001a4:	00700c93          	li	s9,7
800001a8:	019c7cb3          	and	s9,s8,s9
800001ac:	01932023          	sw	s9,0(t1)
800001b0:	00000413          	li	s0,0
800001b4:	01940463          	beq	s0,s9,800001bc <inst_1>
800001b8:	6810406f          	j	80005038 <bad_trap>

800001bc <inst_1>:
800001bc:	000011b7          	lui	gp,0x1
800001c0:	80018193          	addi	gp,gp,-2048 # 800 <offset+0x72c>
800001c4:	000011b7          	lui	gp,0x1
800001c8:	80018193          	addi	gp,gp,-2048 # 800 <offset+0x72c>
800001cc:	0031f933          	and	s2,gp,gp
800001d0:	01232223          	sw	s2,4(t1)
800001d4:	00001437          	lui	s0,0x1
800001d8:	80040413          	addi	s0,s0,-2048 # 800 <offset+0x72c>
800001dc:	01240463          	beq	s0,s2,800001e4 <inst_2>
800001e0:	6590406f          	j	80005038 <bad_trap>

800001e4 <inst_2>:
800001e4:	ffd00993          	li	s3,-3
800001e8:	ffd00993          	li	s3,-3
800001ec:	0139f9b3          	and	s3,s3,s3
800001f0:	01332423          	sw	s3,8(t1)
800001f4:	ffd00413          	li	s0,-3
800001f8:	01340463          	beq	s0,s3,80000200 <inst_3>
800001fc:	63d0406f          	j	80005038 <bad_trap>

80000200 <inst_3>:
80000200:	fff00293          	li	t0,-1
80000204:	80000737          	lui	a4,0x80000
80000208:	fff70713          	addi	a4,a4,-1 # 7fffffff <imm12+0x8000052f>
8000020c:	00e2f2b3          	and	t0,t0,a4
80000210:	00532623          	sw	t0,12(t1)
80000214:	80000437          	lui	s0,0x80000
80000218:	fff40413          	addi	s0,s0,-1 # 7fffffff <imm12+0x8000052f>
8000021c:	00540463          	beq	s0,t0,80000224 <inst_4>
80000220:	6190406f          	j	80005038 <bad_trap>

80000224 <inst_4>:
80000224:	00500b93          	li	s7,5
80000228:	00500813          	li	a6,5
8000022c:	010bfa33          	and	s4,s7,a6
80000230:	01432823          	sw	s4,16(t1)
80000234:	00500413          	li	s0,5
80000238:	01440463          	beq	s0,s4,80000240 <inst_5>
8000023c:	5fd0406f          	j	80005038 <bad_trap>

80000240 <inst_5>:
80000240:	00200a13          	li	s4,2
80000244:	80000137          	lui	sp,0x80000
80000248:	002a7f33          	and	t5,s4,sp
8000024c:	01e32a23          	sw	t5,20(t1)
80000250:	00000413          	li	s0,0
80000254:	01e40463          	beq	s0,t5,8000025c <inst_6>
80000258:	5e10406f          	j	80005038 <bad_trap>

8000025c <inst_6>:
8000025c:	333333b7          	lui	t2,0x33333
80000260:	33338393          	addi	t2,t2,819 # 33333333 <offset+0x3333325f>
80000264:	00000c13          	li	s8,0
80000268:	0183f6b3          	and	a3,t2,s8
8000026c:	00d32c23          	sw	a3,24(t1)
80000270:	00000413          	li	s0,0
80000274:	00d40463          	beq	s0,a3,8000027c <inst_7>
80000278:	5c10406f          	j	80005038 <bad_trap>

8000027c <inst_7>:
8000027c:	c0000f37          	lui	t5,0xc0000
80000280:	ffff0f13          	addi	t5,t5,-1 # bfffffff <imm12+0xc000052f>
80000284:	00100d93          	li	s11,1
80000288:	01bf7533          	and	a0,t5,s11
8000028c:	00a32e23          	sw	a0,28(t1)
80000290:	00100413          	li	s0,1
80000294:	00a40463          	beq	s0,a0,8000029c <inst_8>
80000298:	5a10406f          	j	80005038 <bad_trap>

8000029c <inst_8>:
8000029c:	80000e37          	lui	t3,0x80000
800002a0:	00001937          	lui	s2,0x1
800002a4:	80090913          	addi	s2,s2,-2048 # 800 <offset+0x72c>
800002a8:	012e7b33          	and	s6,t3,s2
800002ac:	03632023          	sw	s6,32(t1)
800002b0:	00000413          	li	s0,0
800002b4:	01640463          	beq	s0,s6,800002bc <inst_9>
800002b8:	5810406f          	j	80005038 <bad_trap>

800002bc <inst_9>:
800002bc:	00000113          	li	sp,0
800002c0:	20000793          	li	a5,512
800002c4:	00f17033          	and	zero,sp,a5
800002c8:	02032223          	sw	zero,36(t1)
800002cc:	00000413          	li	s0,0
800002d0:	00040463          	beqz	s0,800002d8 <inst_10>
800002d4:	5650406f          	j	80005038 <bad_trap>

800002d8 <inst_10>:
800002d8:	80000cb7          	lui	s9,0x80000
800002dc:	fffc8c93          	addi	s9,s9,-1 # 7fffffff <imm12+0x8000052f>
800002e0:	55555d37          	lui	s10,0x55555
800002e4:	555d0d13          	addi	s10,s10,1365 # 55555555 <absimm+0x10263026>
800002e8:	01acf633          	and	a2,s9,s10
800002ec:	02c32423          	sw	a2,40(t1)
800002f0:	55555437          	lui	s0,0x55555
800002f4:	55540413          	addi	s0,s0,1365 # 55555555 <absimm+0x10263026>
800002f8:	00c40463          	beq	s0,a2,80000300 <inst_11>
800002fc:	53d0406f          	j	80005038 <bad_trap>

80000300 <inst_11>:
80000300:	00100093          	li	ra,1
80000304:	55555fb7          	lui	t6,0x55555
80000308:	554f8f93          	addi	t6,t6,1364 # 55555554 <absimm+0x10263025>
8000030c:	01f0f133          	and	sp,ra,t6
80000310:	02232623          	sw	sp,44(t1)
80000314:	00000413          	li	s0,0
80000318:	00240463          	beq	s0,sp,80000320 <inst_12>
8000031c:	51d0406f          	j	80005038 <bad_trap>

80000320 <inst_12>:
80000320:	00040db7          	lui	s11,0x40
80000324:	00200593          	li	a1,2
80000328:	00bdf733          	and	a4,s11,a1
8000032c:	02e32823          	sw	a4,48(t1)
80000330:	00000413          	li	s0,0
80000334:	00e40463          	beq	s0,a4,8000033c <inst_13>
80000338:	5010406f          	j	80005038 <bad_trap>

8000033c <inst_13>:
8000033c:	fffe0fb7          	lui	t6,0xfffe0
80000340:	ffff8f93          	addi	t6,t6,-1 # fffdffff <imm12+0xfffe052f>
80000344:	00400b93          	li	s7,4
80000348:	017ff233          	and	tp,t6,s7
8000034c:	02432a23          	sw	tp,52(t1)
80000350:	00400413          	li	s0,4
80000354:	00440463          	beq	s0,tp,8000035c <inst_14>
80000358:	4e10406f          	j	80005038 <bad_trap>

8000035c <inst_14>:
8000035c:	aaaabab7          	lui	s5,0xaaaab
80000360:	aaba8a93          	addi	s5,s5,-1365 # aaaaaaab <imm12+0xaaaaafdb>
80000364:	00800493          	li	s1,8
80000368:	009afdb3          	and	s11,s5,s1
8000036c:	03b32c23          	sw	s11,56(t1)
80000370:	00800413          	li	s0,8
80000374:	01b40463          	beq	s0,s11,8000037c <inst_15>
80000378:	4c10406f          	j	80005038 <bad_trap>

8000037c <inst_15>:
8000037c:	40000d13          	li	s10,1024
80000380:	01000393          	li	t2,16
80000384:	007d7bb3          	and	s7,s10,t2
80000388:	03732e23          	sw	s7,60(t1)
8000038c:	00000993          	li	s3,0
80000390:	01798463          	beq	s3,s7,80000398 <inst_16>
80000394:	4a50406f          	j	80005038 <bad_trap>

80000398 <inst_16>:
80000398:	ff800493          	li	s1,-8
8000039c:	02000a13          	li	s4,32
800003a0:	0144fc33          	and	s8,s1,s4
800003a4:	05832023          	sw	s8,64(t1)
800003a8:	02000993          	li	s3,32
800003ac:	01898463          	beq	s3,s8,800003b4 <inst_17>
800003b0:	4890406f          	j	80005038 <bad_trap>

800003b4 <inst_17>:
800003b4:	eff00793          	li	a5,-257
800003b8:	04000693          	li	a3,64
800003bc:	00d7fd33          	and	s10,a5,a3
800003c0:	05a32223          	sw	s10,68(t1)
800003c4:	04000993          	li	s3,64
800003c8:	01a98463          	beq	s3,s10,800003d0 <inst_18>
800003cc:	46d0406f          	j	80005038 <bad_trap>

800003d0 <inst_18>:
800003d0:	fe000637          	lui	a2,0xfe000
800003d4:	fff60613          	addi	a2,a2,-1 # fdffffff <imm12+0xfe00052f>
800003d8:	08000213          	li	tp,128
800003dc:	004678b3          	and	a7,a2,tp
800003e0:	05132423          	sw	a7,72(t1)
800003e4:	08000993          	li	s3,128
800003e8:	01198463          	beq	s3,a7,800003f0 <inst_18+0x20>
800003ec:	44d0406f          	j	80005038 <bad_trap>
800003f0:	00000013          	nop
800003f4:	00000013          	nop
800003f8:	00000013          	nop
800003fc:	00000013          	nop
80000400:	00007117          	auipc	sp,0x7
80000404:	c5010113          	addi	sp,sp,-944 # 80007050 <signature_x2_0>
80000408:	00000013          	nop
8000040c:	00000013          	nop
80000410:	00000013          	nop
80000414:	00000013          	nop
80000418:	00000013          	nop
8000041c:	00000013          	nop

80000420 <inst_19>:
80000420:	66666237          	lui	tp,0x66666
80000424:	66520213          	addi	tp,tp,1637 # 66666665 <absimm+0x21374136>
80000428:	10000893          	li	a7,256
8000042c:	01127433          	and	s0,tp,a7
80000430:	00812023          	sw	s0,0(sp)
80000434:	00000993          	li	s3,0
80000438:	00898463          	beq	s3,s0,80000440 <inst_20>
8000043c:	3fd0406f          	j	80005038 <bad_trap>

80000440 <inst_20>:
80000440:	f7f00693          	li	a3,-129
80000444:	40000b13          	li	s6,1024
80000448:	0166f0b3          	and	ra,a3,s6
8000044c:	00112223          	sw	ra,4(sp)
80000450:	40000993          	li	s3,1024
80000454:	00198463          	beq	s3,ra,8000045c <inst_21>
80000458:	3e10406f          	j	80005038 <bad_trap>

8000045c <inst_21>:
8000045c:	00400413          	li	s0,4
80000460:	00001637          	lui	a2,0x1
80000464:	00c473b3          	and	t2,s0,a2
80000468:	00712423          	sw	t2,8(sp)
8000046c:	00000993          	li	s3,0
80000470:	00798463          	beq	s3,t2,80000478 <inst_22>
80000474:	3c50406f          	j	80005038 <bad_trap>

80000478 <inst_22>:
80000478:	ffff85b7          	lui	a1,0xffff8
8000047c:	fff58593          	addi	a1,a1,-1 # ffff7fff <imm12+0xffff852f>
80000480:	000022b7          	lui	t0,0x2
80000484:	0055fab3          	and	s5,a1,t0
80000488:	01512623          	sw	s5,12(sp)
8000048c:	000029b7          	lui	s3,0x2
80000490:	01598463          	beq	s3,s5,80000498 <inst_23>
80000494:	3a50406f          	j	80005038 <bad_trap>

80000498 <inst_23>:
80000498:	04000713          	li	a4,64
8000049c:	00004ab7          	lui	s5,0x4
800004a0:	01577eb3          	and	t4,a4,s5
800004a4:	01d12823          	sw	t4,16(sp)
800004a8:	00000993          	li	s3,0
800004ac:	01d98463          	beq	s3,t4,800004b4 <inst_24>
800004b0:	3890406f          	j	80005038 <bad_trap>

800004b4 <inst_24>:
800004b4:	00500893          	li	a7,5
800004b8:	00008537          	lui	a0,0x8
800004bc:	00a8f5b3          	and	a1,a7,a0
800004c0:	00b12a23          	sw	a1,20(sp)
800004c4:	00000993          	li	s3,0
800004c8:	00b98463          	beq	s3,a1,800004d0 <inst_25>
800004cc:	36d0406f          	j	80005038 <bad_trap>

800004d0 <inst_25>:
800004d0:	00800b37          	lui	s6,0x800
800004d4:	00010337          	lui	t1,0x10
800004d8:	006b71b3          	and	gp,s6,t1
800004dc:	00312c23          	sw	gp,24(sp)
800004e0:	00000993          	li	s3,0
800004e4:	00398463          	beq	s3,gp,800004ec <inst_26>
800004e8:	3510406f          	j	80005038 <bad_trap>

800004ec <inst_26>:
800004ec:	00000013          	nop
800004f0:	00020eb7          	lui	t4,0x20
800004f4:	01d074b3          	and	s1,zero,t4
800004f8:	00912e23          	sw	s1,28(sp)
800004fc:	00000993          	li	s3,0
80000500:	00998463          	beq	s3,s1,80000508 <inst_27>
80000504:	3350406f          	j	80005038 <bad_trap>

80000508 <inst_27>:
80000508:	00500e93          	li	t4,5
8000050c:	00040f37          	lui	t5,0x40
80000510:	01eefe33          	and	t3,t4,t5
80000514:	03c12023          	sw	t3,32(sp)
80000518:	00000993          	li	s3,0
8000051c:	01c98463          	beq	s3,t3,80000524 <inst_28>
80000520:	3190406f          	j	80005038 <bad_trap>

80000524 <inst_28>:
80000524:	00010937          	lui	s2,0x10
80000528:	000800b7          	lui	ra,0x80
8000052c:	00197333          	and	t1,s2,ra
80000530:	02612223          	sw	t1,36(sp)
80000534:	00000993          	li	s3,0
80000538:	00698463          	beq	s3,t1,80000540 <inst_29>
8000053c:	2fd0406f          	j	80005038 <bad_trap>

80000540 <inst_29>:
80000540:	08000337          	lui	t1,0x8000
80000544:	00000013          	nop
80000548:	00037fb3          	and	t6,t1,zero
8000054c:	03f12423          	sw	t6,40(sp)
80000550:	00000993          	li	s3,0
80000554:	01f98463          	beq	s3,t6,8000055c <inst_30>
80000558:	2e10406f          	j	80005038 <bad_trap>

8000055c <inst_30>:
8000055c:	ffd00813          	li	a6,-3
80000560:	00200437          	lui	s0,0x200
80000564:	008877b3          	and	a5,a6,s0
80000568:	02f12623          	sw	a5,44(sp)
8000056c:	002009b7          	lui	s3,0x200
80000570:	00f98463          	beq	s3,a5,80000578 <inst_31>
80000574:	2c50406f          	j	80005038 <bad_trap>

80000578 <inst_31>:
80000578:	00001537          	lui	a0,0x1
8000057c:	80050513          	addi	a0,a0,-2048 # 800 <offset+0x72c>
80000580:	00400e37          	lui	t3,0x400
80000584:	01c57833          	and	a6,a0,t3
80000588:	03012823          	sw	a6,48(sp)
8000058c:	00000093          	li	ra,0
80000590:	01008463          	beq	ra,a6,80000598 <inst_32>
80000594:	2a50406f          	j	80005038 <bad_trap>

80000598 <inst_32>:
80000598:	66666537          	lui	a0,0x66666
8000059c:	66650513          	addi	a0,a0,1638 # 66666666 <absimm+0x21374137>
800005a0:	008005b7          	lui	a1,0x800
800005a4:	00b57633          	and	a2,a0,a1
800005a8:	02c12a23          	sw	a2,52(sp)
800005ac:	00000093          	li	ra,0
800005b0:	00c08463          	beq	ra,a2,800005b8 <inst_33>
800005b4:	2850406f          	j	80005038 <bad_trap>

800005b8 <inst_33>:
800005b8:	33333537          	lui	a0,0x33333
800005bc:	33350513          	addi	a0,a0,819 # 33333333 <offset+0x3333325f>
800005c0:	010005b7          	lui	a1,0x1000
800005c4:	00b57633          	and	a2,a0,a1
800005c8:	02c12c23          	sw	a2,56(sp)
800005cc:	010000b7          	lui	ra,0x1000
800005d0:	00c08463          	beq	ra,a2,800005d8 <inst_34>
800005d4:	2650406f          	j	80005038 <bad_trap>

800005d8 <inst_34>:
800005d8:	55555537          	lui	a0,0x55555
800005dc:	55550513          	addi	a0,a0,1365 # 55555555 <absimm+0x10263026>
800005e0:	020005b7          	lui	a1,0x2000
800005e4:	00b57633          	and	a2,a0,a1
800005e8:	02c12e23          	sw	a2,60(sp)
800005ec:	00000093          	li	ra,0
800005f0:	00c08463          	beq	ra,a2,800005f8 <inst_35>
800005f4:	2450406f          	j	80005038 <bad_trap>

800005f8 <inst_35>:
800005f8:	00020537          	lui	a0,0x20
800005fc:	040005b7          	lui	a1,0x4000
80000600:	00b57633          	and	a2,a0,a1
80000604:	04c12023          	sw	a2,64(sp)
80000608:	00000093          	li	ra,0
8000060c:	00c08463          	beq	ra,a2,80000614 <inst_36>
80000610:	2290406f          	j	80005038 <bad_trap>

80000614 <inst_36>:
80000614:	ffff8537          	lui	a0,0xffff8
80000618:	fff50513          	addi	a0,a0,-1 # ffff7fff <imm12+0xffff852f>
8000061c:	080005b7          	lui	a1,0x8000
80000620:	00b57633          	and	a2,a0,a1
80000624:	04c12223          	sw	a2,68(sp)
80000628:	080000b7          	lui	ra,0x8000
8000062c:	00c08463          	beq	ra,a2,80000634 <inst_37>
80000630:	2090406f          	j	80005038 <bad_trap>

80000634 <inst_37>:
80000634:	66666537          	lui	a0,0x66666
80000638:	66650513          	addi	a0,a0,1638 # 66666666 <absimm+0x21374137>
8000063c:	100005b7          	lui	a1,0x10000
80000640:	00b57633          	and	a2,a0,a1
80000644:	04c12423          	sw	a2,72(sp)
80000648:	00000093          	li	ra,0
8000064c:	00c08463          	beq	ra,a2,80000654 <inst_38>
80000650:	1e90406f          	j	80005038 <bad_trap>

80000654 <inst_38>:
80000654:	ffff0537          	lui	a0,0xffff0
80000658:	fff50513          	addi	a0,a0,-1 # fffeffff <imm12+0xffff052f>
8000065c:	200005b7          	lui	a1,0x20000
80000660:	00b57633          	and	a2,a0,a1
80000664:	04c12623          	sw	a2,76(sp)
80000668:	200000b7          	lui	ra,0x20000
8000066c:	00c08463          	beq	ra,a2,80000674 <inst_39>
80000670:	1c90406f          	j	80005038 <bad_trap>

80000674 <inst_39>:
80000674:	08000537          	lui	a0,0x8000
80000678:	400005b7          	lui	a1,0x40000
8000067c:	00b57633          	and	a2,a0,a1
80000680:	04c12823          	sw	a2,80(sp)
80000684:	00000093          	li	ra,0
80000688:	00c08463          	beq	ra,a2,80000690 <inst_40>
8000068c:	1ad0406f          	j	80005038 <bad_trap>

80000690 <inst_40>:
80000690:	dff00513          	li	a0,-513
80000694:	ffe00593          	li	a1,-2
80000698:	00b57633          	and	a2,a0,a1
8000069c:	04c12a23          	sw	a2,84(sp)
800006a0:	dfe00093          	li	ra,-514
800006a4:	00c08463          	beq	ra,a2,800006ac <inst_41>
800006a8:	1910406f          	j	80005038 <bad_trap>

800006ac <inst_41>:
800006ac:	c0000537          	lui	a0,0xc0000
800006b0:	fff50513          	addi	a0,a0,-1 # bfffffff <imm12+0xc000052f>
800006b4:	ffd00593          	li	a1,-3
800006b8:	00b57633          	and	a2,a0,a1
800006bc:	04c12c23          	sw	a2,88(sp)
800006c0:	c00000b7          	lui	ra,0xc0000
800006c4:	ffd08093          	addi	ra,ra,-3 # bffffffd <imm12+0xc000052d>
800006c8:	00c08463          	beq	ra,a2,800006d0 <inst_42>
800006cc:	16d0406f          	j	80005038 <bad_trap>

800006d0 <inst_42>:
800006d0:	00800537          	lui	a0,0x800
800006d4:	ffb00593          	li	a1,-5
800006d8:	00b57633          	and	a2,a0,a1
800006dc:	04c12e23          	sw	a2,92(sp)
800006e0:	008000b7          	lui	ra,0x800
800006e4:	00c08463          	beq	ra,a2,800006ec <inst_43>
800006e8:	1510406f          	j	80005038 <bad_trap>

800006ec <inst_43>:
800006ec:	dff00513          	li	a0,-513
800006f0:	ff700593          	li	a1,-9
800006f4:	00b57633          	and	a2,a0,a1
800006f8:	06c12023          	sw	a2,96(sp)
800006fc:	df700093          	li	ra,-521
80000700:	00c08463          	beq	ra,a2,80000708 <inst_44>
80000704:	1350406f          	j	80005038 <bad_trap>

80000708 <inst_44>:
80000708:	f8000537          	lui	a0,0xf8000
8000070c:	fff50513          	addi	a0,a0,-1 # f7ffffff <imm12+0xf800052f>
80000710:	fef00593          	li	a1,-17
80000714:	00b57633          	and	a2,a0,a1
80000718:	06c12223          	sw	a2,100(sp)
8000071c:	f80000b7          	lui	ra,0xf8000
80000720:	fef08093          	addi	ra,ra,-17 # f7ffffef <imm12+0xf800051f>
80000724:	00c08463          	beq	ra,a2,8000072c <inst_45>
80000728:	1110406f          	j	80005038 <bad_trap>

8000072c <inst_45>:
8000072c:	00300513          	li	a0,3
80000730:	fdf00593          	li	a1,-33
80000734:	00b57633          	and	a2,a0,a1
80000738:	06c12423          	sw	a2,104(sp)
8000073c:	00300093          	li	ra,3
80000740:	00c08463          	beq	ra,a2,80000748 <inst_46>
80000744:	0f50406f          	j	80005038 <bad_trap>

80000748 <inst_46>:
80000748:	08000513          	li	a0,128
8000074c:	fbf00593          	li	a1,-65
80000750:	00b57633          	and	a2,a0,a1
80000754:	06c12623          	sw	a2,108(sp)
80000758:	08000093          	li	ra,128
8000075c:	00c08463          	beq	ra,a2,80000764 <inst_47>
80000760:	0d90406f          	j	80005038 <bad_trap>

80000764 <inst_47>:
80000764:	ff900513          	li	a0,-7
80000768:	f7f00593          	li	a1,-129
8000076c:	00b57633          	and	a2,a0,a1
80000770:	06c12823          	sw	a2,112(sp)
80000774:	f7900093          	li	ra,-135
80000778:	00c08463          	beq	ra,a2,80000780 <inst_48>
8000077c:	0bd0406f          	j	80005038 <bad_trap>

80000780 <inst_48>:
80000780:	ff700513          	li	a0,-9
80000784:	eff00593          	li	a1,-257
80000788:	00b57633          	and	a2,a0,a1
8000078c:	06c12a23          	sw	a2,116(sp)
80000790:	ef700093          	li	ra,-265
80000794:	00c08463          	beq	ra,a2,8000079c <inst_49>
80000798:	0a10406f          	j	80005038 <bad_trap>

8000079c <inst_49>:
8000079c:	aaaab537          	lui	a0,0xaaaab
800007a0:	aaa50513          	addi	a0,a0,-1366 # aaaaaaaa <imm12+0xaaaaafda>
800007a4:	dff00593          	li	a1,-513
800007a8:	00b57633          	and	a2,a0,a1
800007ac:	06c12c23          	sw	a2,120(sp)
800007b0:	aaaab0b7          	lui	ra,0xaaaab
800007b4:	8aa08093          	addi	ra,ra,-1878 # aaaaa8aa <imm12+0xaaaaadda>
800007b8:	00c08463          	beq	ra,a2,800007c0 <inst_50>
800007bc:	07d0406f          	j	80005038 <bad_trap>

800007c0 <inst_50>:
800007c0:	ff800537          	lui	a0,0xff800
800007c4:	fff50513          	addi	a0,a0,-1 # ff7fffff <imm12+0xff80052f>
800007c8:	bff00593          	li	a1,-1025
800007cc:	00b57633          	and	a2,a0,a1
800007d0:	06c12e23          	sw	a2,124(sp)
800007d4:	ff8000b7          	lui	ra,0xff800
800007d8:	bff08093          	addi	ra,ra,-1025 # ff7ffbff <imm12+0xff80012f>
800007dc:	00c08463          	beq	ra,a2,800007e4 <inst_51>
800007e0:	0590406f          	j	80005038 <bad_trap>

800007e4 <inst_51>:
800007e4:	fff00537          	lui	a0,0xfff00
800007e8:	fff50513          	addi	a0,a0,-1 # ffefffff <imm12+0xfff0052f>
800007ec:	fffff5b7          	lui	a1,0xfffff
800007f0:	7ff58593          	addi	a1,a1,2047 # fffff7ff <imm12+0xfffffd2f>
800007f4:	00b57633          	and	a2,a0,a1
800007f8:	08c12023          	sw	a2,128(sp)
800007fc:	ffeff0b7          	lui	ra,0xffeff
80000800:	7ff08093          	addi	ra,ra,2047 # ffeff7ff <imm12+0xffeffd2f>
80000804:	00c08463          	beq	ra,a2,8000080c <inst_52>
80000808:	0310406f          	j	80005038 <bad_trap>

8000080c <inst_52>:
8000080c:	40000513          	li	a0,1024
80000810:	fffff5b7          	lui	a1,0xfffff
80000814:	fff58593          	addi	a1,a1,-1 # ffffefff <imm12+0xfffff52f>
80000818:	00b57633          	and	a2,a0,a1
8000081c:	08c12223          	sw	a2,132(sp)
80000820:	40000093          	li	ra,1024
80000824:	00c08463          	beq	ra,a2,8000082c <inst_53>
80000828:	0110406f          	j	80005038 <bad_trap>

8000082c <inst_53>:
8000082c:	66666537          	lui	a0,0x66666
80000830:	66650513          	addi	a0,a0,1638 # 66666666 <absimm+0x21374137>
80000834:	ffffe5b7          	lui	a1,0xffffe
80000838:	fff58593          	addi	a1,a1,-1 # ffffdfff <imm12+0xffffe52f>
8000083c:	00b57633          	and	a2,a0,a1
80000840:	08c12423          	sw	a2,136(sp)
80000844:	666640b7          	lui	ra,0x66664
80000848:	66608093          	addi	ra,ra,1638 # 66664666 <absimm+0x21372137>
8000084c:	00c08463          	beq	ra,a2,80000854 <inst_54>
80000850:	7e80406f          	j	80005038 <bad_trap>

80000854 <inst_54>:
80000854:	00700513          	li	a0,7
80000858:	ffffc5b7          	lui	a1,0xffffc
8000085c:	fff58593          	addi	a1,a1,-1 # ffffbfff <imm12+0xffffc52f>
80000860:	00b57633          	and	a2,a0,a1
80000864:	08c12623          	sw	a2,140(sp)
80000868:	00700093          	li	ra,7
8000086c:	00c08463          	beq	ra,a2,80000874 <inst_55>
80000870:	7c80406f          	j	80005038 <bad_trap>

80000874 <inst_55>:
80000874:	02000537          	lui	a0,0x2000
80000878:	ffff85b7          	lui	a1,0xffff8
8000087c:	fff58593          	addi	a1,a1,-1 # ffff7fff <imm12+0xffff852f>
80000880:	00b57633          	and	a2,a0,a1
80000884:	08c12823          	sw	a2,144(sp)
80000888:	020000b7          	lui	ra,0x2000
8000088c:	00c08463          	beq	ra,a2,80000894 <inst_56>
80000890:	7a80406f          	j	80005038 <bad_trap>

80000894 <inst_56>:
80000894:	40000537          	lui	a0,0x40000
80000898:	ffff05b7          	lui	a1,0xffff0
8000089c:	fff58593          	addi	a1,a1,-1 # fffeffff <imm12+0xffff052f>
800008a0:	00b57633          	and	a2,a0,a1
800008a4:	08c12a23          	sw	a2,148(sp)
800008a8:	400000b7          	lui	ra,0x40000
800008ac:	00c08463          	beq	ra,a2,800008b4 <inst_57>
800008b0:	7880406f          	j	80005038 <bad_trap>

800008b4 <inst_57>:
800008b4:	ffb00513          	li	a0,-5
800008b8:	fffe05b7          	lui	a1,0xfffe0
800008bc:	fff58593          	addi	a1,a1,-1 # fffdffff <imm12+0xfffe052f>
800008c0:	00b57633          	and	a2,a0,a1
800008c4:	08c12c23          	sw	a2,152(sp)
800008c8:	fffe00b7          	lui	ra,0xfffe0
800008cc:	ffb08093          	addi	ra,ra,-5 # fffdfffb <imm12+0xfffe052b>
800008d0:	00c08463          	beq	ra,a2,800008d8 <inst_58>
800008d4:	7640406f          	j	80005038 <bad_trap>

800008d8 <inst_58>:
800008d8:	00040537          	lui	a0,0x40
800008dc:	fffc05b7          	lui	a1,0xfffc0
800008e0:	fff58593          	addi	a1,a1,-1 # fffbffff <imm12+0xfffc052f>
800008e4:	00b57633          	and	a2,a0,a1
800008e8:	08c12e23          	sw	a2,156(sp)
800008ec:	00000093          	li	ra,0
800008f0:	00c08463          	beq	ra,a2,800008f8 <inst_59>
800008f4:	7440406f          	j	80005038 <bad_trap>

800008f8 <inst_59>:
800008f8:	01000513          	li	a0,16
800008fc:	fff805b7          	lui	a1,0xfff80
80000900:	fff58593          	addi	a1,a1,-1 # fff7ffff <imm12+0xfff8052f>
80000904:	00b57633          	and	a2,a0,a1
80000908:	0ac12023          	sw	a2,160(sp)
8000090c:	01000093          	li	ra,16
80000910:	00c08463          	beq	ra,a2,80000918 <inst_60>
80000914:	7240406f          	j	80005038 <bad_trap>

80000918 <inst_60>:
80000918:	40000513          	li	a0,1024
8000091c:	ffe005b7          	lui	a1,0xffe00
80000920:	fff58593          	addi	a1,a1,-1 # ffdfffff <imm12+0xffe0052f>
80000924:	00b57633          	and	a2,a0,a1
80000928:	0ac12223          	sw	a2,164(sp)
8000092c:	40000093          	li	ra,1024
80000930:	00c08463          	beq	ra,a2,80000938 <inst_61>
80000934:	7040406f          	j	80005038 <bad_trap>

80000938 <inst_61>:
80000938:	fff00513          	li	a0,-1
8000093c:	ffc005b7          	lui	a1,0xffc00
80000940:	fff58593          	addi	a1,a1,-1 # ffbfffff <imm12+0xffc0052f>
80000944:	00b57633          	and	a2,a0,a1
80000948:	0ac12423          	sw	a2,168(sp)
8000094c:	ffc000b7          	lui	ra,0xffc00
80000950:	fff08093          	addi	ra,ra,-1 # ffbfffff <imm12+0xffc0052f>
80000954:	00c08463          	beq	ra,a2,8000095c <inst_62>
80000958:	6e00406f          	j	80005038 <bad_trap>

8000095c <inst_62>:
8000095c:	00020537          	lui	a0,0x20
80000960:	ff8005b7          	lui	a1,0xff800
80000964:	fff58593          	addi	a1,a1,-1 # ff7fffff <imm12+0xff80052f>
80000968:	00b57633          	and	a2,a0,a1
8000096c:	0ac12623          	sw	a2,172(sp)
80000970:	000200b7          	lui	ra,0x20
80000974:	00c08463          	beq	ra,a2,8000097c <inst_63>
80000978:	6c00406f          	j	80005038 <bad_trap>

8000097c <inst_63>:
8000097c:	fffc0537          	lui	a0,0xfffc0
80000980:	fff50513          	addi	a0,a0,-1 # fffbffff <imm12+0xfffc052f>
80000984:	ff0005b7          	lui	a1,0xff000
80000988:	fff58593          	addi	a1,a1,-1 # feffffff <imm12+0xff00052f>
8000098c:	00b57633          	and	a2,a0,a1
80000990:	0ac12823          	sw	a2,176(sp)
80000994:	fefc00b7          	lui	ra,0xfefc0
80000998:	fff08093          	addi	ra,ra,-1 # fefbffff <imm12+0xfefc052f>
8000099c:	00c08463          	beq	ra,a2,800009a4 <inst_64>
800009a0:	6980406f          	j	80005038 <bad_trap>

800009a4 <inst_64>:
800009a4:	00600513          	li	a0,6
800009a8:	fe0005b7          	lui	a1,0xfe000
800009ac:	fff58593          	addi	a1,a1,-1 # fdffffff <imm12+0xfe00052f>
800009b0:	00b57633          	and	a2,a0,a1
800009b4:	0ac12a23          	sw	a2,180(sp)
800009b8:	00600093          	li	ra,6
800009bc:	00c08463          	beq	ra,a2,800009c4 <inst_65>
800009c0:	6780406f          	j	80005038 <bad_trap>

800009c4 <inst_65>:
800009c4:	aaaab537          	lui	a0,0xaaaab
800009c8:	aab50513          	addi	a0,a0,-1365 # aaaaaaab <imm12+0xaaaaafdb>
800009cc:	fc0005b7          	lui	a1,0xfc000
800009d0:	fff58593          	addi	a1,a1,-1 # fbffffff <imm12+0xfc00052f>
800009d4:	00b57633          	and	a2,a0,a1
800009d8:	0ac12c23          	sw	a2,184(sp)
800009dc:	aaaab0b7          	lui	ra,0xaaaab
800009e0:	aab08093          	addi	ra,ra,-1365 # aaaaaaab <imm12+0xaaaaafdb>
800009e4:	00c08463          	beq	ra,a2,800009ec <inst_66>
800009e8:	6500406f          	j	80005038 <bad_trap>

800009ec <inst_66>:
800009ec:	fef00513          	li	a0,-17
800009f0:	f80005b7          	lui	a1,0xf8000
800009f4:	fff58593          	addi	a1,a1,-1 # f7ffffff <imm12+0xf800052f>
800009f8:	00b57633          	and	a2,a0,a1
800009fc:	0ac12e23          	sw	a2,188(sp)
80000a00:	f80000b7          	lui	ra,0xf8000
80000a04:	fef08093          	addi	ra,ra,-17 # f7ffffef <imm12+0xf800051f>
80000a08:	00c08463          	beq	ra,a2,80000a10 <inst_67>
80000a0c:	62c0406f          	j	80005038 <bad_trap>

80000a10 <inst_67>:
80000a10:	e0000537          	lui	a0,0xe0000
80000a14:	fff50513          	addi	a0,a0,-1 # dfffffff <imm12+0xe000052f>
80000a18:	f00005b7          	lui	a1,0xf0000
80000a1c:	fff58593          	addi	a1,a1,-1 # efffffff <imm12+0xf000052f>
80000a20:	00b57633          	and	a2,a0,a1
80000a24:	0cc12023          	sw	a2,192(sp)
80000a28:	d00000b7          	lui	ra,0xd0000
80000a2c:	fff08093          	addi	ra,ra,-1 # cfffffff <imm12+0xd000052f>
80000a30:	00c08463          	beq	ra,a2,80000a38 <inst_68>
80000a34:	6040406f          	j	80005038 <bad_trap>

80000a38 <inst_68>:
80000a38:	ffff5537          	lui	a0,0xffff5
80000a3c:	afd50513          	addi	a0,a0,-1283 # ffff4afd <imm12+0xffff502d>
80000a40:	e00005b7          	lui	a1,0xe0000
80000a44:	fff58593          	addi	a1,a1,-1 # dfffffff <imm12+0xe000052f>
80000a48:	00b57633          	and	a2,a0,a1
80000a4c:	0cc12223          	sw	a2,196(sp)
80000a50:	dfff50b7          	lui	ra,0xdfff5
80000a54:	afd08093          	addi	ra,ra,-1283 # dfff4afd <imm12+0xdfff502d>
80000a58:	00c08463          	beq	ra,a2,80000a60 <inst_69>
80000a5c:	5dc0406f          	j	80005038 <bad_trap>

80000a60 <inst_69>:
80000a60:	80000537          	lui	a0,0x80000
80000a64:	c00005b7          	lui	a1,0xc0000
80000a68:	fff58593          	addi	a1,a1,-1 # bfffffff <imm12+0xc000052f>
80000a6c:	00b57633          	and	a2,a0,a1
80000a70:	0cc12423          	sw	a2,200(sp)
80000a74:	800000b7          	lui	ra,0x80000
80000a78:	00c08463          	beq	ra,a2,80000a80 <inst_70>
80000a7c:	5bc0406f          	j	80005038 <bad_trap>

80000a80 <inst_70>:
80000a80:	ffff5537          	lui	a0,0xffff5
80000a84:	afc50513          	addi	a0,a0,-1284 # ffff4afc <imm12+0xffff502c>
80000a88:	aaaab5b7          	lui	a1,0xaaaab
80000a8c:	aaa58593          	addi	a1,a1,-1366 # aaaaaaaa <imm12+0xaaaaafda>
80000a90:	00b57633          	and	a2,a0,a1
80000a94:	0cc12623          	sw	a2,204(sp)
80000a98:	aaaa10b7          	lui	ra,0xaaaa1
80000a9c:	aa808093          	addi	ra,ra,-1368 # aaaa0aa8 <imm12+0xaaaa0fd8>
80000aa0:	00c08463          	beq	ra,a2,80000aa8 <inst_71>
80000aa4:	5940406f          	j	80005038 <bad_trap>

80000aa8 <inst_71>:
80000aa8:	00800513          	li	a0,8
80000aac:	555555b7          	lui	a1,0x55555
80000ab0:	55458593          	addi	a1,a1,1364 # 55555554 <absimm+0x10263025>
80000ab4:	00b57633          	and	a2,a0,a1
80000ab8:	0cc12823          	sw	a2,208(sp)
80000abc:	00000093          	li	ra,0
80000ac0:	00c08463          	beq	ra,a2,80000ac8 <inst_72>
80000ac4:	5740406f          	j	80005038 <bad_trap>

80000ac8 <inst_72>:
80000ac8:	02000513          	li	a0,32
80000acc:	00400593          	li	a1,4
80000ad0:	00b57633          	and	a2,a0,a1
80000ad4:	0cc12a23          	sw	a2,212(sp)
80000ad8:	00000093          	li	ra,0
80000adc:	00c08463          	beq	ra,a2,80000ae4 <inst_73>
80000ae0:	5580406f          	j	80005038 <bad_trap>

80000ae4 <inst_73>:
80000ae4:	10000513          	li	a0,256
80000ae8:	eff00593          	li	a1,-257
80000aec:	00b57633          	and	a2,a0,a1
80000af0:	0cc12c23          	sw	a2,216(sp)
80000af4:	00000093          	li	ra,0
80000af8:	00c08463          	beq	ra,a2,80000b00 <inst_74>
80000afc:	53c0406f          	j	80005038 <bad_trap>

80000b00 <inst_74>:
80000b00:	20000513          	li	a0,512
80000b04:	00000593          	li	a1,0
80000b08:	00b57633          	and	a2,a0,a1
80000b0c:	0cc12e23          	sw	a2,220(sp)
80000b10:	00000093          	li	ra,0
80000b14:	00c08463          	beq	ra,a2,80000b1c <inst_75>
80000b18:	5200406f          	j	80005038 <bad_trap>

80000b1c <inst_75>:
80000b1c:	00001537          	lui	a0,0x1
80000b20:	00800593          	li	a1,8
80000b24:	00b57633          	and	a2,a0,a1
80000b28:	0ec12023          	sw	a2,224(sp)
80000b2c:	00000093          	li	ra,0
80000b30:	00c08463          	beq	ra,a2,80000b38 <inst_76>
80000b34:	5040406f          	j	80005038 <bad_trap>

80000b38 <inst_76>:
80000b38:	00002537          	lui	a0,0x2
80000b3c:	000405b7          	lui	a1,0x40
80000b40:	00b57633          	and	a2,a0,a1
80000b44:	0ec12223          	sw	a2,228(sp)
80000b48:	00000093          	li	ra,0
80000b4c:	00c08463          	beq	ra,a2,80000b54 <inst_77>
80000b50:	4e80406f          	j	80005038 <bad_trap>

80000b54 <inst_77>:
80000b54:	00008537          	lui	a0,0x8
80000b58:	ffc00593          	li	a1,-4
80000b5c:	00b57633          	and	a2,a0,a1
80000b60:	0ec12423          	sw	a2,232(sp)
80000b64:	000080b7          	lui	ra,0x8
80000b68:	00c08463          	beq	ra,a2,80000b70 <inst_78>
80000b6c:	4cc0406f          	j	80005038 <bad_trap>

80000b70 <inst_78>:
80000b70:	00080537          	lui	a0,0x80
80000b74:	400005b7          	lui	a1,0x40000
80000b78:	fff58593          	addi	a1,a1,-1 # 3fffffff <offset+0x3fffff2b>
80000b7c:	00b57633          	and	a2,a0,a1
80000b80:	0ec12623          	sw	a2,236(sp)
80000b84:	000800b7          	lui	ra,0x80
80000b88:	00c08463          	beq	ra,a2,80000b90 <inst_79>
80000b8c:	4ac0406f          	j	80005038 <bad_trap>

80000b90 <inst_79>:
80000b90:	00100537          	lui	a0,0x100
80000b94:	ffffe5b7          	lui	a1,0xffffe
80000b98:	fff58593          	addi	a1,a1,-1 # ffffdfff <imm12+0xffffe52f>
80000b9c:	00b57633          	and	a2,a0,a1
80000ba0:	0ec12823          	sw	a2,240(sp)
80000ba4:	001000b7          	lui	ra,0x100
80000ba8:	00c08463          	beq	ra,a2,80000bb0 <inst_80>
80000bac:	48c0406f          	j	80005038 <bad_trap>

80000bb0 <inst_80>:
80000bb0:	00200537          	lui	a0,0x200
80000bb4:	000085b7          	lui	a1,0x8
80000bb8:	00b57633          	and	a2,a0,a1
80000bbc:	0ec12a23          	sw	a2,244(sp)
80000bc0:	00000093          	li	ra,0
80000bc4:	00c08463          	beq	ra,a2,80000bcc <inst_81>
80000bc8:	4700406f          	j	80005038 <bad_trap>

80000bcc <inst_81>:
80000bcc:	00400537          	lui	a0,0x400
80000bd0:	fef00593          	li	a1,-17
80000bd4:	00b57633          	and	a2,a0,a1
80000bd8:	0ec12c23          	sw	a2,248(sp)
80000bdc:	004000b7          	lui	ra,0x400
80000be0:	00c08463          	beq	ra,a2,80000be8 <inst_82>
80000be4:	4540406f          	j	80005038 <bad_trap>

80000be8 <inst_82>:
80000be8:	01000537          	lui	a0,0x1000
80000bec:	00300593          	li	a1,3
80000bf0:	00b57633          	and	a2,a0,a1
80000bf4:	0ec12e23          	sw	a2,252(sp)
80000bf8:	00000093          	li	ra,0
80000bfc:	00c08463          	beq	ra,a2,80000c04 <inst_83>
80000c00:	4380406f          	j	80005038 <bad_trap>

80000c04 <inst_83>:
80000c04:	04000537          	lui	a0,0x4000
80000c08:	000205b7          	lui	a1,0x20
80000c0c:	00b57633          	and	a2,a0,a1
80000c10:	10c12023          	sw	a2,256(sp)
80000c14:	00000093          	li	ra,0
80000c18:	00c08463          	beq	ra,a2,80000c20 <inst_84>
80000c1c:	41c0406f          	j	80005038 <bad_trap>

80000c20 <inst_84>:
80000c20:	10000537          	lui	a0,0x10000
80000c24:	00400593          	li	a1,4
80000c28:	00b57633          	and	a2,a0,a1
80000c2c:	10c12223          	sw	a2,260(sp)
80000c30:	00000093          	li	ra,0
80000c34:	00c08463          	beq	ra,a2,80000c3c <inst_85>
80000c38:	4000406f          	j	80005038 <bad_trap>

80000c3c <inst_85>:
80000c3c:	20000537          	lui	a0,0x20000
80000c40:	00400593          	li	a1,4
80000c44:	00b57633          	and	a2,a0,a1
80000c48:	10c12423          	sw	a2,264(sp)
80000c4c:	00000093          	li	ra,0
80000c50:	00c08463          	beq	ra,a2,80000c58 <inst_86>
80000c54:	3e40406f          	j	80005038 <bad_trap>

80000c58 <inst_86>:
80000c58:	ffe00513          	li	a0,-2
80000c5c:	f00005b7          	lui	a1,0xf0000
80000c60:	fff58593          	addi	a1,a1,-1 # efffffff <imm12+0xf000052f>
80000c64:	00b57633          	and	a2,a0,a1
80000c68:	10c12623          	sw	a2,268(sp)
80000c6c:	f00000b7          	lui	ra,0xf0000
80000c70:	ffe08093          	addi	ra,ra,-2 # effffffe <imm12+0xf000052e>
80000c74:	00c08463          	beq	ra,a2,80000c7c <inst_87>
80000c78:	3c00406f          	j	80005038 <bad_trap>

80000c7c <inst_87>:
80000c7c:	fdf00513          	li	a0,-33
80000c80:	333335b7          	lui	a1,0x33333
80000c84:	33258593          	addi	a1,a1,818 # 33333332 <offset+0x3333325e>
80000c88:	00b57633          	and	a2,a0,a1
80000c8c:	10c12823          	sw	a2,272(sp)
80000c90:	333330b7          	lui	ra,0x33333
80000c94:	31208093          	addi	ra,ra,786 # 33333312 <offset+0x3333323e>
80000c98:	00c08463          	beq	ra,a2,80000ca0 <inst_88>
80000c9c:	39c0406f          	j	80005038 <bad_trap>

80000ca0 <inst_88>:
80000ca0:	fbf00513          	li	a0,-65
80000ca4:	ffc005b7          	lui	a1,0xffc00
80000ca8:	fff58593          	addi	a1,a1,-1 # ffbfffff <imm12+0xffc0052f>
80000cac:	00b57633          	and	a2,a0,a1
80000cb0:	10c12a23          	sw	a2,276(sp)
80000cb4:	ffc000b7          	lui	ra,0xffc00
80000cb8:	fbf08093          	addi	ra,ra,-65 # ffbfffbf <imm12+0xffc004ef>
80000cbc:	00c08463          	beq	ra,a2,80000cc4 <inst_89>
80000cc0:	3780406f          	j	80005038 <bad_trap>

80000cc4 <inst_89>:
80000cc4:	bff00513          	li	a0,-1025
80000cc8:	ffffc5b7          	lui	a1,0xffffc
80000ccc:	fff58593          	addi	a1,a1,-1 # ffffbfff <imm12+0xffffc52f>
80000cd0:	00b57633          	and	a2,a0,a1
80000cd4:	10c12c23          	sw	a2,280(sp)
80000cd8:	ffffc0b7          	lui	ra,0xffffc
80000cdc:	bff08093          	addi	ra,ra,-1025 # ffffbbff <imm12+0xffffc12f>
80000ce0:	00c08463          	beq	ra,a2,80000ce8 <inst_90>
80000ce4:	3540406f          	j	80005038 <bad_trap>

80000ce8 <inst_90>:
80000ce8:	fffff537          	lui	a0,0xfffff
80000cec:	7ff50513          	addi	a0,a0,2047 # fffff7ff <imm12+0xfffffd2f>
80000cf0:	ff900593          	li	a1,-7
80000cf4:	00b57633          	and	a2,a0,a1
80000cf8:	10c12e23          	sw	a2,284(sp)
80000cfc:	fffff0b7          	lui	ra,0xfffff
80000d00:	7f908093          	addi	ra,ra,2041 # fffff7f9 <imm12+0xfffffd29>
80000d04:	00c08463          	beq	ra,a2,80000d0c <inst_91>
80000d08:	3300406f          	j	80005038 <bad_trap>

80000d0c <inst_91>:
80000d0c:	fffff537          	lui	a0,0xfffff
80000d10:	fff50513          	addi	a0,a0,-1 # ffffefff <imm12+0xfffff52f>
80000d14:	f7f00593          	li	a1,-129
80000d18:	00b57633          	and	a2,a0,a1
80000d1c:	12c12023          	sw	a2,288(sp)
80000d20:	fffff0b7          	lui	ra,0xfffff
80000d24:	f7f08093          	addi	ra,ra,-129 # ffffef7f <imm12+0xfffff4af>
80000d28:	00c08463          	beq	ra,a2,80000d30 <inst_92>
80000d2c:	30c0406f          	j	80005038 <bad_trap>

80000d30 <inst_92>:
80000d30:	ffffe537          	lui	a0,0xffffe
80000d34:	fff50513          	addi	a0,a0,-1 # ffffdfff <imm12+0xffffe52f>
80000d38:	ffb00593          	li	a1,-5
80000d3c:	00b57633          	and	a2,a0,a1
80000d40:	12c12223          	sw	a2,292(sp)
80000d44:	ffffe0b7          	lui	ra,0xffffe
80000d48:	ffb08093          	addi	ra,ra,-5 # ffffdffb <imm12+0xffffe52b>
80000d4c:	00c08463          	beq	ra,a2,80000d54 <inst_93>
80000d50:	2e80406f          	j	80005038 <bad_trap>

80000d54 <inst_93>:
80000d54:	ffffc537          	lui	a0,0xffffc
80000d58:	fff50513          	addi	a0,a0,-1 # ffffbfff <imm12+0xffffc52f>
80000d5c:	00400593          	li	a1,4
80000d60:	00b57633          	and	a2,a0,a1
80000d64:	12c12423          	sw	a2,296(sp)
80000d68:	00400093          	li	ra,4
80000d6c:	00c08463          	beq	ra,a2,80000d74 <inst_94>
80000d70:	2c80406f          	j	80005038 <bad_trap>

80000d74 <inst_94>:
80000d74:	fff80537          	lui	a0,0xfff80
80000d78:	fff50513          	addi	a0,a0,-1 # fff7ffff <imm12+0xfff8052f>
80000d7c:	ffe005b7          	lui	a1,0xffe00
80000d80:	fff58593          	addi	a1,a1,-1 # ffdfffff <imm12+0xffe0052f>
80000d84:	00b57633          	and	a2,a0,a1
80000d88:	12c12623          	sw	a2,300(sp)
80000d8c:	ffd800b7          	lui	ra,0xffd80
80000d90:	fff08093          	addi	ra,ra,-1 # ffd7ffff <imm12+0xffd8052f>
80000d94:	00c08463          	beq	ra,a2,80000d9c <inst_95>
80000d98:	2a00406f          	j	80005038 <bad_trap>

80000d9c <inst_95>:
80000d9c:	ffe00537          	lui	a0,0xffe00
80000da0:	fff50513          	addi	a0,a0,-1 # ffdfffff <imm12+0xffe0052f>
80000da4:	00400593          	li	a1,4
80000da8:	00b57633          	and	a2,a0,a1
80000dac:	12c12823          	sw	a2,304(sp)
80000db0:	00400093          	li	ra,4
80000db4:	00c08463          	beq	ra,a2,80000dbc <inst_96>
80000db8:	2800406f          	j	80005038 <bad_trap>

80000dbc <inst_96>:
80000dbc:	ffc00537          	lui	a0,0xffc00
80000dc0:	fff50513          	addi	a0,a0,-1 # ffbfffff <imm12+0xffc0052f>
80000dc4:	333335b7          	lui	a1,0x33333
80000dc8:	33458593          	addi	a1,a1,820 # 33333334 <offset+0x33333260>
80000dcc:	00b57633          	and	a2,a0,a1
80000dd0:	12c12a23          	sw	a2,308(sp)
80000dd4:	333330b7          	lui	ra,0x33333
80000dd8:	33408093          	addi	ra,ra,820 # 33333334 <offset+0x33333260>
80000ddc:	00c08463          	beq	ra,a2,80000de4 <inst_97>
80000de0:	2580406f          	j	80005038 <bad_trap>

80000de4 <inst_97>:
80000de4:	ff000537          	lui	a0,0xff000
80000de8:	fff50513          	addi	a0,a0,-1 # feffffff <imm12+0xff00052f>
80000dec:	800005b7          	lui	a1,0x80000
80000df0:	fff58593          	addi	a1,a1,-1 # 7fffffff <imm12+0x8000052f>
80000df4:	00b57633          	and	a2,a0,a1
80000df8:	12c12c23          	sw	a2,312(sp)
80000dfc:	7f0000b7          	lui	ra,0x7f000
80000e00:	fff08093          	addi	ra,ra,-1 # 7effffff <absimm+0x39d0dad0>
80000e04:	00c08463          	beq	ra,a2,80000e0c <inst_98>
80000e08:	2300406f          	j	80005038 <bad_trap>

80000e0c <inst_98>:
80000e0c:	fc000537          	lui	a0,0xfc000
80000e10:	fff50513          	addi	a0,a0,-1 # fbffffff <imm12+0xfc00052f>
80000e14:	666665b7          	lui	a1,0x66666
80000e18:	66558593          	addi	a1,a1,1637 # 66666665 <absimm+0x21374136>
80000e1c:	00b57633          	and	a2,a0,a1
80000e20:	12c12e23          	sw	a2,316(sp)
80000e24:	626660b7          	lui	ra,0x62666
80000e28:	66508093          	addi	ra,ra,1637 # 62666665 <absimm+0x1d374136>
80000e2c:	00c08463          	beq	ra,a2,80000e34 <inst_99>
80000e30:	2080406f          	j	80005038 <bad_trap>

80000e34 <inst_99>:
80000e34:	f0000537          	lui	a0,0xf0000
80000e38:	fff50513          	addi	a0,a0,-1 # efffffff <imm12+0xf000052f>
80000e3c:	ffff55b7          	lui	a1,0xffff5
80000e40:	afd58593          	addi	a1,a1,-1283 # ffff4afd <imm12+0xffff502d>
80000e44:	00b57633          	and	a2,a0,a1
80000e48:	14c12023          	sw	a2,320(sp)
80000e4c:	efff50b7          	lui	ra,0xefff5
80000e50:	afd08093          	addi	ra,ra,-1283 # efff4afd <imm12+0xefff502d>
80000e54:	00c08463          	beq	ra,a2,80000e5c <inst_100>
80000e58:	1e00406f          	j	80005038 <bad_trap>

80000e5c <inst_100>:
80000e5c:	00300513          	li	a0,3
80000e60:	00300593          	li	a1,3
80000e64:	00b57633          	and	a2,a0,a1
80000e68:	14c12223          	sw	a2,324(sp)
80000e6c:	00300093          	li	ra,3
80000e70:	00c08463          	beq	ra,a2,80000e78 <inst_101>
80000e74:	1c40406f          	j	80005038 <bad_trap>

80000e78 <inst_101>:
80000e78:	00300513          	li	a0,3
80000e7c:	555555b7          	lui	a1,0x55555
80000e80:	55558593          	addi	a1,a1,1365 # 55555555 <absimm+0x10263026>
80000e84:	00b57633          	and	a2,a0,a1
80000e88:	14c12423          	sw	a2,328(sp)
80000e8c:	00100093          	li	ra,1
80000e90:	00c08463          	beq	ra,a2,80000e98 <inst_102>
80000e94:	1a40406f          	j	80005038 <bad_trap>

80000e98 <inst_102>:
80000e98:	00300513          	li	a0,3
80000e9c:	aaaab5b7          	lui	a1,0xaaaab
80000ea0:	aaa58593          	addi	a1,a1,-1366 # aaaaaaaa <imm12+0xaaaaafda>
80000ea4:	00b57633          	and	a2,a0,a1
80000ea8:	14c12623          	sw	a2,332(sp)
80000eac:	00200093          	li	ra,2
80000eb0:	00c08463          	beq	ra,a2,80000eb8 <inst_103>
80000eb4:	1840406f          	j	80005038 <bad_trap>

80000eb8 <inst_103>:
80000eb8:	00300513          	li	a0,3
80000ebc:	00500593          	li	a1,5
80000ec0:	00b57633          	and	a2,a0,a1
80000ec4:	14c12823          	sw	a2,336(sp)
80000ec8:	00100093          	li	ra,1
80000ecc:	00c08463          	beq	ra,a2,80000ed4 <inst_104>
80000ed0:	1680406f          	j	80005038 <bad_trap>

80000ed4 <inst_104>:
80000ed4:	00300513          	li	a0,3
80000ed8:	333335b7          	lui	a1,0x33333
80000edc:	33358593          	addi	a1,a1,819 # 33333333 <offset+0x3333325f>
80000ee0:	00b57633          	and	a2,a0,a1
80000ee4:	14c12a23          	sw	a2,340(sp)
80000ee8:	00300093          	li	ra,3
80000eec:	00c08463          	beq	ra,a2,80000ef4 <inst_105>
80000ef0:	1480406f          	j	80005038 <bad_trap>

80000ef4 <inst_105>:
80000ef4:	00300513          	li	a0,3
80000ef8:	666665b7          	lui	a1,0x66666
80000efc:	66658593          	addi	a1,a1,1638 # 66666666 <absimm+0x21374137>
80000f00:	00b57633          	and	a2,a0,a1
80000f04:	14c12c23          	sw	a2,344(sp)
80000f08:	00200093          	li	ra,2
80000f0c:	00c08463          	beq	ra,a2,80000f14 <inst_106>
80000f10:	1280406f          	j	80005038 <bad_trap>

80000f14 <inst_106>:
80000f14:	00300513          	li	a0,3
80000f18:	ffff55b7          	lui	a1,0xffff5
80000f1c:	afc58593          	addi	a1,a1,-1284 # ffff4afc <imm12+0xffff502c>
80000f20:	00b57633          	and	a2,a0,a1
80000f24:	14c12e23          	sw	a2,348(sp)
80000f28:	00000093          	li	ra,0
80000f2c:	00c08463          	beq	ra,a2,80000f34 <inst_107>
80000f30:	1080406f          	j	80005038 <bad_trap>

80000f34 <inst_107>:
80000f34:	00300513          	li	a0,3
80000f38:	0000b5b7          	lui	a1,0xb
80000f3c:	50458593          	addi	a1,a1,1284 # b504 <offset+0xb430>
80000f40:	00b57633          	and	a2,a0,a1
80000f44:	16c12023          	sw	a2,352(sp)
80000f48:	00000093          	li	ra,0
80000f4c:	00c08463          	beq	ra,a2,80000f54 <inst_108>
80000f50:	0e80406f          	j	80005038 <bad_trap>

80000f54 <inst_108>:
80000f54:	00300513          	li	a0,3
80000f58:	00200593          	li	a1,2
80000f5c:	00b57633          	and	a2,a0,a1
80000f60:	16c12223          	sw	a2,356(sp)
80000f64:	00200093          	li	ra,2
80000f68:	00c08463          	beq	ra,a2,80000f70 <inst_109>
80000f6c:	0cc0406f          	j	80005038 <bad_trap>

80000f70 <inst_109>:
80000f70:	00300513          	li	a0,3
80000f74:	555555b7          	lui	a1,0x55555
80000f78:	55458593          	addi	a1,a1,1364 # 55555554 <absimm+0x10263025>
80000f7c:	00b57633          	and	a2,a0,a1
80000f80:	16c12423          	sw	a2,360(sp)
80000f84:	00000093          	li	ra,0
80000f88:	00c08463          	beq	ra,a2,80000f90 <inst_110>
80000f8c:	0ac0406f          	j	80005038 <bad_trap>

80000f90 <inst_110>:
80000f90:	00300513          	li	a0,3
80000f94:	00000593          	li	a1,0
80000f98:	00b57633          	and	a2,a0,a1
80000f9c:	16c12623          	sw	a2,364(sp)
80000fa0:	00000093          	li	ra,0
80000fa4:	00c08463          	beq	ra,a2,80000fac <inst_111>
80000fa8:	0900406f          	j	80005038 <bad_trap>

80000fac <inst_111>:
80000fac:	00300513          	li	a0,3
80000fb0:	00400593          	li	a1,4
80000fb4:	00b57633          	and	a2,a0,a1
80000fb8:	16c12823          	sw	a2,368(sp)
80000fbc:	00000093          	li	ra,0
80000fc0:	00c08463          	beq	ra,a2,80000fc8 <inst_112>
80000fc4:	0740406f          	j	80005038 <bad_trap>

80000fc8 <inst_112>:
80000fc8:	00300513          	li	a0,3
80000fcc:	333335b7          	lui	a1,0x33333
80000fd0:	33258593          	addi	a1,a1,818 # 33333332 <offset+0x3333325e>
80000fd4:	00b57633          	and	a2,a0,a1
80000fd8:	16c12a23          	sw	a2,372(sp)
80000fdc:	00200093          	li	ra,2
80000fe0:	00c08463          	beq	ra,a2,80000fe8 <inst_113>
80000fe4:	0540406f          	j	80005038 <bad_trap>

80000fe8 <inst_113>:
80000fe8:	00300513          	li	a0,3
80000fec:	666665b7          	lui	a1,0x66666
80000ff0:	66558593          	addi	a1,a1,1637 # 66666665 <absimm+0x21374136>
80000ff4:	00b57633          	and	a2,a0,a1
80000ff8:	16c12c23          	sw	a2,376(sp)
80000ffc:	00100093          	li	ra,1
80001000:	00c08463          	beq	ra,a2,80001008 <inst_114>
80001004:	0340406f          	j	80005038 <bad_trap>

80001008 <inst_114>:
80001008:	00300513          	li	a0,3
8000100c:	0000b5b7          	lui	a1,0xb
80001010:	50358593          	addi	a1,a1,1283 # b503 <offset+0xb42f>
80001014:	00b57633          	and	a2,a0,a1
80001018:	16c12e23          	sw	a2,380(sp)
8000101c:	00300093          	li	ra,3
80001020:	00c08463          	beq	ra,a2,80001028 <inst_115>
80001024:	0140406f          	j	80005038 <bad_trap>

80001028 <inst_115>:
80001028:	00300513          	li	a0,3
8000102c:	555555b7          	lui	a1,0x55555
80001030:	55658593          	addi	a1,a1,1366 # 55555556 <absimm+0x10263027>
80001034:	00b57633          	and	a2,a0,a1
80001038:	18c12023          	sw	a2,384(sp)
8000103c:	00200093          	li	ra,2
80001040:	00c08463          	beq	ra,a2,80001048 <inst_116>
80001044:	7f50306f          	j	80005038 <bad_trap>

80001048 <inst_116>:
80001048:	00300513          	li	a0,3
8000104c:	aaaab5b7          	lui	a1,0xaaaab
80001050:	aab58593          	addi	a1,a1,-1365 # aaaaaaab <imm12+0xaaaaafdb>
80001054:	00b57633          	and	a2,a0,a1
80001058:	18c12223          	sw	a2,388(sp)
8000105c:	00300093          	li	ra,3
80001060:	00c08463          	beq	ra,a2,80001068 <inst_117>
80001064:	7d50306f          	j	80005038 <bad_trap>

80001068 <inst_117>:
80001068:	00300513          	li	a0,3
8000106c:	00600593          	li	a1,6
80001070:	00b57633          	and	a2,a0,a1
80001074:	18c12423          	sw	a2,392(sp)
80001078:	00200093          	li	ra,2
8000107c:	00c08463          	beq	ra,a2,80001084 <inst_118>
80001080:	7b90306f          	j	80005038 <bad_trap>

80001084 <inst_118>:
80001084:	00300513          	li	a0,3
80001088:	333335b7          	lui	a1,0x33333
8000108c:	33458593          	addi	a1,a1,820 # 33333334 <offset+0x33333260>
80001090:	00b57633          	and	a2,a0,a1
80001094:	18c12623          	sw	a2,396(sp)
80001098:	00000093          	li	ra,0
8000109c:	00c08463          	beq	ra,a2,800010a4 <inst_119>
800010a0:	7990306f          	j	80005038 <bad_trap>

800010a4 <inst_119>:
800010a4:	00300513          	li	a0,3
800010a8:	666665b7          	lui	a1,0x66666
800010ac:	66758593          	addi	a1,a1,1639 # 66666667 <absimm+0x21374138>
800010b0:	00b57633          	and	a2,a0,a1
800010b4:	18c12823          	sw	a2,400(sp)
800010b8:	00300093          	li	ra,3
800010bc:	00c08463          	beq	ra,a2,800010c4 <inst_120>
800010c0:	7790306f          	j	80005038 <bad_trap>

800010c4 <inst_120>:
800010c4:	00300513          	li	a0,3
800010c8:	ffff55b7          	lui	a1,0xffff5
800010cc:	afd58593          	addi	a1,a1,-1283 # ffff4afd <imm12+0xffff502d>
800010d0:	00b57633          	and	a2,a0,a1
800010d4:	18c12a23          	sw	a2,404(sp)
800010d8:	00100093          	li	ra,1
800010dc:	00c08463          	beq	ra,a2,800010e4 <inst_121>
800010e0:	7590306f          	j	80005038 <bad_trap>

800010e4 <inst_121>:
800010e4:	00300513          	li	a0,3
800010e8:	0000b5b7          	lui	a1,0xb
800010ec:	50558593          	addi	a1,a1,1285 # b505 <offset+0xb431>
800010f0:	00b57633          	and	a2,a0,a1
800010f4:	18c12c23          	sw	a2,408(sp)
800010f8:	00100093          	li	ra,1
800010fc:	00c08463          	beq	ra,a2,80001104 <inst_122>
80001100:	7390306f          	j	80005038 <bad_trap>

80001104 <inst_122>:
80001104:	55555537          	lui	a0,0x55555
80001108:	55550513          	addi	a0,a0,1365 # 55555555 <absimm+0x10263026>
8000110c:	00300593          	li	a1,3
80001110:	00b57633          	and	a2,a0,a1
80001114:	18c12e23          	sw	a2,412(sp)
80001118:	00100093          	li	ra,1
8000111c:	00c08463          	beq	ra,a2,80001124 <inst_123>
80001120:	7190306f          	j	80005038 <bad_trap>

80001124 <inst_123>:
80001124:	55555537          	lui	a0,0x55555
80001128:	55550513          	addi	a0,a0,1365 # 55555555 <absimm+0x10263026>
8000112c:	555555b7          	lui	a1,0x55555
80001130:	55558593          	addi	a1,a1,1365 # 55555555 <absimm+0x10263026>
80001134:	00b57633          	and	a2,a0,a1
80001138:	1ac12023          	sw	a2,416(sp)
8000113c:	555550b7          	lui	ra,0x55555
80001140:	55508093          	addi	ra,ra,1365 # 55555555 <absimm+0x10263026>
80001144:	00c08463          	beq	ra,a2,8000114c <inst_124>
80001148:	6f10306f          	j	80005038 <bad_trap>

8000114c <inst_124>:
8000114c:	55555537          	lui	a0,0x55555
80001150:	55550513          	addi	a0,a0,1365 # 55555555 <absimm+0x10263026>
80001154:	aaaab5b7          	lui	a1,0xaaaab
80001158:	aaa58593          	addi	a1,a1,-1366 # aaaaaaaa <imm12+0xaaaaafda>
8000115c:	00b57633          	and	a2,a0,a1
80001160:	1ac12223          	sw	a2,420(sp)
80001164:	00000093          	li	ra,0
80001168:	00c08463          	beq	ra,a2,80001170 <inst_125>
8000116c:	6cd0306f          	j	80005038 <bad_trap>

80001170 <inst_125>:
80001170:	55555537          	lui	a0,0x55555
80001174:	55550513          	addi	a0,a0,1365 # 55555555 <absimm+0x10263026>
80001178:	00500593          	li	a1,5
8000117c:	00b57633          	and	a2,a0,a1
80001180:	1ac12423          	sw	a2,424(sp)
80001184:	00500093          	li	ra,5
80001188:	00c08463          	beq	ra,a2,80001190 <inst_126>
8000118c:	6ad0306f          	j	80005038 <bad_trap>

80001190 <inst_126>:
80001190:	55555537          	lui	a0,0x55555
80001194:	55550513          	addi	a0,a0,1365 # 55555555 <absimm+0x10263026>
80001198:	333335b7          	lui	a1,0x33333
8000119c:	33358593          	addi	a1,a1,819 # 33333333 <offset+0x3333325f>
800011a0:	00b57633          	and	a2,a0,a1
800011a4:	1ac12623          	sw	a2,428(sp)
800011a8:	111110b7          	lui	ra,0x11111
800011ac:	11108093          	addi	ra,ra,273 # 11111111 <offset+0x1111103d>
800011b0:	00c08463          	beq	ra,a2,800011b8 <inst_127>
800011b4:	6850306f          	j	80005038 <bad_trap>

800011b8 <inst_127>:
800011b8:	55555537          	lui	a0,0x55555
800011bc:	55550513          	addi	a0,a0,1365 # 55555555 <absimm+0x10263026>
800011c0:	666665b7          	lui	a1,0x66666
800011c4:	66658593          	addi	a1,a1,1638 # 66666666 <absimm+0x21374137>
800011c8:	00b57633          	and	a2,a0,a1
800011cc:	1ac12823          	sw	a2,432(sp)
800011d0:	444440b7          	lui	ra,0x44444
800011d4:	44408093          	addi	ra,ra,1092 # 44444444 <offset+0x44444370>
800011d8:	00c08463          	beq	ra,a2,800011e0 <inst_128>
800011dc:	65d0306f          	j	80005038 <bad_trap>

800011e0 <inst_128>:
800011e0:	55555537          	lui	a0,0x55555
800011e4:	55550513          	addi	a0,a0,1365 # 55555555 <absimm+0x10263026>
800011e8:	ffff55b7          	lui	a1,0xffff5
800011ec:	afc58593          	addi	a1,a1,-1284 # ffff4afc <imm12+0xffff502c>
800011f0:	00b57633          	and	a2,a0,a1
800011f4:	1ac12a23          	sw	a2,436(sp)
800011f8:	555540b7          	lui	ra,0x55554
800011fc:	05408093          	addi	ra,ra,84 # 55554054 <absimm+0x10261b25>
80001200:	00c08463          	beq	ra,a2,80001208 <inst_129>
80001204:	6350306f          	j	80005038 <bad_trap>

80001208 <inst_129>:
80001208:	55555537          	lui	a0,0x55555
8000120c:	55550513          	addi	a0,a0,1365 # 55555555 <absimm+0x10263026>
80001210:	0000b5b7          	lui	a1,0xb
80001214:	50458593          	addi	a1,a1,1284 # b504 <offset+0xb430>
80001218:	00b57633          	and	a2,a0,a1
8000121c:	1ac12c23          	sw	a2,440(sp)
80001220:	000010b7          	lui	ra,0x1
80001224:	50408093          	addi	ra,ra,1284 # 1504 <offset+0x1430>
80001228:	00c08463          	beq	ra,a2,80001230 <inst_130>
8000122c:	60d0306f          	j	80005038 <bad_trap>

80001230 <inst_130>:
80001230:	55555537          	lui	a0,0x55555
80001234:	55550513          	addi	a0,a0,1365 # 55555555 <absimm+0x10263026>
80001238:	00200593          	li	a1,2
8000123c:	00b57633          	and	a2,a0,a1
80001240:	1ac12e23          	sw	a2,444(sp)
80001244:	00000093          	li	ra,0
80001248:	00c08463          	beq	ra,a2,80001250 <inst_131>
8000124c:	5ed0306f          	j	80005038 <bad_trap>

80001250 <inst_131>:
80001250:	55555537          	lui	a0,0x55555
80001254:	55550513          	addi	a0,a0,1365 # 55555555 <absimm+0x10263026>
80001258:	555555b7          	lui	a1,0x55555
8000125c:	55458593          	addi	a1,a1,1364 # 55555554 <absimm+0x10263025>
80001260:	00b57633          	and	a2,a0,a1
80001264:	1cc12023          	sw	a2,448(sp)
80001268:	555550b7          	lui	ra,0x55555
8000126c:	55408093          	addi	ra,ra,1364 # 55555554 <absimm+0x10263025>
80001270:	00c08463          	beq	ra,a2,80001278 <inst_132>
80001274:	5c50306f          	j	80005038 <bad_trap>

80001278 <inst_132>:
80001278:	55555537          	lui	a0,0x55555
8000127c:	55550513          	addi	a0,a0,1365 # 55555555 <absimm+0x10263026>
80001280:	00000593          	li	a1,0
80001284:	00b57633          	and	a2,a0,a1
80001288:	1cc12223          	sw	a2,452(sp)
8000128c:	00000093          	li	ra,0
80001290:	00c08463          	beq	ra,a2,80001298 <inst_133>
80001294:	5a50306f          	j	80005038 <bad_trap>

80001298 <inst_133>:
80001298:	55555537          	lui	a0,0x55555
8000129c:	55550513          	addi	a0,a0,1365 # 55555555 <absimm+0x10263026>
800012a0:	00400593          	li	a1,4
800012a4:	00b57633          	and	a2,a0,a1
800012a8:	1cc12423          	sw	a2,456(sp)
800012ac:	00400093          	li	ra,4
800012b0:	00c08463          	beq	ra,a2,800012b8 <inst_134>
800012b4:	5850306f          	j	80005038 <bad_trap>

800012b8 <inst_134>:
800012b8:	55555537          	lui	a0,0x55555
800012bc:	55550513          	addi	a0,a0,1365 # 55555555 <absimm+0x10263026>
800012c0:	333335b7          	lui	a1,0x33333
800012c4:	33258593          	addi	a1,a1,818 # 33333332 <offset+0x3333325e>
800012c8:	00b57633          	and	a2,a0,a1
800012cc:	1cc12623          	sw	a2,460(sp)
800012d0:	111110b7          	lui	ra,0x11111
800012d4:	11008093          	addi	ra,ra,272 # 11111110 <offset+0x1111103c>
800012d8:	00c08463          	beq	ra,a2,800012e0 <inst_135>
800012dc:	55d0306f          	j	80005038 <bad_trap>

800012e0 <inst_135>:
800012e0:	55555537          	lui	a0,0x55555
800012e4:	55550513          	addi	a0,a0,1365 # 55555555 <absimm+0x10263026>
800012e8:	666665b7          	lui	a1,0x66666
800012ec:	66558593          	addi	a1,a1,1637 # 66666665 <absimm+0x21374136>
800012f0:	00b57633          	and	a2,a0,a1
800012f4:	1cc12823          	sw	a2,464(sp)
800012f8:	444440b7          	lui	ra,0x44444
800012fc:	44508093          	addi	ra,ra,1093 # 44444445 <offset+0x44444371>
80001300:	00c08463          	beq	ra,a2,80001308 <inst_136>
80001304:	5350306f          	j	80005038 <bad_trap>

80001308 <inst_136>:
80001308:	55555537          	lui	a0,0x55555
8000130c:	55550513          	addi	a0,a0,1365 # 55555555 <absimm+0x10263026>
80001310:	0000b5b7          	lui	a1,0xb
80001314:	50358593          	addi	a1,a1,1283 # b503 <offset+0xb42f>
80001318:	00b57633          	and	a2,a0,a1
8000131c:	1cc12a23          	sw	a2,468(sp)
80001320:	000010b7          	lui	ra,0x1
80001324:	50108093          	addi	ra,ra,1281 # 1501 <offset+0x142d>
80001328:	00c08463          	beq	ra,a2,80001330 <inst_137>
8000132c:	50d0306f          	j	80005038 <bad_trap>

80001330 <inst_137>:
80001330:	55555537          	lui	a0,0x55555
80001334:	55550513          	addi	a0,a0,1365 # 55555555 <absimm+0x10263026>
80001338:	555555b7          	lui	a1,0x55555
8000133c:	55658593          	addi	a1,a1,1366 # 55555556 <absimm+0x10263027>
80001340:	00b57633          	and	a2,a0,a1
80001344:	1cc12c23          	sw	a2,472(sp)
80001348:	555550b7          	lui	ra,0x55555
8000134c:	55408093          	addi	ra,ra,1364 # 55555554 <absimm+0x10263025>
80001350:	00c08463          	beq	ra,a2,80001358 <inst_138>
80001354:	4e50306f          	j	80005038 <bad_trap>

80001358 <inst_138>:
80001358:	55555537          	lui	a0,0x55555
8000135c:	55550513          	addi	a0,a0,1365 # 55555555 <absimm+0x10263026>
80001360:	aaaab5b7          	lui	a1,0xaaaab
80001364:	aab58593          	addi	a1,a1,-1365 # aaaaaaab <imm12+0xaaaaafdb>
80001368:	00b57633          	and	a2,a0,a1
8000136c:	1cc12e23          	sw	a2,476(sp)
80001370:	00100093          	li	ra,1
80001374:	00c08463          	beq	ra,a2,8000137c <inst_139>
80001378:	4c10306f          	j	80005038 <bad_trap>

8000137c <inst_139>:
8000137c:	55555537          	lui	a0,0x55555
80001380:	55550513          	addi	a0,a0,1365 # 55555555 <absimm+0x10263026>
80001384:	00600593          	li	a1,6
80001388:	00b57633          	and	a2,a0,a1
8000138c:	1ec12023          	sw	a2,480(sp)
80001390:	00400093          	li	ra,4
80001394:	00c08463          	beq	ra,a2,8000139c <inst_140>
80001398:	4a10306f          	j	80005038 <bad_trap>

8000139c <inst_140>:
8000139c:	55555537          	lui	a0,0x55555
800013a0:	55550513          	addi	a0,a0,1365 # 55555555 <absimm+0x10263026>
800013a4:	333335b7          	lui	a1,0x33333
800013a8:	33458593          	addi	a1,a1,820 # 33333334 <offset+0x33333260>
800013ac:	00b57633          	and	a2,a0,a1
800013b0:	1ec12223          	sw	a2,484(sp)
800013b4:	111110b7          	lui	ra,0x11111
800013b8:	11408093          	addi	ra,ra,276 # 11111114 <offset+0x11111040>
800013bc:	00c08463          	beq	ra,a2,800013c4 <inst_141>
800013c0:	4790306f          	j	80005038 <bad_trap>

800013c4 <inst_141>:
800013c4:	55555537          	lui	a0,0x55555
800013c8:	55550513          	addi	a0,a0,1365 # 55555555 <absimm+0x10263026>
800013cc:	666665b7          	lui	a1,0x66666
800013d0:	66758593          	addi	a1,a1,1639 # 66666667 <absimm+0x21374138>
800013d4:	00b57633          	and	a2,a0,a1
800013d8:	1ec12423          	sw	a2,488(sp)
800013dc:	444440b7          	lui	ra,0x44444
800013e0:	44508093          	addi	ra,ra,1093 # 44444445 <offset+0x44444371>
800013e4:	00c08463          	beq	ra,a2,800013ec <inst_142>
800013e8:	4510306f          	j	80005038 <bad_trap>

800013ec <inst_142>:
800013ec:	55555537          	lui	a0,0x55555
800013f0:	55550513          	addi	a0,a0,1365 # 55555555 <absimm+0x10263026>
800013f4:	ffff55b7          	lui	a1,0xffff5
800013f8:	afd58593          	addi	a1,a1,-1283 # ffff4afd <imm12+0xffff502d>
800013fc:	00b57633          	and	a2,a0,a1
80001400:	1ec12623          	sw	a2,492(sp)
80001404:	555540b7          	lui	ra,0x55554
80001408:	05508093          	addi	ra,ra,85 # 55554055 <absimm+0x10261b26>
8000140c:	00c08463          	beq	ra,a2,80001414 <inst_143>
80001410:	4290306f          	j	80005038 <bad_trap>

80001414 <inst_143>:
80001414:	55555537          	lui	a0,0x55555
80001418:	55550513          	addi	a0,a0,1365 # 55555555 <absimm+0x10263026>
8000141c:	0000b5b7          	lui	a1,0xb
80001420:	50558593          	addi	a1,a1,1285 # b505 <offset+0xb431>
80001424:	00b57633          	and	a2,a0,a1
80001428:	1ec12823          	sw	a2,496(sp)
8000142c:	000010b7          	lui	ra,0x1
80001430:	50508093          	addi	ra,ra,1285 # 1505 <offset+0x1431>
80001434:	00c08463          	beq	ra,a2,8000143c <inst_144>
80001438:	4010306f          	j	80005038 <bad_trap>

8000143c <inst_144>:
8000143c:	aaaab537          	lui	a0,0xaaaab
80001440:	aaa50513          	addi	a0,a0,-1366 # aaaaaaaa <imm12+0xaaaaafda>
80001444:	00300593          	li	a1,3
80001448:	00b57633          	and	a2,a0,a1
8000144c:	1ec12a23          	sw	a2,500(sp)
80001450:	00200093          	li	ra,2
80001454:	00c08463          	beq	ra,a2,8000145c <inst_145>
80001458:	3e10306f          	j	80005038 <bad_trap>

8000145c <inst_145>:
8000145c:	aaaab537          	lui	a0,0xaaaab
80001460:	aaa50513          	addi	a0,a0,-1366 # aaaaaaaa <imm12+0xaaaaafda>
80001464:	555555b7          	lui	a1,0x55555
80001468:	55558593          	addi	a1,a1,1365 # 55555555 <absimm+0x10263026>
8000146c:	00b57633          	and	a2,a0,a1
80001470:	1ec12c23          	sw	a2,504(sp)
80001474:	00000093          	li	ra,0
80001478:	00c08463          	beq	ra,a2,80001480 <inst_146>
8000147c:	3bd0306f          	j	80005038 <bad_trap>

80001480 <inst_146>:
80001480:	aaaab537          	lui	a0,0xaaaab
80001484:	aaa50513          	addi	a0,a0,-1366 # aaaaaaaa <imm12+0xaaaaafda>
80001488:	aaaab5b7          	lui	a1,0xaaaab
8000148c:	aaa58593          	addi	a1,a1,-1366 # aaaaaaaa <imm12+0xaaaaafda>
80001490:	00b57633          	and	a2,a0,a1
80001494:	1ec12e23          	sw	a2,508(sp)
80001498:	aaaab0b7          	lui	ra,0xaaaab
8000149c:	aaa08093          	addi	ra,ra,-1366 # aaaaaaaa <imm12+0xaaaaafda>
800014a0:	00c08463          	beq	ra,a2,800014a8 <inst_147>
800014a4:	3950306f          	j	80005038 <bad_trap>

800014a8 <inst_147>:
800014a8:	aaaab537          	lui	a0,0xaaaab
800014ac:	aaa50513          	addi	a0,a0,-1366 # aaaaaaaa <imm12+0xaaaaafda>
800014b0:	00500593          	li	a1,5
800014b4:	00b57633          	and	a2,a0,a1
800014b8:	20c12023          	sw	a2,512(sp)
800014bc:	00000093          	li	ra,0
800014c0:	00c08463          	beq	ra,a2,800014c8 <inst_148>
800014c4:	3750306f          	j	80005038 <bad_trap>

800014c8 <inst_148>:
800014c8:	aaaab537          	lui	a0,0xaaaab
800014cc:	aaa50513          	addi	a0,a0,-1366 # aaaaaaaa <imm12+0xaaaaafda>
800014d0:	333335b7          	lui	a1,0x33333
800014d4:	33358593          	addi	a1,a1,819 # 33333333 <offset+0x3333325f>
800014d8:	00b57633          	and	a2,a0,a1
800014dc:	20c12223          	sw	a2,516(sp)
800014e0:	222220b7          	lui	ra,0x22222
800014e4:	22208093          	addi	ra,ra,546 # 22222222 <offset+0x2222214e>
800014e8:	00c08463          	beq	ra,a2,800014f0 <inst_149>
800014ec:	34d0306f          	j	80005038 <bad_trap>

800014f0 <inst_149>:
800014f0:	aaaab537          	lui	a0,0xaaaab
800014f4:	aaa50513          	addi	a0,a0,-1366 # aaaaaaaa <imm12+0xaaaaafda>
800014f8:	666665b7          	lui	a1,0x66666
800014fc:	66658593          	addi	a1,a1,1638 # 66666666 <absimm+0x21374137>
80001500:	00b57633          	and	a2,a0,a1
80001504:	20c12423          	sw	a2,520(sp)
80001508:	222220b7          	lui	ra,0x22222
8000150c:	22208093          	addi	ra,ra,546 # 22222222 <offset+0x2222214e>
80001510:	00c08463          	beq	ra,a2,80001518 <inst_150>
80001514:	3250306f          	j	80005038 <bad_trap>

80001518 <inst_150>:
80001518:	aaaab537          	lui	a0,0xaaaab
8000151c:	aaa50513          	addi	a0,a0,-1366 # aaaaaaaa <imm12+0xaaaaafda>
80001520:	ffff55b7          	lui	a1,0xffff5
80001524:	afc58593          	addi	a1,a1,-1284 # ffff4afc <imm12+0xffff502c>
80001528:	00b57633          	and	a2,a0,a1
8000152c:	20c12623          	sw	a2,524(sp)
80001530:	aaaa10b7          	lui	ra,0xaaaa1
80001534:	aa808093          	addi	ra,ra,-1368 # aaaa0aa8 <imm12+0xaaaa0fd8>
80001538:	00c08463          	beq	ra,a2,80001540 <inst_151>
8000153c:	2fd0306f          	j	80005038 <bad_trap>

80001540 <inst_151>:
80001540:	aaaab537          	lui	a0,0xaaaab
80001544:	aaa50513          	addi	a0,a0,-1366 # aaaaaaaa <imm12+0xaaaaafda>
80001548:	0000b5b7          	lui	a1,0xb
8000154c:	50458593          	addi	a1,a1,1284 # b504 <offset+0xb430>
80001550:	00b57633          	and	a2,a0,a1
80001554:	20c12823          	sw	a2,528(sp)
80001558:	0000a0b7          	lui	ra,0xa
8000155c:	00c08463          	beq	ra,a2,80001564 <inst_152>
80001560:	2d90306f          	j	80005038 <bad_trap>

80001564 <inst_152>:
80001564:	aaaab537          	lui	a0,0xaaaab
80001568:	aaa50513          	addi	a0,a0,-1366 # aaaaaaaa <imm12+0xaaaaafda>
8000156c:	00200593          	li	a1,2
80001570:	00b57633          	and	a2,a0,a1
80001574:	20c12a23          	sw	a2,532(sp)
80001578:	00200093          	li	ra,2
8000157c:	00c08463          	beq	ra,a2,80001584 <inst_153>
80001580:	2b90306f          	j	80005038 <bad_trap>

80001584 <inst_153>:
80001584:	aaaab537          	lui	a0,0xaaaab
80001588:	aaa50513          	addi	a0,a0,-1366 # aaaaaaaa <imm12+0xaaaaafda>
8000158c:	555555b7          	lui	a1,0x55555
80001590:	55458593          	addi	a1,a1,1364 # 55555554 <absimm+0x10263025>
80001594:	00b57633          	and	a2,a0,a1
80001598:	20c12c23          	sw	a2,536(sp)
8000159c:	00000093          	li	ra,0
800015a0:	00c08463          	beq	ra,a2,800015a8 <inst_154>
800015a4:	2950306f          	j	80005038 <bad_trap>

800015a8 <inst_154>:
800015a8:	aaaab537          	lui	a0,0xaaaab
800015ac:	aaa50513          	addi	a0,a0,-1366 # aaaaaaaa <imm12+0xaaaaafda>
800015b0:	00000593          	li	a1,0
800015b4:	00b57633          	and	a2,a0,a1
800015b8:	20c12e23          	sw	a2,540(sp)
800015bc:	00000093          	li	ra,0
800015c0:	00c08463          	beq	ra,a2,800015c8 <inst_155>
800015c4:	2750306f          	j	80005038 <bad_trap>

800015c8 <inst_155>:
800015c8:	aaaab537          	lui	a0,0xaaaab
800015cc:	aaa50513          	addi	a0,a0,-1366 # aaaaaaaa <imm12+0xaaaaafda>
800015d0:	00400593          	li	a1,4
800015d4:	00b57633          	and	a2,a0,a1
800015d8:	22c12023          	sw	a2,544(sp)
800015dc:	00000093          	li	ra,0
800015e0:	00c08463          	beq	ra,a2,800015e8 <inst_156>
800015e4:	2550306f          	j	80005038 <bad_trap>

800015e8 <inst_156>:
800015e8:	aaaab537          	lui	a0,0xaaaab
800015ec:	aaa50513          	addi	a0,a0,-1366 # aaaaaaaa <imm12+0xaaaaafda>
800015f0:	333335b7          	lui	a1,0x33333
800015f4:	33258593          	addi	a1,a1,818 # 33333332 <offset+0x3333325e>
800015f8:	00b57633          	and	a2,a0,a1
800015fc:	22c12223          	sw	a2,548(sp)
80001600:	222220b7          	lui	ra,0x22222
80001604:	22208093          	addi	ra,ra,546 # 22222222 <offset+0x2222214e>
80001608:	00c08463          	beq	ra,a2,80001610 <inst_157>
8000160c:	22d0306f          	j	80005038 <bad_trap>

80001610 <inst_157>:
80001610:	aaaab537          	lui	a0,0xaaaab
80001614:	aaa50513          	addi	a0,a0,-1366 # aaaaaaaa <imm12+0xaaaaafda>
80001618:	666665b7          	lui	a1,0x66666
8000161c:	66558593          	addi	a1,a1,1637 # 66666665 <absimm+0x21374136>
80001620:	00b57633          	and	a2,a0,a1
80001624:	22c12423          	sw	a2,552(sp)
80001628:	222220b7          	lui	ra,0x22222
8000162c:	22008093          	addi	ra,ra,544 # 22222220 <offset+0x2222214c>
80001630:	00c08463          	beq	ra,a2,80001638 <inst_158>
80001634:	2050306f          	j	80005038 <bad_trap>

80001638 <inst_158>:
80001638:	aaaab537          	lui	a0,0xaaaab
8000163c:	aaa50513          	addi	a0,a0,-1366 # aaaaaaaa <imm12+0xaaaaafda>
80001640:	0000b5b7          	lui	a1,0xb
80001644:	50358593          	addi	a1,a1,1283 # b503 <offset+0xb42f>
80001648:	00b57633          	and	a2,a0,a1
8000164c:	22c12623          	sw	a2,556(sp)
80001650:	0000a0b7          	lui	ra,0xa
80001654:	00208093          	addi	ra,ra,2 # a002 <offset+0x9f2e>
80001658:	00c08463          	beq	ra,a2,80001660 <inst_159>
8000165c:	1dd0306f          	j	80005038 <bad_trap>

80001660 <inst_159>:
80001660:	aaaab537          	lui	a0,0xaaaab
80001664:	aaa50513          	addi	a0,a0,-1366 # aaaaaaaa <imm12+0xaaaaafda>
80001668:	555555b7          	lui	a1,0x55555
8000166c:	55658593          	addi	a1,a1,1366 # 55555556 <absimm+0x10263027>
80001670:	00b57633          	and	a2,a0,a1
80001674:	22c12823          	sw	a2,560(sp)
80001678:	00200093          	li	ra,2
8000167c:	00c08463          	beq	ra,a2,80001684 <inst_160>
80001680:	1b90306f          	j	80005038 <bad_trap>

80001684 <inst_160>:
80001684:	aaaab537          	lui	a0,0xaaaab
80001688:	aaa50513          	addi	a0,a0,-1366 # aaaaaaaa <imm12+0xaaaaafda>
8000168c:	aaaab5b7          	lui	a1,0xaaaab
80001690:	aab58593          	addi	a1,a1,-1365 # aaaaaaab <imm12+0xaaaaafdb>
80001694:	00b57633          	and	a2,a0,a1
80001698:	22c12a23          	sw	a2,564(sp)
8000169c:	aaaab0b7          	lui	ra,0xaaaab
800016a0:	aaa08093          	addi	ra,ra,-1366 # aaaaaaaa <imm12+0xaaaaafda>
800016a4:	00c08463          	beq	ra,a2,800016ac <inst_161>
800016a8:	1910306f          	j	80005038 <bad_trap>

800016ac <inst_161>:
800016ac:	aaaab537          	lui	a0,0xaaaab
800016b0:	aaa50513          	addi	a0,a0,-1366 # aaaaaaaa <imm12+0xaaaaafda>
800016b4:	00600593          	li	a1,6
800016b8:	00b57633          	and	a2,a0,a1
800016bc:	22c12c23          	sw	a2,568(sp)
800016c0:	00200093          	li	ra,2
800016c4:	00c08463          	beq	ra,a2,800016cc <inst_162>
800016c8:	1710306f          	j	80005038 <bad_trap>

800016cc <inst_162>:
800016cc:	aaaab537          	lui	a0,0xaaaab
800016d0:	aaa50513          	addi	a0,a0,-1366 # aaaaaaaa <imm12+0xaaaaafda>
800016d4:	333335b7          	lui	a1,0x33333
800016d8:	33458593          	addi	a1,a1,820 # 33333334 <offset+0x33333260>
800016dc:	00b57633          	and	a2,a0,a1
800016e0:	22c12e23          	sw	a2,572(sp)
800016e4:	222220b7          	lui	ra,0x22222
800016e8:	22008093          	addi	ra,ra,544 # 22222220 <offset+0x2222214c>
800016ec:	00c08463          	beq	ra,a2,800016f4 <inst_163>
800016f0:	1490306f          	j	80005038 <bad_trap>

800016f4 <inst_163>:
800016f4:	aaaab537          	lui	a0,0xaaaab
800016f8:	aaa50513          	addi	a0,a0,-1366 # aaaaaaaa <imm12+0xaaaaafda>
800016fc:	666665b7          	lui	a1,0x66666
80001700:	66758593          	addi	a1,a1,1639 # 66666667 <absimm+0x21374138>
80001704:	00b57633          	and	a2,a0,a1
80001708:	24c12023          	sw	a2,576(sp)
8000170c:	222220b7          	lui	ra,0x22222
80001710:	22208093          	addi	ra,ra,546 # 22222222 <offset+0x2222214e>
80001714:	00c08463          	beq	ra,a2,8000171c <inst_164>
80001718:	1210306f          	j	80005038 <bad_trap>

8000171c <inst_164>:
8000171c:	aaaab537          	lui	a0,0xaaaab
80001720:	aaa50513          	addi	a0,a0,-1366 # aaaaaaaa <imm12+0xaaaaafda>
80001724:	ffff55b7          	lui	a1,0xffff5
80001728:	afd58593          	addi	a1,a1,-1283 # ffff4afd <imm12+0xffff502d>
8000172c:	00b57633          	and	a2,a0,a1
80001730:	24c12223          	sw	a2,580(sp)
80001734:	aaaa10b7          	lui	ra,0xaaaa1
80001738:	aa808093          	addi	ra,ra,-1368 # aaaa0aa8 <imm12+0xaaaa0fd8>
8000173c:	00c08463          	beq	ra,a2,80001744 <inst_165>
80001740:	0f90306f          	j	80005038 <bad_trap>

80001744 <inst_165>:
80001744:	aaaab537          	lui	a0,0xaaaab
80001748:	aaa50513          	addi	a0,a0,-1366 # aaaaaaaa <imm12+0xaaaaafda>
8000174c:	0000b5b7          	lui	a1,0xb
80001750:	50558593          	addi	a1,a1,1285 # b505 <offset+0xb431>
80001754:	00b57633          	and	a2,a0,a1
80001758:	24c12423          	sw	a2,584(sp)
8000175c:	0000a0b7          	lui	ra,0xa
80001760:	00c08463          	beq	ra,a2,80001768 <inst_166>
80001764:	0d50306f          	j	80005038 <bad_trap>

80001768 <inst_166>:
80001768:	00500513          	li	a0,5
8000176c:	00300593          	li	a1,3
80001770:	00b57633          	and	a2,a0,a1
80001774:	24c12623          	sw	a2,588(sp)
80001778:	00100093          	li	ra,1
8000177c:	00c08463          	beq	ra,a2,80001784 <inst_167>
80001780:	0b90306f          	j	80005038 <bad_trap>

80001784 <inst_167>:
80001784:	00500513          	li	a0,5
80001788:	555555b7          	lui	a1,0x55555
8000178c:	55558593          	addi	a1,a1,1365 # 55555555 <absimm+0x10263026>
80001790:	00b57633          	and	a2,a0,a1
80001794:	24c12823          	sw	a2,592(sp)
80001798:	00500093          	li	ra,5
8000179c:	00c08463          	beq	ra,a2,800017a4 <inst_168>
800017a0:	0990306f          	j	80005038 <bad_trap>

800017a4 <inst_168>:
800017a4:	00500513          	li	a0,5
800017a8:	aaaab5b7          	lui	a1,0xaaaab
800017ac:	aaa58593          	addi	a1,a1,-1366 # aaaaaaaa <imm12+0xaaaaafda>
800017b0:	00b57633          	and	a2,a0,a1
800017b4:	24c12a23          	sw	a2,596(sp)
800017b8:	00000093          	li	ra,0
800017bc:	00c08463          	beq	ra,a2,800017c4 <inst_169>
800017c0:	0790306f          	j	80005038 <bad_trap>

800017c4 <inst_169>:
800017c4:	00500513          	li	a0,5
800017c8:	333335b7          	lui	a1,0x33333
800017cc:	33358593          	addi	a1,a1,819 # 33333333 <offset+0x3333325f>
800017d0:	00b57633          	and	a2,a0,a1
800017d4:	24c12c23          	sw	a2,600(sp)
800017d8:	00100093          	li	ra,1
800017dc:	00c08463          	beq	ra,a2,800017e4 <inst_170>
800017e0:	0590306f          	j	80005038 <bad_trap>

800017e4 <inst_170>:
800017e4:	00500513          	li	a0,5
800017e8:	666665b7          	lui	a1,0x66666
800017ec:	66658593          	addi	a1,a1,1638 # 66666666 <absimm+0x21374137>
800017f0:	00b57633          	and	a2,a0,a1
800017f4:	24c12e23          	sw	a2,604(sp)
800017f8:	00400093          	li	ra,4
800017fc:	00c08463          	beq	ra,a2,80001804 <inst_171>
80001800:	0390306f          	j	80005038 <bad_trap>

80001804 <inst_171>:
80001804:	00500513          	li	a0,5
80001808:	ffff55b7          	lui	a1,0xffff5
8000180c:	afc58593          	addi	a1,a1,-1284 # ffff4afc <imm12+0xffff502c>
80001810:	00b57633          	and	a2,a0,a1
80001814:	26c12023          	sw	a2,608(sp)
80001818:	00400093          	li	ra,4
8000181c:	00c08463          	beq	ra,a2,80001824 <inst_172>
80001820:	0190306f          	j	80005038 <bad_trap>

80001824 <inst_172>:
80001824:	00500513          	li	a0,5
80001828:	0000b5b7          	lui	a1,0xb
8000182c:	50458593          	addi	a1,a1,1284 # b504 <offset+0xb430>
80001830:	00b57633          	and	a2,a0,a1
80001834:	26c12223          	sw	a2,612(sp)
80001838:	00400093          	li	ra,4
8000183c:	00c08463          	beq	ra,a2,80001844 <inst_173>
80001840:	7f80306f          	j	80005038 <bad_trap>

80001844 <inst_173>:
80001844:	00500513          	li	a0,5
80001848:	00200593          	li	a1,2
8000184c:	00b57633          	and	a2,a0,a1
80001850:	26c12423          	sw	a2,616(sp)
80001854:	00000093          	li	ra,0
80001858:	00c08463          	beq	ra,a2,80001860 <inst_174>
8000185c:	7dc0306f          	j	80005038 <bad_trap>

80001860 <inst_174>:
80001860:	00500513          	li	a0,5
80001864:	555555b7          	lui	a1,0x55555
80001868:	55458593          	addi	a1,a1,1364 # 55555554 <absimm+0x10263025>
8000186c:	00b57633          	and	a2,a0,a1
80001870:	26c12623          	sw	a2,620(sp)
80001874:	00400093          	li	ra,4
80001878:	00c08463          	beq	ra,a2,80001880 <inst_175>
8000187c:	7bc0306f          	j	80005038 <bad_trap>

80001880 <inst_175>:
80001880:	00500513          	li	a0,5
80001884:	00000593          	li	a1,0
80001888:	00b57633          	and	a2,a0,a1
8000188c:	26c12823          	sw	a2,624(sp)
80001890:	00000093          	li	ra,0
80001894:	00c08463          	beq	ra,a2,8000189c <inst_176>
80001898:	7a00306f          	j	80005038 <bad_trap>

8000189c <inst_176>:
8000189c:	00500513          	li	a0,5
800018a0:	00400593          	li	a1,4
800018a4:	00b57633          	and	a2,a0,a1
800018a8:	26c12a23          	sw	a2,628(sp)
800018ac:	00400093          	li	ra,4
800018b0:	00c08463          	beq	ra,a2,800018b8 <inst_177>
800018b4:	7840306f          	j	80005038 <bad_trap>

800018b8 <inst_177>:
800018b8:	00500513          	li	a0,5
800018bc:	333335b7          	lui	a1,0x33333
800018c0:	33258593          	addi	a1,a1,818 # 33333332 <offset+0x3333325e>
800018c4:	00b57633          	and	a2,a0,a1
800018c8:	26c12c23          	sw	a2,632(sp)
800018cc:	00000093          	li	ra,0
800018d0:	00c08463          	beq	ra,a2,800018d8 <inst_178>
800018d4:	7640306f          	j	80005038 <bad_trap>

800018d8 <inst_178>:
800018d8:	00500513          	li	a0,5
800018dc:	666665b7          	lui	a1,0x66666
800018e0:	66558593          	addi	a1,a1,1637 # 66666665 <absimm+0x21374136>
800018e4:	00b57633          	and	a2,a0,a1
800018e8:	26c12e23          	sw	a2,636(sp)
800018ec:	00500093          	li	ra,5
800018f0:	00c08463          	beq	ra,a2,800018f8 <inst_179>
800018f4:	7440306f          	j	80005038 <bad_trap>

800018f8 <inst_179>:
800018f8:	00500513          	li	a0,5
800018fc:	0000b5b7          	lui	a1,0xb
80001900:	50358593          	addi	a1,a1,1283 # b503 <offset+0xb42f>
80001904:	00b57633          	and	a2,a0,a1
80001908:	28c12023          	sw	a2,640(sp)
8000190c:	00100093          	li	ra,1
80001910:	00c08463          	beq	ra,a2,80001918 <inst_180>
80001914:	7240306f          	j	80005038 <bad_trap>

80001918 <inst_180>:
80001918:	00500513          	li	a0,5
8000191c:	555555b7          	lui	a1,0x55555
80001920:	55658593          	addi	a1,a1,1366 # 55555556 <absimm+0x10263027>
80001924:	00b57633          	and	a2,a0,a1
80001928:	28c12223          	sw	a2,644(sp)
8000192c:	00400093          	li	ra,4
80001930:	00c08463          	beq	ra,a2,80001938 <inst_181>
80001934:	7040306f          	j	80005038 <bad_trap>

80001938 <inst_181>:
80001938:	00500513          	li	a0,5
8000193c:	aaaab5b7          	lui	a1,0xaaaab
80001940:	aab58593          	addi	a1,a1,-1365 # aaaaaaab <imm12+0xaaaaafdb>
80001944:	00b57633          	and	a2,a0,a1
80001948:	28c12423          	sw	a2,648(sp)
8000194c:	00100093          	li	ra,1
80001950:	00c08463          	beq	ra,a2,80001958 <inst_182>
80001954:	6e40306f          	j	80005038 <bad_trap>

80001958 <inst_182>:
80001958:	00500513          	li	a0,5
8000195c:	00600593          	li	a1,6
80001960:	00b57633          	and	a2,a0,a1
80001964:	28c12623          	sw	a2,652(sp)
80001968:	00400093          	li	ra,4
8000196c:	00c08463          	beq	ra,a2,80001974 <inst_183>
80001970:	6c80306f          	j	80005038 <bad_trap>

80001974 <inst_183>:
80001974:	00500513          	li	a0,5
80001978:	333335b7          	lui	a1,0x33333
8000197c:	33458593          	addi	a1,a1,820 # 33333334 <offset+0x33333260>
80001980:	00b57633          	and	a2,a0,a1
80001984:	28c12823          	sw	a2,656(sp)
80001988:	00400093          	li	ra,4
8000198c:	00c08463          	beq	ra,a2,80001994 <inst_184>
80001990:	6a80306f          	j	80005038 <bad_trap>

80001994 <inst_184>:
80001994:	00500513          	li	a0,5
80001998:	666665b7          	lui	a1,0x66666
8000199c:	66758593          	addi	a1,a1,1639 # 66666667 <absimm+0x21374138>
800019a0:	00b57633          	and	a2,a0,a1
800019a4:	28c12a23          	sw	a2,660(sp)
800019a8:	00500093          	li	ra,5
800019ac:	00c08463          	beq	ra,a2,800019b4 <inst_185>
800019b0:	6880306f          	j	80005038 <bad_trap>

800019b4 <inst_185>:
800019b4:	00500513          	li	a0,5
800019b8:	ffff55b7          	lui	a1,0xffff5
800019bc:	afd58593          	addi	a1,a1,-1283 # ffff4afd <imm12+0xffff502d>
800019c0:	00b57633          	and	a2,a0,a1
800019c4:	28c12c23          	sw	a2,664(sp)
800019c8:	00500093          	li	ra,5
800019cc:	00c08463          	beq	ra,a2,800019d4 <inst_186>
800019d0:	6680306f          	j	80005038 <bad_trap>

800019d4 <inst_186>:
800019d4:	00500513          	li	a0,5
800019d8:	0000b5b7          	lui	a1,0xb
800019dc:	50558593          	addi	a1,a1,1285 # b505 <offset+0xb431>
800019e0:	00b57633          	and	a2,a0,a1
800019e4:	28c12e23          	sw	a2,668(sp)
800019e8:	00500093          	li	ra,5
800019ec:	00c08463          	beq	ra,a2,800019f4 <inst_187>
800019f0:	6480306f          	j	80005038 <bad_trap>

800019f4 <inst_187>:
800019f4:	33333537          	lui	a0,0x33333
800019f8:	33350513          	addi	a0,a0,819 # 33333333 <offset+0x3333325f>
800019fc:	00300593          	li	a1,3
80001a00:	00b57633          	and	a2,a0,a1
80001a04:	2ac12023          	sw	a2,672(sp)
80001a08:	00300093          	li	ra,3
80001a0c:	00c08463          	beq	ra,a2,80001a14 <inst_188>
80001a10:	6280306f          	j	80005038 <bad_trap>

80001a14 <inst_188>:
80001a14:	33333537          	lui	a0,0x33333
80001a18:	33350513          	addi	a0,a0,819 # 33333333 <offset+0x3333325f>
80001a1c:	555555b7          	lui	a1,0x55555
80001a20:	55558593          	addi	a1,a1,1365 # 55555555 <absimm+0x10263026>
80001a24:	00b57633          	and	a2,a0,a1
80001a28:	2ac12223          	sw	a2,676(sp)
80001a2c:	111110b7          	lui	ra,0x11111
80001a30:	11108093          	addi	ra,ra,273 # 11111111 <offset+0x1111103d>
80001a34:	00c08463          	beq	ra,a2,80001a3c <inst_189>
80001a38:	6000306f          	j	80005038 <bad_trap>

80001a3c <inst_189>:
80001a3c:	33333537          	lui	a0,0x33333
80001a40:	33350513          	addi	a0,a0,819 # 33333333 <offset+0x3333325f>
80001a44:	aaaab5b7          	lui	a1,0xaaaab
80001a48:	aaa58593          	addi	a1,a1,-1366 # aaaaaaaa <imm12+0xaaaaafda>
80001a4c:	00b57633          	and	a2,a0,a1
80001a50:	2ac12423          	sw	a2,680(sp)
80001a54:	222220b7          	lui	ra,0x22222
80001a58:	22208093          	addi	ra,ra,546 # 22222222 <offset+0x2222214e>
80001a5c:	00c08463          	beq	ra,a2,80001a64 <inst_190>
80001a60:	5d80306f          	j	80005038 <bad_trap>

80001a64 <inst_190>:
80001a64:	33333537          	lui	a0,0x33333
80001a68:	33350513          	addi	a0,a0,819 # 33333333 <offset+0x3333325f>
80001a6c:	00500593          	li	a1,5
80001a70:	00b57633          	and	a2,a0,a1
80001a74:	2ac12623          	sw	a2,684(sp)
80001a78:	00100093          	li	ra,1
80001a7c:	00c08463          	beq	ra,a2,80001a84 <inst_191>
80001a80:	5b80306f          	j	80005038 <bad_trap>

80001a84 <inst_191>:
80001a84:	33333537          	lui	a0,0x33333
80001a88:	33350513          	addi	a0,a0,819 # 33333333 <offset+0x3333325f>
80001a8c:	333335b7          	lui	a1,0x33333
80001a90:	33358593          	addi	a1,a1,819 # 33333333 <offset+0x3333325f>
80001a94:	00b57633          	and	a2,a0,a1
80001a98:	2ac12823          	sw	a2,688(sp)
80001a9c:	333330b7          	lui	ra,0x33333
80001aa0:	33308093          	addi	ra,ra,819 # 33333333 <offset+0x3333325f>
80001aa4:	00c08463          	beq	ra,a2,80001aac <inst_192>
80001aa8:	5900306f          	j	80005038 <bad_trap>

80001aac <inst_192>:
80001aac:	33333537          	lui	a0,0x33333
80001ab0:	33350513          	addi	a0,a0,819 # 33333333 <offset+0x3333325f>
80001ab4:	666665b7          	lui	a1,0x66666
80001ab8:	66658593          	addi	a1,a1,1638 # 66666666 <absimm+0x21374137>
80001abc:	00b57633          	and	a2,a0,a1
80001ac0:	2ac12a23          	sw	a2,692(sp)
80001ac4:	222220b7          	lui	ra,0x22222
80001ac8:	22208093          	addi	ra,ra,546 # 22222222 <offset+0x2222214e>
80001acc:	00c08463          	beq	ra,a2,80001ad4 <inst_193>
80001ad0:	5680306f          	j	80005038 <bad_trap>

80001ad4 <inst_193>:
80001ad4:	33333537          	lui	a0,0x33333
80001ad8:	33350513          	addi	a0,a0,819 # 33333333 <offset+0x3333325f>
80001adc:	ffff55b7          	lui	a1,0xffff5
80001ae0:	afc58593          	addi	a1,a1,-1284 # ffff4afc <imm12+0xffff502c>
80001ae4:	00b57633          	and	a2,a0,a1
80001ae8:	2ac12c23          	sw	a2,696(sp)
80001aec:	333300b7          	lui	ra,0x33330
80001af0:	23008093          	addi	ra,ra,560 # 33330230 <offset+0x3333015c>
80001af4:	00c08463          	beq	ra,a2,80001afc <inst_194>
80001af8:	5400306f          	j	80005038 <bad_trap>

80001afc <inst_194>:
80001afc:	33333537          	lui	a0,0x33333
80001b00:	33350513          	addi	a0,a0,819 # 33333333 <offset+0x3333325f>
80001b04:	0000b5b7          	lui	a1,0xb
80001b08:	50458593          	addi	a1,a1,1284 # b504 <offset+0xb430>
80001b0c:	00b57633          	and	a2,a0,a1
80001b10:	2ac12e23          	sw	a2,700(sp)
80001b14:	000030b7          	lui	ra,0x3
80001b18:	10008093          	addi	ra,ra,256 # 3100 <offset+0x302c>
80001b1c:	00c08463          	beq	ra,a2,80001b24 <inst_195>
80001b20:	5180306f          	j	80005038 <bad_trap>

80001b24 <inst_195>:
80001b24:	33333537          	lui	a0,0x33333
80001b28:	33350513          	addi	a0,a0,819 # 33333333 <offset+0x3333325f>
80001b2c:	00200593          	li	a1,2
80001b30:	00b57633          	and	a2,a0,a1
80001b34:	2cc12023          	sw	a2,704(sp)
80001b38:	00200093          	li	ra,2
80001b3c:	00c08463          	beq	ra,a2,80001b44 <inst_196>
80001b40:	4f80306f          	j	80005038 <bad_trap>

80001b44 <inst_196>:
80001b44:	33333537          	lui	a0,0x33333
80001b48:	33350513          	addi	a0,a0,819 # 33333333 <offset+0x3333325f>
80001b4c:	555555b7          	lui	a1,0x55555
80001b50:	55458593          	addi	a1,a1,1364 # 55555554 <absimm+0x10263025>
80001b54:	00b57633          	and	a2,a0,a1
80001b58:	2cc12223          	sw	a2,708(sp)
80001b5c:	111110b7          	lui	ra,0x11111
80001b60:	11008093          	addi	ra,ra,272 # 11111110 <offset+0x1111103c>
80001b64:	00c08463          	beq	ra,a2,80001b6c <inst_197>
80001b68:	4d00306f          	j	80005038 <bad_trap>

80001b6c <inst_197>:
80001b6c:	33333537          	lui	a0,0x33333
80001b70:	33350513          	addi	a0,a0,819 # 33333333 <offset+0x3333325f>
80001b74:	00400593          	li	a1,4
80001b78:	00b57633          	and	a2,a0,a1
80001b7c:	2cc12423          	sw	a2,712(sp)
80001b80:	00000093          	li	ra,0
80001b84:	00c08463          	beq	ra,a2,80001b8c <inst_198>
80001b88:	4b00306f          	j	80005038 <bad_trap>

80001b8c <inst_198>:
80001b8c:	33333537          	lui	a0,0x33333
80001b90:	33350513          	addi	a0,a0,819 # 33333333 <offset+0x3333325f>
80001b94:	333335b7          	lui	a1,0x33333
80001b98:	33258593          	addi	a1,a1,818 # 33333332 <offset+0x3333325e>
80001b9c:	00b57633          	and	a2,a0,a1
80001ba0:	2cc12623          	sw	a2,716(sp)
80001ba4:	333330b7          	lui	ra,0x33333
80001ba8:	33208093          	addi	ra,ra,818 # 33333332 <offset+0x3333325e>
80001bac:	00c08463          	beq	ra,a2,80001bb4 <inst_199>
80001bb0:	4880306f          	j	80005038 <bad_trap>

80001bb4 <inst_199>:
80001bb4:	33333537          	lui	a0,0x33333
80001bb8:	33350513          	addi	a0,a0,819 # 33333333 <offset+0x3333325f>
80001bbc:	666665b7          	lui	a1,0x66666
80001bc0:	66558593          	addi	a1,a1,1637 # 66666665 <absimm+0x21374136>
80001bc4:	00b57633          	and	a2,a0,a1
80001bc8:	2cc12823          	sw	a2,720(sp)
80001bcc:	222220b7          	lui	ra,0x22222
80001bd0:	22108093          	addi	ra,ra,545 # 22222221 <offset+0x2222214d>
80001bd4:	00c08463          	beq	ra,a2,80001bdc <inst_200>
80001bd8:	4600306f          	j	80005038 <bad_trap>

80001bdc <inst_200>:
80001bdc:	33333537          	lui	a0,0x33333
80001be0:	33350513          	addi	a0,a0,819 # 33333333 <offset+0x3333325f>
80001be4:	0000b5b7          	lui	a1,0xb
80001be8:	50358593          	addi	a1,a1,1283 # b503 <offset+0xb42f>
80001bec:	00b57633          	and	a2,a0,a1
80001bf0:	2cc12a23          	sw	a2,724(sp)
80001bf4:	000030b7          	lui	ra,0x3
80001bf8:	10308093          	addi	ra,ra,259 # 3103 <offset+0x302f>
80001bfc:	00c08463          	beq	ra,a2,80001c04 <inst_201>
80001c00:	4380306f          	j	80005038 <bad_trap>

80001c04 <inst_201>:
80001c04:	33333537          	lui	a0,0x33333
80001c08:	33350513          	addi	a0,a0,819 # 33333333 <offset+0x3333325f>
80001c0c:	555555b7          	lui	a1,0x55555
80001c10:	55658593          	addi	a1,a1,1366 # 55555556 <absimm+0x10263027>
80001c14:	00b57633          	and	a2,a0,a1
80001c18:	2cc12c23          	sw	a2,728(sp)
80001c1c:	111110b7          	lui	ra,0x11111
80001c20:	11208093          	addi	ra,ra,274 # 11111112 <offset+0x1111103e>
80001c24:	00c08463          	beq	ra,a2,80001c2c <inst_202>
80001c28:	4100306f          	j	80005038 <bad_trap>

80001c2c <inst_202>:
80001c2c:	33333537          	lui	a0,0x33333
80001c30:	33350513          	addi	a0,a0,819 # 33333333 <offset+0x3333325f>
80001c34:	aaaab5b7          	lui	a1,0xaaaab
80001c38:	aab58593          	addi	a1,a1,-1365 # aaaaaaab <imm12+0xaaaaafdb>
80001c3c:	00b57633          	and	a2,a0,a1
80001c40:	2cc12e23          	sw	a2,732(sp)
80001c44:	222220b7          	lui	ra,0x22222
80001c48:	22308093          	addi	ra,ra,547 # 22222223 <offset+0x2222214f>
80001c4c:	00c08463          	beq	ra,a2,80001c54 <inst_203>
80001c50:	3e80306f          	j	80005038 <bad_trap>

80001c54 <inst_203>:
80001c54:	33333537          	lui	a0,0x33333
80001c58:	33350513          	addi	a0,a0,819 # 33333333 <offset+0x3333325f>
80001c5c:	00600593          	li	a1,6
80001c60:	00b57633          	and	a2,a0,a1
80001c64:	2ec12023          	sw	a2,736(sp)
80001c68:	00200093          	li	ra,2
80001c6c:	00c08463          	beq	ra,a2,80001c74 <inst_204>
80001c70:	3c80306f          	j	80005038 <bad_trap>

80001c74 <inst_204>:
80001c74:	33333537          	lui	a0,0x33333
80001c78:	33350513          	addi	a0,a0,819 # 33333333 <offset+0x3333325f>
80001c7c:	333335b7          	lui	a1,0x33333
80001c80:	33458593          	addi	a1,a1,820 # 33333334 <offset+0x33333260>
80001c84:	00b57633          	and	a2,a0,a1
80001c88:	2ec12223          	sw	a2,740(sp)
80001c8c:	333330b7          	lui	ra,0x33333
80001c90:	33008093          	addi	ra,ra,816 # 33333330 <offset+0x3333325c>
80001c94:	00c08463          	beq	ra,a2,80001c9c <inst_205>
80001c98:	3a00306f          	j	80005038 <bad_trap>

80001c9c <inst_205>:
80001c9c:	33333537          	lui	a0,0x33333
80001ca0:	33350513          	addi	a0,a0,819 # 33333333 <offset+0x3333325f>
80001ca4:	666665b7          	lui	a1,0x66666
80001ca8:	66758593          	addi	a1,a1,1639 # 66666667 <absimm+0x21374138>
80001cac:	00b57633          	and	a2,a0,a1
80001cb0:	2ec12423          	sw	a2,744(sp)
80001cb4:	222220b7          	lui	ra,0x22222
80001cb8:	22308093          	addi	ra,ra,547 # 22222223 <offset+0x2222214f>
80001cbc:	00c08463          	beq	ra,a2,80001cc4 <inst_206>
80001cc0:	3780306f          	j	80005038 <bad_trap>

80001cc4 <inst_206>:
80001cc4:	33333537          	lui	a0,0x33333
80001cc8:	33350513          	addi	a0,a0,819 # 33333333 <offset+0x3333325f>
80001ccc:	ffff55b7          	lui	a1,0xffff5
80001cd0:	afd58593          	addi	a1,a1,-1283 # ffff4afd <imm12+0xffff502d>
80001cd4:	00b57633          	and	a2,a0,a1
80001cd8:	2ec12623          	sw	a2,748(sp)
80001cdc:	333300b7          	lui	ra,0x33330
80001ce0:	23108093          	addi	ra,ra,561 # 33330231 <offset+0x3333015d>
80001ce4:	00c08463          	beq	ra,a2,80001cec <inst_207>
80001ce8:	3500306f          	j	80005038 <bad_trap>

80001cec <inst_207>:
80001cec:	33333537          	lui	a0,0x33333
80001cf0:	33350513          	addi	a0,a0,819 # 33333333 <offset+0x3333325f>
80001cf4:	0000b5b7          	lui	a1,0xb
80001cf8:	50558593          	addi	a1,a1,1285 # b505 <offset+0xb431>
80001cfc:	00b57633          	and	a2,a0,a1
80001d00:	2ec12823          	sw	a2,752(sp)
80001d04:	000030b7          	lui	ra,0x3
80001d08:	10108093          	addi	ra,ra,257 # 3101 <offset+0x302d>
80001d0c:	00c08463          	beq	ra,a2,80001d14 <inst_208>
80001d10:	3280306f          	j	80005038 <bad_trap>

80001d14 <inst_208>:
80001d14:	66666537          	lui	a0,0x66666
80001d18:	66650513          	addi	a0,a0,1638 # 66666666 <absimm+0x21374137>
80001d1c:	00300593          	li	a1,3
80001d20:	00b57633          	and	a2,a0,a1
80001d24:	2ec12a23          	sw	a2,756(sp)
80001d28:	00200093          	li	ra,2
80001d2c:	00c08463          	beq	ra,a2,80001d34 <inst_209>
80001d30:	3080306f          	j	80005038 <bad_trap>

80001d34 <inst_209>:
80001d34:	66666537          	lui	a0,0x66666
80001d38:	66650513          	addi	a0,a0,1638 # 66666666 <absimm+0x21374137>
80001d3c:	555555b7          	lui	a1,0x55555
80001d40:	55558593          	addi	a1,a1,1365 # 55555555 <absimm+0x10263026>
80001d44:	00b57633          	and	a2,a0,a1
80001d48:	2ec12c23          	sw	a2,760(sp)
80001d4c:	444440b7          	lui	ra,0x44444
80001d50:	44408093          	addi	ra,ra,1092 # 44444444 <offset+0x44444370>
80001d54:	00c08463          	beq	ra,a2,80001d5c <inst_210>
80001d58:	2e00306f          	j	80005038 <bad_trap>

80001d5c <inst_210>:
80001d5c:	66666537          	lui	a0,0x66666
80001d60:	66650513          	addi	a0,a0,1638 # 66666666 <absimm+0x21374137>
80001d64:	aaaab5b7          	lui	a1,0xaaaab
80001d68:	aaa58593          	addi	a1,a1,-1366 # aaaaaaaa <imm12+0xaaaaafda>
80001d6c:	00b57633          	and	a2,a0,a1
80001d70:	2ec12e23          	sw	a2,764(sp)
80001d74:	222220b7          	lui	ra,0x22222
80001d78:	22208093          	addi	ra,ra,546 # 22222222 <offset+0x2222214e>
80001d7c:	00c08463          	beq	ra,a2,80001d84 <inst_211>
80001d80:	2b80306f          	j	80005038 <bad_trap>

80001d84 <inst_211>:
80001d84:	66666537          	lui	a0,0x66666
80001d88:	66650513          	addi	a0,a0,1638 # 66666666 <absimm+0x21374137>
80001d8c:	00500593          	li	a1,5
80001d90:	00b57633          	and	a2,a0,a1
80001d94:	30c12023          	sw	a2,768(sp)
80001d98:	00400093          	li	ra,4
80001d9c:	00c08463          	beq	ra,a2,80001da4 <inst_212>
80001da0:	2980306f          	j	80005038 <bad_trap>

80001da4 <inst_212>:
80001da4:	66666537          	lui	a0,0x66666
80001da8:	66650513          	addi	a0,a0,1638 # 66666666 <absimm+0x21374137>
80001dac:	333335b7          	lui	a1,0x33333
80001db0:	33358593          	addi	a1,a1,819 # 33333333 <offset+0x3333325f>
80001db4:	00b57633          	and	a2,a0,a1
80001db8:	30c12223          	sw	a2,772(sp)
80001dbc:	222220b7          	lui	ra,0x22222
80001dc0:	22208093          	addi	ra,ra,546 # 22222222 <offset+0x2222214e>
80001dc4:	00c08463          	beq	ra,a2,80001dcc <inst_213>
80001dc8:	2700306f          	j	80005038 <bad_trap>

80001dcc <inst_213>:
80001dcc:	66666537          	lui	a0,0x66666
80001dd0:	66650513          	addi	a0,a0,1638 # 66666666 <absimm+0x21374137>
80001dd4:	666665b7          	lui	a1,0x66666
80001dd8:	66658593          	addi	a1,a1,1638 # 66666666 <absimm+0x21374137>
80001ddc:	00b57633          	and	a2,a0,a1
80001de0:	30c12423          	sw	a2,776(sp)
80001de4:	666660b7          	lui	ra,0x66666
80001de8:	66608093          	addi	ra,ra,1638 # 66666666 <absimm+0x21374137>
80001dec:	00c08463          	beq	ra,a2,80001df4 <inst_214>
80001df0:	2480306f          	j	80005038 <bad_trap>

80001df4 <inst_214>:
80001df4:	66666537          	lui	a0,0x66666
80001df8:	66650513          	addi	a0,a0,1638 # 66666666 <absimm+0x21374137>
80001dfc:	ffff55b7          	lui	a1,0xffff5
80001e00:	afc58593          	addi	a1,a1,-1284 # ffff4afc <imm12+0xffff502c>
80001e04:	00b57633          	and	a2,a0,a1
80001e08:	30c12623          	sw	a2,780(sp)
80001e0c:	666640b7          	lui	ra,0x66664
80001e10:	26408093          	addi	ra,ra,612 # 66664264 <absimm+0x21371d35>
80001e14:	00c08463          	beq	ra,a2,80001e1c <inst_215>
80001e18:	2200306f          	j	80005038 <bad_trap>

80001e1c <inst_215>:
80001e1c:	66666537          	lui	a0,0x66666
80001e20:	66650513          	addi	a0,a0,1638 # 66666666 <absimm+0x21374137>
80001e24:	0000b5b7          	lui	a1,0xb
80001e28:	50458593          	addi	a1,a1,1284 # b504 <offset+0xb430>
80001e2c:	00b57633          	and	a2,a0,a1
80001e30:	30c12823          	sw	a2,784(sp)
80001e34:	000020b7          	lui	ra,0x2
80001e38:	40408093          	addi	ra,ra,1028 # 2404 <offset+0x2330>
80001e3c:	00c08463          	beq	ra,a2,80001e44 <inst_216>
80001e40:	1f80306f          	j	80005038 <bad_trap>

80001e44 <inst_216>:
80001e44:	66666537          	lui	a0,0x66666
80001e48:	66650513          	addi	a0,a0,1638 # 66666666 <absimm+0x21374137>
80001e4c:	00200593          	li	a1,2
80001e50:	00b57633          	and	a2,a0,a1
80001e54:	30c12a23          	sw	a2,788(sp)
80001e58:	00200093          	li	ra,2
80001e5c:	00c08463          	beq	ra,a2,80001e64 <inst_217>
80001e60:	1d80306f          	j	80005038 <bad_trap>

80001e64 <inst_217>:
80001e64:	66666537          	lui	a0,0x66666
80001e68:	66650513          	addi	a0,a0,1638 # 66666666 <absimm+0x21374137>
80001e6c:	555555b7          	lui	a1,0x55555
80001e70:	55458593          	addi	a1,a1,1364 # 55555554 <absimm+0x10263025>
80001e74:	00b57633          	and	a2,a0,a1
80001e78:	30c12c23          	sw	a2,792(sp)
80001e7c:	444440b7          	lui	ra,0x44444
80001e80:	44408093          	addi	ra,ra,1092 # 44444444 <offset+0x44444370>
80001e84:	00c08463          	beq	ra,a2,80001e8c <inst_218>
80001e88:	1b00306f          	j	80005038 <bad_trap>

80001e8c <inst_218>:
80001e8c:	66666537          	lui	a0,0x66666
80001e90:	66650513          	addi	a0,a0,1638 # 66666666 <absimm+0x21374137>
80001e94:	00000593          	li	a1,0
80001e98:	00b57633          	and	a2,a0,a1
80001e9c:	30c12e23          	sw	a2,796(sp)
80001ea0:	00000093          	li	ra,0
80001ea4:	00c08463          	beq	ra,a2,80001eac <inst_219>
80001ea8:	1900306f          	j	80005038 <bad_trap>

80001eac <inst_219>:
80001eac:	66666537          	lui	a0,0x66666
80001eb0:	66650513          	addi	a0,a0,1638 # 66666666 <absimm+0x21374137>
80001eb4:	00400593          	li	a1,4
80001eb8:	00b57633          	and	a2,a0,a1
80001ebc:	32c12023          	sw	a2,800(sp)
80001ec0:	00400093          	li	ra,4
80001ec4:	00c08463          	beq	ra,a2,80001ecc <inst_220>
80001ec8:	1700306f          	j	80005038 <bad_trap>

80001ecc <inst_220>:
80001ecc:	66666537          	lui	a0,0x66666
80001ed0:	66650513          	addi	a0,a0,1638 # 66666666 <absimm+0x21374137>
80001ed4:	333335b7          	lui	a1,0x33333
80001ed8:	33258593          	addi	a1,a1,818 # 33333332 <offset+0x3333325e>
80001edc:	00b57633          	and	a2,a0,a1
80001ee0:	32c12223          	sw	a2,804(sp)
80001ee4:	222220b7          	lui	ra,0x22222
80001ee8:	22208093          	addi	ra,ra,546 # 22222222 <offset+0x2222214e>
80001eec:	00c08463          	beq	ra,a2,80001ef4 <inst_221>
80001ef0:	1480306f          	j	80005038 <bad_trap>

80001ef4 <inst_221>:
80001ef4:	66666537          	lui	a0,0x66666
80001ef8:	66650513          	addi	a0,a0,1638 # 66666666 <absimm+0x21374137>
80001efc:	666665b7          	lui	a1,0x66666
80001f00:	66558593          	addi	a1,a1,1637 # 66666665 <absimm+0x21374136>
80001f04:	00b57633          	and	a2,a0,a1
80001f08:	32c12423          	sw	a2,808(sp)
80001f0c:	666660b7          	lui	ra,0x66666
80001f10:	66408093          	addi	ra,ra,1636 # 66666664 <absimm+0x21374135>
80001f14:	00c08463          	beq	ra,a2,80001f1c <inst_222>
80001f18:	1200306f          	j	80005038 <bad_trap>

80001f1c <inst_222>:
80001f1c:	66666537          	lui	a0,0x66666
80001f20:	66650513          	addi	a0,a0,1638 # 66666666 <absimm+0x21374137>
80001f24:	0000b5b7          	lui	a1,0xb
80001f28:	50358593          	addi	a1,a1,1283 # b503 <offset+0xb42f>
80001f2c:	00b57633          	and	a2,a0,a1
80001f30:	32c12623          	sw	a2,812(sp)
80001f34:	000020b7          	lui	ra,0x2
80001f38:	40208093          	addi	ra,ra,1026 # 2402 <offset+0x232e>
80001f3c:	00c08463          	beq	ra,a2,80001f44 <inst_223>
80001f40:	0f80306f          	j	80005038 <bad_trap>

80001f44 <inst_223>:
80001f44:	66666537          	lui	a0,0x66666
80001f48:	66650513          	addi	a0,a0,1638 # 66666666 <absimm+0x21374137>
80001f4c:	555555b7          	lui	a1,0x55555
80001f50:	55658593          	addi	a1,a1,1366 # 55555556 <absimm+0x10263027>
80001f54:	00b57633          	and	a2,a0,a1
80001f58:	32c12823          	sw	a2,816(sp)
80001f5c:	444440b7          	lui	ra,0x44444
80001f60:	44608093          	addi	ra,ra,1094 # 44444446 <offset+0x44444372>
80001f64:	00c08463          	beq	ra,a2,80001f6c <inst_224>
80001f68:	0d00306f          	j	80005038 <bad_trap>

80001f6c <inst_224>:
80001f6c:	66666537          	lui	a0,0x66666
80001f70:	66650513          	addi	a0,a0,1638 # 66666666 <absimm+0x21374137>
80001f74:	aaaab5b7          	lui	a1,0xaaaab
80001f78:	aab58593          	addi	a1,a1,-1365 # aaaaaaab <imm12+0xaaaaafdb>
80001f7c:	00b57633          	and	a2,a0,a1
80001f80:	32c12a23          	sw	a2,820(sp)
80001f84:	222220b7          	lui	ra,0x22222
80001f88:	22208093          	addi	ra,ra,546 # 22222222 <offset+0x2222214e>
80001f8c:	00c08463          	beq	ra,a2,80001f94 <inst_225>
80001f90:	0a80306f          	j	80005038 <bad_trap>

80001f94 <inst_225>:
80001f94:	66666537          	lui	a0,0x66666
80001f98:	66650513          	addi	a0,a0,1638 # 66666666 <absimm+0x21374137>
80001f9c:	00600593          	li	a1,6
80001fa0:	00b57633          	and	a2,a0,a1
80001fa4:	32c12c23          	sw	a2,824(sp)
80001fa8:	00600093          	li	ra,6
80001fac:	00c08463          	beq	ra,a2,80001fb4 <inst_226>
80001fb0:	0880306f          	j	80005038 <bad_trap>

80001fb4 <inst_226>:
80001fb4:	66666537          	lui	a0,0x66666
80001fb8:	66650513          	addi	a0,a0,1638 # 66666666 <absimm+0x21374137>
80001fbc:	333335b7          	lui	a1,0x33333
80001fc0:	33458593          	addi	a1,a1,820 # 33333334 <offset+0x33333260>
80001fc4:	00b57633          	and	a2,a0,a1
80001fc8:	32c12e23          	sw	a2,828(sp)
80001fcc:	222220b7          	lui	ra,0x22222
80001fd0:	22408093          	addi	ra,ra,548 # 22222224 <offset+0x22222150>
80001fd4:	00c08463          	beq	ra,a2,80001fdc <inst_227>
80001fd8:	0600306f          	j	80005038 <bad_trap>

80001fdc <inst_227>:
80001fdc:	66666537          	lui	a0,0x66666
80001fe0:	66650513          	addi	a0,a0,1638 # 66666666 <absimm+0x21374137>
80001fe4:	666665b7          	lui	a1,0x66666
80001fe8:	66758593          	addi	a1,a1,1639 # 66666667 <absimm+0x21374138>
80001fec:	00b57633          	and	a2,a0,a1
80001ff0:	34c12023          	sw	a2,832(sp)
80001ff4:	666660b7          	lui	ra,0x66666
80001ff8:	66608093          	addi	ra,ra,1638 # 66666666 <absimm+0x21374137>
80001ffc:	00c08463          	beq	ra,a2,80002004 <inst_228>
80002000:	0380306f          	j	80005038 <bad_trap>

80002004 <inst_228>:
80002004:	66666537          	lui	a0,0x66666
80002008:	66650513          	addi	a0,a0,1638 # 66666666 <absimm+0x21374137>
8000200c:	ffff55b7          	lui	a1,0xffff5
80002010:	afd58593          	addi	a1,a1,-1283 # ffff4afd <imm12+0xffff502d>
80002014:	00b57633          	and	a2,a0,a1
80002018:	34c12223          	sw	a2,836(sp)
8000201c:	666640b7          	lui	ra,0x66664
80002020:	26408093          	addi	ra,ra,612 # 66664264 <absimm+0x21371d35>
80002024:	00c08463          	beq	ra,a2,8000202c <inst_229>
80002028:	0100306f          	j	80005038 <bad_trap>

8000202c <inst_229>:
8000202c:	66666537          	lui	a0,0x66666
80002030:	66650513          	addi	a0,a0,1638 # 66666666 <absimm+0x21374137>
80002034:	0000b5b7          	lui	a1,0xb
80002038:	50558593          	addi	a1,a1,1285 # b505 <offset+0xb431>
8000203c:	00b57633          	and	a2,a0,a1
80002040:	34c12423          	sw	a2,840(sp)
80002044:	000020b7          	lui	ra,0x2
80002048:	40408093          	addi	ra,ra,1028 # 2404 <offset+0x2330>
8000204c:	00c08463          	beq	ra,a2,80002054 <inst_230>
80002050:	7e90206f          	j	80005038 <bad_trap>

80002054 <inst_230>:
80002054:	ffff5537          	lui	a0,0xffff5
80002058:	afc50513          	addi	a0,a0,-1284 # ffff4afc <imm12+0xffff502c>
8000205c:	00300593          	li	a1,3
80002060:	00b57633          	and	a2,a0,a1
80002064:	34c12623          	sw	a2,844(sp)
80002068:	00000093          	li	ra,0
8000206c:	00c08463          	beq	ra,a2,80002074 <inst_231>
80002070:	7c90206f          	j	80005038 <bad_trap>

80002074 <inst_231>:
80002074:	ffff5537          	lui	a0,0xffff5
80002078:	afc50513          	addi	a0,a0,-1284 # ffff4afc <imm12+0xffff502c>
8000207c:	555555b7          	lui	a1,0x55555
80002080:	55558593          	addi	a1,a1,1365 # 55555555 <absimm+0x10263026>
80002084:	00b57633          	and	a2,a0,a1
80002088:	34c12823          	sw	a2,848(sp)
8000208c:	555540b7          	lui	ra,0x55554
80002090:	05408093          	addi	ra,ra,84 # 55554054 <absimm+0x10261b25>
80002094:	00c08463          	beq	ra,a2,8000209c <inst_232>
80002098:	7a10206f          	j	80005038 <bad_trap>

8000209c <inst_232>:
8000209c:	ffff5537          	lui	a0,0xffff5
800020a0:	afc50513          	addi	a0,a0,-1284 # ffff4afc <imm12+0xffff502c>
800020a4:	00500593          	li	a1,5
800020a8:	00b57633          	and	a2,a0,a1
800020ac:	34c12a23          	sw	a2,852(sp)
800020b0:	00400093          	li	ra,4
800020b4:	00c08463          	beq	ra,a2,800020bc <inst_233>
800020b8:	7810206f          	j	80005038 <bad_trap>

800020bc <inst_233>:
800020bc:	ffff5537          	lui	a0,0xffff5
800020c0:	afc50513          	addi	a0,a0,-1284 # ffff4afc <imm12+0xffff502c>
800020c4:	333335b7          	lui	a1,0x33333
800020c8:	33358593          	addi	a1,a1,819 # 33333333 <offset+0x3333325f>
800020cc:	00b57633          	and	a2,a0,a1
800020d0:	34c12c23          	sw	a2,856(sp)
800020d4:	333300b7          	lui	ra,0x33330
800020d8:	23008093          	addi	ra,ra,560 # 33330230 <offset+0x3333015c>
800020dc:	00c08463          	beq	ra,a2,800020e4 <inst_234>
800020e0:	7590206f          	j	80005038 <bad_trap>

800020e4 <inst_234>:
800020e4:	ffff5537          	lui	a0,0xffff5
800020e8:	afc50513          	addi	a0,a0,-1284 # ffff4afc <imm12+0xffff502c>
800020ec:	666665b7          	lui	a1,0x66666
800020f0:	66658593          	addi	a1,a1,1638 # 66666666 <absimm+0x21374137>
800020f4:	00b57633          	and	a2,a0,a1
800020f8:	34c12e23          	sw	a2,860(sp)
800020fc:	666640b7          	lui	ra,0x66664
80002100:	26408093          	addi	ra,ra,612 # 66664264 <absimm+0x21371d35>
80002104:	00c08463          	beq	ra,a2,8000210c <inst_235>
80002108:	7310206f          	j	80005038 <bad_trap>

8000210c <inst_235>:
8000210c:	ffff5537          	lui	a0,0xffff5
80002110:	afc50513          	addi	a0,a0,-1284 # ffff4afc <imm12+0xffff502c>
80002114:	ffff55b7          	lui	a1,0xffff5
80002118:	afc58593          	addi	a1,a1,-1284 # ffff4afc <imm12+0xffff502c>
8000211c:	00b57633          	and	a2,a0,a1
80002120:	36c12023          	sw	a2,864(sp)
80002124:	ffff50b7          	lui	ra,0xffff5
80002128:	afc08093          	addi	ra,ra,-1284 # ffff4afc <imm12+0xffff502c>
8000212c:	00c08463          	beq	ra,a2,80002134 <inst_236>
80002130:	7090206f          	j	80005038 <bad_trap>

80002134 <inst_236>:
80002134:	ffff5537          	lui	a0,0xffff5
80002138:	afc50513          	addi	a0,a0,-1284 # ffff4afc <imm12+0xffff502c>
8000213c:	0000b5b7          	lui	a1,0xb
80002140:	50458593          	addi	a1,a1,1284 # b504 <offset+0xb430>
80002144:	00b57633          	and	a2,a0,a1
80002148:	36c12223          	sw	a2,868(sp)
8000214c:	00400093          	li	ra,4
80002150:	00c08463          	beq	ra,a2,80002158 <inst_237>
80002154:	6e50206f          	j	80005038 <bad_trap>

80002158 <inst_237>:
80002158:	ffff5537          	lui	a0,0xffff5
8000215c:	afc50513          	addi	a0,a0,-1284 # ffff4afc <imm12+0xffff502c>
80002160:	00200593          	li	a1,2
80002164:	00b57633          	and	a2,a0,a1
80002168:	36c12423          	sw	a2,872(sp)
8000216c:	00000093          	li	ra,0
80002170:	00c08463          	beq	ra,a2,80002178 <inst_238>
80002174:	6c50206f          	j	80005038 <bad_trap>

80002178 <inst_238>:
80002178:	ffff5537          	lui	a0,0xffff5
8000217c:	afc50513          	addi	a0,a0,-1284 # ffff4afc <imm12+0xffff502c>
80002180:	555555b7          	lui	a1,0x55555
80002184:	55458593          	addi	a1,a1,1364 # 55555554 <absimm+0x10263025>
80002188:	00b57633          	and	a2,a0,a1
8000218c:	36c12623          	sw	a2,876(sp)
80002190:	555540b7          	lui	ra,0x55554
80002194:	05408093          	addi	ra,ra,84 # 55554054 <absimm+0x10261b25>
80002198:	00c08463          	beq	ra,a2,800021a0 <inst_239>
8000219c:	69d0206f          	j	80005038 <bad_trap>

800021a0 <inst_239>:
800021a0:	ffff5537          	lui	a0,0xffff5
800021a4:	afc50513          	addi	a0,a0,-1284 # ffff4afc <imm12+0xffff502c>
800021a8:	00000593          	li	a1,0
800021ac:	00b57633          	and	a2,a0,a1
800021b0:	36c12823          	sw	a2,880(sp)
800021b4:	00000093          	li	ra,0
800021b8:	00c08463          	beq	ra,a2,800021c0 <inst_240>
800021bc:	67d0206f          	j	80005038 <bad_trap>

800021c0 <inst_240>:
800021c0:	ffff5537          	lui	a0,0xffff5
800021c4:	afc50513          	addi	a0,a0,-1284 # ffff4afc <imm12+0xffff502c>
800021c8:	00400593          	li	a1,4
800021cc:	00b57633          	and	a2,a0,a1
800021d0:	36c12a23          	sw	a2,884(sp)
800021d4:	00400093          	li	ra,4
800021d8:	00c08463          	beq	ra,a2,800021e0 <inst_241>
800021dc:	65d0206f          	j	80005038 <bad_trap>

800021e0 <inst_241>:
800021e0:	ffff5537          	lui	a0,0xffff5
800021e4:	afc50513          	addi	a0,a0,-1284 # ffff4afc <imm12+0xffff502c>
800021e8:	333335b7          	lui	a1,0x33333
800021ec:	33258593          	addi	a1,a1,818 # 33333332 <offset+0x3333325e>
800021f0:	00b57633          	and	a2,a0,a1
800021f4:	36c12c23          	sw	a2,888(sp)
800021f8:	333300b7          	lui	ra,0x33330
800021fc:	23008093          	addi	ra,ra,560 # 33330230 <offset+0x3333015c>
80002200:	00c08463          	beq	ra,a2,80002208 <inst_242>
80002204:	6350206f          	j	80005038 <bad_trap>

80002208 <inst_242>:
80002208:	ffff5537          	lui	a0,0xffff5
8000220c:	afc50513          	addi	a0,a0,-1284 # ffff4afc <imm12+0xffff502c>
80002210:	666665b7          	lui	a1,0x66666
80002214:	66558593          	addi	a1,a1,1637 # 66666665 <absimm+0x21374136>
80002218:	00b57633          	and	a2,a0,a1
8000221c:	36c12e23          	sw	a2,892(sp)
80002220:	666640b7          	lui	ra,0x66664
80002224:	26408093          	addi	ra,ra,612 # 66664264 <absimm+0x21371d35>
80002228:	00c08463          	beq	ra,a2,80002230 <inst_243>
8000222c:	60d0206f          	j	80005038 <bad_trap>

80002230 <inst_243>:
80002230:	ffff5537          	lui	a0,0xffff5
80002234:	afc50513          	addi	a0,a0,-1284 # ffff4afc <imm12+0xffff502c>
80002238:	0000b5b7          	lui	a1,0xb
8000223c:	50358593          	addi	a1,a1,1283 # b503 <offset+0xb42f>
80002240:	00b57633          	and	a2,a0,a1
80002244:	38c12023          	sw	a2,896(sp)
80002248:	00000093          	li	ra,0
8000224c:	00c08463          	beq	ra,a2,80002254 <inst_244>
80002250:	5e90206f          	j	80005038 <bad_trap>

80002254 <inst_244>:
80002254:	ffff5537          	lui	a0,0xffff5
80002258:	afc50513          	addi	a0,a0,-1284 # ffff4afc <imm12+0xffff502c>
8000225c:	555555b7          	lui	a1,0x55555
80002260:	55658593          	addi	a1,a1,1366 # 55555556 <absimm+0x10263027>
80002264:	00b57633          	and	a2,a0,a1
80002268:	38c12223          	sw	a2,900(sp)
8000226c:	555540b7          	lui	ra,0x55554
80002270:	05408093          	addi	ra,ra,84 # 55554054 <absimm+0x10261b25>
80002274:	00c08463          	beq	ra,a2,8000227c <inst_245>
80002278:	5c10206f          	j	80005038 <bad_trap>

8000227c <inst_245>:
8000227c:	ffff5537          	lui	a0,0xffff5
80002280:	afc50513          	addi	a0,a0,-1284 # ffff4afc <imm12+0xffff502c>
80002284:	aaaab5b7          	lui	a1,0xaaaab
80002288:	aab58593          	addi	a1,a1,-1365 # aaaaaaab <imm12+0xaaaaafdb>
8000228c:	00b57633          	and	a2,a0,a1
80002290:	38c12423          	sw	a2,904(sp)
80002294:	aaaa10b7          	lui	ra,0xaaaa1
80002298:	aa808093          	addi	ra,ra,-1368 # aaaa0aa8 <imm12+0xaaaa0fd8>
8000229c:	00c08463          	beq	ra,a2,800022a4 <inst_246>
800022a0:	5990206f          	j	80005038 <bad_trap>

800022a4 <inst_246>:
800022a4:	ffff5537          	lui	a0,0xffff5
800022a8:	afc50513          	addi	a0,a0,-1284 # ffff4afc <imm12+0xffff502c>
800022ac:	00600593          	li	a1,6
800022b0:	00b57633          	and	a2,a0,a1
800022b4:	38c12623          	sw	a2,908(sp)
800022b8:	00400093          	li	ra,4
800022bc:	00c08463          	beq	ra,a2,800022c4 <inst_247>
800022c0:	5790206f          	j	80005038 <bad_trap>

800022c4 <inst_247>:
800022c4:	ffff5537          	lui	a0,0xffff5
800022c8:	afc50513          	addi	a0,a0,-1284 # ffff4afc <imm12+0xffff502c>
800022cc:	333335b7          	lui	a1,0x33333
800022d0:	33458593          	addi	a1,a1,820 # 33333334 <offset+0x33333260>
800022d4:	00b57633          	and	a2,a0,a1
800022d8:	38c12823          	sw	a2,912(sp)
800022dc:	333300b7          	lui	ra,0x33330
800022e0:	23408093          	addi	ra,ra,564 # 33330234 <offset+0x33330160>
800022e4:	00c08463          	beq	ra,a2,800022ec <inst_248>
800022e8:	5510206f          	j	80005038 <bad_trap>

800022ec <inst_248>:
800022ec:	ffff5537          	lui	a0,0xffff5
800022f0:	afc50513          	addi	a0,a0,-1284 # ffff4afc <imm12+0xffff502c>
800022f4:	666665b7          	lui	a1,0x66666
800022f8:	66758593          	addi	a1,a1,1639 # 66666667 <absimm+0x21374138>
800022fc:	00b57633          	and	a2,a0,a1
80002300:	38c12a23          	sw	a2,916(sp)
80002304:	666640b7          	lui	ra,0x66664
80002308:	26408093          	addi	ra,ra,612 # 66664264 <absimm+0x21371d35>
8000230c:	00c08463          	beq	ra,a2,80002314 <inst_249>
80002310:	5290206f          	j	80005038 <bad_trap>

80002314 <inst_249>:
80002314:	ffff5537          	lui	a0,0xffff5
80002318:	afc50513          	addi	a0,a0,-1284 # ffff4afc <imm12+0xffff502c>
8000231c:	ffff55b7          	lui	a1,0xffff5
80002320:	afd58593          	addi	a1,a1,-1283 # ffff4afd <imm12+0xffff502d>
80002324:	00b57633          	and	a2,a0,a1
80002328:	38c12c23          	sw	a2,920(sp)
8000232c:	ffff50b7          	lui	ra,0xffff5
80002330:	afc08093          	addi	ra,ra,-1284 # ffff4afc <imm12+0xffff502c>
80002334:	00c08463          	beq	ra,a2,8000233c <inst_250>
80002338:	5010206f          	j	80005038 <bad_trap>

8000233c <inst_250>:
8000233c:	ffff5537          	lui	a0,0xffff5
80002340:	afc50513          	addi	a0,a0,-1284 # ffff4afc <imm12+0xffff502c>
80002344:	0000b5b7          	lui	a1,0xb
80002348:	50558593          	addi	a1,a1,1285 # b505 <offset+0xb431>
8000234c:	00b57633          	and	a2,a0,a1
80002350:	38c12e23          	sw	a2,924(sp)
80002354:	00400093          	li	ra,4
80002358:	00c08463          	beq	ra,a2,80002360 <inst_251>
8000235c:	4dd0206f          	j	80005038 <bad_trap>

80002360 <inst_251>:
80002360:	0000b537          	lui	a0,0xb
80002364:	50450513          	addi	a0,a0,1284 # b504 <offset+0xb430>
80002368:	00300593          	li	a1,3
8000236c:	00b57633          	and	a2,a0,a1
80002370:	3ac12023          	sw	a2,928(sp)
80002374:	00000093          	li	ra,0
80002378:	00c08463          	beq	ra,a2,80002380 <inst_252>
8000237c:	4bd0206f          	j	80005038 <bad_trap>

80002380 <inst_252>:
80002380:	0000b537          	lui	a0,0xb
80002384:	50450513          	addi	a0,a0,1284 # b504 <offset+0xb430>
80002388:	555555b7          	lui	a1,0x55555
8000238c:	55558593          	addi	a1,a1,1365 # 55555555 <absimm+0x10263026>
80002390:	00b57633          	and	a2,a0,a1
80002394:	3ac12223          	sw	a2,932(sp)
80002398:	000010b7          	lui	ra,0x1
8000239c:	50408093          	addi	ra,ra,1284 # 1504 <offset+0x1430>
800023a0:	00c08463          	beq	ra,a2,800023a8 <inst_253>
800023a4:	4950206f          	j	80005038 <bad_trap>

800023a8 <inst_253>:
800023a8:	0000b537          	lui	a0,0xb
800023ac:	50450513          	addi	a0,a0,1284 # b504 <offset+0xb430>
800023b0:	aaaab5b7          	lui	a1,0xaaaab
800023b4:	aaa58593          	addi	a1,a1,-1366 # aaaaaaaa <imm12+0xaaaaafda>
800023b8:	00b57633          	and	a2,a0,a1
800023bc:	3ac12423          	sw	a2,936(sp)
800023c0:	0000a0b7          	lui	ra,0xa
800023c4:	00c08463          	beq	ra,a2,800023cc <inst_254>
800023c8:	4710206f          	j	80005038 <bad_trap>

800023cc <inst_254>:
800023cc:	0000b537          	lui	a0,0xb
800023d0:	50450513          	addi	a0,a0,1284 # b504 <offset+0xb430>
800023d4:	00500593          	li	a1,5
800023d8:	00b57633          	and	a2,a0,a1
800023dc:	3ac12623          	sw	a2,940(sp)
800023e0:	00400093          	li	ra,4
800023e4:	00c08463          	beq	ra,a2,800023ec <inst_255>
800023e8:	4510206f          	j	80005038 <bad_trap>

800023ec <inst_255>:
800023ec:	0000b537          	lui	a0,0xb
800023f0:	50450513          	addi	a0,a0,1284 # b504 <offset+0xb430>
800023f4:	333335b7          	lui	a1,0x33333
800023f8:	33358593          	addi	a1,a1,819 # 33333333 <offset+0x3333325f>
800023fc:	00b57633          	and	a2,a0,a1
80002400:	3ac12823          	sw	a2,944(sp)
80002404:	000030b7          	lui	ra,0x3
80002408:	10008093          	addi	ra,ra,256 # 3100 <offset+0x302c>
8000240c:	00c08463          	beq	ra,a2,80002414 <inst_256>
80002410:	4290206f          	j	80005038 <bad_trap>

80002414 <inst_256>:
80002414:	0000b537          	lui	a0,0xb
80002418:	50450513          	addi	a0,a0,1284 # b504 <offset+0xb430>
8000241c:	666665b7          	lui	a1,0x66666
80002420:	66658593          	addi	a1,a1,1638 # 66666666 <absimm+0x21374137>
80002424:	00b57633          	and	a2,a0,a1
80002428:	3ac12a23          	sw	a2,948(sp)
8000242c:	000020b7          	lui	ra,0x2
80002430:	40408093          	addi	ra,ra,1028 # 2404 <offset+0x2330>
80002434:	00c08463          	beq	ra,a2,8000243c <inst_257>
80002438:	4010206f          	j	80005038 <bad_trap>

8000243c <inst_257>:
8000243c:	0000b537          	lui	a0,0xb
80002440:	50450513          	addi	a0,a0,1284 # b504 <offset+0xb430>
80002444:	ffff55b7          	lui	a1,0xffff5
80002448:	afc58593          	addi	a1,a1,-1284 # ffff4afc <imm12+0xffff502c>
8000244c:	00b57633          	and	a2,a0,a1
80002450:	3ac12c23          	sw	a2,952(sp)
80002454:	00400093          	li	ra,4
80002458:	00c08463          	beq	ra,a2,80002460 <inst_258>
8000245c:	3dd0206f          	j	80005038 <bad_trap>

80002460 <inst_258>:
80002460:	0000b537          	lui	a0,0xb
80002464:	50450513          	addi	a0,a0,1284 # b504 <offset+0xb430>
80002468:	0000b5b7          	lui	a1,0xb
8000246c:	50458593          	addi	a1,a1,1284 # b504 <offset+0xb430>
80002470:	00b57633          	and	a2,a0,a1
80002474:	3ac12e23          	sw	a2,956(sp)
80002478:	0000b0b7          	lui	ra,0xb
8000247c:	50408093          	addi	ra,ra,1284 # b504 <offset+0xb430>
80002480:	00c08463          	beq	ra,a2,80002488 <inst_259>
80002484:	3b50206f          	j	80005038 <bad_trap>

80002488 <inst_259>:
80002488:	0000b537          	lui	a0,0xb
8000248c:	50450513          	addi	a0,a0,1284 # b504 <offset+0xb430>
80002490:	00200593          	li	a1,2
80002494:	00b57633          	and	a2,a0,a1
80002498:	3cc12023          	sw	a2,960(sp)
8000249c:	00000093          	li	ra,0
800024a0:	00c08463          	beq	ra,a2,800024a8 <inst_260>
800024a4:	3950206f          	j	80005038 <bad_trap>

800024a8 <inst_260>:
800024a8:	0000b537          	lui	a0,0xb
800024ac:	50450513          	addi	a0,a0,1284 # b504 <offset+0xb430>
800024b0:	555555b7          	lui	a1,0x55555
800024b4:	55458593          	addi	a1,a1,1364 # 55555554 <absimm+0x10263025>
800024b8:	00b57633          	and	a2,a0,a1
800024bc:	3cc12223          	sw	a2,964(sp)
800024c0:	000010b7          	lui	ra,0x1
800024c4:	50408093          	addi	ra,ra,1284 # 1504 <offset+0x1430>
800024c8:	00c08463          	beq	ra,a2,800024d0 <inst_261>
800024cc:	36d0206f          	j	80005038 <bad_trap>

800024d0 <inst_261>:
800024d0:	0000b537          	lui	a0,0xb
800024d4:	50450513          	addi	a0,a0,1284 # b504 <offset+0xb430>
800024d8:	00000593          	li	a1,0
800024dc:	00b57633          	and	a2,a0,a1
800024e0:	3cc12423          	sw	a2,968(sp)
800024e4:	00000093          	li	ra,0
800024e8:	00c08463          	beq	ra,a2,800024f0 <inst_262>
800024ec:	34d0206f          	j	80005038 <bad_trap>

800024f0 <inst_262>:
800024f0:	0000b537          	lui	a0,0xb
800024f4:	50450513          	addi	a0,a0,1284 # b504 <offset+0xb430>
800024f8:	00400593          	li	a1,4
800024fc:	00b57633          	and	a2,a0,a1
80002500:	3cc12623          	sw	a2,972(sp)
80002504:	00400093          	li	ra,4
80002508:	00c08463          	beq	ra,a2,80002510 <inst_263>
8000250c:	32d0206f          	j	80005038 <bad_trap>

80002510 <inst_263>:
80002510:	0000b537          	lui	a0,0xb
80002514:	50450513          	addi	a0,a0,1284 # b504 <offset+0xb430>
80002518:	333335b7          	lui	a1,0x33333
8000251c:	33258593          	addi	a1,a1,818 # 33333332 <offset+0x3333325e>
80002520:	00b57633          	and	a2,a0,a1
80002524:	3cc12823          	sw	a2,976(sp)
80002528:	000030b7          	lui	ra,0x3
8000252c:	10008093          	addi	ra,ra,256 # 3100 <offset+0x302c>
80002530:	00c08463          	beq	ra,a2,80002538 <inst_264>
80002534:	3050206f          	j	80005038 <bad_trap>

80002538 <inst_264>:
80002538:	0000b537          	lui	a0,0xb
8000253c:	50450513          	addi	a0,a0,1284 # b504 <offset+0xb430>
80002540:	666665b7          	lui	a1,0x66666
80002544:	66558593          	addi	a1,a1,1637 # 66666665 <absimm+0x21374136>
80002548:	00b57633          	and	a2,a0,a1
8000254c:	3cc12a23          	sw	a2,980(sp)
80002550:	000020b7          	lui	ra,0x2
80002554:	40408093          	addi	ra,ra,1028 # 2404 <offset+0x2330>
80002558:	00c08463          	beq	ra,a2,80002560 <inst_265>
8000255c:	2dd0206f          	j	80005038 <bad_trap>

80002560 <inst_265>:
80002560:	0000b537          	lui	a0,0xb
80002564:	50450513          	addi	a0,a0,1284 # b504 <offset+0xb430>
80002568:	0000b5b7          	lui	a1,0xb
8000256c:	50358593          	addi	a1,a1,1283 # b503 <offset+0xb42f>
80002570:	00b57633          	and	a2,a0,a1
80002574:	3cc12c23          	sw	a2,984(sp)
80002578:	0000b0b7          	lui	ra,0xb
8000257c:	50008093          	addi	ra,ra,1280 # b500 <offset+0xb42c>
80002580:	00c08463          	beq	ra,a2,80002588 <inst_266>
80002584:	2b50206f          	j	80005038 <bad_trap>

80002588 <inst_266>:
80002588:	0000b537          	lui	a0,0xb
8000258c:	50450513          	addi	a0,a0,1284 # b504 <offset+0xb430>
80002590:	555555b7          	lui	a1,0x55555
80002594:	55658593          	addi	a1,a1,1366 # 55555556 <absimm+0x10263027>
80002598:	00b57633          	and	a2,a0,a1
8000259c:	3cc12e23          	sw	a2,988(sp)
800025a0:	000010b7          	lui	ra,0x1
800025a4:	50408093          	addi	ra,ra,1284 # 1504 <offset+0x1430>
800025a8:	00c08463          	beq	ra,a2,800025b0 <inst_267>
800025ac:	28d0206f          	j	80005038 <bad_trap>

800025b0 <inst_267>:
800025b0:	0000b537          	lui	a0,0xb
800025b4:	50450513          	addi	a0,a0,1284 # b504 <offset+0xb430>
800025b8:	aaaab5b7          	lui	a1,0xaaaab
800025bc:	aab58593          	addi	a1,a1,-1365 # aaaaaaab <imm12+0xaaaaafdb>
800025c0:	00b57633          	and	a2,a0,a1
800025c4:	3ec12023          	sw	a2,992(sp)
800025c8:	0000a0b7          	lui	ra,0xa
800025cc:	00c08463          	beq	ra,a2,800025d4 <inst_268>
800025d0:	2690206f          	j	80005038 <bad_trap>

800025d4 <inst_268>:
800025d4:	0000b537          	lui	a0,0xb
800025d8:	50450513          	addi	a0,a0,1284 # b504 <offset+0xb430>
800025dc:	00600593          	li	a1,6
800025e0:	00b57633          	and	a2,a0,a1
800025e4:	3ec12223          	sw	a2,996(sp)
800025e8:	00400093          	li	ra,4
800025ec:	00c08463          	beq	ra,a2,800025f4 <inst_269>
800025f0:	2490206f          	j	80005038 <bad_trap>

800025f4 <inst_269>:
800025f4:	0000b537          	lui	a0,0xb
800025f8:	50450513          	addi	a0,a0,1284 # b504 <offset+0xb430>
800025fc:	333335b7          	lui	a1,0x33333
80002600:	33458593          	addi	a1,a1,820 # 33333334 <offset+0x33333260>
80002604:	00b57633          	and	a2,a0,a1
80002608:	3ec12423          	sw	a2,1000(sp)
8000260c:	000030b7          	lui	ra,0x3
80002610:	10408093          	addi	ra,ra,260 # 3104 <offset+0x3030>
80002614:	00c08463          	beq	ra,a2,8000261c <inst_270>
80002618:	2210206f          	j	80005038 <bad_trap>

8000261c <inst_270>:
8000261c:	0000b537          	lui	a0,0xb
80002620:	50450513          	addi	a0,a0,1284 # b504 <offset+0xb430>
80002624:	666665b7          	lui	a1,0x66666
80002628:	66758593          	addi	a1,a1,1639 # 66666667 <absimm+0x21374138>
8000262c:	00b57633          	and	a2,a0,a1
80002630:	3ec12623          	sw	a2,1004(sp)
80002634:	000020b7          	lui	ra,0x2
80002638:	40408093          	addi	ra,ra,1028 # 2404 <offset+0x2330>
8000263c:	00c08463          	beq	ra,a2,80002644 <inst_271>
80002640:	1f90206f          	j	80005038 <bad_trap>

80002644 <inst_271>:
80002644:	0000b537          	lui	a0,0xb
80002648:	50450513          	addi	a0,a0,1284 # b504 <offset+0xb430>
8000264c:	ffff55b7          	lui	a1,0xffff5
80002650:	afd58593          	addi	a1,a1,-1283 # ffff4afd <imm12+0xffff502d>
80002654:	00b57633          	and	a2,a0,a1
80002658:	3ec12823          	sw	a2,1008(sp)
8000265c:	00400093          	li	ra,4
80002660:	00c08463          	beq	ra,a2,80002668 <inst_272>
80002664:	1d50206f          	j	80005038 <bad_trap>

80002668 <inst_272>:
80002668:	0000b537          	lui	a0,0xb
8000266c:	50450513          	addi	a0,a0,1284 # b504 <offset+0xb430>
80002670:	0000b5b7          	lui	a1,0xb
80002674:	50558593          	addi	a1,a1,1285 # b505 <offset+0xb431>
80002678:	00b57633          	and	a2,a0,a1
8000267c:	3ec12a23          	sw	a2,1012(sp)
80002680:	0000b0b7          	lui	ra,0xb
80002684:	50408093          	addi	ra,ra,1284 # b504 <offset+0xb430>
80002688:	00c08463          	beq	ra,a2,80002690 <inst_273>
8000268c:	1ad0206f          	j	80005038 <bad_trap>

80002690 <inst_273>:
80002690:	00200513          	li	a0,2
80002694:	00300593          	li	a1,3
80002698:	00b57633          	and	a2,a0,a1
8000269c:	3ec12c23          	sw	a2,1016(sp)
800026a0:	00200093          	li	ra,2
800026a4:	00c08463          	beq	ra,a2,800026ac <inst_274>
800026a8:	1910206f          	j	80005038 <bad_trap>

800026ac <inst_274>:
800026ac:	00200513          	li	a0,2
800026b0:	555555b7          	lui	a1,0x55555
800026b4:	55558593          	addi	a1,a1,1365 # 55555555 <absimm+0x10263026>
800026b8:	00b57633          	and	a2,a0,a1
800026bc:	3ec12e23          	sw	a2,1020(sp)
800026c0:	00000093          	li	ra,0
800026c4:	00c08463          	beq	ra,a2,800026cc <inst_275>
800026c8:	1710206f          	j	80005038 <bad_trap>

800026cc <inst_275>:
800026cc:	00200513          	li	a0,2
800026d0:	aaaab5b7          	lui	a1,0xaaaab
800026d4:	aaa58593          	addi	a1,a1,-1366 # aaaaaaaa <imm12+0xaaaaafda>
800026d8:	00b57633          	and	a2,a0,a1
800026dc:	40c12023          	sw	a2,1024(sp)
800026e0:	00200093          	li	ra,2
800026e4:	00c08463          	beq	ra,a2,800026ec <inst_276>
800026e8:	1510206f          	j	80005038 <bad_trap>

800026ec <inst_276>:
800026ec:	00200513          	li	a0,2
800026f0:	00500593          	li	a1,5
800026f4:	00b57633          	and	a2,a0,a1
800026f8:	40c12223          	sw	a2,1028(sp)
800026fc:	00000093          	li	ra,0
80002700:	00c08463          	beq	ra,a2,80002708 <inst_277>
80002704:	1350206f          	j	80005038 <bad_trap>

80002708 <inst_277>:
80002708:	00200513          	li	a0,2
8000270c:	333335b7          	lui	a1,0x33333
80002710:	33358593          	addi	a1,a1,819 # 33333333 <offset+0x3333325f>
80002714:	00b57633          	and	a2,a0,a1
80002718:	40c12423          	sw	a2,1032(sp)
8000271c:	00200093          	li	ra,2
80002720:	00c08463          	beq	ra,a2,80002728 <inst_278>
80002724:	1150206f          	j	80005038 <bad_trap>

80002728 <inst_278>:
80002728:	00200513          	li	a0,2
8000272c:	666665b7          	lui	a1,0x66666
80002730:	66658593          	addi	a1,a1,1638 # 66666666 <absimm+0x21374137>
80002734:	00b57633          	and	a2,a0,a1
80002738:	40c12623          	sw	a2,1036(sp)
8000273c:	00200093          	li	ra,2
80002740:	00c08463          	beq	ra,a2,80002748 <inst_279>
80002744:	0f50206f          	j	80005038 <bad_trap>

80002748 <inst_279>:
80002748:	00200513          	li	a0,2
8000274c:	ffff55b7          	lui	a1,0xffff5
80002750:	afc58593          	addi	a1,a1,-1284 # ffff4afc <imm12+0xffff502c>
80002754:	00b57633          	and	a2,a0,a1
80002758:	40c12823          	sw	a2,1040(sp)
8000275c:	00000093          	li	ra,0
80002760:	00c08463          	beq	ra,a2,80002768 <inst_280>
80002764:	0d50206f          	j	80005038 <bad_trap>

80002768 <inst_280>:
80002768:	00200513          	li	a0,2
8000276c:	0000b5b7          	lui	a1,0xb
80002770:	50458593          	addi	a1,a1,1284 # b504 <offset+0xb430>
80002774:	00b57633          	and	a2,a0,a1
80002778:	40c12a23          	sw	a2,1044(sp)
8000277c:	00000093          	li	ra,0
80002780:	00c08463          	beq	ra,a2,80002788 <inst_281>
80002784:	0b50206f          	j	80005038 <bad_trap>

80002788 <inst_281>:
80002788:	00200513          	li	a0,2
8000278c:	00200593          	li	a1,2
80002790:	00b57633          	and	a2,a0,a1
80002794:	40c12c23          	sw	a2,1048(sp)
80002798:	00200093          	li	ra,2
8000279c:	00c08463          	beq	ra,a2,800027a4 <inst_282>
800027a0:	0990206f          	j	80005038 <bad_trap>

800027a4 <inst_282>:
800027a4:	00200513          	li	a0,2
800027a8:	555555b7          	lui	a1,0x55555
800027ac:	55458593          	addi	a1,a1,1364 # 55555554 <absimm+0x10263025>
800027b0:	00b57633          	and	a2,a0,a1
800027b4:	40c12e23          	sw	a2,1052(sp)
800027b8:	00000093          	li	ra,0
800027bc:	00c08463          	beq	ra,a2,800027c4 <inst_283>
800027c0:	0790206f          	j	80005038 <bad_trap>

800027c4 <inst_283>:
800027c4:	00200513          	li	a0,2
800027c8:	00000593          	li	a1,0
800027cc:	00b57633          	and	a2,a0,a1
800027d0:	42c12023          	sw	a2,1056(sp)
800027d4:	00000093          	li	ra,0
800027d8:	00c08463          	beq	ra,a2,800027e0 <inst_284>
800027dc:	05d0206f          	j	80005038 <bad_trap>

800027e0 <inst_284>:
800027e0:	00200513          	li	a0,2
800027e4:	00400593          	li	a1,4
800027e8:	00b57633          	and	a2,a0,a1
800027ec:	42c12223          	sw	a2,1060(sp)
800027f0:	00000093          	li	ra,0
800027f4:	00c08463          	beq	ra,a2,800027fc <inst_285>
800027f8:	0410206f          	j	80005038 <bad_trap>

800027fc <inst_285>:
800027fc:	00200513          	li	a0,2
80002800:	333335b7          	lui	a1,0x33333
80002804:	33258593          	addi	a1,a1,818 # 33333332 <offset+0x3333325e>
80002808:	00b57633          	and	a2,a0,a1
8000280c:	42c12423          	sw	a2,1064(sp)
80002810:	00200093          	li	ra,2
80002814:	00c08463          	beq	ra,a2,8000281c <inst_286>
80002818:	0210206f          	j	80005038 <bad_trap>

8000281c <inst_286>:
8000281c:	00200513          	li	a0,2
80002820:	666665b7          	lui	a1,0x66666
80002824:	66558593          	addi	a1,a1,1637 # 66666665 <absimm+0x21374136>
80002828:	00b57633          	and	a2,a0,a1
8000282c:	42c12623          	sw	a2,1068(sp)
80002830:	00000093          	li	ra,0
80002834:	00c08463          	beq	ra,a2,8000283c <inst_287>
80002838:	0010206f          	j	80005038 <bad_trap>

8000283c <inst_287>:
8000283c:	00200513          	li	a0,2
80002840:	0000b5b7          	lui	a1,0xb
80002844:	50358593          	addi	a1,a1,1283 # b503 <offset+0xb42f>
80002848:	00b57633          	and	a2,a0,a1
8000284c:	42c12823          	sw	a2,1072(sp)
80002850:	00200093          	li	ra,2
80002854:	00c08463          	beq	ra,a2,8000285c <inst_288>
80002858:	7e00206f          	j	80005038 <bad_trap>

8000285c <inst_288>:
8000285c:	00200513          	li	a0,2
80002860:	555555b7          	lui	a1,0x55555
80002864:	55658593          	addi	a1,a1,1366 # 55555556 <absimm+0x10263027>
80002868:	00b57633          	and	a2,a0,a1
8000286c:	42c12a23          	sw	a2,1076(sp)
80002870:	00200093          	li	ra,2
80002874:	00c08463          	beq	ra,a2,8000287c <inst_289>
80002878:	7c00206f          	j	80005038 <bad_trap>

8000287c <inst_289>:
8000287c:	00200513          	li	a0,2
80002880:	aaaab5b7          	lui	a1,0xaaaab
80002884:	aab58593          	addi	a1,a1,-1365 # aaaaaaab <imm12+0xaaaaafdb>
80002888:	00b57633          	and	a2,a0,a1
8000288c:	42c12c23          	sw	a2,1080(sp)
80002890:	00200093          	li	ra,2
80002894:	00c08463          	beq	ra,a2,8000289c <inst_290>
80002898:	7a00206f          	j	80005038 <bad_trap>

8000289c <inst_290>:
8000289c:	00200513          	li	a0,2
800028a0:	00600593          	li	a1,6
800028a4:	00b57633          	and	a2,a0,a1
800028a8:	42c12e23          	sw	a2,1084(sp)
800028ac:	00200093          	li	ra,2
800028b0:	00c08463          	beq	ra,a2,800028b8 <inst_291>
800028b4:	7840206f          	j	80005038 <bad_trap>

800028b8 <inst_291>:
800028b8:	00200513          	li	a0,2
800028bc:	333335b7          	lui	a1,0x33333
800028c0:	33458593          	addi	a1,a1,820 # 33333334 <offset+0x33333260>
800028c4:	00b57633          	and	a2,a0,a1
800028c8:	44c12023          	sw	a2,1088(sp)
800028cc:	00000093          	li	ra,0
800028d0:	00c08463          	beq	ra,a2,800028d8 <inst_292>
800028d4:	7640206f          	j	80005038 <bad_trap>

800028d8 <inst_292>:
800028d8:	00200513          	li	a0,2
800028dc:	666665b7          	lui	a1,0x66666
800028e0:	66758593          	addi	a1,a1,1639 # 66666667 <absimm+0x21374138>
800028e4:	00b57633          	and	a2,a0,a1
800028e8:	44c12223          	sw	a2,1092(sp)
800028ec:	00200093          	li	ra,2
800028f0:	00c08463          	beq	ra,a2,800028f8 <inst_293>
800028f4:	7440206f          	j	80005038 <bad_trap>

800028f8 <inst_293>:
800028f8:	00200513          	li	a0,2
800028fc:	ffff55b7          	lui	a1,0xffff5
80002900:	afd58593          	addi	a1,a1,-1283 # ffff4afd <imm12+0xffff502d>
80002904:	00b57633          	and	a2,a0,a1
80002908:	44c12423          	sw	a2,1096(sp)
8000290c:	00000093          	li	ra,0
80002910:	00c08463          	beq	ra,a2,80002918 <inst_294>
80002914:	7240206f          	j	80005038 <bad_trap>

80002918 <inst_294>:
80002918:	00200513          	li	a0,2
8000291c:	0000b5b7          	lui	a1,0xb
80002920:	50558593          	addi	a1,a1,1285 # b505 <offset+0xb431>
80002924:	00b57633          	and	a2,a0,a1
80002928:	44c12623          	sw	a2,1100(sp)
8000292c:	00000093          	li	ra,0
80002930:	00c08463          	beq	ra,a2,80002938 <inst_295>
80002934:	7040206f          	j	80005038 <bad_trap>

80002938 <inst_295>:
80002938:	55555537          	lui	a0,0x55555
8000293c:	55450513          	addi	a0,a0,1364 # 55555554 <absimm+0x10263025>
80002940:	00300593          	li	a1,3
80002944:	00b57633          	and	a2,a0,a1
80002948:	44c12823          	sw	a2,1104(sp)
8000294c:	00000093          	li	ra,0
80002950:	00c08463          	beq	ra,a2,80002958 <inst_296>
80002954:	6e40206f          	j	80005038 <bad_trap>

80002958 <inst_296>:
80002958:	55555537          	lui	a0,0x55555
8000295c:	55450513          	addi	a0,a0,1364 # 55555554 <absimm+0x10263025>
80002960:	555555b7          	lui	a1,0x55555
80002964:	55558593          	addi	a1,a1,1365 # 55555555 <absimm+0x10263026>
80002968:	00b57633          	and	a2,a0,a1
8000296c:	44c12a23          	sw	a2,1108(sp)
80002970:	555550b7          	lui	ra,0x55555
80002974:	55408093          	addi	ra,ra,1364 # 55555554 <absimm+0x10263025>
80002978:	00c08463          	beq	ra,a2,80002980 <inst_297>
8000297c:	6bc0206f          	j	80005038 <bad_trap>

80002980 <inst_297>:
80002980:	55555537          	lui	a0,0x55555
80002984:	55450513          	addi	a0,a0,1364 # 55555554 <absimm+0x10263025>
80002988:	aaaab5b7          	lui	a1,0xaaaab
8000298c:	aaa58593          	addi	a1,a1,-1366 # aaaaaaaa <imm12+0xaaaaafda>
80002990:	00b57633          	and	a2,a0,a1
80002994:	44c12c23          	sw	a2,1112(sp)
80002998:	00000093          	li	ra,0
8000299c:	00c08463          	beq	ra,a2,800029a4 <inst_298>
800029a0:	6980206f          	j	80005038 <bad_trap>

800029a4 <inst_298>:
800029a4:	55555537          	lui	a0,0x55555
800029a8:	55450513          	addi	a0,a0,1364 # 55555554 <absimm+0x10263025>
800029ac:	00500593          	li	a1,5
800029b0:	00b57633          	and	a2,a0,a1
800029b4:	44c12e23          	sw	a2,1116(sp)
800029b8:	00400093          	li	ra,4
800029bc:	00c08463          	beq	ra,a2,800029c4 <inst_299>
800029c0:	6780206f          	j	80005038 <bad_trap>

800029c4 <inst_299>:
800029c4:	55555537          	lui	a0,0x55555
800029c8:	55450513          	addi	a0,a0,1364 # 55555554 <absimm+0x10263025>
800029cc:	333335b7          	lui	a1,0x33333
800029d0:	33358593          	addi	a1,a1,819 # 33333333 <offset+0x3333325f>
800029d4:	00b57633          	and	a2,a0,a1
800029d8:	46c12023          	sw	a2,1120(sp)
800029dc:	111110b7          	lui	ra,0x11111
800029e0:	11008093          	addi	ra,ra,272 # 11111110 <offset+0x1111103c>
800029e4:	00c08463          	beq	ra,a2,800029ec <inst_300>
800029e8:	6500206f          	j	80005038 <bad_trap>

800029ec <inst_300>:
800029ec:	55555537          	lui	a0,0x55555
800029f0:	55450513          	addi	a0,a0,1364 # 55555554 <absimm+0x10263025>
800029f4:	666665b7          	lui	a1,0x66666
800029f8:	66658593          	addi	a1,a1,1638 # 66666666 <absimm+0x21374137>
800029fc:	00b57633          	and	a2,a0,a1
80002a00:	46c12223          	sw	a2,1124(sp)
80002a04:	444440b7          	lui	ra,0x44444
80002a08:	44408093          	addi	ra,ra,1092 # 44444444 <offset+0x44444370>
80002a0c:	00c08463          	beq	ra,a2,80002a14 <inst_301>
80002a10:	6280206f          	j	80005038 <bad_trap>

80002a14 <inst_301>:
80002a14:	55555537          	lui	a0,0x55555
80002a18:	55450513          	addi	a0,a0,1364 # 55555554 <absimm+0x10263025>
80002a1c:	ffff55b7          	lui	a1,0xffff5
80002a20:	afc58593          	addi	a1,a1,-1284 # ffff4afc <imm12+0xffff502c>
80002a24:	00b57633          	and	a2,a0,a1
80002a28:	46c12423          	sw	a2,1128(sp)
80002a2c:	555540b7          	lui	ra,0x55554
80002a30:	05408093          	addi	ra,ra,84 # 55554054 <absimm+0x10261b25>
80002a34:	00c08463          	beq	ra,a2,80002a3c <inst_302>
80002a38:	6000206f          	j	80005038 <bad_trap>

80002a3c <inst_302>:
80002a3c:	55555537          	lui	a0,0x55555
80002a40:	55450513          	addi	a0,a0,1364 # 55555554 <absimm+0x10263025>
80002a44:	0000b5b7          	lui	a1,0xb
80002a48:	50458593          	addi	a1,a1,1284 # b504 <offset+0xb430>
80002a4c:	00b57633          	and	a2,a0,a1
80002a50:	46c12623          	sw	a2,1132(sp)
80002a54:	000010b7          	lui	ra,0x1
80002a58:	50408093          	addi	ra,ra,1284 # 1504 <offset+0x1430>
80002a5c:	00c08463          	beq	ra,a2,80002a64 <inst_303>
80002a60:	5d80206f          	j	80005038 <bad_trap>

80002a64 <inst_303>:
80002a64:	55555537          	lui	a0,0x55555
80002a68:	55450513          	addi	a0,a0,1364 # 55555554 <absimm+0x10263025>
80002a6c:	00200593          	li	a1,2
80002a70:	00b57633          	and	a2,a0,a1
80002a74:	46c12823          	sw	a2,1136(sp)
80002a78:	00000093          	li	ra,0
80002a7c:	00c08463          	beq	ra,a2,80002a84 <inst_304>
80002a80:	5b80206f          	j	80005038 <bad_trap>

80002a84 <inst_304>:
80002a84:	55555537          	lui	a0,0x55555
80002a88:	55450513          	addi	a0,a0,1364 # 55555554 <absimm+0x10263025>
80002a8c:	555555b7          	lui	a1,0x55555
80002a90:	55458593          	addi	a1,a1,1364 # 55555554 <absimm+0x10263025>
80002a94:	00b57633          	and	a2,a0,a1
80002a98:	46c12a23          	sw	a2,1140(sp)
80002a9c:	555550b7          	lui	ra,0x55555
80002aa0:	55408093          	addi	ra,ra,1364 # 55555554 <absimm+0x10263025>
80002aa4:	00c08463          	beq	ra,a2,80002aac <inst_305>
80002aa8:	5900206f          	j	80005038 <bad_trap>

80002aac <inst_305>:
80002aac:	55555537          	lui	a0,0x55555
80002ab0:	55450513          	addi	a0,a0,1364 # 55555554 <absimm+0x10263025>
80002ab4:	00000593          	li	a1,0
80002ab8:	00b57633          	and	a2,a0,a1
80002abc:	46c12c23          	sw	a2,1144(sp)
80002ac0:	00000093          	li	ra,0
80002ac4:	00c08463          	beq	ra,a2,80002acc <inst_306>
80002ac8:	5700206f          	j	80005038 <bad_trap>

80002acc <inst_306>:
80002acc:	55555537          	lui	a0,0x55555
80002ad0:	55450513          	addi	a0,a0,1364 # 55555554 <absimm+0x10263025>
80002ad4:	00400593          	li	a1,4
80002ad8:	00b57633          	and	a2,a0,a1
80002adc:	46c12e23          	sw	a2,1148(sp)
80002ae0:	00400093          	li	ra,4
80002ae4:	00c08463          	beq	ra,a2,80002aec <inst_307>
80002ae8:	5500206f          	j	80005038 <bad_trap>

80002aec <inst_307>:
80002aec:	55555537          	lui	a0,0x55555
80002af0:	55450513          	addi	a0,a0,1364 # 55555554 <absimm+0x10263025>
80002af4:	333335b7          	lui	a1,0x33333
80002af8:	33258593          	addi	a1,a1,818 # 33333332 <offset+0x3333325e>
80002afc:	00b57633          	and	a2,a0,a1
80002b00:	48c12023          	sw	a2,1152(sp)
80002b04:	111110b7          	lui	ra,0x11111
80002b08:	11008093          	addi	ra,ra,272 # 11111110 <offset+0x1111103c>
80002b0c:	00c08463          	beq	ra,a2,80002b14 <inst_308>
80002b10:	5280206f          	j	80005038 <bad_trap>

80002b14 <inst_308>:
80002b14:	55555537          	lui	a0,0x55555
80002b18:	55450513          	addi	a0,a0,1364 # 55555554 <absimm+0x10263025>
80002b1c:	666665b7          	lui	a1,0x66666
80002b20:	66558593          	addi	a1,a1,1637 # 66666665 <absimm+0x21374136>
80002b24:	00b57633          	and	a2,a0,a1
80002b28:	48c12223          	sw	a2,1156(sp)
80002b2c:	444440b7          	lui	ra,0x44444
80002b30:	44408093          	addi	ra,ra,1092 # 44444444 <offset+0x44444370>
80002b34:	00c08463          	beq	ra,a2,80002b3c <inst_309>
80002b38:	5000206f          	j	80005038 <bad_trap>

80002b3c <inst_309>:
80002b3c:	55555537          	lui	a0,0x55555
80002b40:	55450513          	addi	a0,a0,1364 # 55555554 <absimm+0x10263025>
80002b44:	0000b5b7          	lui	a1,0xb
80002b48:	50358593          	addi	a1,a1,1283 # b503 <offset+0xb42f>
80002b4c:	00b57633          	and	a2,a0,a1
80002b50:	48c12423          	sw	a2,1160(sp)
80002b54:	000010b7          	lui	ra,0x1
80002b58:	50008093          	addi	ra,ra,1280 # 1500 <offset+0x142c>
80002b5c:	00c08463          	beq	ra,a2,80002b64 <inst_310>
80002b60:	4d80206f          	j	80005038 <bad_trap>

80002b64 <inst_310>:
80002b64:	55555537          	lui	a0,0x55555
80002b68:	55450513          	addi	a0,a0,1364 # 55555554 <absimm+0x10263025>
80002b6c:	555555b7          	lui	a1,0x55555
80002b70:	55658593          	addi	a1,a1,1366 # 55555556 <absimm+0x10263027>
80002b74:	00b57633          	and	a2,a0,a1
80002b78:	48c12623          	sw	a2,1164(sp)
80002b7c:	555550b7          	lui	ra,0x55555
80002b80:	55408093          	addi	ra,ra,1364 # 55555554 <absimm+0x10263025>
80002b84:	00c08463          	beq	ra,a2,80002b8c <inst_311>
80002b88:	4b00206f          	j	80005038 <bad_trap>

80002b8c <inst_311>:
80002b8c:	55555537          	lui	a0,0x55555
80002b90:	55450513          	addi	a0,a0,1364 # 55555554 <absimm+0x10263025>
80002b94:	aaaab5b7          	lui	a1,0xaaaab
80002b98:	aab58593          	addi	a1,a1,-1365 # aaaaaaab <imm12+0xaaaaafdb>
80002b9c:	00b57633          	and	a2,a0,a1
80002ba0:	48c12823          	sw	a2,1168(sp)
80002ba4:	00000093          	li	ra,0
80002ba8:	00c08463          	beq	ra,a2,80002bb0 <inst_312>
80002bac:	48c0206f          	j	80005038 <bad_trap>

80002bb0 <inst_312>:
80002bb0:	55555537          	lui	a0,0x55555
80002bb4:	55450513          	addi	a0,a0,1364 # 55555554 <absimm+0x10263025>
80002bb8:	00600593          	li	a1,6
80002bbc:	00b57633          	and	a2,a0,a1
80002bc0:	48c12a23          	sw	a2,1172(sp)
80002bc4:	00400093          	li	ra,4
80002bc8:	00c08463          	beq	ra,a2,80002bd0 <inst_313>
80002bcc:	46c0206f          	j	80005038 <bad_trap>

80002bd0 <inst_313>:
80002bd0:	55555537          	lui	a0,0x55555
80002bd4:	55450513          	addi	a0,a0,1364 # 55555554 <absimm+0x10263025>
80002bd8:	333335b7          	lui	a1,0x33333
80002bdc:	33458593          	addi	a1,a1,820 # 33333334 <offset+0x33333260>
80002be0:	00b57633          	and	a2,a0,a1
80002be4:	48c12c23          	sw	a2,1176(sp)
80002be8:	111110b7          	lui	ra,0x11111
80002bec:	11408093          	addi	ra,ra,276 # 11111114 <offset+0x11111040>
80002bf0:	00c08463          	beq	ra,a2,80002bf8 <inst_314>
80002bf4:	4440206f          	j	80005038 <bad_trap>

80002bf8 <inst_314>:
80002bf8:	55555537          	lui	a0,0x55555
80002bfc:	55450513          	addi	a0,a0,1364 # 55555554 <absimm+0x10263025>
80002c00:	666665b7          	lui	a1,0x66666
80002c04:	66758593          	addi	a1,a1,1639 # 66666667 <absimm+0x21374138>
80002c08:	00b57633          	and	a2,a0,a1
80002c0c:	48c12e23          	sw	a2,1180(sp)
80002c10:	444440b7          	lui	ra,0x44444
80002c14:	44408093          	addi	ra,ra,1092 # 44444444 <offset+0x44444370>
80002c18:	00c08463          	beq	ra,a2,80002c20 <inst_315>
80002c1c:	41c0206f          	j	80005038 <bad_trap>

80002c20 <inst_315>:
80002c20:	55555537          	lui	a0,0x55555
80002c24:	55450513          	addi	a0,a0,1364 # 55555554 <absimm+0x10263025>
80002c28:	ffff55b7          	lui	a1,0xffff5
80002c2c:	afd58593          	addi	a1,a1,-1283 # ffff4afd <imm12+0xffff502d>
80002c30:	00b57633          	and	a2,a0,a1
80002c34:	4ac12023          	sw	a2,1184(sp)
80002c38:	555540b7          	lui	ra,0x55554
80002c3c:	05408093          	addi	ra,ra,84 # 55554054 <absimm+0x10261b25>
80002c40:	00c08463          	beq	ra,a2,80002c48 <inst_316>
80002c44:	3f40206f          	j	80005038 <bad_trap>

80002c48 <inst_316>:
80002c48:	55555537          	lui	a0,0x55555
80002c4c:	55450513          	addi	a0,a0,1364 # 55555554 <absimm+0x10263025>
80002c50:	0000b5b7          	lui	a1,0xb
80002c54:	50558593          	addi	a1,a1,1285 # b505 <offset+0xb431>
80002c58:	00b57633          	and	a2,a0,a1
80002c5c:	4ac12223          	sw	a2,1188(sp)
80002c60:	000010b7          	lui	ra,0x1
80002c64:	50408093          	addi	ra,ra,1284 # 1504 <offset+0x1430>
80002c68:	00c08463          	beq	ra,a2,80002c70 <inst_317>
80002c6c:	3cc0206f          	j	80005038 <bad_trap>

80002c70 <inst_317>:
80002c70:	00000513          	li	a0,0
80002c74:	00300593          	li	a1,3
80002c78:	00b57633          	and	a2,a0,a1
80002c7c:	4ac12423          	sw	a2,1192(sp)
80002c80:	00000093          	li	ra,0
80002c84:	00c08463          	beq	ra,a2,80002c8c <inst_318>
80002c88:	3b00206f          	j	80005038 <bad_trap>

80002c8c <inst_318>:
80002c8c:	00000513          	li	a0,0
80002c90:	555555b7          	lui	a1,0x55555
80002c94:	55558593          	addi	a1,a1,1365 # 55555555 <absimm+0x10263026>
80002c98:	00b57633          	and	a2,a0,a1
80002c9c:	4ac12623          	sw	a2,1196(sp)
80002ca0:	00000093          	li	ra,0
80002ca4:	00c08463          	beq	ra,a2,80002cac <inst_319>
80002ca8:	3900206f          	j	80005038 <bad_trap>

80002cac <inst_319>:
80002cac:	00000513          	li	a0,0
80002cb0:	aaaab5b7          	lui	a1,0xaaaab
80002cb4:	aaa58593          	addi	a1,a1,-1366 # aaaaaaaa <imm12+0xaaaaafda>
80002cb8:	00b57633          	and	a2,a0,a1
80002cbc:	4ac12823          	sw	a2,1200(sp)
80002cc0:	00000093          	li	ra,0
80002cc4:	00c08463          	beq	ra,a2,80002ccc <inst_320>
80002cc8:	3700206f          	j	80005038 <bad_trap>

80002ccc <inst_320>:
80002ccc:	00000513          	li	a0,0
80002cd0:	00500593          	li	a1,5
80002cd4:	00b57633          	and	a2,a0,a1
80002cd8:	4ac12a23          	sw	a2,1204(sp)
80002cdc:	00000093          	li	ra,0
80002ce0:	00c08463          	beq	ra,a2,80002ce8 <inst_321>
80002ce4:	3540206f          	j	80005038 <bad_trap>

80002ce8 <inst_321>:
80002ce8:	00000513          	li	a0,0
80002cec:	333335b7          	lui	a1,0x33333
80002cf0:	33358593          	addi	a1,a1,819 # 33333333 <offset+0x3333325f>
80002cf4:	00b57633          	and	a2,a0,a1
80002cf8:	4ac12c23          	sw	a2,1208(sp)
80002cfc:	00000093          	li	ra,0
80002d00:	00c08463          	beq	ra,a2,80002d08 <inst_322>
80002d04:	3340206f          	j	80005038 <bad_trap>

80002d08 <inst_322>:
80002d08:	00000513          	li	a0,0
80002d0c:	666665b7          	lui	a1,0x66666
80002d10:	66658593          	addi	a1,a1,1638 # 66666666 <absimm+0x21374137>
80002d14:	00b57633          	and	a2,a0,a1
80002d18:	4ac12e23          	sw	a2,1212(sp)
80002d1c:	00000093          	li	ra,0
80002d20:	00c08463          	beq	ra,a2,80002d28 <inst_323>
80002d24:	3140206f          	j	80005038 <bad_trap>

80002d28 <inst_323>:
80002d28:	00000513          	li	a0,0
80002d2c:	ffff55b7          	lui	a1,0xffff5
80002d30:	afc58593          	addi	a1,a1,-1284 # ffff4afc <imm12+0xffff502c>
80002d34:	00b57633          	and	a2,a0,a1
80002d38:	4cc12023          	sw	a2,1216(sp)
80002d3c:	00000093          	li	ra,0
80002d40:	00c08463          	beq	ra,a2,80002d48 <inst_324>
80002d44:	2f40206f          	j	80005038 <bad_trap>

80002d48 <inst_324>:
80002d48:	00000513          	li	a0,0
80002d4c:	0000b5b7          	lui	a1,0xb
80002d50:	50458593          	addi	a1,a1,1284 # b504 <offset+0xb430>
80002d54:	00b57633          	and	a2,a0,a1
80002d58:	4cc12223          	sw	a2,1220(sp)
80002d5c:	00000093          	li	ra,0
80002d60:	00c08463          	beq	ra,a2,80002d68 <inst_325>
80002d64:	2d40206f          	j	80005038 <bad_trap>

80002d68 <inst_325>:
80002d68:	00000513          	li	a0,0
80002d6c:	00200593          	li	a1,2
80002d70:	00b57633          	and	a2,a0,a1
80002d74:	4cc12423          	sw	a2,1224(sp)
80002d78:	00000093          	li	ra,0
80002d7c:	00c08463          	beq	ra,a2,80002d84 <inst_326>
80002d80:	2b80206f          	j	80005038 <bad_trap>

80002d84 <inst_326>:
80002d84:	aaaab537          	lui	a0,0xaaaab
80002d88:	aab50513          	addi	a0,a0,-1365 # aaaaaaab <imm12+0xaaaaafdb>
80002d8c:	aaaab5b7          	lui	a1,0xaaaab
80002d90:	aab58593          	addi	a1,a1,-1365 # aaaaaaab <imm12+0xaaaaafdb>
80002d94:	00b57633          	and	a2,a0,a1
80002d98:	4cc12623          	sw	a2,1228(sp)
80002d9c:	aaaab0b7          	lui	ra,0xaaaab
80002da0:	aab08093          	addi	ra,ra,-1365 # aaaaaaab <imm12+0xaaaaafdb>
80002da4:	00c08463          	beq	ra,a2,80002dac <inst_327>
80002da8:	2900206f          	j	80005038 <bad_trap>

80002dac <inst_327>:
80002dac:	aaaab537          	lui	a0,0xaaaab
80002db0:	aab50513          	addi	a0,a0,-1365 # aaaaaaab <imm12+0xaaaaafdb>
80002db4:	00600593          	li	a1,6
80002db8:	00b57633          	and	a2,a0,a1
80002dbc:	4cc12823          	sw	a2,1232(sp)
80002dc0:	00200093          	li	ra,2
80002dc4:	00c08463          	beq	ra,a2,80002dcc <inst_328>
80002dc8:	2700206f          	j	80005038 <bad_trap>

80002dcc <inst_328>:
80002dcc:	aaaab537          	lui	a0,0xaaaab
80002dd0:	aab50513          	addi	a0,a0,-1365 # aaaaaaab <imm12+0xaaaaafdb>
80002dd4:	333335b7          	lui	a1,0x33333
80002dd8:	33458593          	addi	a1,a1,820 # 33333334 <offset+0x33333260>
80002ddc:	00b57633          	and	a2,a0,a1
80002de0:	4cc12a23          	sw	a2,1236(sp)
80002de4:	222220b7          	lui	ra,0x22222
80002de8:	22008093          	addi	ra,ra,544 # 22222220 <offset+0x2222214c>
80002dec:	00c08463          	beq	ra,a2,80002df4 <inst_329>
80002df0:	2480206f          	j	80005038 <bad_trap>

80002df4 <inst_329>:
80002df4:	aaaab537          	lui	a0,0xaaaab
80002df8:	aab50513          	addi	a0,a0,-1365 # aaaaaaab <imm12+0xaaaaafdb>
80002dfc:	666665b7          	lui	a1,0x66666
80002e00:	66758593          	addi	a1,a1,1639 # 66666667 <absimm+0x21374138>
80002e04:	00b57633          	and	a2,a0,a1
80002e08:	4cc12c23          	sw	a2,1240(sp)
80002e0c:	222220b7          	lui	ra,0x22222
80002e10:	22308093          	addi	ra,ra,547 # 22222223 <offset+0x2222214f>
80002e14:	00c08463          	beq	ra,a2,80002e1c <inst_330>
80002e18:	2200206f          	j	80005038 <bad_trap>

80002e1c <inst_330>:
80002e1c:	aaaab537          	lui	a0,0xaaaab
80002e20:	aab50513          	addi	a0,a0,-1365 # aaaaaaab <imm12+0xaaaaafdb>
80002e24:	ffff55b7          	lui	a1,0xffff5
80002e28:	afd58593          	addi	a1,a1,-1283 # ffff4afd <imm12+0xffff502d>
80002e2c:	00b57633          	and	a2,a0,a1
80002e30:	4cc12e23          	sw	a2,1244(sp)
80002e34:	aaaa10b7          	lui	ra,0xaaaa1
80002e38:	aa908093          	addi	ra,ra,-1367 # aaaa0aa9 <imm12+0xaaaa0fd9>
80002e3c:	00c08463          	beq	ra,a2,80002e44 <inst_331>
80002e40:	1f80206f          	j	80005038 <bad_trap>

80002e44 <inst_331>:
80002e44:	aaaab537          	lui	a0,0xaaaab
80002e48:	aab50513          	addi	a0,a0,-1365 # aaaaaaab <imm12+0xaaaaafdb>
80002e4c:	0000b5b7          	lui	a1,0xb
80002e50:	50558593          	addi	a1,a1,1285 # b505 <offset+0xb431>
80002e54:	00b57633          	and	a2,a0,a1
80002e58:	4ec12023          	sw	a2,1248(sp)
80002e5c:	0000a0b7          	lui	ra,0xa
80002e60:	00108093          	addi	ra,ra,1 # a001 <offset+0x9f2d>
80002e64:	00c08463          	beq	ra,a2,80002e6c <inst_332>
80002e68:	1d00206f          	j	80005038 <bad_trap>

80002e6c <inst_332>:
80002e6c:	00600513          	li	a0,6
80002e70:	00300593          	li	a1,3
80002e74:	00b57633          	and	a2,a0,a1
80002e78:	4ec12223          	sw	a2,1252(sp)
80002e7c:	00200093          	li	ra,2
80002e80:	00c08463          	beq	ra,a2,80002e88 <inst_333>
80002e84:	1b40206f          	j	80005038 <bad_trap>

80002e88 <inst_333>:
80002e88:	00600513          	li	a0,6
80002e8c:	555555b7          	lui	a1,0x55555
80002e90:	55558593          	addi	a1,a1,1365 # 55555555 <absimm+0x10263026>
80002e94:	00b57633          	and	a2,a0,a1
80002e98:	4ec12423          	sw	a2,1256(sp)
80002e9c:	00400093          	li	ra,4
80002ea0:	00c08463          	beq	ra,a2,80002ea8 <inst_334>
80002ea4:	1940206f          	j	80005038 <bad_trap>

80002ea8 <inst_334>:
80002ea8:	00600513          	li	a0,6
80002eac:	aaaab5b7          	lui	a1,0xaaaab
80002eb0:	aaa58593          	addi	a1,a1,-1366 # aaaaaaaa <imm12+0xaaaaafda>
80002eb4:	00b57633          	and	a2,a0,a1
80002eb8:	4ec12623          	sw	a2,1260(sp)
80002ebc:	00200093          	li	ra,2
80002ec0:	00c08463          	beq	ra,a2,80002ec8 <inst_335>
80002ec4:	1740206f          	j	80005038 <bad_trap>

80002ec8 <inst_335>:
80002ec8:	00600513          	li	a0,6
80002ecc:	00500593          	li	a1,5
80002ed0:	00b57633          	and	a2,a0,a1
80002ed4:	4ec12823          	sw	a2,1264(sp)
80002ed8:	00400093          	li	ra,4
80002edc:	00c08463          	beq	ra,a2,80002ee4 <inst_336>
80002ee0:	1580206f          	j	80005038 <bad_trap>

80002ee4 <inst_336>:
80002ee4:	00600513          	li	a0,6
80002ee8:	333335b7          	lui	a1,0x33333
80002eec:	33358593          	addi	a1,a1,819 # 33333333 <offset+0x3333325f>
80002ef0:	00b57633          	and	a2,a0,a1
80002ef4:	4ec12a23          	sw	a2,1268(sp)
80002ef8:	00200093          	li	ra,2
80002efc:	00c08463          	beq	ra,a2,80002f04 <inst_337>
80002f00:	1380206f          	j	80005038 <bad_trap>

80002f04 <inst_337>:
80002f04:	00600513          	li	a0,6
80002f08:	666665b7          	lui	a1,0x66666
80002f0c:	66658593          	addi	a1,a1,1638 # 66666666 <absimm+0x21374137>
80002f10:	00b57633          	and	a2,a0,a1
80002f14:	4ec12c23          	sw	a2,1272(sp)
80002f18:	00600093          	li	ra,6
80002f1c:	00c08463          	beq	ra,a2,80002f24 <inst_338>
80002f20:	1180206f          	j	80005038 <bad_trap>

80002f24 <inst_338>:
80002f24:	00600513          	li	a0,6
80002f28:	ffff55b7          	lui	a1,0xffff5
80002f2c:	afc58593          	addi	a1,a1,-1284 # ffff4afc <imm12+0xffff502c>
80002f30:	00b57633          	and	a2,a0,a1
80002f34:	4ec12e23          	sw	a2,1276(sp)
80002f38:	00400093          	li	ra,4
80002f3c:	00c08463          	beq	ra,a2,80002f44 <inst_339>
80002f40:	0f80206f          	j	80005038 <bad_trap>

80002f44 <inst_339>:
80002f44:	00600513          	li	a0,6
80002f48:	0000b5b7          	lui	a1,0xb
80002f4c:	50458593          	addi	a1,a1,1284 # b504 <offset+0xb430>
80002f50:	00b57633          	and	a2,a0,a1
80002f54:	50c12023          	sw	a2,1280(sp)
80002f58:	00400093          	li	ra,4
80002f5c:	00c08463          	beq	ra,a2,80002f64 <inst_340>
80002f60:	0d80206f          	j	80005038 <bad_trap>

80002f64 <inst_340>:
80002f64:	00600513          	li	a0,6
80002f68:	00200593          	li	a1,2
80002f6c:	00b57633          	and	a2,a0,a1
80002f70:	50c12223          	sw	a2,1284(sp)
80002f74:	00200093          	li	ra,2
80002f78:	00c08463          	beq	ra,a2,80002f80 <inst_341>
80002f7c:	0bc0206f          	j	80005038 <bad_trap>

80002f80 <inst_341>:
80002f80:	00600513          	li	a0,6
80002f84:	555555b7          	lui	a1,0x55555
80002f88:	55458593          	addi	a1,a1,1364 # 55555554 <absimm+0x10263025>
80002f8c:	00b57633          	and	a2,a0,a1
80002f90:	50c12423          	sw	a2,1288(sp)
80002f94:	00400093          	li	ra,4
80002f98:	00c08463          	beq	ra,a2,80002fa0 <inst_342>
80002f9c:	09c0206f          	j	80005038 <bad_trap>

80002fa0 <inst_342>:
80002fa0:	00600513          	li	a0,6
80002fa4:	00000593          	li	a1,0
80002fa8:	00b57633          	and	a2,a0,a1
80002fac:	50c12623          	sw	a2,1292(sp)
80002fb0:	00000093          	li	ra,0
80002fb4:	00c08463          	beq	ra,a2,80002fbc <inst_343>
80002fb8:	0800206f          	j	80005038 <bad_trap>

80002fbc <inst_343>:
80002fbc:	00600513          	li	a0,6
80002fc0:	00400593          	li	a1,4
80002fc4:	00b57633          	and	a2,a0,a1
80002fc8:	50c12823          	sw	a2,1296(sp)
80002fcc:	00400093          	li	ra,4
80002fd0:	00c08463          	beq	ra,a2,80002fd8 <inst_344>
80002fd4:	0640206f          	j	80005038 <bad_trap>

80002fd8 <inst_344>:
80002fd8:	00600513          	li	a0,6
80002fdc:	333335b7          	lui	a1,0x33333
80002fe0:	33258593          	addi	a1,a1,818 # 33333332 <offset+0x3333325e>
80002fe4:	00b57633          	and	a2,a0,a1
80002fe8:	50c12a23          	sw	a2,1300(sp)
80002fec:	00200093          	li	ra,2
80002ff0:	00c08463          	beq	ra,a2,80002ff8 <inst_345>
80002ff4:	0440206f          	j	80005038 <bad_trap>

80002ff8 <inst_345>:
80002ff8:	00600513          	li	a0,6
80002ffc:	666665b7          	lui	a1,0x66666
80003000:	66558593          	addi	a1,a1,1637 # 66666665 <absimm+0x21374136>
80003004:	00b57633          	and	a2,a0,a1
80003008:	50c12c23          	sw	a2,1304(sp)
8000300c:	00400093          	li	ra,4
80003010:	00c08463          	beq	ra,a2,80003018 <inst_346>
80003014:	0240206f          	j	80005038 <bad_trap>

80003018 <inst_346>:
80003018:	00600513          	li	a0,6
8000301c:	0000b5b7          	lui	a1,0xb
80003020:	50358593          	addi	a1,a1,1283 # b503 <offset+0xb42f>
80003024:	00b57633          	and	a2,a0,a1
80003028:	50c12e23          	sw	a2,1308(sp)
8000302c:	00200093          	li	ra,2
80003030:	00c08463          	beq	ra,a2,80003038 <inst_347>
80003034:	0040206f          	j	80005038 <bad_trap>

80003038 <inst_347>:
80003038:	00600513          	li	a0,6
8000303c:	555555b7          	lui	a1,0x55555
80003040:	55658593          	addi	a1,a1,1366 # 55555556 <absimm+0x10263027>
80003044:	00b57633          	and	a2,a0,a1
80003048:	52c12023          	sw	a2,1312(sp)
8000304c:	00600093          	li	ra,6
80003050:	00c08463          	beq	ra,a2,80003058 <inst_348>
80003054:	7e50106f          	j	80005038 <bad_trap>

80003058 <inst_348>:
80003058:	00600513          	li	a0,6
8000305c:	aaaab5b7          	lui	a1,0xaaaab
80003060:	aab58593          	addi	a1,a1,-1365 # aaaaaaab <imm12+0xaaaaafdb>
80003064:	00b57633          	and	a2,a0,a1
80003068:	52c12223          	sw	a2,1316(sp)
8000306c:	00200093          	li	ra,2
80003070:	00c08463          	beq	ra,a2,80003078 <inst_349>
80003074:	7c50106f          	j	80005038 <bad_trap>

80003078 <inst_349>:
80003078:	00600513          	li	a0,6
8000307c:	00600593          	li	a1,6
80003080:	00b57633          	and	a2,a0,a1
80003084:	52c12423          	sw	a2,1320(sp)
80003088:	00600093          	li	ra,6
8000308c:	00c08463          	beq	ra,a2,80003094 <inst_350>
80003090:	7a90106f          	j	80005038 <bad_trap>

80003094 <inst_350>:
80003094:	00600513          	li	a0,6
80003098:	333335b7          	lui	a1,0x33333
8000309c:	33458593          	addi	a1,a1,820 # 33333334 <offset+0x33333260>
800030a0:	00b57633          	and	a2,a0,a1
800030a4:	52c12623          	sw	a2,1324(sp)
800030a8:	00400093          	li	ra,4
800030ac:	00c08463          	beq	ra,a2,800030b4 <inst_351>
800030b0:	7890106f          	j	80005038 <bad_trap>

800030b4 <inst_351>:
800030b4:	00600513          	li	a0,6
800030b8:	666665b7          	lui	a1,0x66666
800030bc:	66758593          	addi	a1,a1,1639 # 66666667 <absimm+0x21374138>
800030c0:	00b57633          	and	a2,a0,a1
800030c4:	52c12823          	sw	a2,1328(sp)
800030c8:	00600093          	li	ra,6
800030cc:	00c08463          	beq	ra,a2,800030d4 <inst_352>
800030d0:	7690106f          	j	80005038 <bad_trap>

800030d4 <inst_352>:
800030d4:	00600513          	li	a0,6
800030d8:	ffff55b7          	lui	a1,0xffff5
800030dc:	afd58593          	addi	a1,a1,-1283 # ffff4afd <imm12+0xffff502d>
800030e0:	00b57633          	and	a2,a0,a1
800030e4:	52c12a23          	sw	a2,1332(sp)
800030e8:	00400093          	li	ra,4
800030ec:	00c08463          	beq	ra,a2,800030f4 <inst_353>
800030f0:	7490106f          	j	80005038 <bad_trap>

800030f4 <inst_353>:
800030f4:	00600513          	li	a0,6
800030f8:	0000b5b7          	lui	a1,0xb
800030fc:	50558593          	addi	a1,a1,1285 # b505 <offset+0xb431>
80003100:	00b57633          	and	a2,a0,a1
80003104:	52c12c23          	sw	a2,1336(sp)
80003108:	00400093          	li	ra,4
8000310c:	00c08463          	beq	ra,a2,80003114 <inst_354>
80003110:	7290106f          	j	80005038 <bad_trap>

80003114 <inst_354>:
80003114:	33333537          	lui	a0,0x33333
80003118:	33450513          	addi	a0,a0,820 # 33333334 <offset+0x33333260>
8000311c:	00300593          	li	a1,3
80003120:	00b57633          	and	a2,a0,a1
80003124:	52c12e23          	sw	a2,1340(sp)
80003128:	00000093          	li	ra,0
8000312c:	00c08463          	beq	ra,a2,80003134 <inst_355>
80003130:	7090106f          	j	80005038 <bad_trap>

80003134 <inst_355>:
80003134:	33333537          	lui	a0,0x33333
80003138:	33450513          	addi	a0,a0,820 # 33333334 <offset+0x33333260>
8000313c:	555555b7          	lui	a1,0x55555
80003140:	55558593          	addi	a1,a1,1365 # 55555555 <absimm+0x10263026>
80003144:	00b57633          	and	a2,a0,a1
80003148:	54c12023          	sw	a2,1344(sp)
8000314c:	111110b7          	lui	ra,0x11111
80003150:	11408093          	addi	ra,ra,276 # 11111114 <offset+0x11111040>
80003154:	00c08463          	beq	ra,a2,8000315c <inst_356>
80003158:	6e10106f          	j	80005038 <bad_trap>

8000315c <inst_356>:
8000315c:	33333537          	lui	a0,0x33333
80003160:	33450513          	addi	a0,a0,820 # 33333334 <offset+0x33333260>
80003164:	aaaab5b7          	lui	a1,0xaaaab
80003168:	aaa58593          	addi	a1,a1,-1366 # aaaaaaaa <imm12+0xaaaaafda>
8000316c:	00b57633          	and	a2,a0,a1
80003170:	54c12223          	sw	a2,1348(sp)
80003174:	222220b7          	lui	ra,0x22222
80003178:	22008093          	addi	ra,ra,544 # 22222220 <offset+0x2222214c>
8000317c:	00c08463          	beq	ra,a2,80003184 <inst_357>
80003180:	6b90106f          	j	80005038 <bad_trap>

80003184 <inst_357>:
80003184:	33333537          	lui	a0,0x33333
80003188:	33450513          	addi	a0,a0,820 # 33333334 <offset+0x33333260>
8000318c:	00500593          	li	a1,5
80003190:	00b57633          	and	a2,a0,a1
80003194:	54c12423          	sw	a2,1352(sp)
80003198:	00400093          	li	ra,4
8000319c:	00c08463          	beq	ra,a2,800031a4 <inst_358>
800031a0:	6990106f          	j	80005038 <bad_trap>

800031a4 <inst_358>:
800031a4:	33333537          	lui	a0,0x33333
800031a8:	33450513          	addi	a0,a0,820 # 33333334 <offset+0x33333260>
800031ac:	333335b7          	lui	a1,0x33333
800031b0:	33358593          	addi	a1,a1,819 # 33333333 <offset+0x3333325f>
800031b4:	00b57633          	and	a2,a0,a1
800031b8:	54c12623          	sw	a2,1356(sp)
800031bc:	333330b7          	lui	ra,0x33333
800031c0:	33008093          	addi	ra,ra,816 # 33333330 <offset+0x3333325c>
800031c4:	00c08463          	beq	ra,a2,800031cc <inst_359>
800031c8:	6710106f          	j	80005038 <bad_trap>

800031cc <inst_359>:
800031cc:	33333537          	lui	a0,0x33333
800031d0:	33450513          	addi	a0,a0,820 # 33333334 <offset+0x33333260>
800031d4:	666665b7          	lui	a1,0x66666
800031d8:	66658593          	addi	a1,a1,1638 # 66666666 <absimm+0x21374137>
800031dc:	00b57633          	and	a2,a0,a1
800031e0:	54c12823          	sw	a2,1360(sp)
800031e4:	222220b7          	lui	ra,0x22222
800031e8:	22408093          	addi	ra,ra,548 # 22222224 <offset+0x22222150>
800031ec:	00c08463          	beq	ra,a2,800031f4 <inst_360>
800031f0:	6490106f          	j	80005038 <bad_trap>

800031f4 <inst_360>:
800031f4:	33333537          	lui	a0,0x33333
800031f8:	33450513          	addi	a0,a0,820 # 33333334 <offset+0x33333260>
800031fc:	ffff55b7          	lui	a1,0xffff5
80003200:	afc58593          	addi	a1,a1,-1284 # ffff4afc <imm12+0xffff502c>
80003204:	00b57633          	and	a2,a0,a1
80003208:	54c12a23          	sw	a2,1364(sp)
8000320c:	333300b7          	lui	ra,0x33330
80003210:	23408093          	addi	ra,ra,564 # 33330234 <offset+0x33330160>
80003214:	00c08463          	beq	ra,a2,8000321c <inst_361>
80003218:	6210106f          	j	80005038 <bad_trap>

8000321c <inst_361>:
8000321c:	33333537          	lui	a0,0x33333
80003220:	33450513          	addi	a0,a0,820 # 33333334 <offset+0x33333260>
80003224:	0000b5b7          	lui	a1,0xb
80003228:	50458593          	addi	a1,a1,1284 # b504 <offset+0xb430>
8000322c:	00b57633          	and	a2,a0,a1
80003230:	54c12c23          	sw	a2,1368(sp)
80003234:	000030b7          	lui	ra,0x3
80003238:	10408093          	addi	ra,ra,260 # 3104 <offset+0x3030>
8000323c:	00c08463          	beq	ra,a2,80003244 <inst_362>
80003240:	5f90106f          	j	80005038 <bad_trap>

80003244 <inst_362>:
80003244:	33333537          	lui	a0,0x33333
80003248:	33450513          	addi	a0,a0,820 # 33333334 <offset+0x33333260>
8000324c:	00200593          	li	a1,2
80003250:	00b57633          	and	a2,a0,a1
80003254:	54c12e23          	sw	a2,1372(sp)
80003258:	00000093          	li	ra,0
8000325c:	00c08463          	beq	ra,a2,80003264 <inst_363>
80003260:	5d90106f          	j	80005038 <bad_trap>

80003264 <inst_363>:
80003264:	33333537          	lui	a0,0x33333
80003268:	33450513          	addi	a0,a0,820 # 33333334 <offset+0x33333260>
8000326c:	555555b7          	lui	a1,0x55555
80003270:	55458593          	addi	a1,a1,1364 # 55555554 <absimm+0x10263025>
80003274:	00b57633          	and	a2,a0,a1
80003278:	56c12023          	sw	a2,1376(sp)
8000327c:	111110b7          	lui	ra,0x11111
80003280:	11408093          	addi	ra,ra,276 # 11111114 <offset+0x11111040>
80003284:	00c08463          	beq	ra,a2,8000328c <inst_364>
80003288:	5b10106f          	j	80005038 <bad_trap>

8000328c <inst_364>:
8000328c:	33333537          	lui	a0,0x33333
80003290:	33450513          	addi	a0,a0,820 # 33333334 <offset+0x33333260>
80003294:	00000593          	li	a1,0
80003298:	00b57633          	and	a2,a0,a1
8000329c:	56c12223          	sw	a2,1380(sp)
800032a0:	00000093          	li	ra,0
800032a4:	00c08463          	beq	ra,a2,800032ac <inst_365>
800032a8:	5910106f          	j	80005038 <bad_trap>

800032ac <inst_365>:
800032ac:	33333537          	lui	a0,0x33333
800032b0:	33450513          	addi	a0,a0,820 # 33333334 <offset+0x33333260>
800032b4:	00400593          	li	a1,4
800032b8:	00b57633          	and	a2,a0,a1
800032bc:	56c12423          	sw	a2,1384(sp)
800032c0:	00400093          	li	ra,4
800032c4:	00c08463          	beq	ra,a2,800032cc <inst_366>
800032c8:	5710106f          	j	80005038 <bad_trap>

800032cc <inst_366>:
800032cc:	33333537          	lui	a0,0x33333
800032d0:	33450513          	addi	a0,a0,820 # 33333334 <offset+0x33333260>
800032d4:	333335b7          	lui	a1,0x33333
800032d8:	33258593          	addi	a1,a1,818 # 33333332 <offset+0x3333325e>
800032dc:	00b57633          	and	a2,a0,a1
800032e0:	56c12623          	sw	a2,1388(sp)
800032e4:	333330b7          	lui	ra,0x33333
800032e8:	33008093          	addi	ra,ra,816 # 33333330 <offset+0x3333325c>
800032ec:	00c08463          	beq	ra,a2,800032f4 <inst_367>
800032f0:	5490106f          	j	80005038 <bad_trap>

800032f4 <inst_367>:
800032f4:	33333537          	lui	a0,0x33333
800032f8:	33450513          	addi	a0,a0,820 # 33333334 <offset+0x33333260>
800032fc:	666665b7          	lui	a1,0x66666
80003300:	66558593          	addi	a1,a1,1637 # 66666665 <absimm+0x21374136>
80003304:	00b57633          	and	a2,a0,a1
80003308:	56c12823          	sw	a2,1392(sp)
8000330c:	222220b7          	lui	ra,0x22222
80003310:	22408093          	addi	ra,ra,548 # 22222224 <offset+0x22222150>
80003314:	00c08463          	beq	ra,a2,8000331c <inst_368>
80003318:	5210106f          	j	80005038 <bad_trap>

8000331c <inst_368>:
8000331c:	33333537          	lui	a0,0x33333
80003320:	33450513          	addi	a0,a0,820 # 33333334 <offset+0x33333260>
80003324:	0000b5b7          	lui	a1,0xb
80003328:	50358593          	addi	a1,a1,1283 # b503 <offset+0xb42f>
8000332c:	00b57633          	and	a2,a0,a1
80003330:	56c12a23          	sw	a2,1396(sp)
80003334:	000030b7          	lui	ra,0x3
80003338:	10008093          	addi	ra,ra,256 # 3100 <offset+0x302c>
8000333c:	00c08463          	beq	ra,a2,80003344 <inst_369>
80003340:	4f90106f          	j	80005038 <bad_trap>

80003344 <inst_369>:
80003344:	33333537          	lui	a0,0x33333
80003348:	33450513          	addi	a0,a0,820 # 33333334 <offset+0x33333260>
8000334c:	555555b7          	lui	a1,0x55555
80003350:	55658593          	addi	a1,a1,1366 # 55555556 <absimm+0x10263027>
80003354:	00b57633          	and	a2,a0,a1
80003358:	56c12c23          	sw	a2,1400(sp)
8000335c:	111110b7          	lui	ra,0x11111
80003360:	11408093          	addi	ra,ra,276 # 11111114 <offset+0x11111040>
80003364:	00c08463          	beq	ra,a2,8000336c <inst_370>
80003368:	4d10106f          	j	80005038 <bad_trap>

8000336c <inst_370>:
8000336c:	33333537          	lui	a0,0x33333
80003370:	33450513          	addi	a0,a0,820 # 33333334 <offset+0x33333260>
80003374:	aaaab5b7          	lui	a1,0xaaaab
80003378:	aab58593          	addi	a1,a1,-1365 # aaaaaaab <imm12+0xaaaaafdb>
8000337c:	00b57633          	and	a2,a0,a1
80003380:	56c12e23          	sw	a2,1404(sp)
80003384:	222220b7          	lui	ra,0x22222
80003388:	22008093          	addi	ra,ra,544 # 22222220 <offset+0x2222214c>
8000338c:	00c08463          	beq	ra,a2,80003394 <inst_371>
80003390:	4a90106f          	j	80005038 <bad_trap>

80003394 <inst_371>:
80003394:	33333537          	lui	a0,0x33333
80003398:	33450513          	addi	a0,a0,820 # 33333334 <offset+0x33333260>
8000339c:	00600593          	li	a1,6
800033a0:	00b57633          	and	a2,a0,a1
800033a4:	58c12023          	sw	a2,1408(sp)
800033a8:	00400093          	li	ra,4
800033ac:	00c08463          	beq	ra,a2,800033b4 <inst_372>
800033b0:	4890106f          	j	80005038 <bad_trap>

800033b4 <inst_372>:
800033b4:	33333537          	lui	a0,0x33333
800033b8:	33450513          	addi	a0,a0,820 # 33333334 <offset+0x33333260>
800033bc:	333335b7          	lui	a1,0x33333
800033c0:	33458593          	addi	a1,a1,820 # 33333334 <offset+0x33333260>
800033c4:	00b57633          	and	a2,a0,a1
800033c8:	58c12223          	sw	a2,1412(sp)
800033cc:	333330b7          	lui	ra,0x33333
800033d0:	33408093          	addi	ra,ra,820 # 33333334 <offset+0x33333260>
800033d4:	00c08463          	beq	ra,a2,800033dc <inst_373>
800033d8:	4610106f          	j	80005038 <bad_trap>

800033dc <inst_373>:
800033dc:	33333537          	lui	a0,0x33333
800033e0:	33450513          	addi	a0,a0,820 # 33333334 <offset+0x33333260>
800033e4:	666665b7          	lui	a1,0x66666
800033e8:	66758593          	addi	a1,a1,1639 # 66666667 <absimm+0x21374138>
800033ec:	00b57633          	and	a2,a0,a1
800033f0:	58c12423          	sw	a2,1416(sp)
800033f4:	222220b7          	lui	ra,0x22222
800033f8:	22408093          	addi	ra,ra,548 # 22222224 <offset+0x22222150>
800033fc:	00c08463          	beq	ra,a2,80003404 <inst_374>
80003400:	4390106f          	j	80005038 <bad_trap>

80003404 <inst_374>:
80003404:	33333537          	lui	a0,0x33333
80003408:	33450513          	addi	a0,a0,820 # 33333334 <offset+0x33333260>
8000340c:	ffff55b7          	lui	a1,0xffff5
80003410:	afd58593          	addi	a1,a1,-1283 # ffff4afd <imm12+0xffff502d>
80003414:	00b57633          	and	a2,a0,a1
80003418:	58c12623          	sw	a2,1420(sp)
8000341c:	333300b7          	lui	ra,0x33330
80003420:	23408093          	addi	ra,ra,564 # 33330234 <offset+0x33330160>
80003424:	00c08463          	beq	ra,a2,8000342c <inst_375>
80003428:	4110106f          	j	80005038 <bad_trap>

8000342c <inst_375>:
8000342c:	33333537          	lui	a0,0x33333
80003430:	33450513          	addi	a0,a0,820 # 33333334 <offset+0x33333260>
80003434:	0000b5b7          	lui	a1,0xb
80003438:	50558593          	addi	a1,a1,1285 # b505 <offset+0xb431>
8000343c:	00b57633          	and	a2,a0,a1
80003440:	58c12823          	sw	a2,1424(sp)
80003444:	000030b7          	lui	ra,0x3
80003448:	10408093          	addi	ra,ra,260 # 3104 <offset+0x3030>
8000344c:	00c08463          	beq	ra,a2,80003454 <inst_376>
80003450:	3e90106f          	j	80005038 <bad_trap>

80003454 <inst_376>:
80003454:	66666537          	lui	a0,0x66666
80003458:	66750513          	addi	a0,a0,1639 # 66666667 <absimm+0x21374138>
8000345c:	00300593          	li	a1,3
80003460:	00b57633          	and	a2,a0,a1
80003464:	58c12a23          	sw	a2,1428(sp)
80003468:	00300093          	li	ra,3
8000346c:	00c08463          	beq	ra,a2,80003474 <inst_377>
80003470:	3c90106f          	j	80005038 <bad_trap>

80003474 <inst_377>:
80003474:	66666537          	lui	a0,0x66666
80003478:	66750513          	addi	a0,a0,1639 # 66666667 <absimm+0x21374138>
8000347c:	555555b7          	lui	a1,0x55555
80003480:	55558593          	addi	a1,a1,1365 # 55555555 <absimm+0x10263026>
80003484:	00b57633          	and	a2,a0,a1
80003488:	58c12c23          	sw	a2,1432(sp)
8000348c:	444440b7          	lui	ra,0x44444
80003490:	44508093          	addi	ra,ra,1093 # 44444445 <offset+0x44444371>
80003494:	00c08463          	beq	ra,a2,8000349c <inst_378>
80003498:	3a10106f          	j	80005038 <bad_trap>

8000349c <inst_378>:
8000349c:	66666537          	lui	a0,0x66666
800034a0:	66750513          	addi	a0,a0,1639 # 66666667 <absimm+0x21374138>
800034a4:	aaaab5b7          	lui	a1,0xaaaab
800034a8:	aaa58593          	addi	a1,a1,-1366 # aaaaaaaa <imm12+0xaaaaafda>
800034ac:	00b57633          	and	a2,a0,a1
800034b0:	58c12e23          	sw	a2,1436(sp)
800034b4:	222220b7          	lui	ra,0x22222
800034b8:	22208093          	addi	ra,ra,546 # 22222222 <offset+0x2222214e>
800034bc:	00c08463          	beq	ra,a2,800034c4 <inst_379>
800034c0:	3790106f          	j	80005038 <bad_trap>

800034c4 <inst_379>:
800034c4:	66666537          	lui	a0,0x66666
800034c8:	66750513          	addi	a0,a0,1639 # 66666667 <absimm+0x21374138>
800034cc:	00500593          	li	a1,5
800034d0:	00b57633          	and	a2,a0,a1
800034d4:	5ac12023          	sw	a2,1440(sp)
800034d8:	00500093          	li	ra,5
800034dc:	00c08463          	beq	ra,a2,800034e4 <inst_380>
800034e0:	3590106f          	j	80005038 <bad_trap>

800034e4 <inst_380>:
800034e4:	66666537          	lui	a0,0x66666
800034e8:	66750513          	addi	a0,a0,1639 # 66666667 <absimm+0x21374138>
800034ec:	333335b7          	lui	a1,0x33333
800034f0:	33358593          	addi	a1,a1,819 # 33333333 <offset+0x3333325f>
800034f4:	00b57633          	and	a2,a0,a1
800034f8:	5ac12223          	sw	a2,1444(sp)
800034fc:	222220b7          	lui	ra,0x22222
80003500:	22308093          	addi	ra,ra,547 # 22222223 <offset+0x2222214f>
80003504:	00c08463          	beq	ra,a2,8000350c <inst_381>
80003508:	3310106f          	j	80005038 <bad_trap>

8000350c <inst_381>:
8000350c:	66666537          	lui	a0,0x66666
80003510:	66750513          	addi	a0,a0,1639 # 66666667 <absimm+0x21374138>
80003514:	666665b7          	lui	a1,0x66666
80003518:	66658593          	addi	a1,a1,1638 # 66666666 <absimm+0x21374137>
8000351c:	00b57633          	and	a2,a0,a1
80003520:	5ac12423          	sw	a2,1448(sp)
80003524:	666660b7          	lui	ra,0x66666
80003528:	66608093          	addi	ra,ra,1638 # 66666666 <absimm+0x21374137>
8000352c:	00c08463          	beq	ra,a2,80003534 <inst_382>
80003530:	3090106f          	j	80005038 <bad_trap>

80003534 <inst_382>:
80003534:	66666537          	lui	a0,0x66666
80003538:	66750513          	addi	a0,a0,1639 # 66666667 <absimm+0x21374138>
8000353c:	ffff55b7          	lui	a1,0xffff5
80003540:	afc58593          	addi	a1,a1,-1284 # ffff4afc <imm12+0xffff502c>
80003544:	00b57633          	and	a2,a0,a1
80003548:	5ac12623          	sw	a2,1452(sp)
8000354c:	666640b7          	lui	ra,0x66664
80003550:	26408093          	addi	ra,ra,612 # 66664264 <absimm+0x21371d35>
80003554:	00c08463          	beq	ra,a2,8000355c <inst_383>
80003558:	2e10106f          	j	80005038 <bad_trap>

8000355c <inst_383>:
8000355c:	66666537          	lui	a0,0x66666
80003560:	66750513          	addi	a0,a0,1639 # 66666667 <absimm+0x21374138>
80003564:	0000b5b7          	lui	a1,0xb
80003568:	50458593          	addi	a1,a1,1284 # b504 <offset+0xb430>
8000356c:	00b57633          	and	a2,a0,a1
80003570:	5ac12823          	sw	a2,1456(sp)
80003574:	000020b7          	lui	ra,0x2
80003578:	40408093          	addi	ra,ra,1028 # 2404 <offset+0x2330>
8000357c:	00c08463          	beq	ra,a2,80003584 <inst_384>
80003580:	2b90106f          	j	80005038 <bad_trap>

80003584 <inst_384>:
80003584:	66666537          	lui	a0,0x66666
80003588:	66750513          	addi	a0,a0,1639 # 66666667 <absimm+0x21374138>
8000358c:	00200593          	li	a1,2
80003590:	00b57633          	and	a2,a0,a1
80003594:	5ac12a23          	sw	a2,1460(sp)
80003598:	00200093          	li	ra,2
8000359c:	00c08463          	beq	ra,a2,800035a4 <inst_385>
800035a0:	2990106f          	j	80005038 <bad_trap>

800035a4 <inst_385>:
800035a4:	66666537          	lui	a0,0x66666
800035a8:	66750513          	addi	a0,a0,1639 # 66666667 <absimm+0x21374138>
800035ac:	555555b7          	lui	a1,0x55555
800035b0:	55458593          	addi	a1,a1,1364 # 55555554 <absimm+0x10263025>
800035b4:	00b57633          	and	a2,a0,a1
800035b8:	5ac12c23          	sw	a2,1464(sp)
800035bc:	444440b7          	lui	ra,0x44444
800035c0:	44408093          	addi	ra,ra,1092 # 44444444 <offset+0x44444370>
800035c4:	00c08463          	beq	ra,a2,800035cc <inst_386>
800035c8:	2710106f          	j	80005038 <bad_trap>

800035cc <inst_386>:
800035cc:	66666537          	lui	a0,0x66666
800035d0:	66750513          	addi	a0,a0,1639 # 66666667 <absimm+0x21374138>
800035d4:	00000593          	li	a1,0
800035d8:	00b57633          	and	a2,a0,a1
800035dc:	5ac12e23          	sw	a2,1468(sp)
800035e0:	00000093          	li	ra,0
800035e4:	00c08463          	beq	ra,a2,800035ec <inst_387>
800035e8:	2510106f          	j	80005038 <bad_trap>

800035ec <inst_387>:
800035ec:	66666537          	lui	a0,0x66666
800035f0:	66750513          	addi	a0,a0,1639 # 66666667 <absimm+0x21374138>
800035f4:	00400593          	li	a1,4
800035f8:	00b57633          	and	a2,a0,a1
800035fc:	5cc12023          	sw	a2,1472(sp)
80003600:	00400093          	li	ra,4
80003604:	00c08463          	beq	ra,a2,8000360c <inst_388>
80003608:	2310106f          	j	80005038 <bad_trap>

8000360c <inst_388>:
8000360c:	66666537          	lui	a0,0x66666
80003610:	66750513          	addi	a0,a0,1639 # 66666667 <absimm+0x21374138>
80003614:	333335b7          	lui	a1,0x33333
80003618:	33258593          	addi	a1,a1,818 # 33333332 <offset+0x3333325e>
8000361c:	00b57633          	and	a2,a0,a1
80003620:	5cc12223          	sw	a2,1476(sp)
80003624:	222220b7          	lui	ra,0x22222
80003628:	22208093          	addi	ra,ra,546 # 22222222 <offset+0x2222214e>
8000362c:	00c08463          	beq	ra,a2,80003634 <inst_389>
80003630:	2090106f          	j	80005038 <bad_trap>

80003634 <inst_389>:
80003634:	66666537          	lui	a0,0x66666
80003638:	66750513          	addi	a0,a0,1639 # 66666667 <absimm+0x21374138>
8000363c:	666665b7          	lui	a1,0x66666
80003640:	66558593          	addi	a1,a1,1637 # 66666665 <absimm+0x21374136>
80003644:	00b57633          	and	a2,a0,a1
80003648:	5cc12423          	sw	a2,1480(sp)
8000364c:	666660b7          	lui	ra,0x66666
80003650:	66508093          	addi	ra,ra,1637 # 66666665 <absimm+0x21374136>
80003654:	00c08463          	beq	ra,a2,8000365c <inst_390>
80003658:	1e10106f          	j	80005038 <bad_trap>

8000365c <inst_390>:
8000365c:	66666537          	lui	a0,0x66666
80003660:	66750513          	addi	a0,a0,1639 # 66666667 <absimm+0x21374138>
80003664:	0000b5b7          	lui	a1,0xb
80003668:	50358593          	addi	a1,a1,1283 # b503 <offset+0xb42f>
8000366c:	00b57633          	and	a2,a0,a1
80003670:	5cc12623          	sw	a2,1484(sp)
80003674:	000020b7          	lui	ra,0x2
80003678:	40308093          	addi	ra,ra,1027 # 2403 <offset+0x232f>
8000367c:	00c08463          	beq	ra,a2,80003684 <inst_391>
80003680:	1b90106f          	j	80005038 <bad_trap>

80003684 <inst_391>:
80003684:	66666537          	lui	a0,0x66666
80003688:	66750513          	addi	a0,a0,1639 # 66666667 <absimm+0x21374138>
8000368c:	555555b7          	lui	a1,0x55555
80003690:	55658593          	addi	a1,a1,1366 # 55555556 <absimm+0x10263027>
80003694:	00b57633          	and	a2,a0,a1
80003698:	5cc12823          	sw	a2,1488(sp)
8000369c:	444440b7          	lui	ra,0x44444
800036a0:	44608093          	addi	ra,ra,1094 # 44444446 <offset+0x44444372>
800036a4:	00c08463          	beq	ra,a2,800036ac <inst_392>
800036a8:	1910106f          	j	80005038 <bad_trap>

800036ac <inst_392>:
800036ac:	66666537          	lui	a0,0x66666
800036b0:	66750513          	addi	a0,a0,1639 # 66666667 <absimm+0x21374138>
800036b4:	aaaab5b7          	lui	a1,0xaaaab
800036b8:	aab58593          	addi	a1,a1,-1365 # aaaaaaab <imm12+0xaaaaafdb>
800036bc:	00b57633          	and	a2,a0,a1
800036c0:	5cc12a23          	sw	a2,1492(sp)
800036c4:	222220b7          	lui	ra,0x22222
800036c8:	22308093          	addi	ra,ra,547 # 22222223 <offset+0x2222214f>
800036cc:	00c08463          	beq	ra,a2,800036d4 <inst_393>
800036d0:	1690106f          	j	80005038 <bad_trap>

800036d4 <inst_393>:
800036d4:	66666537          	lui	a0,0x66666
800036d8:	66750513          	addi	a0,a0,1639 # 66666667 <absimm+0x21374138>
800036dc:	00600593          	li	a1,6
800036e0:	00b57633          	and	a2,a0,a1
800036e4:	5cc12c23          	sw	a2,1496(sp)
800036e8:	00600093          	li	ra,6
800036ec:	00c08463          	beq	ra,a2,800036f4 <inst_394>
800036f0:	1490106f          	j	80005038 <bad_trap>

800036f4 <inst_394>:
800036f4:	66666537          	lui	a0,0x66666
800036f8:	66750513          	addi	a0,a0,1639 # 66666667 <absimm+0x21374138>
800036fc:	333335b7          	lui	a1,0x33333
80003700:	33458593          	addi	a1,a1,820 # 33333334 <offset+0x33333260>
80003704:	00b57633          	and	a2,a0,a1
80003708:	5cc12e23          	sw	a2,1500(sp)
8000370c:	222220b7          	lui	ra,0x22222
80003710:	22408093          	addi	ra,ra,548 # 22222224 <offset+0x22222150>
80003714:	00c08463          	beq	ra,a2,8000371c <inst_395>
80003718:	1210106f          	j	80005038 <bad_trap>

8000371c <inst_395>:
8000371c:	66666537          	lui	a0,0x66666
80003720:	66750513          	addi	a0,a0,1639 # 66666667 <absimm+0x21374138>
80003724:	666665b7          	lui	a1,0x66666
80003728:	66758593          	addi	a1,a1,1639 # 66666667 <absimm+0x21374138>
8000372c:	00b57633          	and	a2,a0,a1
80003730:	5ec12023          	sw	a2,1504(sp)
80003734:	666660b7          	lui	ra,0x66666
80003738:	66708093          	addi	ra,ra,1639 # 66666667 <absimm+0x21374138>
8000373c:	00c08463          	beq	ra,a2,80003744 <inst_396>
80003740:	0f90106f          	j	80005038 <bad_trap>

80003744 <inst_396>:
80003744:	66666537          	lui	a0,0x66666
80003748:	66750513          	addi	a0,a0,1639 # 66666667 <absimm+0x21374138>
8000374c:	ffff55b7          	lui	a1,0xffff5
80003750:	afd58593          	addi	a1,a1,-1283 # ffff4afd <imm12+0xffff502d>
80003754:	00b57633          	and	a2,a0,a1
80003758:	5ec12223          	sw	a2,1508(sp)
8000375c:	666640b7          	lui	ra,0x66664
80003760:	26508093          	addi	ra,ra,613 # 66664265 <absimm+0x21371d36>
80003764:	00c08463          	beq	ra,a2,8000376c <inst_397>
80003768:	0d10106f          	j	80005038 <bad_trap>

8000376c <inst_397>:
8000376c:	66666537          	lui	a0,0x66666
80003770:	66750513          	addi	a0,a0,1639 # 66666667 <absimm+0x21374138>
80003774:	0000b5b7          	lui	a1,0xb
80003778:	50558593          	addi	a1,a1,1285 # b505 <offset+0xb431>
8000377c:	00b57633          	and	a2,a0,a1
80003780:	5ec12423          	sw	a2,1512(sp)
80003784:	000020b7          	lui	ra,0x2
80003788:	40508093          	addi	ra,ra,1029 # 2405 <offset+0x2331>
8000378c:	00c08463          	beq	ra,a2,80003794 <inst_398>
80003790:	0a90106f          	j	80005038 <bad_trap>

80003794 <inst_398>:
80003794:	ffff5537          	lui	a0,0xffff5
80003798:	afd50513          	addi	a0,a0,-1283 # ffff4afd <imm12+0xffff502d>
8000379c:	00300593          	li	a1,3
800037a0:	00b57633          	and	a2,a0,a1
800037a4:	5ec12623          	sw	a2,1516(sp)
800037a8:	00100093          	li	ra,1
800037ac:	00c08463          	beq	ra,a2,800037b4 <inst_399>
800037b0:	0890106f          	j	80005038 <bad_trap>

800037b4 <inst_399>:
800037b4:	ffff5537          	lui	a0,0xffff5
800037b8:	afd50513          	addi	a0,a0,-1283 # ffff4afd <imm12+0xffff502d>
800037bc:	555555b7          	lui	a1,0x55555
800037c0:	55558593          	addi	a1,a1,1365 # 55555555 <absimm+0x10263026>
800037c4:	00b57633          	and	a2,a0,a1
800037c8:	5ec12823          	sw	a2,1520(sp)
800037cc:	555540b7          	lui	ra,0x55554
800037d0:	05508093          	addi	ra,ra,85 # 55554055 <absimm+0x10261b26>
800037d4:	00c08463          	beq	ra,a2,800037dc <inst_400>
800037d8:	0610106f          	j	80005038 <bad_trap>

800037dc <inst_400>:
800037dc:	ffff5537          	lui	a0,0xffff5
800037e0:	afd50513          	addi	a0,a0,-1283 # ffff4afd <imm12+0xffff502d>
800037e4:	aaaab5b7          	lui	a1,0xaaaab
800037e8:	aaa58593          	addi	a1,a1,-1366 # aaaaaaaa <imm12+0xaaaaafda>
800037ec:	00b57633          	and	a2,a0,a1
800037f0:	5ec12a23          	sw	a2,1524(sp)
800037f4:	aaaa10b7          	lui	ra,0xaaaa1
800037f8:	aa808093          	addi	ra,ra,-1368 # aaaa0aa8 <imm12+0xaaaa0fd8>
800037fc:	00c08463          	beq	ra,a2,80003804 <inst_401>
80003800:	0390106f          	j	80005038 <bad_trap>

80003804 <inst_401>:
80003804:	ffff5537          	lui	a0,0xffff5
80003808:	afd50513          	addi	a0,a0,-1283 # ffff4afd <imm12+0xffff502d>
8000380c:	00500593          	li	a1,5
80003810:	00b57633          	and	a2,a0,a1
80003814:	5ec12c23          	sw	a2,1528(sp)
80003818:	00500093          	li	ra,5
8000381c:	00c08463          	beq	ra,a2,80003824 <inst_402>
80003820:	0190106f          	j	80005038 <bad_trap>

80003824 <inst_402>:
80003824:	ffff5537          	lui	a0,0xffff5
80003828:	afd50513          	addi	a0,a0,-1283 # ffff4afd <imm12+0xffff502d>
8000382c:	333335b7          	lui	a1,0x33333
80003830:	33358593          	addi	a1,a1,819 # 33333333 <offset+0x3333325f>
80003834:	00b57633          	and	a2,a0,a1
80003838:	5ec12e23          	sw	a2,1532(sp)
8000383c:	333300b7          	lui	ra,0x33330
80003840:	23108093          	addi	ra,ra,561 # 33330231 <offset+0x3333015d>
80003844:	00c08463          	beq	ra,a2,8000384c <inst_403>
80003848:	7f00106f          	j	80005038 <bad_trap>

8000384c <inst_403>:
8000384c:	ffff5537          	lui	a0,0xffff5
80003850:	afd50513          	addi	a0,a0,-1283 # ffff4afd <imm12+0xffff502d>
80003854:	666665b7          	lui	a1,0x66666
80003858:	66658593          	addi	a1,a1,1638 # 66666666 <absimm+0x21374137>
8000385c:	00b57633          	and	a2,a0,a1
80003860:	60c12023          	sw	a2,1536(sp)
80003864:	666640b7          	lui	ra,0x66664
80003868:	26408093          	addi	ra,ra,612 # 66664264 <absimm+0x21371d35>
8000386c:	00c08463          	beq	ra,a2,80003874 <inst_404>
80003870:	7c80106f          	j	80005038 <bad_trap>

80003874 <inst_404>:
80003874:	ffff5537          	lui	a0,0xffff5
80003878:	afd50513          	addi	a0,a0,-1283 # ffff4afd <imm12+0xffff502d>
8000387c:	ffff55b7          	lui	a1,0xffff5
80003880:	afc58593          	addi	a1,a1,-1284 # ffff4afc <imm12+0xffff502c>
80003884:	00b57633          	and	a2,a0,a1
80003888:	60c12223          	sw	a2,1540(sp)
8000388c:	ffff50b7          	lui	ra,0xffff5
80003890:	afc08093          	addi	ra,ra,-1284 # ffff4afc <imm12+0xffff502c>
80003894:	00c08463          	beq	ra,a2,8000389c <inst_405>
80003898:	7a00106f          	j	80005038 <bad_trap>

8000389c <inst_405>:
8000389c:	ffff5537          	lui	a0,0xffff5
800038a0:	afd50513          	addi	a0,a0,-1283 # ffff4afd <imm12+0xffff502d>
800038a4:	0000b5b7          	lui	a1,0xb
800038a8:	50458593          	addi	a1,a1,1284 # b504 <offset+0xb430>
800038ac:	00b57633          	and	a2,a0,a1
800038b0:	60c12423          	sw	a2,1544(sp)
800038b4:	00400093          	li	ra,4
800038b8:	00c08463          	beq	ra,a2,800038c0 <inst_406>
800038bc:	77c0106f          	j	80005038 <bad_trap>

800038c0 <inst_406>:
800038c0:	ffff5537          	lui	a0,0xffff5
800038c4:	afd50513          	addi	a0,a0,-1283 # ffff4afd <imm12+0xffff502d>
800038c8:	00200593          	li	a1,2
800038cc:	00b57633          	and	a2,a0,a1
800038d0:	60c12623          	sw	a2,1548(sp)
800038d4:	00000093          	li	ra,0
800038d8:	00c08463          	beq	ra,a2,800038e0 <inst_407>
800038dc:	75c0106f          	j	80005038 <bad_trap>

800038e0 <inst_407>:
800038e0:	ffff5537          	lui	a0,0xffff5
800038e4:	afd50513          	addi	a0,a0,-1283 # ffff4afd <imm12+0xffff502d>
800038e8:	555555b7          	lui	a1,0x55555
800038ec:	55458593          	addi	a1,a1,1364 # 55555554 <absimm+0x10263025>
800038f0:	00b57633          	and	a2,a0,a1
800038f4:	60c12823          	sw	a2,1552(sp)
800038f8:	555540b7          	lui	ra,0x55554
800038fc:	05408093          	addi	ra,ra,84 # 55554054 <absimm+0x10261b25>
80003900:	00c08463          	beq	ra,a2,80003908 <inst_408>
80003904:	7340106f          	j	80005038 <bad_trap>

80003908 <inst_408>:
80003908:	ffff5537          	lui	a0,0xffff5
8000390c:	afd50513          	addi	a0,a0,-1283 # ffff4afd <imm12+0xffff502d>
80003910:	00000593          	li	a1,0
80003914:	00b57633          	and	a2,a0,a1
80003918:	60c12a23          	sw	a2,1556(sp)
8000391c:	00000093          	li	ra,0
80003920:	00c08463          	beq	ra,a2,80003928 <inst_409>
80003924:	7140106f          	j	80005038 <bad_trap>

80003928 <inst_409>:
80003928:	ffff5537          	lui	a0,0xffff5
8000392c:	afd50513          	addi	a0,a0,-1283 # ffff4afd <imm12+0xffff502d>
80003930:	00400593          	li	a1,4
80003934:	00b57633          	and	a2,a0,a1
80003938:	60c12c23          	sw	a2,1560(sp)
8000393c:	00400093          	li	ra,4
80003940:	00c08463          	beq	ra,a2,80003948 <inst_410>
80003944:	6f40106f          	j	80005038 <bad_trap>

80003948 <inst_410>:
80003948:	ffff5537          	lui	a0,0xffff5
8000394c:	afd50513          	addi	a0,a0,-1283 # ffff4afd <imm12+0xffff502d>
80003950:	333335b7          	lui	a1,0x33333
80003954:	33258593          	addi	a1,a1,818 # 33333332 <offset+0x3333325e>
80003958:	00b57633          	and	a2,a0,a1
8000395c:	60c12e23          	sw	a2,1564(sp)
80003960:	333300b7          	lui	ra,0x33330
80003964:	23008093          	addi	ra,ra,560 # 33330230 <offset+0x3333015c>
80003968:	00c08463          	beq	ra,a2,80003970 <inst_411>
8000396c:	6cc0106f          	j	80005038 <bad_trap>

80003970 <inst_411>:
80003970:	ffff5537          	lui	a0,0xffff5
80003974:	afd50513          	addi	a0,a0,-1283 # ffff4afd <imm12+0xffff502d>
80003978:	666665b7          	lui	a1,0x66666
8000397c:	66558593          	addi	a1,a1,1637 # 66666665 <absimm+0x21374136>
80003980:	00b57633          	and	a2,a0,a1
80003984:	62c12023          	sw	a2,1568(sp)
80003988:	666640b7          	lui	ra,0x66664
8000398c:	26508093          	addi	ra,ra,613 # 66664265 <absimm+0x21371d36>
80003990:	00c08463          	beq	ra,a2,80003998 <inst_412>
80003994:	6a40106f          	j	80005038 <bad_trap>

80003998 <inst_412>:
80003998:	ffff5537          	lui	a0,0xffff5
8000399c:	afd50513          	addi	a0,a0,-1283 # ffff4afd <imm12+0xffff502d>
800039a0:	0000b5b7          	lui	a1,0xb
800039a4:	50358593          	addi	a1,a1,1283 # b503 <offset+0xb42f>
800039a8:	00b57633          	and	a2,a0,a1
800039ac:	62c12223          	sw	a2,1572(sp)
800039b0:	00100093          	li	ra,1
800039b4:	00c08463          	beq	ra,a2,800039bc <inst_413>
800039b8:	6800106f          	j	80005038 <bad_trap>

800039bc <inst_413>:
800039bc:	ffff5537          	lui	a0,0xffff5
800039c0:	afd50513          	addi	a0,a0,-1283 # ffff4afd <imm12+0xffff502d>
800039c4:	555555b7          	lui	a1,0x55555
800039c8:	55658593          	addi	a1,a1,1366 # 55555556 <absimm+0x10263027>
800039cc:	00b57633          	and	a2,a0,a1
800039d0:	62c12423          	sw	a2,1576(sp)
800039d4:	555540b7          	lui	ra,0x55554
800039d8:	05408093          	addi	ra,ra,84 # 55554054 <absimm+0x10261b25>
800039dc:	00c08463          	beq	ra,a2,800039e4 <inst_414>
800039e0:	6580106f          	j	80005038 <bad_trap>

800039e4 <inst_414>:
800039e4:	ffff5537          	lui	a0,0xffff5
800039e8:	afd50513          	addi	a0,a0,-1283 # ffff4afd <imm12+0xffff502d>
800039ec:	aaaab5b7          	lui	a1,0xaaaab
800039f0:	aab58593          	addi	a1,a1,-1365 # aaaaaaab <imm12+0xaaaaafdb>
800039f4:	00b57633          	and	a2,a0,a1
800039f8:	62c12623          	sw	a2,1580(sp)
800039fc:	aaaa10b7          	lui	ra,0xaaaa1
80003a00:	aa908093          	addi	ra,ra,-1367 # aaaa0aa9 <imm12+0xaaaa0fd9>
80003a04:	00c08463          	beq	ra,a2,80003a0c <inst_415>
80003a08:	6300106f          	j	80005038 <bad_trap>

80003a0c <inst_415>:
80003a0c:	ffff5537          	lui	a0,0xffff5
80003a10:	afd50513          	addi	a0,a0,-1283 # ffff4afd <imm12+0xffff502d>
80003a14:	00600593          	li	a1,6
80003a18:	00b57633          	and	a2,a0,a1
80003a1c:	62c12823          	sw	a2,1584(sp)
80003a20:	00400093          	li	ra,4
80003a24:	00c08463          	beq	ra,a2,80003a2c <inst_416>
80003a28:	6100106f          	j	80005038 <bad_trap>

80003a2c <inst_416>:
80003a2c:	ffff5537          	lui	a0,0xffff5
80003a30:	afd50513          	addi	a0,a0,-1283 # ffff4afd <imm12+0xffff502d>
80003a34:	333335b7          	lui	a1,0x33333
80003a38:	33458593          	addi	a1,a1,820 # 33333334 <offset+0x33333260>
80003a3c:	00b57633          	and	a2,a0,a1
80003a40:	62c12a23          	sw	a2,1588(sp)
80003a44:	333300b7          	lui	ra,0x33330
80003a48:	23408093          	addi	ra,ra,564 # 33330234 <offset+0x33330160>
80003a4c:	00c08463          	beq	ra,a2,80003a54 <inst_417>
80003a50:	5e80106f          	j	80005038 <bad_trap>

80003a54 <inst_417>:
80003a54:	ffff5537          	lui	a0,0xffff5
80003a58:	afd50513          	addi	a0,a0,-1283 # ffff4afd <imm12+0xffff502d>
80003a5c:	666665b7          	lui	a1,0x66666
80003a60:	66758593          	addi	a1,a1,1639 # 66666667 <absimm+0x21374138>
80003a64:	00b57633          	and	a2,a0,a1
80003a68:	62c12c23          	sw	a2,1592(sp)
80003a6c:	666640b7          	lui	ra,0x66664
80003a70:	26508093          	addi	ra,ra,613 # 66664265 <absimm+0x21371d36>
80003a74:	00c08463          	beq	ra,a2,80003a7c <inst_418>
80003a78:	5c00106f          	j	80005038 <bad_trap>

80003a7c <inst_418>:
80003a7c:	ffff5537          	lui	a0,0xffff5
80003a80:	afd50513          	addi	a0,a0,-1283 # ffff4afd <imm12+0xffff502d>
80003a84:	ffff55b7          	lui	a1,0xffff5
80003a88:	afd58593          	addi	a1,a1,-1283 # ffff4afd <imm12+0xffff502d>
80003a8c:	00b57633          	and	a2,a0,a1
80003a90:	62c12e23          	sw	a2,1596(sp)
80003a94:	ffff50b7          	lui	ra,0xffff5
80003a98:	afd08093          	addi	ra,ra,-1283 # ffff4afd <imm12+0xffff502d>
80003a9c:	00c08463          	beq	ra,a2,80003aa4 <inst_419>
80003aa0:	5980106f          	j	80005038 <bad_trap>

80003aa4 <inst_419>:
80003aa4:	ffff5537          	lui	a0,0xffff5
80003aa8:	afd50513          	addi	a0,a0,-1283 # ffff4afd <imm12+0xffff502d>
80003aac:	0000b5b7          	lui	a1,0xb
80003ab0:	50558593          	addi	a1,a1,1285 # b505 <offset+0xb431>
80003ab4:	00b57633          	and	a2,a0,a1
80003ab8:	64c12023          	sw	a2,1600(sp)
80003abc:	00500093          	li	ra,5
80003ac0:	00c08463          	beq	ra,a2,80003ac8 <inst_420>
80003ac4:	5740106f          	j	80005038 <bad_trap>

80003ac8 <inst_420>:
80003ac8:	0000b537          	lui	a0,0xb
80003acc:	50550513          	addi	a0,a0,1285 # b505 <offset+0xb431>
80003ad0:	00300593          	li	a1,3
80003ad4:	00b57633          	and	a2,a0,a1
80003ad8:	64c12223          	sw	a2,1604(sp)
80003adc:	00100093          	li	ra,1
80003ae0:	00c08463          	beq	ra,a2,80003ae8 <inst_421>
80003ae4:	5540106f          	j	80005038 <bad_trap>

80003ae8 <inst_421>:
80003ae8:	0000b537          	lui	a0,0xb
80003aec:	50550513          	addi	a0,a0,1285 # b505 <offset+0xb431>
80003af0:	555555b7          	lui	a1,0x55555
80003af4:	55558593          	addi	a1,a1,1365 # 55555555 <absimm+0x10263026>
80003af8:	00b57633          	and	a2,a0,a1
80003afc:	64c12423          	sw	a2,1608(sp)
80003b00:	000010b7          	lui	ra,0x1
80003b04:	50508093          	addi	ra,ra,1285 # 1505 <offset+0x1431>
80003b08:	00c08463          	beq	ra,a2,80003b10 <inst_422>
80003b0c:	52c0106f          	j	80005038 <bad_trap>

80003b10 <inst_422>:
80003b10:	0000b537          	lui	a0,0xb
80003b14:	50550513          	addi	a0,a0,1285 # b505 <offset+0xb431>
80003b18:	aaaab5b7          	lui	a1,0xaaaab
80003b1c:	aaa58593          	addi	a1,a1,-1366 # aaaaaaaa <imm12+0xaaaaafda>
80003b20:	00b57633          	and	a2,a0,a1
80003b24:	64c12623          	sw	a2,1612(sp)
80003b28:	0000a0b7          	lui	ra,0xa
80003b2c:	00c08463          	beq	ra,a2,80003b34 <inst_423>
80003b30:	5080106f          	j	80005038 <bad_trap>

80003b34 <inst_423>:
80003b34:	0000b537          	lui	a0,0xb
80003b38:	50550513          	addi	a0,a0,1285 # b505 <offset+0xb431>
80003b3c:	00500593          	li	a1,5
80003b40:	00b57633          	and	a2,a0,a1
80003b44:	64c12823          	sw	a2,1616(sp)
80003b48:	00500093          	li	ra,5
80003b4c:	00c08463          	beq	ra,a2,80003b54 <inst_424>
80003b50:	4e80106f          	j	80005038 <bad_trap>

80003b54 <inst_424>:
80003b54:	0000b537          	lui	a0,0xb
80003b58:	50550513          	addi	a0,a0,1285 # b505 <offset+0xb431>
80003b5c:	333335b7          	lui	a1,0x33333
80003b60:	33358593          	addi	a1,a1,819 # 33333333 <offset+0x3333325f>
80003b64:	00b57633          	and	a2,a0,a1
80003b68:	64c12a23          	sw	a2,1620(sp)
80003b6c:	000030b7          	lui	ra,0x3
80003b70:	10108093          	addi	ra,ra,257 # 3101 <offset+0x302d>
80003b74:	00c08463          	beq	ra,a2,80003b7c <inst_425>
80003b78:	4c00106f          	j	80005038 <bad_trap>

80003b7c <inst_425>:
80003b7c:	0000b537          	lui	a0,0xb
80003b80:	50550513          	addi	a0,a0,1285 # b505 <offset+0xb431>
80003b84:	666665b7          	lui	a1,0x66666
80003b88:	66658593          	addi	a1,a1,1638 # 66666666 <absimm+0x21374137>
80003b8c:	00b57633          	and	a2,a0,a1
80003b90:	64c12c23          	sw	a2,1624(sp)
80003b94:	000020b7          	lui	ra,0x2
80003b98:	40408093          	addi	ra,ra,1028 # 2404 <offset+0x2330>
80003b9c:	00c08463          	beq	ra,a2,80003ba4 <inst_426>
80003ba0:	4980106f          	j	80005038 <bad_trap>

80003ba4 <inst_426>:
80003ba4:	0000b537          	lui	a0,0xb
80003ba8:	50550513          	addi	a0,a0,1285 # b505 <offset+0xb431>
80003bac:	ffff55b7          	lui	a1,0xffff5
80003bb0:	afc58593          	addi	a1,a1,-1284 # ffff4afc <imm12+0xffff502c>
80003bb4:	00b57633          	and	a2,a0,a1
80003bb8:	64c12e23          	sw	a2,1628(sp)
80003bbc:	00400093          	li	ra,4
80003bc0:	00c08463          	beq	ra,a2,80003bc8 <inst_427>
80003bc4:	4740106f          	j	80005038 <bad_trap>

80003bc8 <inst_427>:
80003bc8:	0000b537          	lui	a0,0xb
80003bcc:	50550513          	addi	a0,a0,1285 # b505 <offset+0xb431>
80003bd0:	0000b5b7          	lui	a1,0xb
80003bd4:	50458593          	addi	a1,a1,1284 # b504 <offset+0xb430>
80003bd8:	00b57633          	and	a2,a0,a1
80003bdc:	66c12023          	sw	a2,1632(sp)
80003be0:	0000b0b7          	lui	ra,0xb
80003be4:	50408093          	addi	ra,ra,1284 # b504 <offset+0xb430>
80003be8:	00c08463          	beq	ra,a2,80003bf0 <inst_428>
80003bec:	44c0106f          	j	80005038 <bad_trap>

80003bf0 <inst_428>:
80003bf0:	0000b537          	lui	a0,0xb
80003bf4:	50550513          	addi	a0,a0,1285 # b505 <offset+0xb431>
80003bf8:	00200593          	li	a1,2
80003bfc:	00b57633          	and	a2,a0,a1
80003c00:	66c12223          	sw	a2,1636(sp)
80003c04:	00000093          	li	ra,0
80003c08:	00c08463          	beq	ra,a2,80003c10 <inst_429>
80003c0c:	42c0106f          	j	80005038 <bad_trap>

80003c10 <inst_429>:
80003c10:	0000b537          	lui	a0,0xb
80003c14:	50550513          	addi	a0,a0,1285 # b505 <offset+0xb431>
80003c18:	555555b7          	lui	a1,0x55555
80003c1c:	55458593          	addi	a1,a1,1364 # 55555554 <absimm+0x10263025>
80003c20:	00b57633          	and	a2,a0,a1
80003c24:	66c12423          	sw	a2,1640(sp)
80003c28:	000010b7          	lui	ra,0x1
80003c2c:	50408093          	addi	ra,ra,1284 # 1504 <offset+0x1430>
80003c30:	00c08463          	beq	ra,a2,80003c38 <inst_430>
80003c34:	4040106f          	j	80005038 <bad_trap>

80003c38 <inst_430>:
80003c38:	0000b537          	lui	a0,0xb
80003c3c:	50550513          	addi	a0,a0,1285 # b505 <offset+0xb431>
80003c40:	00000593          	li	a1,0
80003c44:	00b57633          	and	a2,a0,a1
80003c48:	66c12623          	sw	a2,1644(sp)
80003c4c:	00000093          	li	ra,0
80003c50:	00c08463          	beq	ra,a2,80003c58 <inst_431>
80003c54:	3e40106f          	j	80005038 <bad_trap>

80003c58 <inst_431>:
80003c58:	0000b537          	lui	a0,0xb
80003c5c:	50550513          	addi	a0,a0,1285 # b505 <offset+0xb431>
80003c60:	00400593          	li	a1,4
80003c64:	00b57633          	and	a2,a0,a1
80003c68:	66c12823          	sw	a2,1648(sp)
80003c6c:	00400093          	li	ra,4
80003c70:	00c08463          	beq	ra,a2,80003c78 <inst_432>
80003c74:	3c40106f          	j	80005038 <bad_trap>

80003c78 <inst_432>:
80003c78:	0000b537          	lui	a0,0xb
80003c7c:	50550513          	addi	a0,a0,1285 # b505 <offset+0xb431>
80003c80:	333335b7          	lui	a1,0x33333
80003c84:	33258593          	addi	a1,a1,818 # 33333332 <offset+0x3333325e>
80003c88:	00b57633          	and	a2,a0,a1
80003c8c:	66c12a23          	sw	a2,1652(sp)
80003c90:	000030b7          	lui	ra,0x3
80003c94:	10008093          	addi	ra,ra,256 # 3100 <offset+0x302c>
80003c98:	00c08463          	beq	ra,a2,80003ca0 <inst_433>
80003c9c:	39c0106f          	j	80005038 <bad_trap>

80003ca0 <inst_433>:
80003ca0:	0000b537          	lui	a0,0xb
80003ca4:	50550513          	addi	a0,a0,1285 # b505 <offset+0xb431>
80003ca8:	666665b7          	lui	a1,0x66666
80003cac:	66558593          	addi	a1,a1,1637 # 66666665 <absimm+0x21374136>
80003cb0:	00b57633          	and	a2,a0,a1
80003cb4:	66c12c23          	sw	a2,1656(sp)
80003cb8:	000020b7          	lui	ra,0x2
80003cbc:	40508093          	addi	ra,ra,1029 # 2405 <offset+0x2331>
80003cc0:	00c08463          	beq	ra,a2,80003cc8 <inst_434>
80003cc4:	3740106f          	j	80005038 <bad_trap>

80003cc8 <inst_434>:
80003cc8:	0000b537          	lui	a0,0xb
80003ccc:	50550513          	addi	a0,a0,1285 # b505 <offset+0xb431>
80003cd0:	0000b5b7          	lui	a1,0xb
80003cd4:	50358593          	addi	a1,a1,1283 # b503 <offset+0xb42f>
80003cd8:	00b57633          	and	a2,a0,a1
80003cdc:	66c12e23          	sw	a2,1660(sp)
80003ce0:	0000b0b7          	lui	ra,0xb
80003ce4:	50108093          	addi	ra,ra,1281 # b501 <offset+0xb42d>
80003ce8:	00c08463          	beq	ra,a2,80003cf0 <inst_435>
80003cec:	34c0106f          	j	80005038 <bad_trap>

80003cf0 <inst_435>:
80003cf0:	0000b537          	lui	a0,0xb
80003cf4:	50550513          	addi	a0,a0,1285 # b505 <offset+0xb431>
80003cf8:	555555b7          	lui	a1,0x55555
80003cfc:	55658593          	addi	a1,a1,1366 # 55555556 <absimm+0x10263027>
80003d00:	00b57633          	and	a2,a0,a1
80003d04:	68c12023          	sw	a2,1664(sp)
80003d08:	000010b7          	lui	ra,0x1
80003d0c:	50408093          	addi	ra,ra,1284 # 1504 <offset+0x1430>
80003d10:	00c08463          	beq	ra,a2,80003d18 <inst_436>
80003d14:	3240106f          	j	80005038 <bad_trap>

80003d18 <inst_436>:
80003d18:	0000b537          	lui	a0,0xb
80003d1c:	50550513          	addi	a0,a0,1285 # b505 <offset+0xb431>
80003d20:	aaaab5b7          	lui	a1,0xaaaab
80003d24:	aab58593          	addi	a1,a1,-1365 # aaaaaaab <imm12+0xaaaaafdb>
80003d28:	00b57633          	and	a2,a0,a1
80003d2c:	68c12223          	sw	a2,1668(sp)
80003d30:	0000a0b7          	lui	ra,0xa
80003d34:	00108093          	addi	ra,ra,1 # a001 <offset+0x9f2d>
80003d38:	00c08463          	beq	ra,a2,80003d40 <inst_437>
80003d3c:	2fc0106f          	j	80005038 <bad_trap>

80003d40 <inst_437>:
80003d40:	0000b537          	lui	a0,0xb
80003d44:	50550513          	addi	a0,a0,1285 # b505 <offset+0xb431>
80003d48:	00600593          	li	a1,6
80003d4c:	00b57633          	and	a2,a0,a1
80003d50:	68c12423          	sw	a2,1672(sp)
80003d54:	00400093          	li	ra,4
80003d58:	00c08463          	beq	ra,a2,80003d60 <inst_438>
80003d5c:	2dc0106f          	j	80005038 <bad_trap>

80003d60 <inst_438>:
80003d60:	0000b537          	lui	a0,0xb
80003d64:	50550513          	addi	a0,a0,1285 # b505 <offset+0xb431>
80003d68:	333335b7          	lui	a1,0x33333
80003d6c:	33458593          	addi	a1,a1,820 # 33333334 <offset+0x33333260>
80003d70:	00b57633          	and	a2,a0,a1
80003d74:	68c12623          	sw	a2,1676(sp)
80003d78:	000030b7          	lui	ra,0x3
80003d7c:	10408093          	addi	ra,ra,260 # 3104 <offset+0x3030>
80003d80:	00c08463          	beq	ra,a2,80003d88 <inst_439>
80003d84:	2b40106f          	j	80005038 <bad_trap>

80003d88 <inst_439>:
80003d88:	0000b537          	lui	a0,0xb
80003d8c:	50550513          	addi	a0,a0,1285 # b505 <offset+0xb431>
80003d90:	666665b7          	lui	a1,0x66666
80003d94:	66758593          	addi	a1,a1,1639 # 66666667 <absimm+0x21374138>
80003d98:	00b57633          	and	a2,a0,a1
80003d9c:	68c12823          	sw	a2,1680(sp)
80003da0:	000020b7          	lui	ra,0x2
80003da4:	40508093          	addi	ra,ra,1029 # 2405 <offset+0x2331>
80003da8:	00c08463          	beq	ra,a2,80003db0 <inst_440>
80003dac:	28c0106f          	j	80005038 <bad_trap>

80003db0 <inst_440>:
80003db0:	0000b537          	lui	a0,0xb
80003db4:	50550513          	addi	a0,a0,1285 # b505 <offset+0xb431>
80003db8:	ffff55b7          	lui	a1,0xffff5
80003dbc:	afd58593          	addi	a1,a1,-1283 # ffff4afd <imm12+0xffff502d>
80003dc0:	00b57633          	and	a2,a0,a1
80003dc4:	68c12a23          	sw	a2,1684(sp)
80003dc8:	00500093          	li	ra,5
80003dcc:	00c08463          	beq	ra,a2,80003dd4 <inst_441>
80003dd0:	2680106f          	j	80005038 <bad_trap>

80003dd4 <inst_441>:
80003dd4:	0000b537          	lui	a0,0xb
80003dd8:	50550513          	addi	a0,a0,1285 # b505 <offset+0xb431>
80003ddc:	0000b5b7          	lui	a1,0xb
80003de0:	50558593          	addi	a1,a1,1285 # b505 <offset+0xb431>
80003de4:	00b57633          	and	a2,a0,a1
80003de8:	68c12c23          	sw	a2,1688(sp)
80003dec:	0000b0b7          	lui	ra,0xb
80003df0:	50508093          	addi	ra,ra,1285 # b505 <offset+0xb431>
80003df4:	00c08463          	beq	ra,a2,80003dfc <inst_442>
80003df8:	2400106f          	j	80005038 <bad_trap>

80003dfc <inst_442>:
80003dfc:	00000513          	li	a0,0
80003e00:	555555b7          	lui	a1,0x55555
80003e04:	55458593          	addi	a1,a1,1364 # 55555554 <absimm+0x10263025>
80003e08:	00b57633          	and	a2,a0,a1
80003e0c:	68c12e23          	sw	a2,1692(sp)
80003e10:	00000093          	li	ra,0
80003e14:	00c08463          	beq	ra,a2,80003e1c <inst_443>
80003e18:	2200106f          	j	80005038 <bad_trap>

80003e1c <inst_443>:
80003e1c:	00000513          	li	a0,0
80003e20:	00000593          	li	a1,0
80003e24:	00b57633          	and	a2,a0,a1
80003e28:	6ac12023          	sw	a2,1696(sp)
80003e2c:	00000093          	li	ra,0
80003e30:	00c08463          	beq	ra,a2,80003e38 <inst_444>
80003e34:	2040106f          	j	80005038 <bad_trap>

80003e38 <inst_444>:
80003e38:	00000513          	li	a0,0
80003e3c:	00400593          	li	a1,4
80003e40:	00b57633          	and	a2,a0,a1
80003e44:	6ac12223          	sw	a2,1700(sp)
80003e48:	00000093          	li	ra,0
80003e4c:	00c08463          	beq	ra,a2,80003e54 <inst_445>
80003e50:	1e80106f          	j	80005038 <bad_trap>

80003e54 <inst_445>:
80003e54:	00000513          	li	a0,0
80003e58:	333335b7          	lui	a1,0x33333
80003e5c:	33258593          	addi	a1,a1,818 # 33333332 <offset+0x3333325e>
80003e60:	00b57633          	and	a2,a0,a1
80003e64:	6ac12423          	sw	a2,1704(sp)
80003e68:	00000093          	li	ra,0
80003e6c:	00c08463          	beq	ra,a2,80003e74 <inst_446>
80003e70:	1c80106f          	j	80005038 <bad_trap>

80003e74 <inst_446>:
80003e74:	00000513          	li	a0,0
80003e78:	666665b7          	lui	a1,0x66666
80003e7c:	66558593          	addi	a1,a1,1637 # 66666665 <absimm+0x21374136>
80003e80:	00b57633          	and	a2,a0,a1
80003e84:	6ac12623          	sw	a2,1708(sp)
80003e88:	00000093          	li	ra,0
80003e8c:	00c08463          	beq	ra,a2,80003e94 <inst_447>
80003e90:	1a80106f          	j	80005038 <bad_trap>

80003e94 <inst_447>:
80003e94:	00000513          	li	a0,0
80003e98:	0000b5b7          	lui	a1,0xb
80003e9c:	50358593          	addi	a1,a1,1283 # b503 <offset+0xb42f>
80003ea0:	00b57633          	and	a2,a0,a1
80003ea4:	6ac12823          	sw	a2,1712(sp)
80003ea8:	00000093          	li	ra,0
80003eac:	00c08463          	beq	ra,a2,80003eb4 <inst_448>
80003eb0:	1880106f          	j	80005038 <bad_trap>

80003eb4 <inst_448>:
80003eb4:	00000513          	li	a0,0
80003eb8:	555555b7          	lui	a1,0x55555
80003ebc:	55658593          	addi	a1,a1,1366 # 55555556 <absimm+0x10263027>
80003ec0:	00b57633          	and	a2,a0,a1
80003ec4:	6ac12a23          	sw	a2,1716(sp)
80003ec8:	00000093          	li	ra,0
80003ecc:	00c08463          	beq	ra,a2,80003ed4 <inst_449>
80003ed0:	1680106f          	j	80005038 <bad_trap>

80003ed4 <inst_449>:
80003ed4:	00000513          	li	a0,0
80003ed8:	aaaab5b7          	lui	a1,0xaaaab
80003edc:	aab58593          	addi	a1,a1,-1365 # aaaaaaab <imm12+0xaaaaafdb>
80003ee0:	00b57633          	and	a2,a0,a1
80003ee4:	6ac12c23          	sw	a2,1720(sp)
80003ee8:	00000093          	li	ra,0
80003eec:	00c08463          	beq	ra,a2,80003ef4 <inst_450>
80003ef0:	1480106f          	j	80005038 <bad_trap>

80003ef4 <inst_450>:
80003ef4:	00000513          	li	a0,0
80003ef8:	00600593          	li	a1,6
80003efc:	00b57633          	and	a2,a0,a1
80003f00:	6ac12e23          	sw	a2,1724(sp)
80003f04:	00000093          	li	ra,0
80003f08:	00c08463          	beq	ra,a2,80003f10 <inst_451>
80003f0c:	12c0106f          	j	80005038 <bad_trap>

80003f10 <inst_451>:
80003f10:	00000513          	li	a0,0
80003f14:	333335b7          	lui	a1,0x33333
80003f18:	33458593          	addi	a1,a1,820 # 33333334 <offset+0x33333260>
80003f1c:	00b57633          	and	a2,a0,a1
80003f20:	6cc12023          	sw	a2,1728(sp)
80003f24:	00000093          	li	ra,0
80003f28:	00c08463          	beq	ra,a2,80003f30 <inst_452>
80003f2c:	10c0106f          	j	80005038 <bad_trap>

80003f30 <inst_452>:
80003f30:	00000513          	li	a0,0
80003f34:	666665b7          	lui	a1,0x66666
80003f38:	66758593          	addi	a1,a1,1639 # 66666667 <absimm+0x21374138>
80003f3c:	00b57633          	and	a2,a0,a1
80003f40:	6cc12223          	sw	a2,1732(sp)
80003f44:	00000093          	li	ra,0
80003f48:	00c08463          	beq	ra,a2,80003f50 <inst_453>
80003f4c:	0ec0106f          	j	80005038 <bad_trap>

80003f50 <inst_453>:
80003f50:	00000513          	li	a0,0
80003f54:	ffff55b7          	lui	a1,0xffff5
80003f58:	afd58593          	addi	a1,a1,-1283 # ffff4afd <imm12+0xffff502d>
80003f5c:	00b57633          	and	a2,a0,a1
80003f60:	6cc12423          	sw	a2,1736(sp)
80003f64:	00000093          	li	ra,0
80003f68:	00c08463          	beq	ra,a2,80003f70 <inst_454>
80003f6c:	0cc0106f          	j	80005038 <bad_trap>

80003f70 <inst_454>:
80003f70:	00000513          	li	a0,0
80003f74:	0000b5b7          	lui	a1,0xb
80003f78:	50558593          	addi	a1,a1,1285 # b505 <offset+0xb431>
80003f7c:	00b57633          	and	a2,a0,a1
80003f80:	6cc12623          	sw	a2,1740(sp)
80003f84:	00000093          	li	ra,0
80003f88:	00c08463          	beq	ra,a2,80003f90 <inst_455>
80003f8c:	0ac0106f          	j	80005038 <bad_trap>

80003f90 <inst_455>:
80003f90:	00400513          	li	a0,4
80003f94:	00300593          	li	a1,3
80003f98:	00b57633          	and	a2,a0,a1
80003f9c:	6cc12823          	sw	a2,1744(sp)
80003fa0:	00000093          	li	ra,0
80003fa4:	00c08463          	beq	ra,a2,80003fac <inst_456>
80003fa8:	0900106f          	j	80005038 <bad_trap>

80003fac <inst_456>:
80003fac:	00400513          	li	a0,4
80003fb0:	555555b7          	lui	a1,0x55555
80003fb4:	55558593          	addi	a1,a1,1365 # 55555555 <absimm+0x10263026>
80003fb8:	00b57633          	and	a2,a0,a1
80003fbc:	6cc12a23          	sw	a2,1748(sp)
80003fc0:	00400093          	li	ra,4
80003fc4:	00c08463          	beq	ra,a2,80003fcc <inst_457>
80003fc8:	0700106f          	j	80005038 <bad_trap>

80003fcc <inst_457>:
80003fcc:	00400513          	li	a0,4
80003fd0:	aaaab5b7          	lui	a1,0xaaaab
80003fd4:	aaa58593          	addi	a1,a1,-1366 # aaaaaaaa <imm12+0xaaaaafda>
80003fd8:	00b57633          	and	a2,a0,a1
80003fdc:	6cc12c23          	sw	a2,1752(sp)
80003fe0:	00000093          	li	ra,0
80003fe4:	00c08463          	beq	ra,a2,80003fec <inst_458>
80003fe8:	0500106f          	j	80005038 <bad_trap>

80003fec <inst_458>:
80003fec:	00400513          	li	a0,4
80003ff0:	00500593          	li	a1,5
80003ff4:	00b57633          	and	a2,a0,a1
80003ff8:	6cc12e23          	sw	a2,1756(sp)
80003ffc:	00400093          	li	ra,4
80004000:	00c08463          	beq	ra,a2,80004008 <inst_459>
80004004:	0340106f          	j	80005038 <bad_trap>

80004008 <inst_459>:
80004008:	00400513          	li	a0,4
8000400c:	333335b7          	lui	a1,0x33333
80004010:	33358593          	addi	a1,a1,819 # 33333333 <offset+0x3333325f>
80004014:	00b57633          	and	a2,a0,a1
80004018:	6ec12023          	sw	a2,1760(sp)
8000401c:	00000093          	li	ra,0
80004020:	00c08463          	beq	ra,a2,80004028 <inst_460>
80004024:	0140106f          	j	80005038 <bad_trap>

80004028 <inst_460>:
80004028:	00400513          	li	a0,4
8000402c:	666665b7          	lui	a1,0x66666
80004030:	66658593          	addi	a1,a1,1638 # 66666666 <absimm+0x21374137>
80004034:	00b57633          	and	a2,a0,a1
80004038:	6ec12223          	sw	a2,1764(sp)
8000403c:	00400093          	li	ra,4
80004040:	00c08463          	beq	ra,a2,80004048 <inst_461>
80004044:	7f50006f          	j	80005038 <bad_trap>

80004048 <inst_461>:
80004048:	00400513          	li	a0,4
8000404c:	ffff55b7          	lui	a1,0xffff5
80004050:	afc58593          	addi	a1,a1,-1284 # ffff4afc <imm12+0xffff502c>
80004054:	00b57633          	and	a2,a0,a1
80004058:	6ec12423          	sw	a2,1768(sp)
8000405c:	00400093          	li	ra,4
80004060:	7cc09ce3          	bne	ra,a2,80005038 <bad_trap>

80004064 <inst_462>:
80004064:	00400513          	li	a0,4
80004068:	0000b5b7          	lui	a1,0xb
8000406c:	50458593          	addi	a1,a1,1284 # b504 <offset+0xb430>
80004070:	00b57633          	and	a2,a0,a1
80004074:	6ec12623          	sw	a2,1772(sp)
80004078:	00400093          	li	ra,4
8000407c:	7ac09ee3          	bne	ra,a2,80005038 <bad_trap>

80004080 <inst_463>:
80004080:	00400513          	li	a0,4
80004084:	00200593          	li	a1,2
80004088:	00b57633          	and	a2,a0,a1
8000408c:	6ec12823          	sw	a2,1776(sp)
80004090:	00000093          	li	ra,0
80004094:	7ac092e3          	bne	ra,a2,80005038 <bad_trap>

80004098 <inst_464>:
80004098:	00400513          	li	a0,4
8000409c:	555555b7          	lui	a1,0x55555
800040a0:	55458593          	addi	a1,a1,1364 # 55555554 <absimm+0x10263025>
800040a4:	00b57633          	and	a2,a0,a1
800040a8:	6ec12a23          	sw	a2,1780(sp)
800040ac:	00400093          	li	ra,4
800040b0:	78c094e3          	bne	ra,a2,80005038 <bad_trap>

800040b4 <inst_465>:
800040b4:	00400513          	li	a0,4
800040b8:	00000593          	li	a1,0
800040bc:	00b57633          	and	a2,a0,a1
800040c0:	6ec12c23          	sw	a2,1784(sp)
800040c4:	00000093          	li	ra,0
800040c8:	76c098e3          	bne	ra,a2,80005038 <bad_trap>

800040cc <inst_466>:
800040cc:	00400513          	li	a0,4
800040d0:	00400593          	li	a1,4
800040d4:	00b57633          	and	a2,a0,a1
800040d8:	6ec12e23          	sw	a2,1788(sp)
800040dc:	00400093          	li	ra,4
800040e0:	74c09ce3          	bne	ra,a2,80005038 <bad_trap>

800040e4 <inst_467>:
800040e4:	00400513          	li	a0,4
800040e8:	333335b7          	lui	a1,0x33333
800040ec:	33258593          	addi	a1,a1,818 # 33333332 <offset+0x3333325e>
800040f0:	00b57633          	and	a2,a0,a1
800040f4:	70c12023          	sw	a2,1792(sp)
800040f8:	00000093          	li	ra,0
800040fc:	72c09ee3          	bne	ra,a2,80005038 <bad_trap>

80004100 <inst_468>:
80004100:	00400513          	li	a0,4
80004104:	666665b7          	lui	a1,0x66666
80004108:	66558593          	addi	a1,a1,1637 # 66666665 <absimm+0x21374136>
8000410c:	00b57633          	and	a2,a0,a1
80004110:	70c12223          	sw	a2,1796(sp)
80004114:	00400093          	li	ra,4
80004118:	72c090e3          	bne	ra,a2,80005038 <bad_trap>

8000411c <inst_469>:
8000411c:	00400513          	li	a0,4
80004120:	0000b5b7          	lui	a1,0xb
80004124:	50358593          	addi	a1,a1,1283 # b503 <offset+0xb42f>
80004128:	00b57633          	and	a2,a0,a1
8000412c:	70c12423          	sw	a2,1800(sp)
80004130:	00000093          	li	ra,0
80004134:	70c092e3          	bne	ra,a2,80005038 <bad_trap>

80004138 <inst_470>:
80004138:	00400513          	li	a0,4
8000413c:	555555b7          	lui	a1,0x55555
80004140:	55658593          	addi	a1,a1,1366 # 55555556 <absimm+0x10263027>
80004144:	00b57633          	and	a2,a0,a1
80004148:	70c12623          	sw	a2,1804(sp)
8000414c:	00400093          	li	ra,4
80004150:	6ec094e3          	bne	ra,a2,80005038 <bad_trap>

80004154 <inst_471>:
80004154:	00400513          	li	a0,4
80004158:	aaaab5b7          	lui	a1,0xaaaab
8000415c:	aab58593          	addi	a1,a1,-1365 # aaaaaaab <imm12+0xaaaaafdb>
80004160:	00b57633          	and	a2,a0,a1
80004164:	70c12823          	sw	a2,1808(sp)
80004168:	00000093          	li	ra,0
8000416c:	6cc096e3          	bne	ra,a2,80005038 <bad_trap>

80004170 <inst_472>:
80004170:	00400513          	li	a0,4
80004174:	00600593          	li	a1,6
80004178:	00b57633          	and	a2,a0,a1
8000417c:	70c12a23          	sw	a2,1812(sp)
80004180:	00400093          	li	ra,4
80004184:	6ac09ae3          	bne	ra,a2,80005038 <bad_trap>

80004188 <inst_473>:
80004188:	00400513          	li	a0,4
8000418c:	333335b7          	lui	a1,0x33333
80004190:	33458593          	addi	a1,a1,820 # 33333334 <offset+0x33333260>
80004194:	00b57633          	and	a2,a0,a1
80004198:	70c12c23          	sw	a2,1816(sp)
8000419c:	00400093          	li	ra,4
800041a0:	68c09ce3          	bne	ra,a2,80005038 <bad_trap>

800041a4 <inst_474>:
800041a4:	00400513          	li	a0,4
800041a8:	666665b7          	lui	a1,0x66666
800041ac:	66758593          	addi	a1,a1,1639 # 66666667 <absimm+0x21374138>
800041b0:	00b57633          	and	a2,a0,a1
800041b4:	70c12e23          	sw	a2,1820(sp)
800041b8:	00400093          	li	ra,4
800041bc:	66c09ee3          	bne	ra,a2,80005038 <bad_trap>

800041c0 <inst_475>:
800041c0:	00400513          	li	a0,4
800041c4:	ffff55b7          	lui	a1,0xffff5
800041c8:	afd58593          	addi	a1,a1,-1283 # ffff4afd <imm12+0xffff502d>
800041cc:	00b57633          	and	a2,a0,a1
800041d0:	72c12023          	sw	a2,1824(sp)
800041d4:	00400093          	li	ra,4
800041d8:	66c090e3          	bne	ra,a2,80005038 <bad_trap>

800041dc <inst_476>:
800041dc:	00400513          	li	a0,4
800041e0:	0000b5b7          	lui	a1,0xb
800041e4:	50558593          	addi	a1,a1,1285 # b505 <offset+0xb431>
800041e8:	00b57633          	and	a2,a0,a1
800041ec:	72c12223          	sw	a2,1828(sp)
800041f0:	00400093          	li	ra,4
800041f4:	64c092e3          	bne	ra,a2,80005038 <bad_trap>

800041f8 <inst_477>:
800041f8:	33333537          	lui	a0,0x33333
800041fc:	33250513          	addi	a0,a0,818 # 33333332 <offset+0x3333325e>
80004200:	00300593          	li	a1,3
80004204:	00b57633          	and	a2,a0,a1
80004208:	72c12423          	sw	a2,1832(sp)
8000420c:	00200093          	li	ra,2
80004210:	62c094e3          	bne	ra,a2,80005038 <bad_trap>

80004214 <inst_478>:
80004214:	33333537          	lui	a0,0x33333
80004218:	33250513          	addi	a0,a0,818 # 33333332 <offset+0x3333325e>
8000421c:	555555b7          	lui	a1,0x55555
80004220:	55558593          	addi	a1,a1,1365 # 55555555 <absimm+0x10263026>
80004224:	00b57633          	and	a2,a0,a1
80004228:	72c12623          	sw	a2,1836(sp)
8000422c:	111110b7          	lui	ra,0x11111
80004230:	11008093          	addi	ra,ra,272 # 11111110 <offset+0x1111103c>
80004234:	60c092e3          	bne	ra,a2,80005038 <bad_trap>

80004238 <inst_479>:
80004238:	33333537          	lui	a0,0x33333
8000423c:	33250513          	addi	a0,a0,818 # 33333332 <offset+0x3333325e>
80004240:	aaaab5b7          	lui	a1,0xaaaab
80004244:	aaa58593          	addi	a1,a1,-1366 # aaaaaaaa <imm12+0xaaaaafda>
80004248:	00b57633          	and	a2,a0,a1
8000424c:	72c12823          	sw	a2,1840(sp)
80004250:	222220b7          	lui	ra,0x22222
80004254:	22208093          	addi	ra,ra,546 # 22222222 <offset+0x2222214e>
80004258:	5ec090e3          	bne	ra,a2,80005038 <bad_trap>

8000425c <inst_480>:
8000425c:	33333537          	lui	a0,0x33333
80004260:	33250513          	addi	a0,a0,818 # 33333332 <offset+0x3333325e>
80004264:	00500593          	li	a1,5
80004268:	00b57633          	and	a2,a0,a1
8000426c:	72c12a23          	sw	a2,1844(sp)
80004270:	00000093          	li	ra,0
80004274:	5cc092e3          	bne	ra,a2,80005038 <bad_trap>

80004278 <inst_481>:
80004278:	33333537          	lui	a0,0x33333
8000427c:	33250513          	addi	a0,a0,818 # 33333332 <offset+0x3333325e>
80004280:	333335b7          	lui	a1,0x33333
80004284:	33358593          	addi	a1,a1,819 # 33333333 <offset+0x3333325f>
80004288:	00b57633          	and	a2,a0,a1
8000428c:	72c12c23          	sw	a2,1848(sp)
80004290:	333330b7          	lui	ra,0x33333
80004294:	33208093          	addi	ra,ra,818 # 33333332 <offset+0x3333325e>
80004298:	5ac090e3          	bne	ra,a2,80005038 <bad_trap>

8000429c <inst_482>:
8000429c:	33333537          	lui	a0,0x33333
800042a0:	33250513          	addi	a0,a0,818 # 33333332 <offset+0x3333325e>
800042a4:	666665b7          	lui	a1,0x66666
800042a8:	66658593          	addi	a1,a1,1638 # 66666666 <absimm+0x21374137>
800042ac:	00b57633          	and	a2,a0,a1
800042b0:	72c12e23          	sw	a2,1852(sp)
800042b4:	222220b7          	lui	ra,0x22222
800042b8:	22208093          	addi	ra,ra,546 # 22222222 <offset+0x2222214e>
800042bc:	56c09ee3          	bne	ra,a2,80005038 <bad_trap>

800042c0 <inst_483>:
800042c0:	33333537          	lui	a0,0x33333
800042c4:	33250513          	addi	a0,a0,818 # 33333332 <offset+0x3333325e>
800042c8:	ffff55b7          	lui	a1,0xffff5
800042cc:	afc58593          	addi	a1,a1,-1284 # ffff4afc <imm12+0xffff502c>
800042d0:	00b57633          	and	a2,a0,a1
800042d4:	74c12023          	sw	a2,1856(sp)
800042d8:	333300b7          	lui	ra,0x33330
800042dc:	23008093          	addi	ra,ra,560 # 33330230 <offset+0x3333015c>
800042e0:	54c09ce3          	bne	ra,a2,80005038 <bad_trap>

800042e4 <inst_484>:
800042e4:	33333537          	lui	a0,0x33333
800042e8:	33250513          	addi	a0,a0,818 # 33333332 <offset+0x3333325e>
800042ec:	0000b5b7          	lui	a1,0xb
800042f0:	50458593          	addi	a1,a1,1284 # b504 <offset+0xb430>
800042f4:	00b57633          	and	a2,a0,a1
800042f8:	74c12223          	sw	a2,1860(sp)
800042fc:	000030b7          	lui	ra,0x3
80004300:	10008093          	addi	ra,ra,256 # 3100 <offset+0x302c>
80004304:	52c09ae3          	bne	ra,a2,80005038 <bad_trap>

80004308 <inst_485>:
80004308:	33333537          	lui	a0,0x33333
8000430c:	33250513          	addi	a0,a0,818 # 33333332 <offset+0x3333325e>
80004310:	00200593          	li	a1,2
80004314:	00b57633          	and	a2,a0,a1
80004318:	74c12423          	sw	a2,1864(sp)
8000431c:	00200093          	li	ra,2
80004320:	50c09ce3          	bne	ra,a2,80005038 <bad_trap>

80004324 <inst_486>:
80004324:	33333537          	lui	a0,0x33333
80004328:	33250513          	addi	a0,a0,818 # 33333332 <offset+0x3333325e>
8000432c:	555555b7          	lui	a1,0x55555
80004330:	55458593          	addi	a1,a1,1364 # 55555554 <absimm+0x10263025>
80004334:	00b57633          	and	a2,a0,a1
80004338:	74c12623          	sw	a2,1868(sp)
8000433c:	111110b7          	lui	ra,0x11111
80004340:	11008093          	addi	ra,ra,272 # 11111110 <offset+0x1111103c>
80004344:	4ec09ae3          	bne	ra,a2,80005038 <bad_trap>

80004348 <inst_487>:
80004348:	33333537          	lui	a0,0x33333
8000434c:	33250513          	addi	a0,a0,818 # 33333332 <offset+0x3333325e>
80004350:	00000593          	li	a1,0
80004354:	00b57633          	and	a2,a0,a1
80004358:	74c12823          	sw	a2,1872(sp)
8000435c:	00000093          	li	ra,0
80004360:	4cc09ce3          	bne	ra,a2,80005038 <bad_trap>

80004364 <inst_488>:
80004364:	33333537          	lui	a0,0x33333
80004368:	33250513          	addi	a0,a0,818 # 33333332 <offset+0x3333325e>
8000436c:	00400593          	li	a1,4
80004370:	00b57633          	and	a2,a0,a1
80004374:	74c12a23          	sw	a2,1876(sp)
80004378:	00000093          	li	ra,0
8000437c:	4ac09ee3          	bne	ra,a2,80005038 <bad_trap>

80004380 <inst_489>:
80004380:	33333537          	lui	a0,0x33333
80004384:	33250513          	addi	a0,a0,818 # 33333332 <offset+0x3333325e>
80004388:	333335b7          	lui	a1,0x33333
8000438c:	33258593          	addi	a1,a1,818 # 33333332 <offset+0x3333325e>
80004390:	00b57633          	and	a2,a0,a1
80004394:	74c12c23          	sw	a2,1880(sp)
80004398:	333330b7          	lui	ra,0x33333
8000439c:	33208093          	addi	ra,ra,818 # 33333332 <offset+0x3333325e>
800043a0:	48c09ce3          	bne	ra,a2,80005038 <bad_trap>

800043a4 <inst_490>:
800043a4:	33333537          	lui	a0,0x33333
800043a8:	33250513          	addi	a0,a0,818 # 33333332 <offset+0x3333325e>
800043ac:	666665b7          	lui	a1,0x66666
800043b0:	66558593          	addi	a1,a1,1637 # 66666665 <absimm+0x21374136>
800043b4:	00b57633          	and	a2,a0,a1
800043b8:	74c12e23          	sw	a2,1884(sp)
800043bc:	222220b7          	lui	ra,0x22222
800043c0:	22008093          	addi	ra,ra,544 # 22222220 <offset+0x2222214c>
800043c4:	46c09ae3          	bne	ra,a2,80005038 <bad_trap>

800043c8 <inst_491>:
800043c8:	33333537          	lui	a0,0x33333
800043cc:	33250513          	addi	a0,a0,818 # 33333332 <offset+0x3333325e>
800043d0:	0000b5b7          	lui	a1,0xb
800043d4:	50358593          	addi	a1,a1,1283 # b503 <offset+0xb42f>
800043d8:	00b57633          	and	a2,a0,a1
800043dc:	76c12023          	sw	a2,1888(sp)
800043e0:	000030b7          	lui	ra,0x3
800043e4:	10208093          	addi	ra,ra,258 # 3102 <offset+0x302e>
800043e8:	44c098e3          	bne	ra,a2,80005038 <bad_trap>

800043ec <inst_492>:
800043ec:	33333537          	lui	a0,0x33333
800043f0:	33250513          	addi	a0,a0,818 # 33333332 <offset+0x3333325e>
800043f4:	555555b7          	lui	a1,0x55555
800043f8:	55658593          	addi	a1,a1,1366 # 55555556 <absimm+0x10263027>
800043fc:	00b57633          	and	a2,a0,a1
80004400:	76c12223          	sw	a2,1892(sp)
80004404:	111110b7          	lui	ra,0x11111
80004408:	11208093          	addi	ra,ra,274 # 11111112 <offset+0x1111103e>
8000440c:	42c096e3          	bne	ra,a2,80005038 <bad_trap>

80004410 <inst_493>:
80004410:	33333537          	lui	a0,0x33333
80004414:	33250513          	addi	a0,a0,818 # 33333332 <offset+0x3333325e>
80004418:	aaaab5b7          	lui	a1,0xaaaab
8000441c:	aab58593          	addi	a1,a1,-1365 # aaaaaaab <imm12+0xaaaaafdb>
80004420:	00b57633          	and	a2,a0,a1
80004424:	76c12423          	sw	a2,1896(sp)
80004428:	222220b7          	lui	ra,0x22222
8000442c:	22208093          	addi	ra,ra,546 # 22222222 <offset+0x2222214e>
80004430:	40c094e3          	bne	ra,a2,80005038 <bad_trap>

80004434 <inst_494>:
80004434:	33333537          	lui	a0,0x33333
80004438:	33250513          	addi	a0,a0,818 # 33333332 <offset+0x3333325e>
8000443c:	00600593          	li	a1,6
80004440:	00b57633          	and	a2,a0,a1
80004444:	76c12623          	sw	a2,1900(sp)
80004448:	00200093          	li	ra,2
8000444c:	3ec096e3          	bne	ra,a2,80005038 <bad_trap>

80004450 <inst_495>:
80004450:	33333537          	lui	a0,0x33333
80004454:	33250513          	addi	a0,a0,818 # 33333332 <offset+0x3333325e>
80004458:	333335b7          	lui	a1,0x33333
8000445c:	33458593          	addi	a1,a1,820 # 33333334 <offset+0x33333260>
80004460:	00b57633          	and	a2,a0,a1
80004464:	76c12823          	sw	a2,1904(sp)
80004468:	333330b7          	lui	ra,0x33333
8000446c:	33008093          	addi	ra,ra,816 # 33333330 <offset+0x3333325c>
80004470:	3cc094e3          	bne	ra,a2,80005038 <bad_trap>

80004474 <inst_496>:
80004474:	33333537          	lui	a0,0x33333
80004478:	33250513          	addi	a0,a0,818 # 33333332 <offset+0x3333325e>
8000447c:	666665b7          	lui	a1,0x66666
80004480:	66758593          	addi	a1,a1,1639 # 66666667 <absimm+0x21374138>
80004484:	00b57633          	and	a2,a0,a1
80004488:	76c12a23          	sw	a2,1908(sp)
8000448c:	222220b7          	lui	ra,0x22222
80004490:	22208093          	addi	ra,ra,546 # 22222222 <offset+0x2222214e>
80004494:	3ac092e3          	bne	ra,a2,80005038 <bad_trap>

80004498 <inst_497>:
80004498:	33333537          	lui	a0,0x33333
8000449c:	33250513          	addi	a0,a0,818 # 33333332 <offset+0x3333325e>
800044a0:	ffff55b7          	lui	a1,0xffff5
800044a4:	afd58593          	addi	a1,a1,-1283 # ffff4afd <imm12+0xffff502d>
800044a8:	00b57633          	and	a2,a0,a1
800044ac:	76c12c23          	sw	a2,1912(sp)
800044b0:	333300b7          	lui	ra,0x33330
800044b4:	23008093          	addi	ra,ra,560 # 33330230 <offset+0x3333015c>
800044b8:	38c090e3          	bne	ra,a2,80005038 <bad_trap>

800044bc <inst_498>:
800044bc:	33333537          	lui	a0,0x33333
800044c0:	33250513          	addi	a0,a0,818 # 33333332 <offset+0x3333325e>
800044c4:	0000b5b7          	lui	a1,0xb
800044c8:	50558593          	addi	a1,a1,1285 # b505 <offset+0xb431>
800044cc:	00b57633          	and	a2,a0,a1
800044d0:	76c12e23          	sw	a2,1916(sp)
800044d4:	000030b7          	lui	ra,0x3
800044d8:	10008093          	addi	ra,ra,256 # 3100 <offset+0x302c>
800044dc:	34c09ee3          	bne	ra,a2,80005038 <bad_trap>

800044e0 <inst_499>:
800044e0:	66666537          	lui	a0,0x66666
800044e4:	66550513          	addi	a0,a0,1637 # 66666665 <absimm+0x21374136>
800044e8:	00300593          	li	a1,3
800044ec:	00b57633          	and	a2,a0,a1
800044f0:	78c12023          	sw	a2,1920(sp)
800044f4:	00100093          	li	ra,1
800044f8:	34c090e3          	bne	ra,a2,80005038 <bad_trap>

800044fc <inst_500>:
800044fc:	66666537          	lui	a0,0x66666
80004500:	66550513          	addi	a0,a0,1637 # 66666665 <absimm+0x21374136>
80004504:	555555b7          	lui	a1,0x55555
80004508:	55558593          	addi	a1,a1,1365 # 55555555 <absimm+0x10263026>
8000450c:	00b57633          	and	a2,a0,a1
80004510:	78c12223          	sw	a2,1924(sp)
80004514:	444440b7          	lui	ra,0x44444
80004518:	44508093          	addi	ra,ra,1093 # 44444445 <offset+0x44444371>
8000451c:	30c09ee3          	bne	ra,a2,80005038 <bad_trap>

80004520 <inst_501>:
80004520:	66666537          	lui	a0,0x66666
80004524:	66550513          	addi	a0,a0,1637 # 66666665 <absimm+0x21374136>
80004528:	aaaab5b7          	lui	a1,0xaaaab
8000452c:	aaa58593          	addi	a1,a1,-1366 # aaaaaaaa <imm12+0xaaaaafda>
80004530:	00b57633          	and	a2,a0,a1
80004534:	78c12423          	sw	a2,1928(sp)
80004538:	222220b7          	lui	ra,0x22222
8000453c:	22008093          	addi	ra,ra,544 # 22222220 <offset+0x2222214c>
80004540:	2ec09ce3          	bne	ra,a2,80005038 <bad_trap>

80004544 <inst_502>:
80004544:	66666537          	lui	a0,0x66666
80004548:	66550513          	addi	a0,a0,1637 # 66666665 <absimm+0x21374136>
8000454c:	00500593          	li	a1,5
80004550:	00b57633          	and	a2,a0,a1
80004554:	78c12623          	sw	a2,1932(sp)
80004558:	00500093          	li	ra,5
8000455c:	2cc09ee3          	bne	ra,a2,80005038 <bad_trap>

80004560 <inst_503>:
80004560:	66666537          	lui	a0,0x66666
80004564:	66550513          	addi	a0,a0,1637 # 66666665 <absimm+0x21374136>
80004568:	333335b7          	lui	a1,0x33333
8000456c:	33358593          	addi	a1,a1,819 # 33333333 <offset+0x3333325f>
80004570:	00b57633          	and	a2,a0,a1
80004574:	78c12823          	sw	a2,1936(sp)
80004578:	222220b7          	lui	ra,0x22222
8000457c:	22108093          	addi	ra,ra,545 # 22222221 <offset+0x2222214d>
80004580:	2ac09ce3          	bne	ra,a2,80005038 <bad_trap>

80004584 <inst_504>:
80004584:	66666537          	lui	a0,0x66666
80004588:	66550513          	addi	a0,a0,1637 # 66666665 <absimm+0x21374136>
8000458c:	666665b7          	lui	a1,0x66666
80004590:	66658593          	addi	a1,a1,1638 # 66666666 <absimm+0x21374137>
80004594:	00b57633          	and	a2,a0,a1
80004598:	78c12a23          	sw	a2,1940(sp)
8000459c:	666660b7          	lui	ra,0x66666
800045a0:	66408093          	addi	ra,ra,1636 # 66666664 <absimm+0x21374135>
800045a4:	28c09ae3          	bne	ra,a2,80005038 <bad_trap>

800045a8 <inst_505>:
800045a8:	66666537          	lui	a0,0x66666
800045ac:	66550513          	addi	a0,a0,1637 # 66666665 <absimm+0x21374136>
800045b0:	ffff55b7          	lui	a1,0xffff5
800045b4:	afc58593          	addi	a1,a1,-1284 # ffff4afc <imm12+0xffff502c>
800045b8:	00b57633          	and	a2,a0,a1
800045bc:	78c12c23          	sw	a2,1944(sp)
800045c0:	666640b7          	lui	ra,0x66664
800045c4:	26408093          	addi	ra,ra,612 # 66664264 <absimm+0x21371d35>
800045c8:	26c098e3          	bne	ra,a2,80005038 <bad_trap>

800045cc <inst_506>:
800045cc:	66666537          	lui	a0,0x66666
800045d0:	66550513          	addi	a0,a0,1637 # 66666665 <absimm+0x21374136>
800045d4:	0000b5b7          	lui	a1,0xb
800045d8:	50458593          	addi	a1,a1,1284 # b504 <offset+0xb430>
800045dc:	00b57633          	and	a2,a0,a1
800045e0:	78c12e23          	sw	a2,1948(sp)
800045e4:	000020b7          	lui	ra,0x2
800045e8:	40408093          	addi	ra,ra,1028 # 2404 <offset+0x2330>
800045ec:	24c096e3          	bne	ra,a2,80005038 <bad_trap>

800045f0 <inst_507>:
800045f0:	66666537          	lui	a0,0x66666
800045f4:	66550513          	addi	a0,a0,1637 # 66666665 <absimm+0x21374136>
800045f8:	00200593          	li	a1,2
800045fc:	00b57633          	and	a2,a0,a1
80004600:	7ac12023          	sw	a2,1952(sp)
80004604:	00000093          	li	ra,0
80004608:	22c098e3          	bne	ra,a2,80005038 <bad_trap>

8000460c <inst_508>:
8000460c:	66666537          	lui	a0,0x66666
80004610:	66550513          	addi	a0,a0,1637 # 66666665 <absimm+0x21374136>
80004614:	555555b7          	lui	a1,0x55555
80004618:	55458593          	addi	a1,a1,1364 # 55555554 <absimm+0x10263025>
8000461c:	00b57633          	and	a2,a0,a1
80004620:	7ac12223          	sw	a2,1956(sp)
80004624:	444440b7          	lui	ra,0x44444
80004628:	44408093          	addi	ra,ra,1092 # 44444444 <offset+0x44444370>
8000462c:	20c096e3          	bne	ra,a2,80005038 <bad_trap>

80004630 <inst_509>:
80004630:	66666537          	lui	a0,0x66666
80004634:	66550513          	addi	a0,a0,1637 # 66666665 <absimm+0x21374136>
80004638:	00000593          	li	a1,0
8000463c:	00b57633          	and	a2,a0,a1
80004640:	7ac12423          	sw	a2,1960(sp)
80004644:	00000093          	li	ra,0
80004648:	1ec098e3          	bne	ra,a2,80005038 <bad_trap>

8000464c <inst_510>:
8000464c:	66666537          	lui	a0,0x66666
80004650:	66550513          	addi	a0,a0,1637 # 66666665 <absimm+0x21374136>
80004654:	00400593          	li	a1,4
80004658:	00b57633          	and	a2,a0,a1
8000465c:	7ac12623          	sw	a2,1964(sp)
80004660:	00400093          	li	ra,4
80004664:	1cc09ae3          	bne	ra,a2,80005038 <bad_trap>

80004668 <inst_511>:
80004668:	66666537          	lui	a0,0x66666
8000466c:	66550513          	addi	a0,a0,1637 # 66666665 <absimm+0x21374136>
80004670:	333335b7          	lui	a1,0x33333
80004674:	33258593          	addi	a1,a1,818 # 33333332 <offset+0x3333325e>
80004678:	00b57633          	and	a2,a0,a1
8000467c:	7ac12823          	sw	a2,1968(sp)
80004680:	222220b7          	lui	ra,0x22222
80004684:	22008093          	addi	ra,ra,544 # 22222220 <offset+0x2222214c>
80004688:	1ac098e3          	bne	ra,a2,80005038 <bad_trap>

8000468c <inst_512>:
8000468c:	66666537          	lui	a0,0x66666
80004690:	66550513          	addi	a0,a0,1637 # 66666665 <absimm+0x21374136>
80004694:	666665b7          	lui	a1,0x66666
80004698:	66558593          	addi	a1,a1,1637 # 66666665 <absimm+0x21374136>
8000469c:	00b57633          	and	a2,a0,a1
800046a0:	7ac12a23          	sw	a2,1972(sp)
800046a4:	666660b7          	lui	ra,0x66666
800046a8:	66508093          	addi	ra,ra,1637 # 66666665 <absimm+0x21374136>
800046ac:	18c096e3          	bne	ra,a2,80005038 <bad_trap>

800046b0 <inst_513>:
800046b0:	66666537          	lui	a0,0x66666
800046b4:	66550513          	addi	a0,a0,1637 # 66666665 <absimm+0x21374136>
800046b8:	0000b5b7          	lui	a1,0xb
800046bc:	50358593          	addi	a1,a1,1283 # b503 <offset+0xb42f>
800046c0:	00b57633          	and	a2,a0,a1
800046c4:	7ac12c23          	sw	a2,1976(sp)
800046c8:	000020b7          	lui	ra,0x2
800046cc:	40108093          	addi	ra,ra,1025 # 2401 <offset+0x232d>
800046d0:	16c094e3          	bne	ra,a2,80005038 <bad_trap>

800046d4 <inst_514>:
800046d4:	66666537          	lui	a0,0x66666
800046d8:	66550513          	addi	a0,a0,1637 # 66666665 <absimm+0x21374136>
800046dc:	555555b7          	lui	a1,0x55555
800046e0:	55658593          	addi	a1,a1,1366 # 55555556 <absimm+0x10263027>
800046e4:	00b57633          	and	a2,a0,a1
800046e8:	7ac12e23          	sw	a2,1980(sp)
800046ec:	444440b7          	lui	ra,0x44444
800046f0:	44408093          	addi	ra,ra,1092 # 44444444 <offset+0x44444370>
800046f4:	14c092e3          	bne	ra,a2,80005038 <bad_trap>

800046f8 <inst_515>:
800046f8:	66666537          	lui	a0,0x66666
800046fc:	66550513          	addi	a0,a0,1637 # 66666665 <absimm+0x21374136>
80004700:	aaaab5b7          	lui	a1,0xaaaab
80004704:	aab58593          	addi	a1,a1,-1365 # aaaaaaab <imm12+0xaaaaafdb>
80004708:	00b57633          	and	a2,a0,a1
8000470c:	7cc12023          	sw	a2,1984(sp)
80004710:	222220b7          	lui	ra,0x22222
80004714:	22108093          	addi	ra,ra,545 # 22222221 <offset+0x2222214d>
80004718:	12c090e3          	bne	ra,a2,80005038 <bad_trap>

8000471c <inst_516>:
8000471c:	66666537          	lui	a0,0x66666
80004720:	66550513          	addi	a0,a0,1637 # 66666665 <absimm+0x21374136>
80004724:	00600593          	li	a1,6
80004728:	00b57633          	and	a2,a0,a1
8000472c:	7cc12223          	sw	a2,1988(sp)
80004730:	00400093          	li	ra,4
80004734:	10c092e3          	bne	ra,a2,80005038 <bad_trap>

80004738 <inst_517>:
80004738:	66666537          	lui	a0,0x66666
8000473c:	66550513          	addi	a0,a0,1637 # 66666665 <absimm+0x21374136>
80004740:	333335b7          	lui	a1,0x33333
80004744:	33458593          	addi	a1,a1,820 # 33333334 <offset+0x33333260>
80004748:	00b57633          	and	a2,a0,a1
8000474c:	7cc12423          	sw	a2,1992(sp)
80004750:	222220b7          	lui	ra,0x22222
80004754:	22408093          	addi	ra,ra,548 # 22222224 <offset+0x22222150>
80004758:	0ec090e3          	bne	ra,a2,80005038 <bad_trap>

8000475c <inst_518>:
8000475c:	66666537          	lui	a0,0x66666
80004760:	66550513          	addi	a0,a0,1637 # 66666665 <absimm+0x21374136>
80004764:	666665b7          	lui	a1,0x66666
80004768:	66758593          	addi	a1,a1,1639 # 66666667 <absimm+0x21374138>
8000476c:	00b57633          	and	a2,a0,a1
80004770:	7cc12623          	sw	a2,1996(sp)
80004774:	666660b7          	lui	ra,0x66666
80004778:	66508093          	addi	ra,ra,1637 # 66666665 <absimm+0x21374136>
8000477c:	0ac09ee3          	bne	ra,a2,80005038 <bad_trap>

80004780 <inst_519>:
80004780:	66666537          	lui	a0,0x66666
80004784:	66550513          	addi	a0,a0,1637 # 66666665 <absimm+0x21374136>
80004788:	ffff55b7          	lui	a1,0xffff5
8000478c:	afd58593          	addi	a1,a1,-1283 # ffff4afd <imm12+0xffff502d>
80004790:	00b57633          	and	a2,a0,a1
80004794:	7cc12823          	sw	a2,2000(sp)
80004798:	666640b7          	lui	ra,0x66664
8000479c:	26508093          	addi	ra,ra,613 # 66664265 <absimm+0x21371d36>
800047a0:	08c09ce3          	bne	ra,a2,80005038 <bad_trap>

800047a4 <inst_520>:
800047a4:	66666537          	lui	a0,0x66666
800047a8:	66550513          	addi	a0,a0,1637 # 66666665 <absimm+0x21374136>
800047ac:	0000b5b7          	lui	a1,0xb
800047b0:	50558593          	addi	a1,a1,1285 # b505 <offset+0xb431>
800047b4:	00b57633          	and	a2,a0,a1
800047b8:	7cc12a23          	sw	a2,2004(sp)
800047bc:	000020b7          	lui	ra,0x2
800047c0:	40508093          	addi	ra,ra,1029 # 2405 <offset+0x2331>
800047c4:	06c09ae3          	bne	ra,a2,80005038 <bad_trap>

800047c8 <inst_521>:
800047c8:	0000b537          	lui	a0,0xb
800047cc:	50350513          	addi	a0,a0,1283 # b503 <offset+0xb42f>
800047d0:	00300593          	li	a1,3
800047d4:	00b57633          	and	a2,a0,a1
800047d8:	7cc12c23          	sw	a2,2008(sp)
800047dc:	00300093          	li	ra,3
800047e0:	04c09ce3          	bne	ra,a2,80005038 <bad_trap>

800047e4 <inst_522>:
800047e4:	0000b537          	lui	a0,0xb
800047e8:	50350513          	addi	a0,a0,1283 # b503 <offset+0xb42f>
800047ec:	555555b7          	lui	a1,0x55555
800047f0:	55558593          	addi	a1,a1,1365 # 55555555 <absimm+0x10263026>
800047f4:	00b57633          	and	a2,a0,a1
800047f8:	7cc12e23          	sw	a2,2012(sp)
800047fc:	000010b7          	lui	ra,0x1
80004800:	50108093          	addi	ra,ra,1281 # 1501 <offset+0x142d>
80004804:	02c09ae3          	bne	ra,a2,80005038 <bad_trap>

80004808 <inst_523>:
80004808:	0000b537          	lui	a0,0xb
8000480c:	50350513          	addi	a0,a0,1283 # b503 <offset+0xb42f>
80004810:	aaaab5b7          	lui	a1,0xaaaab
80004814:	aaa58593          	addi	a1,a1,-1366 # aaaaaaaa <imm12+0xaaaaafda>
80004818:	00b57633          	and	a2,a0,a1
8000481c:	7ec12023          	sw	a2,2016(sp)
80004820:	0000a0b7          	lui	ra,0xa
80004824:	00208093          	addi	ra,ra,2 # a002 <offset+0x9f2e>
80004828:	00c098e3          	bne	ra,a2,80005038 <bad_trap>

8000482c <inst_524>:
8000482c:	0000b537          	lui	a0,0xb
80004830:	50350513          	addi	a0,a0,1283 # b503 <offset+0xb42f>
80004834:	00500593          	li	a1,5
80004838:	00b57633          	and	a2,a0,a1
8000483c:	7ec12223          	sw	a2,2020(sp)
80004840:	00100093          	li	ra,1
80004844:	7ec09a63          	bne	ra,a2,80005038 <bad_trap>

80004848 <inst_525>:
80004848:	0000b537          	lui	a0,0xb
8000484c:	50350513          	addi	a0,a0,1283 # b503 <offset+0xb42f>
80004850:	333335b7          	lui	a1,0x33333
80004854:	33358593          	addi	a1,a1,819 # 33333333 <offset+0x3333325f>
80004858:	00b57633          	and	a2,a0,a1
8000485c:	7ec12423          	sw	a2,2024(sp)
80004860:	000030b7          	lui	ra,0x3
80004864:	10308093          	addi	ra,ra,259 # 3103 <offset+0x302f>
80004868:	7cc09863          	bne	ra,a2,80005038 <bad_trap>

8000486c <inst_526>:
8000486c:	0000b537          	lui	a0,0xb
80004870:	50350513          	addi	a0,a0,1283 # b503 <offset+0xb42f>
80004874:	666665b7          	lui	a1,0x66666
80004878:	66658593          	addi	a1,a1,1638 # 66666666 <absimm+0x21374137>
8000487c:	00b57633          	and	a2,a0,a1
80004880:	7ec12623          	sw	a2,2028(sp)
80004884:	000020b7          	lui	ra,0x2
80004888:	40208093          	addi	ra,ra,1026 # 2402 <offset+0x232e>
8000488c:	7ac09663          	bne	ra,a2,80005038 <bad_trap>

80004890 <inst_527>:
80004890:	0000b537          	lui	a0,0xb
80004894:	50350513          	addi	a0,a0,1283 # b503 <offset+0xb42f>
80004898:	ffff55b7          	lui	a1,0xffff5
8000489c:	afc58593          	addi	a1,a1,-1284 # ffff4afc <imm12+0xffff502c>
800048a0:	00b57633          	and	a2,a0,a1
800048a4:	7ec12823          	sw	a2,2032(sp)
800048a8:	00000093          	li	ra,0
800048ac:	78c09663          	bne	ra,a2,80005038 <bad_trap>

800048b0 <inst_528>:
800048b0:	0000b537          	lui	a0,0xb
800048b4:	50350513          	addi	a0,a0,1283 # b503 <offset+0xb42f>
800048b8:	0000b5b7          	lui	a1,0xb
800048bc:	50458593          	addi	a1,a1,1284 # b504 <offset+0xb430>
800048c0:	00b57633          	and	a2,a0,a1
800048c4:	7ec12a23          	sw	a2,2036(sp)
800048c8:	0000b0b7          	lui	ra,0xb
800048cc:	50008093          	addi	ra,ra,1280 # b500 <offset+0xb42c>
800048d0:	76c09463          	bne	ra,a2,80005038 <bad_trap>

800048d4 <inst_529>:
800048d4:	0000b537          	lui	a0,0xb
800048d8:	50350513          	addi	a0,a0,1283 # b503 <offset+0xb42f>
800048dc:	00200593          	li	a1,2
800048e0:	00b57633          	and	a2,a0,a1
800048e4:	7ec12c23          	sw	a2,2040(sp)
800048e8:	00200093          	li	ra,2
800048ec:	74c09663          	bne	ra,a2,80005038 <bad_trap>

800048f0 <inst_530>:
800048f0:	0000b537          	lui	a0,0xb
800048f4:	50350513          	addi	a0,a0,1283 # b503 <offset+0xb42f>
800048f8:	555555b7          	lui	a1,0x55555
800048fc:	55458593          	addi	a1,a1,1364 # 55555554 <absimm+0x10263025>
80004900:	00b57633          	and	a2,a0,a1
80004904:	7ec12e23          	sw	a2,2044(sp)
80004908:	000010b7          	lui	ra,0x1
8000490c:	50008093          	addi	ra,ra,1280 # 1500 <offset+0x142c>
80004910:	72c09463          	bne	ra,a2,80005038 <bad_trap>
80004914:	00000013          	nop
80004918:	00000013          	nop
8000491c:	00000013          	nop
80004920:	00003117          	auipc	sp,0x3
80004924:	f3010113          	addi	sp,sp,-208 # 80007850 <signature_x2_1>
80004928:	00000013          	nop
8000492c:	00000013          	nop
80004930:	00000013          	nop
80004934:	00000013          	nop
80004938:	00000013          	nop
8000493c:	00000013          	nop

80004940 <inst_531>:
80004940:	0000b537          	lui	a0,0xb
80004944:	50350513          	addi	a0,a0,1283 # b503 <offset+0xb42f>
80004948:	00000593          	li	a1,0
8000494c:	00b57633          	and	a2,a0,a1
80004950:	00c12023          	sw	a2,0(sp)
80004954:	00000093          	li	ra,0
80004958:	6ec09063          	bne	ra,a2,80005038 <bad_trap>

8000495c <inst_532>:
8000495c:	0000b537          	lui	a0,0xb
80004960:	50350513          	addi	a0,a0,1283 # b503 <offset+0xb42f>
80004964:	00400593          	li	a1,4
80004968:	00b57633          	and	a2,a0,a1
8000496c:	00c12223          	sw	a2,4(sp)
80004970:	00000093          	li	ra,0
80004974:	6cc09263          	bne	ra,a2,80005038 <bad_trap>

80004978 <inst_533>:
80004978:	0000b537          	lui	a0,0xb
8000497c:	50350513          	addi	a0,a0,1283 # b503 <offset+0xb42f>
80004980:	333335b7          	lui	a1,0x33333
80004984:	33258593          	addi	a1,a1,818 # 33333332 <offset+0x3333325e>
80004988:	00b57633          	and	a2,a0,a1
8000498c:	00c12423          	sw	a2,8(sp)
80004990:	000030b7          	lui	ra,0x3
80004994:	10208093          	addi	ra,ra,258 # 3102 <offset+0x302e>
80004998:	6ac09063          	bne	ra,a2,80005038 <bad_trap>

8000499c <inst_534>:
8000499c:	0000b537          	lui	a0,0xb
800049a0:	50350513          	addi	a0,a0,1283 # b503 <offset+0xb42f>
800049a4:	666665b7          	lui	a1,0x66666
800049a8:	66558593          	addi	a1,a1,1637 # 66666665 <absimm+0x21374136>
800049ac:	00b57633          	and	a2,a0,a1
800049b0:	00c12623          	sw	a2,12(sp)
800049b4:	000020b7          	lui	ra,0x2
800049b8:	40108093          	addi	ra,ra,1025 # 2401 <offset+0x232d>
800049bc:	66c09e63          	bne	ra,a2,80005038 <bad_trap>

800049c0 <inst_535>:
800049c0:	0000b537          	lui	a0,0xb
800049c4:	50350513          	addi	a0,a0,1283 # b503 <offset+0xb42f>
800049c8:	0000b5b7          	lui	a1,0xb
800049cc:	50358593          	addi	a1,a1,1283 # b503 <offset+0xb42f>
800049d0:	00b57633          	and	a2,a0,a1
800049d4:	00c12823          	sw	a2,16(sp)
800049d8:	0000b0b7          	lui	ra,0xb
800049dc:	50308093          	addi	ra,ra,1283 # b503 <offset+0xb42f>
800049e0:	64c09c63          	bne	ra,a2,80005038 <bad_trap>

800049e4 <inst_536>:
800049e4:	0000b537          	lui	a0,0xb
800049e8:	50350513          	addi	a0,a0,1283 # b503 <offset+0xb42f>
800049ec:	555555b7          	lui	a1,0x55555
800049f0:	55658593          	addi	a1,a1,1366 # 55555556 <absimm+0x10263027>
800049f4:	00b57633          	and	a2,a0,a1
800049f8:	00c12a23          	sw	a2,20(sp)
800049fc:	000010b7          	lui	ra,0x1
80004a00:	50208093          	addi	ra,ra,1282 # 1502 <offset+0x142e>
80004a04:	62c09a63          	bne	ra,a2,80005038 <bad_trap>

80004a08 <inst_537>:
80004a08:	0000b537          	lui	a0,0xb
80004a0c:	50350513          	addi	a0,a0,1283 # b503 <offset+0xb42f>
80004a10:	aaaab5b7          	lui	a1,0xaaaab
80004a14:	aab58593          	addi	a1,a1,-1365 # aaaaaaab <imm12+0xaaaaafdb>
80004a18:	00b57633          	and	a2,a0,a1
80004a1c:	00c12c23          	sw	a2,24(sp)
80004a20:	0000a0b7          	lui	ra,0xa
80004a24:	00308093          	addi	ra,ra,3 # a003 <offset+0x9f2f>
80004a28:	60c09863          	bne	ra,a2,80005038 <bad_trap>

80004a2c <inst_538>:
80004a2c:	0000b537          	lui	a0,0xb
80004a30:	50350513          	addi	a0,a0,1283 # b503 <offset+0xb42f>
80004a34:	00600593          	li	a1,6
80004a38:	00b57633          	and	a2,a0,a1
80004a3c:	00c12e23          	sw	a2,28(sp)
80004a40:	00200093          	li	ra,2
80004a44:	5ec09a63          	bne	ra,a2,80005038 <bad_trap>

80004a48 <inst_539>:
80004a48:	0000b537          	lui	a0,0xb
80004a4c:	50350513          	addi	a0,a0,1283 # b503 <offset+0xb42f>
80004a50:	333335b7          	lui	a1,0x33333
80004a54:	33458593          	addi	a1,a1,820 # 33333334 <offset+0x33333260>
80004a58:	00b57633          	and	a2,a0,a1
80004a5c:	02c12023          	sw	a2,32(sp)
80004a60:	000030b7          	lui	ra,0x3
80004a64:	10008093          	addi	ra,ra,256 # 3100 <offset+0x302c>
80004a68:	5cc09863          	bne	ra,a2,80005038 <bad_trap>

80004a6c <inst_540>:
80004a6c:	0000b537          	lui	a0,0xb
80004a70:	50350513          	addi	a0,a0,1283 # b503 <offset+0xb42f>
80004a74:	666665b7          	lui	a1,0x66666
80004a78:	66758593          	addi	a1,a1,1639 # 66666667 <absimm+0x21374138>
80004a7c:	00b57633          	and	a2,a0,a1
80004a80:	02c12223          	sw	a2,36(sp)
80004a84:	000020b7          	lui	ra,0x2
80004a88:	40308093          	addi	ra,ra,1027 # 2403 <offset+0x232f>
80004a8c:	5ac09663          	bne	ra,a2,80005038 <bad_trap>

80004a90 <inst_541>:
80004a90:	0000b537          	lui	a0,0xb
80004a94:	50350513          	addi	a0,a0,1283 # b503 <offset+0xb42f>
80004a98:	ffff55b7          	lui	a1,0xffff5
80004a9c:	afd58593          	addi	a1,a1,-1283 # ffff4afd <imm12+0xffff502d>
80004aa0:	00b57633          	and	a2,a0,a1
80004aa4:	02c12423          	sw	a2,40(sp)
80004aa8:	00100093          	li	ra,1
80004aac:	58c09663          	bne	ra,a2,80005038 <bad_trap>

80004ab0 <inst_542>:
80004ab0:	0000b537          	lui	a0,0xb
80004ab4:	50350513          	addi	a0,a0,1283 # b503 <offset+0xb42f>
80004ab8:	0000b5b7          	lui	a1,0xb
80004abc:	50558593          	addi	a1,a1,1285 # b505 <offset+0xb431>
80004ac0:	00b57633          	and	a2,a0,a1
80004ac4:	02c12623          	sw	a2,44(sp)
80004ac8:	0000b0b7          	lui	ra,0xb
80004acc:	50108093          	addi	ra,ra,1281 # b501 <offset+0xb42d>
80004ad0:	56c09463          	bne	ra,a2,80005038 <bad_trap>

80004ad4 <inst_543>:
80004ad4:	55555537          	lui	a0,0x55555
80004ad8:	55650513          	addi	a0,a0,1366 # 55555556 <absimm+0x10263027>
80004adc:	00300593          	li	a1,3
80004ae0:	00b57633          	and	a2,a0,a1
80004ae4:	02c12823          	sw	a2,48(sp)
80004ae8:	00200093          	li	ra,2
80004aec:	54c09663          	bne	ra,a2,80005038 <bad_trap>

80004af0 <inst_544>:
80004af0:	55555537          	lui	a0,0x55555
80004af4:	55650513          	addi	a0,a0,1366 # 55555556 <absimm+0x10263027>
80004af8:	555555b7          	lui	a1,0x55555
80004afc:	55558593          	addi	a1,a1,1365 # 55555555 <absimm+0x10263026>
80004b00:	00b57633          	and	a2,a0,a1
80004b04:	02c12a23          	sw	a2,52(sp)
80004b08:	555550b7          	lui	ra,0x55555
80004b0c:	55408093          	addi	ra,ra,1364 # 55555554 <absimm+0x10263025>
80004b10:	52c09463          	bne	ra,a2,80005038 <bad_trap>

80004b14 <inst_545>:
80004b14:	55555537          	lui	a0,0x55555
80004b18:	55650513          	addi	a0,a0,1366 # 55555556 <absimm+0x10263027>
80004b1c:	aaaab5b7          	lui	a1,0xaaaab
80004b20:	aaa58593          	addi	a1,a1,-1366 # aaaaaaaa <imm12+0xaaaaafda>
80004b24:	00b57633          	and	a2,a0,a1
80004b28:	02c12c23          	sw	a2,56(sp)
80004b2c:	00200093          	li	ra,2
80004b30:	50c09463          	bne	ra,a2,80005038 <bad_trap>

80004b34 <inst_546>:
80004b34:	55555537          	lui	a0,0x55555
80004b38:	55650513          	addi	a0,a0,1366 # 55555556 <absimm+0x10263027>
80004b3c:	00500593          	li	a1,5
80004b40:	00b57633          	and	a2,a0,a1
80004b44:	02c12e23          	sw	a2,60(sp)
80004b48:	00400093          	li	ra,4
80004b4c:	4ec09663          	bne	ra,a2,80005038 <bad_trap>

80004b50 <inst_547>:
80004b50:	55555537          	lui	a0,0x55555
80004b54:	55650513          	addi	a0,a0,1366 # 55555556 <absimm+0x10263027>
80004b58:	333335b7          	lui	a1,0x33333
80004b5c:	33358593          	addi	a1,a1,819 # 33333333 <offset+0x3333325f>
80004b60:	00b57633          	and	a2,a0,a1
80004b64:	04c12023          	sw	a2,64(sp)
80004b68:	111110b7          	lui	ra,0x11111
80004b6c:	11208093          	addi	ra,ra,274 # 11111112 <offset+0x1111103e>
80004b70:	4cc09463          	bne	ra,a2,80005038 <bad_trap>

80004b74 <inst_548>:
80004b74:	55555537          	lui	a0,0x55555
80004b78:	55650513          	addi	a0,a0,1366 # 55555556 <absimm+0x10263027>
80004b7c:	666665b7          	lui	a1,0x66666
80004b80:	66658593          	addi	a1,a1,1638 # 66666666 <absimm+0x21374137>
80004b84:	00b57633          	and	a2,a0,a1
80004b88:	04c12223          	sw	a2,68(sp)
80004b8c:	444440b7          	lui	ra,0x44444
80004b90:	44608093          	addi	ra,ra,1094 # 44444446 <offset+0x44444372>
80004b94:	4ac09263          	bne	ra,a2,80005038 <bad_trap>

80004b98 <inst_549>:
80004b98:	55555537          	lui	a0,0x55555
80004b9c:	55650513          	addi	a0,a0,1366 # 55555556 <absimm+0x10263027>
80004ba0:	ffff55b7          	lui	a1,0xffff5
80004ba4:	afc58593          	addi	a1,a1,-1284 # ffff4afc <imm12+0xffff502c>
80004ba8:	00b57633          	and	a2,a0,a1
80004bac:	04c12423          	sw	a2,72(sp)
80004bb0:	555540b7          	lui	ra,0x55554
80004bb4:	05408093          	addi	ra,ra,84 # 55554054 <absimm+0x10261b25>
80004bb8:	48c09063          	bne	ra,a2,80005038 <bad_trap>

80004bbc <inst_550>:
80004bbc:	55555537          	lui	a0,0x55555
80004bc0:	55650513          	addi	a0,a0,1366 # 55555556 <absimm+0x10263027>
80004bc4:	0000b5b7          	lui	a1,0xb
80004bc8:	50458593          	addi	a1,a1,1284 # b504 <offset+0xb430>
80004bcc:	00b57633          	and	a2,a0,a1
80004bd0:	04c12623          	sw	a2,76(sp)
80004bd4:	000010b7          	lui	ra,0x1
80004bd8:	50408093          	addi	ra,ra,1284 # 1504 <offset+0x1430>
80004bdc:	44c09e63          	bne	ra,a2,80005038 <bad_trap>

80004be0 <inst_551>:
80004be0:	55555537          	lui	a0,0x55555
80004be4:	55650513          	addi	a0,a0,1366 # 55555556 <absimm+0x10263027>
80004be8:	00200593          	li	a1,2
80004bec:	00b57633          	and	a2,a0,a1
80004bf0:	04c12823          	sw	a2,80(sp)
80004bf4:	00200093          	li	ra,2
80004bf8:	44c09063          	bne	ra,a2,80005038 <bad_trap>

80004bfc <inst_552>:
80004bfc:	55555537          	lui	a0,0x55555
80004c00:	55650513          	addi	a0,a0,1366 # 55555556 <absimm+0x10263027>
80004c04:	555555b7          	lui	a1,0x55555
80004c08:	55458593          	addi	a1,a1,1364 # 55555554 <absimm+0x10263025>
80004c0c:	00b57633          	and	a2,a0,a1
80004c10:	04c12a23          	sw	a2,84(sp)
80004c14:	555550b7          	lui	ra,0x55555
80004c18:	55408093          	addi	ra,ra,1364 # 55555554 <absimm+0x10263025>
80004c1c:	40c09e63          	bne	ra,a2,80005038 <bad_trap>

80004c20 <inst_553>:
80004c20:	55555537          	lui	a0,0x55555
80004c24:	55650513          	addi	a0,a0,1366 # 55555556 <absimm+0x10263027>
80004c28:	00000593          	li	a1,0
80004c2c:	00b57633          	and	a2,a0,a1
80004c30:	04c12c23          	sw	a2,88(sp)
80004c34:	00000093          	li	ra,0
80004c38:	40c09063          	bne	ra,a2,80005038 <bad_trap>

80004c3c <inst_554>:
80004c3c:	55555537          	lui	a0,0x55555
80004c40:	55650513          	addi	a0,a0,1366 # 55555556 <absimm+0x10263027>
80004c44:	00400593          	li	a1,4
80004c48:	00b57633          	and	a2,a0,a1
80004c4c:	04c12e23          	sw	a2,92(sp)
80004c50:	00400093          	li	ra,4
80004c54:	3ec09263          	bne	ra,a2,80005038 <bad_trap>

80004c58 <inst_555>:
80004c58:	55555537          	lui	a0,0x55555
80004c5c:	55650513          	addi	a0,a0,1366 # 55555556 <absimm+0x10263027>
80004c60:	333335b7          	lui	a1,0x33333
80004c64:	33258593          	addi	a1,a1,818 # 33333332 <offset+0x3333325e>
80004c68:	00b57633          	and	a2,a0,a1
80004c6c:	06c12023          	sw	a2,96(sp)
80004c70:	111110b7          	lui	ra,0x11111
80004c74:	11208093          	addi	ra,ra,274 # 11111112 <offset+0x1111103e>
80004c78:	3cc09063          	bne	ra,a2,80005038 <bad_trap>

80004c7c <inst_556>:
80004c7c:	55555537          	lui	a0,0x55555
80004c80:	55650513          	addi	a0,a0,1366 # 55555556 <absimm+0x10263027>
80004c84:	666665b7          	lui	a1,0x66666
80004c88:	66558593          	addi	a1,a1,1637 # 66666665 <absimm+0x21374136>
80004c8c:	00b57633          	and	a2,a0,a1
80004c90:	06c12223          	sw	a2,100(sp)
80004c94:	444440b7          	lui	ra,0x44444
80004c98:	44408093          	addi	ra,ra,1092 # 44444444 <offset+0x44444370>
80004c9c:	38c09e63          	bne	ra,a2,80005038 <bad_trap>

80004ca0 <inst_557>:
80004ca0:	55555537          	lui	a0,0x55555
80004ca4:	55650513          	addi	a0,a0,1366 # 55555556 <absimm+0x10263027>
80004ca8:	0000b5b7          	lui	a1,0xb
80004cac:	50358593          	addi	a1,a1,1283 # b503 <offset+0xb42f>
80004cb0:	00b57633          	and	a2,a0,a1
80004cb4:	06c12423          	sw	a2,104(sp)
80004cb8:	000010b7          	lui	ra,0x1
80004cbc:	50208093          	addi	ra,ra,1282 # 1502 <offset+0x142e>
80004cc0:	36c09c63          	bne	ra,a2,80005038 <bad_trap>

80004cc4 <inst_558>:
80004cc4:	55555537          	lui	a0,0x55555
80004cc8:	55650513          	addi	a0,a0,1366 # 55555556 <absimm+0x10263027>
80004ccc:	555555b7          	lui	a1,0x55555
80004cd0:	55658593          	addi	a1,a1,1366 # 55555556 <absimm+0x10263027>
80004cd4:	00b57633          	and	a2,a0,a1
80004cd8:	06c12623          	sw	a2,108(sp)
80004cdc:	555550b7          	lui	ra,0x55555
80004ce0:	55608093          	addi	ra,ra,1366 # 55555556 <absimm+0x10263027>
80004ce4:	34c09a63          	bne	ra,a2,80005038 <bad_trap>

80004ce8 <inst_559>:
80004ce8:	55555537          	lui	a0,0x55555
80004cec:	55650513          	addi	a0,a0,1366 # 55555556 <absimm+0x10263027>
80004cf0:	aaaab5b7          	lui	a1,0xaaaab
80004cf4:	aab58593          	addi	a1,a1,-1365 # aaaaaaab <imm12+0xaaaaafdb>
80004cf8:	00b57633          	and	a2,a0,a1
80004cfc:	06c12823          	sw	a2,112(sp)
80004d00:	00200093          	li	ra,2
80004d04:	32c09a63          	bne	ra,a2,80005038 <bad_trap>

80004d08 <inst_560>:
80004d08:	55555537          	lui	a0,0x55555
80004d0c:	55650513          	addi	a0,a0,1366 # 55555556 <absimm+0x10263027>
80004d10:	00600593          	li	a1,6
80004d14:	00b57633          	and	a2,a0,a1
80004d18:	06c12a23          	sw	a2,116(sp)
80004d1c:	00600093          	li	ra,6
80004d20:	30c09c63          	bne	ra,a2,80005038 <bad_trap>

80004d24 <inst_561>:
80004d24:	55555537          	lui	a0,0x55555
80004d28:	55650513          	addi	a0,a0,1366 # 55555556 <absimm+0x10263027>
80004d2c:	333335b7          	lui	a1,0x33333
80004d30:	33458593          	addi	a1,a1,820 # 33333334 <offset+0x33333260>
80004d34:	00b57633          	and	a2,a0,a1
80004d38:	06c12c23          	sw	a2,120(sp)
80004d3c:	111110b7          	lui	ra,0x11111
80004d40:	11408093          	addi	ra,ra,276 # 11111114 <offset+0x11111040>
80004d44:	2ec09a63          	bne	ra,a2,80005038 <bad_trap>

80004d48 <inst_562>:
80004d48:	55555537          	lui	a0,0x55555
80004d4c:	55650513          	addi	a0,a0,1366 # 55555556 <absimm+0x10263027>
80004d50:	666665b7          	lui	a1,0x66666
80004d54:	66758593          	addi	a1,a1,1639 # 66666667 <absimm+0x21374138>
80004d58:	00b57633          	and	a2,a0,a1
80004d5c:	06c12e23          	sw	a2,124(sp)
80004d60:	444440b7          	lui	ra,0x44444
80004d64:	44608093          	addi	ra,ra,1094 # 44444446 <offset+0x44444372>
80004d68:	2cc09863          	bne	ra,a2,80005038 <bad_trap>

80004d6c <inst_563>:
80004d6c:	55555537          	lui	a0,0x55555
80004d70:	55650513          	addi	a0,a0,1366 # 55555556 <absimm+0x10263027>
80004d74:	ffff55b7          	lui	a1,0xffff5
80004d78:	afd58593          	addi	a1,a1,-1283 # ffff4afd <imm12+0xffff502d>
80004d7c:	00b57633          	and	a2,a0,a1
80004d80:	08c12023          	sw	a2,128(sp)
80004d84:	555540b7          	lui	ra,0x55554
80004d88:	05408093          	addi	ra,ra,84 # 55554054 <absimm+0x10261b25>
80004d8c:	2ac09663          	bne	ra,a2,80005038 <bad_trap>

80004d90 <inst_564>:
80004d90:	55555537          	lui	a0,0x55555
80004d94:	55650513          	addi	a0,a0,1366 # 55555556 <absimm+0x10263027>
80004d98:	0000b5b7          	lui	a1,0xb
80004d9c:	50558593          	addi	a1,a1,1285 # b505 <offset+0xb431>
80004da0:	00b57633          	and	a2,a0,a1
80004da4:	08c12223          	sw	a2,132(sp)
80004da8:	000010b7          	lui	ra,0x1
80004dac:	50408093          	addi	ra,ra,1284 # 1504 <offset+0x1430>
80004db0:	28c09463          	bne	ra,a2,80005038 <bad_trap>

80004db4 <inst_565>:
80004db4:	aaaab537          	lui	a0,0xaaaab
80004db8:	aab50513          	addi	a0,a0,-1365 # aaaaaaab <imm12+0xaaaaafdb>
80004dbc:	00300593          	li	a1,3
80004dc0:	00b57633          	and	a2,a0,a1
80004dc4:	08c12423          	sw	a2,136(sp)
80004dc8:	00300093          	li	ra,3
80004dcc:	26c09663          	bne	ra,a2,80005038 <bad_trap>

80004dd0 <inst_566>:
80004dd0:	aaaab537          	lui	a0,0xaaaab
80004dd4:	aab50513          	addi	a0,a0,-1365 # aaaaaaab <imm12+0xaaaaafdb>
80004dd8:	555555b7          	lui	a1,0x55555
80004ddc:	55558593          	addi	a1,a1,1365 # 55555555 <absimm+0x10263026>
80004de0:	00b57633          	and	a2,a0,a1
80004de4:	08c12623          	sw	a2,140(sp)
80004de8:	00100093          	li	ra,1
80004dec:	24c09663          	bne	ra,a2,80005038 <bad_trap>

80004df0 <inst_567>:
80004df0:	aaaab537          	lui	a0,0xaaaab
80004df4:	aab50513          	addi	a0,a0,-1365 # aaaaaaab <imm12+0xaaaaafdb>
80004df8:	aaaab5b7          	lui	a1,0xaaaab
80004dfc:	aaa58593          	addi	a1,a1,-1366 # aaaaaaaa <imm12+0xaaaaafda>
80004e00:	00b57633          	and	a2,a0,a1
80004e04:	08c12823          	sw	a2,144(sp)
80004e08:	aaaab0b7          	lui	ra,0xaaaab
80004e0c:	aaa08093          	addi	ra,ra,-1366 # aaaaaaaa <imm12+0xaaaaafda>
80004e10:	22c09463          	bne	ra,a2,80005038 <bad_trap>

80004e14 <inst_568>:
80004e14:	aaaab537          	lui	a0,0xaaaab
80004e18:	aab50513          	addi	a0,a0,-1365 # aaaaaaab <imm12+0xaaaaafdb>
80004e1c:	00500593          	li	a1,5
80004e20:	00b57633          	and	a2,a0,a1
80004e24:	08c12a23          	sw	a2,148(sp)
80004e28:	00100093          	li	ra,1
80004e2c:	20c09663          	bne	ra,a2,80005038 <bad_trap>

80004e30 <inst_569>:
80004e30:	aaaab537          	lui	a0,0xaaaab
80004e34:	aab50513          	addi	a0,a0,-1365 # aaaaaaab <imm12+0xaaaaafdb>
80004e38:	333335b7          	lui	a1,0x33333
80004e3c:	33358593          	addi	a1,a1,819 # 33333333 <offset+0x3333325f>
80004e40:	00b57633          	and	a2,a0,a1
80004e44:	08c12c23          	sw	a2,152(sp)
80004e48:	222220b7          	lui	ra,0x22222
80004e4c:	22308093          	addi	ra,ra,547 # 22222223 <offset+0x2222214f>
80004e50:	1ec09463          	bne	ra,a2,80005038 <bad_trap>

80004e54 <inst_570>:
80004e54:	aaaab537          	lui	a0,0xaaaab
80004e58:	aab50513          	addi	a0,a0,-1365 # aaaaaaab <imm12+0xaaaaafdb>
80004e5c:	666665b7          	lui	a1,0x66666
80004e60:	66658593          	addi	a1,a1,1638 # 66666666 <absimm+0x21374137>
80004e64:	00b57633          	and	a2,a0,a1
80004e68:	08c12e23          	sw	a2,156(sp)
80004e6c:	222220b7          	lui	ra,0x22222
80004e70:	22208093          	addi	ra,ra,546 # 22222222 <offset+0x2222214e>
80004e74:	1cc09263          	bne	ra,a2,80005038 <bad_trap>

80004e78 <inst_571>:
80004e78:	aaaab537          	lui	a0,0xaaaab
80004e7c:	aab50513          	addi	a0,a0,-1365 # aaaaaaab <imm12+0xaaaaafdb>
80004e80:	ffff55b7          	lui	a1,0xffff5
80004e84:	afc58593          	addi	a1,a1,-1284 # ffff4afc <imm12+0xffff502c>
80004e88:	00b57633          	and	a2,a0,a1
80004e8c:	0ac12023          	sw	a2,160(sp)
80004e90:	aaaa10b7          	lui	ra,0xaaaa1
80004e94:	aa808093          	addi	ra,ra,-1368 # aaaa0aa8 <imm12+0xaaaa0fd8>
80004e98:	1ac09063          	bne	ra,a2,80005038 <bad_trap>

80004e9c <inst_572>:
80004e9c:	aaaab537          	lui	a0,0xaaaab
80004ea0:	aab50513          	addi	a0,a0,-1365 # aaaaaaab <imm12+0xaaaaafdb>
80004ea4:	0000b5b7          	lui	a1,0xb
80004ea8:	50458593          	addi	a1,a1,1284 # b504 <offset+0xb430>
80004eac:	00b57633          	and	a2,a0,a1
80004eb0:	0ac12223          	sw	a2,164(sp)
80004eb4:	0000a0b7          	lui	ra,0xa
80004eb8:	18c09063          	bne	ra,a2,80005038 <bad_trap>

80004ebc <inst_573>:
80004ebc:	aaaab537          	lui	a0,0xaaaab
80004ec0:	aab50513          	addi	a0,a0,-1365 # aaaaaaab <imm12+0xaaaaafdb>
80004ec4:	00200593          	li	a1,2
80004ec8:	00b57633          	and	a2,a0,a1
80004ecc:	0ac12423          	sw	a2,168(sp)
80004ed0:	00200093          	li	ra,2
80004ed4:	16c09263          	bne	ra,a2,80005038 <bad_trap>

80004ed8 <inst_574>:
80004ed8:	aaaab537          	lui	a0,0xaaaab
80004edc:	aab50513          	addi	a0,a0,-1365 # aaaaaaab <imm12+0xaaaaafdb>
80004ee0:	555555b7          	lui	a1,0x55555
80004ee4:	55458593          	addi	a1,a1,1364 # 55555554 <absimm+0x10263025>
80004ee8:	00b57633          	and	a2,a0,a1
80004eec:	0ac12623          	sw	a2,172(sp)
80004ef0:	00000093          	li	ra,0
80004ef4:	14c09263          	bne	ra,a2,80005038 <bad_trap>

80004ef8 <inst_575>:
80004ef8:	aaaab537          	lui	a0,0xaaaab
80004efc:	aab50513          	addi	a0,a0,-1365 # aaaaaaab <imm12+0xaaaaafdb>
80004f00:	00000593          	li	a1,0
80004f04:	00b57633          	and	a2,a0,a1
80004f08:	0ac12823          	sw	a2,176(sp)
80004f0c:	00000093          	li	ra,0
80004f10:	12c09463          	bne	ra,a2,80005038 <bad_trap>

80004f14 <inst_576>:
80004f14:	aaaab537          	lui	a0,0xaaaab
80004f18:	aab50513          	addi	a0,a0,-1365 # aaaaaaab <imm12+0xaaaaafdb>
80004f1c:	00400593          	li	a1,4
80004f20:	00b57633          	and	a2,a0,a1
80004f24:	0ac12a23          	sw	a2,180(sp)
80004f28:	00000093          	li	ra,0
80004f2c:	10c09663          	bne	ra,a2,80005038 <bad_trap>

80004f30 <inst_577>:
80004f30:	aaaab537          	lui	a0,0xaaaab
80004f34:	aab50513          	addi	a0,a0,-1365 # aaaaaaab <imm12+0xaaaaafdb>
80004f38:	333335b7          	lui	a1,0x33333
80004f3c:	33258593          	addi	a1,a1,818 # 33333332 <offset+0x3333325e>
80004f40:	00b57633          	and	a2,a0,a1
80004f44:	0ac12c23          	sw	a2,184(sp)
80004f48:	222220b7          	lui	ra,0x22222
80004f4c:	22208093          	addi	ra,ra,546 # 22222222 <offset+0x2222214e>
80004f50:	0ec09463          	bne	ra,a2,80005038 <bad_trap>

80004f54 <inst_578>:
80004f54:	aaaab537          	lui	a0,0xaaaab
80004f58:	aab50513          	addi	a0,a0,-1365 # aaaaaaab <imm12+0xaaaaafdb>
80004f5c:	666665b7          	lui	a1,0x66666
80004f60:	66558593          	addi	a1,a1,1637 # 66666665 <absimm+0x21374136>
80004f64:	00b57633          	and	a2,a0,a1
80004f68:	0ac12e23          	sw	a2,188(sp)
80004f6c:	222220b7          	lui	ra,0x22222
80004f70:	22108093          	addi	ra,ra,545 # 22222221 <offset+0x2222214d>
80004f74:	0cc09263          	bne	ra,a2,80005038 <bad_trap>

80004f78 <inst_579>:
80004f78:	aaaab537          	lui	a0,0xaaaab
80004f7c:	aab50513          	addi	a0,a0,-1365 # aaaaaaab <imm12+0xaaaaafdb>
80004f80:	0000b5b7          	lui	a1,0xb
80004f84:	50358593          	addi	a1,a1,1283 # b503 <offset+0xb42f>
80004f88:	00b57633          	and	a2,a0,a1
80004f8c:	0cc12023          	sw	a2,192(sp)
80004f90:	0000a0b7          	lui	ra,0xa
80004f94:	00308093          	addi	ra,ra,3 # a003 <offset+0x9f2f>
80004f98:	0ac09063          	bne	ra,a2,80005038 <bad_trap>

80004f9c <inst_580>:
80004f9c:	aaaab537          	lui	a0,0xaaaab
80004fa0:	aab50513          	addi	a0,a0,-1365 # aaaaaaab <imm12+0xaaaaafdb>
80004fa4:	555555b7          	lui	a1,0x55555
80004fa8:	55658593          	addi	a1,a1,1366 # 55555556 <absimm+0x10263027>
80004fac:	00b57633          	and	a2,a0,a1
80004fb0:	0cc12223          	sw	a2,196(sp)
80004fb4:	00200093          	li	ra,2
80004fb8:	08c09063          	bne	ra,a2,80005038 <bad_trap>

80004fbc <inst_581>:
80004fbc:	00001537          	lui	a0,0x1
80004fc0:	80050513          	addi	a0,a0,-2048 # 800 <offset+0x72c>
80004fc4:	fff005b7          	lui	a1,0xfff00
80004fc8:	fff58593          	addi	a1,a1,-1 # ffefffff <imm12+0xfff0052f>
80004fcc:	00b57633          	and	a2,a0,a1
80004fd0:	0cc12423          	sw	a2,200(sp)
80004fd4:	000010b7          	lui	ra,0x1
80004fd8:	80008093          	addi	ra,ra,-2048 # 800 <offset+0x72c>
80004fdc:	04c09e63          	bne	ra,a2,80005038 <bad_trap>

80004fe0 <inst_582>:
80004fe0:	00000513          	li	a0,0
80004fe4:	20000593          	li	a1,512
80004fe8:	00b57633          	and	a2,a0,a1
80004fec:	0cc12623          	sw	a2,204(sp)
80004ff0:	00000093          	li	ra,0
80004ff4:	04c09263          	bne	ra,a2,80005038 <bad_trap>

80004ff8 <inst_583>:
80004ff8:	08000537          	lui	a0,0x8000
80004ffc:	001005b7          	lui	a1,0x100
80005000:	00b57633          	and	a2,a0,a1
80005004:	0cc12823          	sw	a2,208(sp)
80005008:	00000093          	li	ra,0
8000500c:	02c09663          	bne	ra,a2,80005038 <bad_trap>

80005010 <cleanup_epilogs>:
80005010:	0200006f          	j	80005030 <exit_cleanup>

80005014 <abort_tests>:
80005014:	17812483          	lw	s1,376(sp)
80005018:	18012303          	lw	t1,384(sp)
8000501c:	00930333          	add	t1,t1,s1
80005020:	bad0e337          	lui	t1,0xbad0e
80005024:	ad030313          	addi	t1,t1,-1328 # bad0dad0 <imm12+0xbad0e000>
80005028:	fe64ae23          	sw	t1,-4(s1)
8000502c:	0040006f          	j	80005030 <exit_cleanup>

80005030 <exit_cleanup>:
80005030:	00000513          	li	a0,0
80005034:	01c000ef          	jal	ra,80005050 <halt>

80005038 <bad_trap>:
80005038:	00100513          	li	a0,1
8000503c:	014000ef          	jal	ra,80005050 <halt>
	...

80005050 <halt>:
80005050:	0000006f          	j	80005050 <halt>

80005054 <_trm_init>:
80005054:	ff010113          	addi	sp,sp,-16
80005058:	00000517          	auipc	a0,0x0
8000505c:	01450513          	addi	a0,a0,20 # 8000506c <_etext>
80005060:	00112623          	sw	ra,12(sp)
80005064:	fadfa0ef          	jal	ra,80000010 <main>
80005068:	0000006f          	j	80005068 <_trm_init+0x14>
