
test/andi-riscv32-ni.elf:     file format elf32-littleriscv


Disassembly of section .text:

80000000 <_start>:
80000000:	00000413          	li	s0,0
80000004:	00016117          	auipc	sp,0x16
80000008:	ffc10113          	addi	sp,sp,-4 # 80016000 <_end>
8000000c:	349030ef          	jal	ra,80003b54 <_trm_init>

80000010 <main>:
80000010:	010000ef          	jal	ra,80000020 <rvtest_entry_point>
80000014:	00000513          	li	a0,0
80000018:	00008067          	ret
8000001c:	0000                	unimp
	...

80000020 <rvtest_entry_point>:
80000020:	7d5c0837          	lui	a6,0x7d5c0
80000024:	ddb80813          	addi	a6,a6,-549 # 7d5bfddb <absimm+0x382cd8ac>
80000028:	00785893          	srli	a7,a6,0x7
8000002c:	01985793          	srli	a5,a6,0x19
80000030:	00f8e8b3          	or	a7,a7,a5
80000034:	0078d913          	srli	s2,a7,0x7
80000038:	0198d793          	srli	a5,a7,0x19
8000003c:	00f96933          	or	s2,s2,a5
80000040:	00795993          	srli	s3,s2,0x7
80000044:	01995793          	srli	a5,s2,0x19
80000048:	00f9e9b3          	or	s3,s3,a5
8000004c:	0079da13          	srli	s4,s3,0x7
80000050:	0199d793          	srli	a5,s3,0x19
80000054:	00fa6a33          	or	s4,s4,a5
80000058:	007a5a93          	srli	s5,s4,0x7
8000005c:	019a5793          	srli	a5,s4,0x19
80000060:	00faeab3          	or	s5,s5,a5
80000064:	007adb13          	srli	s6,s5,0x7
80000068:	019ad793          	srli	a5,s5,0x19
8000006c:	00fb6b33          	or	s6,s6,a5
80000070:	007b5b93          	srli	s7,s6,0x7
80000074:	019b5793          	srli	a5,s6,0x19
80000078:	00fbebb3          	or	s7,s7,a5
8000007c:	007bdc13          	srli	s8,s7,0x7
80000080:	019bd793          	srli	a5,s7,0x19
80000084:	00fc6c33          	or	s8,s8,a5
80000088:	007c5c93          	srli	s9,s8,0x7
8000008c:	019c5793          	srli	a5,s8,0x19
80000090:	00fcecb3          	or	s9,s9,a5
80000094:	007cdd13          	srli	s10,s9,0x7
80000098:	019cd793          	srli	a5,s9,0x19
8000009c:	00fd6d33          	or	s10,s10,a5
800000a0:	007d5d93          	srli	s11,s10,0x7
800000a4:	019d5793          	srli	a5,s10,0x19
800000a8:	00fdedb3          	or	s11,s11,a5
800000ac:	007dde13          	srli	t3,s11,0x7
800000b0:	019dd793          	srli	a5,s11,0x19
800000b4:	00fe6e33          	or	t3,t3,a5
800000b8:	007e5e93          	srli	t4,t3,0x7
800000bc:	019e5793          	srli	a5,t3,0x19
800000c0:	00feeeb3          	or	t4,t4,a5
800000c4:	007edf13          	srli	t5,t4,0x7
800000c8:	019ed793          	srli	a5,t4,0x19
800000cc:	00ff6f33          	or	t5,t5,a5
800000d0:	feedc0b7          	lui	ra,0xfeedc
800000d4:	ead08093          	addi	ra,ra,-339 # feedbead <imm12+0xfeedc3dd>
800000d8:	0070d113          	srli	sp,ra,0x7
800000dc:	0190d793          	srli	a5,ra,0x19
800000e0:	00f16133          	or	sp,sp,a5
800000e4:	00715193          	srli	gp,sp,0x7
800000e8:	01915793          	srli	a5,sp,0x19
800000ec:	00f1e1b3          	or	gp,gp,a5
800000f0:	0071d213          	srli	tp,gp,0x7
800000f4:	0191d793          	srli	a5,gp,0x19
800000f8:	00f26233          	or	tp,tp,a5
800000fc:	00725293          	srli	t0,tp,0x7
80000100:	01925793          	srli	a5,tp,0x19
80000104:	00f2e2b3          	or	t0,t0,a5
80000108:	0072d313          	srli	t1,t0,0x7
8000010c:	0192d793          	srli	a5,t0,0x19
80000110:	00f36333          	or	t1,t1,a5
80000114:	00735393          	srli	t2,t1,0x7
80000118:	01935793          	srli	a5,t1,0x19
8000011c:	00f3e3b3          	or	t2,t2,a5
80000120:	0073d413          	srli	s0,t2,0x7
80000124:	0193d793          	srli	a5,t2,0x19
80000128:	00f46433          	or	s0,s0,a5
8000012c:	00745493          	srli	s1,s0,0x7
80000130:	01945793          	srli	a5,s0,0x19
80000134:	00f4e4b3          	or	s1,s1,a5
80000138:	0074d513          	srli	a0,s1,0x7
8000013c:	0194d793          	srli	a5,s1,0x19
80000140:	00f56533          	or	a0,a0,a5
80000144:	00755593          	srli	a1,a0,0x7
80000148:	01955793          	srli	a5,a0,0x19
8000014c:	00f5e5b3          	or	a1,a1,a5
80000150:	0075d613          	srli	a2,a1,0x7
80000154:	0195d793          	srli	a5,a1,0x19
80000158:	00f66633          	or	a2,a2,a5
8000015c:	00765693          	srli	a3,a2,0x7
80000160:	01965793          	srli	a5,a2,0x19
80000164:	00f6e6b3          	or	a3,a3,a5

80000168 <rvtest_code_begin>:
80000168:	00000013          	nop
8000016c:	00000013          	nop
80000170:	00000013          	nop
80000174:	00000013          	nop
80000178:	00000013          	nop
8000017c:	00000013          	nop
80000180:	00005917          	auipc	s2,0x5
80000184:	e8490913          	addi	s2,s2,-380 # 80005004 <signature_x18_0>
80000188:	00000013          	nop
8000018c:	00000013          	nop
80000190:	00000013          	nop
80000194:	00000013          	nop
80000198:	00000013          	nop
8000019c:	00000013          	nop

800001a0 <inst_0>:
800001a0:	ffe00b13          	li	s6,-2
800001a4:	800b7513          	andi	a0,s6,-2048
800001a8:	00a92023          	sw	a0,0(s2)
800001ac:	80000c13          	li	s8,-2048
800001b0:	00ac0463          	beq	s8,a0,800001b8 <inst_1>
800001b4:	1810306f          	j	80003b34 <bad_trap>

800001b8 <inst_1>:
800001b8:	fffffcb7          	lui	s9,0xfffff
800001bc:	fffc8c93          	addi	s9,s9,-1 # ffffefff <imm12+0xfffff52f>
800001c0:	000cfc93          	andi	s9,s9,0
800001c4:	01992223          	sw	s9,4(s2)
800001c8:	00000c13          	li	s8,0
800001cc:	019c0463          	beq	s8,s9,800001d4 <inst_2>
800001d0:	1650306f          	j	80003b34 <bad_trap>

800001d4 <inst_2>:
800001d4:	fe000837          	lui	a6,0xfe000
800001d8:	fff80813          	addi	a6,a6,-1 # fdffffff <imm12+0xfe00052f>
800001dc:	7ff87893          	andi	a7,a6,2047
800001e0:	01192423          	sw	a7,8(s2)
800001e4:	7ff00c13          	li	s8,2047
800001e8:	011c0463          	beq	s8,a7,800001f0 <inst_3>
800001ec:	1490306f          	j	80003b34 <bad_trap>

800001f0 <inst_3>:
800001f0:	fffe0137          	lui	sp,0xfffe0
800001f4:	fff10113          	addi	sp,sp,-1 # fffdffff <imm12+0xfffe052f>
800001f8:	00117413          	andi	s0,sp,1
800001fc:	00892623          	sw	s0,12(s2)
80000200:	00100c13          	li	s8,1
80000204:	008c0463          	beq	s8,s0,8000020c <inst_4>
80000208:	12d0306f          	j	80003b34 <bad_trap>

8000020c <inst_4>:
8000020c:	80000e37          	lui	t3,0x80000
80000210:	004e7f13          	andi	t5,t3,4
80000214:	01e92823          	sw	t5,16(s2)
80000218:	00000c13          	li	s8,0
8000021c:	01ec0463          	beq	s8,t5,80000224 <inst_5>
80000220:	1150306f          	j	80003b34 <bad_trap>

80000224 <inst_5>:
80000224:	00000213          	li	tp,0
80000228:	80027993          	andi	s3,tp,-2048
8000022c:	01392a23          	sw	s3,20(s2)
80000230:	00000c13          	li	s8,0
80000234:	013c0463          	beq	s8,s3,8000023c <inst_6>
80000238:	0fd0306f          	j	80003b34 <bad_trap>

8000023c <inst_6>:
8000023c:	80000537          	lui	a0,0x80000
80000240:	fff50513          	addi	a0,a0,-1 # 7fffffff <imm12+0x8000052f>
80000244:	00657113          	andi	sp,a0,6
80000248:	00292c23          	sw	sp,24(s2)
8000024c:	00600c13          	li	s8,6
80000250:	002c0463          	beq	s8,sp,80000258 <inst_7>
80000254:	0e10306f          	j	80003b34 <bad_trap>

80000258 <inst_7>:
80000258:	00100393          	li	t2,1
8000025c:	5543f693          	andi	a3,t2,1364
80000260:	00d92e23          	sw	a3,28(s2)
80000264:	00000c13          	li	s8,0
80000268:	00dc0463          	beq	s8,a3,80000270 <inst_8>
8000026c:	0c90306f          	j	80003b34 <bad_trap>

80000270 <inst_8>:
80000270:	08000d93          	li	s11,128
80000274:	080df493          	andi	s1,s11,128
80000278:	02992023          	sw	s1,32(s2)
8000027c:	08000c13          	li	s8,128
80000280:	009c0463          	beq	s8,s1,80000288 <inst_9>
80000284:	0b10306f          	j	80003b34 <bad_trap>

80000288 <inst_9>:
80000288:	800008b7          	lui	a7,0x80000
8000028c:	fff88893          	addi	a7,a7,-1 # 7fffffff <imm12+0x8000052f>
80000290:	fd48f193          	andi	gp,a7,-44
80000294:	02392223          	sw	gp,36(s2)
80000298:	80000c37          	lui	s8,0x80000
8000029c:	fd4c0c13          	addi	s8,s8,-44 # 7fffffd4 <imm12+0x80000504>
800002a0:	003c0463          	beq	s8,gp,800002a8 <inst_10>
800002a4:	0910306f          	j	80003b34 <bad_trap>

800002a8 <inst_10>:
800002a8:	00000013          	nop
800002ac:	00207d13          	andi	s10,zero,2
800002b0:	03a92423          	sw	s10,40(s2)
800002b4:	00000c13          	li	s8,0
800002b8:	01ac0463          	beq	s8,s10,800002c0 <inst_11>
800002bc:	0790306f          	j	80003b34 <bad_trap>

800002c0 <inst_11>:
800002c0:	66666bb7          	lui	s7,0x66666
800002c4:	666b8b93          	addi	s7,s7,1638 # 66666666 <absimm+0x21374137>
800002c8:	008bfa93          	andi	s5,s7,8
800002cc:	03592623          	sw	s5,44(s2)
800002d0:	00000c13          	li	s8,0
800002d4:	015c0463          	beq	s8,s5,800002dc <inst_12>
800002d8:	05d0306f          	j	80003b34 <bad_trap>

800002dc <inst_12>:
800002dc:	00000313          	li	t1,0
800002e0:	01037713          	andi	a4,t1,16
800002e4:	02e92823          	sw	a4,48(s2)
800002e8:	00000c13          	li	s8,0
800002ec:	00ec0463          	beq	s8,a4,800002f4 <inst_13>
800002f0:	0450306f          	j	80003b34 <bad_trap>

800002f4 <inst_13>:
800002f4:	10000293          	li	t0,256
800002f8:	0202fb13          	andi	s6,t0,32
800002fc:	03692a23          	sw	s6,52(s2)
80000300:	00000c13          	li	s8,0
80000304:	016c0463          	beq	s8,s6,8000030c <inst_14>
80000308:	02d0306f          	j	80003b34 <bad_trap>

8000030c <inst_14>:
8000030c:	ffb00413          	li	s0,-5
80000310:	04047e93          	andi	t4,s0,64
80000314:	03d92c23          	sw	t4,56(s2)
80000318:	04000c13          	li	s8,64
8000031c:	01dc0463          	beq	s8,t4,80000324 <inst_15>
80000320:	0150306f          	j	80003b34 <bad_trap>

80000324 <inst_15>:
80000324:	00100613          	li	a2,1
80000328:	10067b93          	andi	s7,a2,256
8000032c:	03792e23          	sw	s7,60(s2)
80000330:	00000c13          	li	s8,0
80000334:	017c0463          	beq	s8,s7,8000033c <inst_16>
80000338:	7fc0306f          	j	80003b34 <bad_trap>

8000033c <inst_16>:
8000033c:	aaaab7b7          	lui	a5,0xaaaab
80000340:	aab78793          	addi	a5,a5,-1365 # aaaaaaab <imm12+0xaaaaafdb>
80000344:	2007f313          	andi	t1,a5,512
80000348:	04692023          	sw	t1,64(s2)
8000034c:	20000c13          	li	s8,512
80000350:	006c0463          	beq	s8,t1,80000358 <inst_17>
80000354:	7e00306f          	j	80003b34 <bad_trap>

80000358 <inst_17>:
80000358:	00000e93          	li	t4,0
8000035c:	400ef593          	andi	a1,t4,1024
80000360:	04b92223          	sw	a1,68(s2)
80000364:	00000c13          	li	s8,0
80000368:	00bc0463          	beq	s8,a1,80000370 <inst_18>
8000036c:	7c80306f          	j	80003b34 <bad_trap>

80000370 <inst_18>:
80000370:	66666a37          	lui	s4,0x66666
80000374:	667a0a13          	addi	s4,s4,1639 # 66666667 <absimm+0x21374138>
80000378:	ffea7093          	andi	ra,s4,-2
8000037c:	04192423          	sw	ra,72(s2)
80000380:	66666c37          	lui	s8,0x66666
80000384:	666c0c13          	addi	s8,s8,1638 # 66666666 <absimm+0x21374137>
80000388:	001c0463          	beq	s8,ra,80000390 <inst_18+0x20>
8000038c:	7a80306f          	j	80003b34 <bad_trap>
80000390:	00000013          	nop
80000394:	00000013          	nop
80000398:	00000013          	nop
8000039c:	00000013          	nop
800003a0:	00005117          	auipc	sp,0x5
800003a4:	cb010113          	addi	sp,sp,-848 # 80005050 <signature_x2_0>
800003a8:	00000013          	nop
800003ac:	00000013          	nop
800003b0:	00000013          	nop
800003b4:	00000013          	nop
800003b8:	00000013          	nop
800003bc:	00000013          	nop

800003c0 <inst_19>:
800003c0:	fff00fb7          	lui	t6,0xfff00
800003c4:	ffff8f93          	addi	t6,t6,-1 # ffefffff <imm12+0xfff0052f>
800003c8:	ffdff293          	andi	t0,t6,-3
800003cc:	00512023          	sw	t0,0(sp)
800003d0:	fff00337          	lui	t1,0xfff00
800003d4:	ffd30313          	addi	t1,t1,-3 # ffeffffd <imm12+0xfff0052d>
800003d8:	00530463          	beq	t1,t0,800003e0 <inst_20>
800003dc:	7580306f          	j	80003b34 <bad_trap>

800003e0 <inst_20>:
800003e0:	20000193          	li	gp,512
800003e4:	ffb1fa13          	andi	s4,gp,-5
800003e8:	01412223          	sw	s4,4(sp)
800003ec:	20000313          	li	t1,512
800003f0:	01430463          	beq	t1,s4,800003f8 <inst_21>
800003f4:	7400306f          	j	80003b34 <bad_trap>

800003f8 <inst_21>:
800003f8:	000044b7          	lui	s1,0x4
800003fc:	ff74f393          	andi	t2,s1,-9
80000400:	00712423          	sw	t2,8(sp)
80000404:	00004337          	lui	t1,0x4
80000408:	00730463          	beq	t1,t2,80000410 <inst_22>
8000040c:	7280306f          	j	80003b34 <bad_trap>

80000410 <inst_22>:
80000410:	002006b7          	lui	a3,0x200
80000414:	fef6f813          	andi	a6,a3,-17
80000418:	01012623          	sw	a6,12(sp)
8000041c:	00200337          	lui	t1,0x200
80000420:	01030463          	beq	t1,a6,80000428 <inst_23>
80000424:	7100306f          	j	80003b34 <bad_trap>

80000428 <inst_23>:
80000428:	ffd00913          	li	s2,-3
8000042c:	fdf97c13          	andi	s8,s2,-33
80000430:	01812823          	sw	s8,16(sp)
80000434:	fdd00313          	li	t1,-35
80000438:	01830463          	beq	t1,s8,80000440 <inst_24>
8000043c:	6f80306f          	j	80003b34 <bad_trap>

80000440 <inst_24>:
80000440:	ffa00d13          	li	s10,-6
80000444:	fbfd7213          	andi	tp,s10,-65
80000448:	00412a23          	sw	tp,20(sp)
8000044c:	fba00313          	li	t1,-70
80000450:	00430463          	beq	t1,tp,80000458 <inst_25>
80000454:	6e00306f          	j	80003b34 <bad_trap>

80000458 <inst_25>:
80000458:	04000f13          	li	t5,64
8000045c:	f7ff7e13          	andi	t3,t5,-129
80000460:	01c12c23          	sw	t3,24(sp)
80000464:	04000313          	li	t1,64
80000468:	01c30463          	beq	t1,t3,80000470 <inst_26>
8000046c:	6c80306f          	j	80003b34 <bad_trap>

80000470 <inst_26>:
80000470:	ffff59b7          	lui	s3,0xffff5
80000474:	afc98993          	addi	s3,s3,-1284 # ffff4afc <imm12+0xffff502c>
80000478:	eff9f013          	andi	zero,s3,-257
8000047c:	00012e23          	sw	zero,28(sp)
80000480:	00000313          	li	t1,0
80000484:	00030463          	beqz	t1,8000048c <inst_27>
80000488:	6ac0306f          	j	80003b34 <bad_trap>

8000048c <inst_27>:
8000048c:	ffff8ab7          	lui	s5,0xffff8
80000490:	fffa8a93          	addi	s5,s5,-1 # ffff7fff <imm12+0xffff852f>
80000494:	dffaf913          	andi	s2,s5,-513
80000498:	03212023          	sw	s2,32(sp)
8000049c:	ffff8337          	lui	t1,0xffff8
800004a0:	dff30313          	addi	t1,t1,-513 # ffff7dff <imm12+0xffff832f>
800004a4:	01230463          	beq	t1,s2,800004ac <inst_28>
800004a8:	68c0306f          	j	80003b34 <bad_trap>

800004ac <inst_28>:
800004ac:	04000093          	li	ra,64
800004b0:	bff0f613          	andi	a2,ra,-1025
800004b4:	02c12223          	sw	a2,36(sp)
800004b8:	04000313          	li	t1,64
800004bc:	00c30463          	beq	t1,a2,800004c4 <inst_29>
800004c0:	6740306f          	j	80003b34 <bad_trap>

800004c4 <inst_29>:
800004c4:	ffffcc37          	lui	s8,0xffffc
800004c8:	fffc0c13          	addi	s8,s8,-1 # ffffbfff <imm12+0xffffc52f>
800004cc:	555c7d93          	andi	s11,s8,1365
800004d0:	03b12423          	sw	s11,40(sp)
800004d4:	55500313          	li	t1,1365
800004d8:	01b30463          	beq	t1,s11,800004e0 <inst_30>
800004dc:	6580306f          	j	80003b34 <bad_trap>

800004e0 <inst_30>:
800004e0:	400005b7          	lui	a1,0x40000
800004e4:	aaa5ff93          	andi	t6,a1,-1366
800004e8:	03f12623          	sw	t6,44(sp)
800004ec:	40000337          	lui	t1,0x40000
800004f0:	01f30463          	beq	t1,t6,800004f8 <inst_31>
800004f4:	6400306f          	j	80003b34 <bad_trap>

800004f8 <inst_31>:
800004f8:	00200713          	li	a4,2
800004fc:	00877793          	andi	a5,a4,8
80000500:	02f12823          	sw	a5,48(sp)
80000504:	00000313          	li	t1,0
80000508:	00f30463          	beq	t1,a5,80000510 <inst_32>
8000050c:	6280306f          	j	80003b34 <bad_trap>

80000510 <inst_32>:
80000510:	00400513          	li	a0,4
80000514:	66757593          	andi	a1,a0,1639
80000518:	02b12a23          	sw	a1,52(sp)
8000051c:	00400313          	li	t1,4
80000520:	00b30463          	beq	t1,a1,80000528 <inst_33>
80000524:	6100306f          	j	80003b34 <bad_trap>

80000528 <inst_33>:
80000528:	00800513          	li	a0,8
8000052c:	33457593          	andi	a1,a0,820
80000530:	02b12c23          	sw	a1,56(sp)
80000534:	00000313          	li	t1,0
80000538:	00b30463          	beq	t1,a1,80000540 <inst_34>
8000053c:	5f80306f          	j	80003b34 <bad_trap>

80000540 <inst_34>:
80000540:	01000513          	li	a0,16
80000544:	02e57593          	andi	a1,a0,46
80000548:	02b12e23          	sw	a1,60(sp)
8000054c:	00000313          	li	t1,0
80000550:	00b30463          	beq	t1,a1,80000558 <inst_35>
80000554:	5e00306f          	j	80003b34 <bad_trap>

80000558 <inst_35>:
80000558:	02000513          	li	a0,32
8000055c:	01057593          	andi	a1,a0,16
80000560:	04b12023          	sw	a1,64(sp)
80000564:	00000313          	li	t1,0
80000568:	00b30463          	beq	t1,a1,80000570 <inst_36>
8000056c:	5c80306f          	j	80003b34 <bad_trap>

80000570 <inst_36>:
80000570:	40000513          	li	a0,1024
80000574:	fd457593          	andi	a1,a0,-44
80000578:	04b12223          	sw	a1,68(sp)
8000057c:	40000313          	li	t1,1024
80000580:	00b30463          	beq	t1,a1,80000588 <inst_37>
80000584:	5b00306f          	j	80003b34 <bad_trap>

80000588 <inst_37>:
80000588:	00001537          	lui	a0,0x1
8000058c:	80050513          	addi	a0,a0,-2048 # 800 <offset+0x784>
80000590:	fbf57593          	andi	a1,a0,-65
80000594:	04b12423          	sw	a1,72(sp)
80000598:	00001337          	lui	t1,0x1
8000059c:	80030313          	addi	t1,t1,-2048 # 800 <offset+0x784>
800005a0:	00b30463          	beq	t1,a1,800005a8 <inst_38>
800005a4:	5900306f          	j	80003b34 <bad_trap>

800005a8 <inst_38>:
800005a8:	00001537          	lui	a0,0x1
800005ac:	04057593          	andi	a1,a0,64
800005b0:	04b12623          	sw	a1,76(sp)
800005b4:	00000313          	li	t1,0
800005b8:	00b30463          	beq	t1,a1,800005c0 <inst_39>
800005bc:	5780306f          	j	80003b34 <bad_trap>

800005c0 <inst_39>:
800005c0:	00002537          	lui	a0,0x2
800005c4:	fd357593          	andi	a1,a0,-45
800005c8:	04b12823          	sw	a1,80(sp)
800005cc:	00002337          	lui	t1,0x2
800005d0:	00b30463          	beq	t1,a1,800005d8 <inst_40>
800005d4:	5600306f          	j	80003b34 <bad_trap>

800005d8 <inst_40>:
800005d8:	00008537          	lui	a0,0x8
800005dc:	aaa57593          	andi	a1,a0,-1366
800005e0:	04b12a23          	sw	a1,84(sp)
800005e4:	00008337          	lui	t1,0x8
800005e8:	00b30463          	beq	t1,a1,800005f0 <inst_41>
800005ec:	5480306f          	j	80003b34 <bad_trap>

800005f0 <inst_41>:
800005f0:	00010537          	lui	a0,0x10
800005f4:	33357593          	andi	a1,a0,819
800005f8:	04b12c23          	sw	a1,88(sp)
800005fc:	00000313          	li	t1,0
80000600:	00b30463          	beq	t1,a1,80000608 <inst_42>
80000604:	5300306f          	j	80003b34 <bad_trap>

80000608 <inst_42>:
80000608:	00020537          	lui	a0,0x20
8000060c:	33257593          	andi	a1,a0,818
80000610:	04b12e23          	sw	a1,92(sp)
80000614:	00000313          	li	t1,0
80000618:	00b30463          	beq	t1,a1,80000620 <inst_43>
8000061c:	5180306f          	j	80003b34 <bad_trap>

80000620 <inst_43>:
80000620:	00040537          	lui	a0,0x40
80000624:	55657593          	andi	a1,a0,1366
80000628:	06b12023          	sw	a1,96(sp)
8000062c:	00000313          	li	t1,0
80000630:	00b30463          	beq	t1,a1,80000638 <inst_44>
80000634:	5000306f          	j	80003b34 <bad_trap>

80000638 <inst_44>:
80000638:	00080537          	lui	a0,0x80
8000063c:	00457593          	andi	a1,a0,4
80000640:	06b12223          	sw	a1,100(sp)
80000644:	00000313          	li	t1,0
80000648:	00b30463          	beq	t1,a1,80000650 <inst_45>
8000064c:	4e80306f          	j	80003b34 <bad_trap>

80000650 <inst_45>:
80000650:	00100537          	lui	a0,0x100
80000654:	00557593          	andi	a1,a0,5
80000658:	06b12423          	sw	a1,104(sp)
8000065c:	00000313          	li	t1,0
80000660:	00b30463          	beq	t1,a1,80000668 <inst_46>
80000664:	4d00306f          	j	80003b34 <bad_trap>

80000668 <inst_46>:
80000668:	00400537          	lui	a0,0x400
8000066c:	fff57593          	andi	a1,a0,-1
80000670:	06b12623          	sw	a1,108(sp)
80000674:	00400337          	lui	t1,0x400
80000678:	00b30463          	beq	t1,a1,80000680 <inst_47>
8000067c:	4b80306f          	j	80003b34 <bad_trap>

80000680 <inst_47>:
80000680:	00800537          	lui	a0,0x800
80000684:	ffa57593          	andi	a1,a0,-6
80000688:	06b12823          	sw	a1,112(sp)
8000068c:	00800337          	lui	t1,0x800
80000690:	00b30463          	beq	t1,a1,80000698 <inst_48>
80000694:	4a00306f          	j	80003b34 <bad_trap>

80000698 <inst_48>:
80000698:	02000537          	lui	a0,0x2000
8000069c:	fd457593          	andi	a1,a0,-44
800006a0:	06b12a23          	sw	a1,116(sp)
800006a4:	02000337          	lui	t1,0x2000
800006a8:	00b30463          	beq	t1,a1,800006b0 <inst_49>
800006ac:	4880306f          	j	80003b34 <bad_trap>

800006b0 <inst_49>:
800006b0:	04000537          	lui	a0,0x4000
800006b4:	f7f57593          	andi	a1,a0,-129
800006b8:	06b12c23          	sw	a1,120(sp)
800006bc:	04000337          	lui	t1,0x4000
800006c0:	00b30463          	beq	t1,a1,800006c8 <inst_50>
800006c4:	4700306f          	j	80003b34 <bad_trap>

800006c8 <inst_50>:
800006c8:	08000537          	lui	a0,0x8000
800006cc:	00057593          	andi	a1,a0,0
800006d0:	06b12e23          	sw	a1,124(sp)
800006d4:	00000313          	li	t1,0
800006d8:	00b30463          	beq	t1,a1,800006e0 <inst_51>
800006dc:	4580306f          	j	80003b34 <bad_trap>

800006e0 <inst_51>:
800006e0:	10000537          	lui	a0,0x10000
800006e4:	00057593          	andi	a1,a0,0
800006e8:	08b12023          	sw	a1,128(sp)
800006ec:	00000313          	li	t1,0
800006f0:	00b30463          	beq	t1,a1,800006f8 <inst_52>
800006f4:	4400306f          	j	80003b34 <bad_trap>

800006f8 <inst_52>:
800006f8:	20000537          	lui	a0,0x20000
800006fc:	00457593          	andi	a1,a0,4
80000700:	08b12223          	sw	a1,132(sp)
80000704:	00000313          	li	t1,0
80000708:	00b30463          	beq	t1,a1,80000710 <inst_53>
8000070c:	4280306f          	j	80003b34 <bad_trap>

80000710 <inst_53>:
80000710:	ff700513          	li	a0,-9
80000714:	ffd57593          	andi	a1,a0,-3
80000718:	08b12423          	sw	a1,136(sp)
8000071c:	ff500313          	li	t1,-11
80000720:	00b30463          	beq	t1,a1,80000728 <inst_54>
80000724:	4100306f          	j	80003b34 <bad_trap>

80000728 <inst_54>:
80000728:	fef00513          	li	a0,-17
8000072c:	55657593          	andi	a1,a0,1366
80000730:	08b12623          	sw	a1,140(sp)
80000734:	54600313          	li	t1,1350
80000738:	00b30463          	beq	t1,a1,80000740 <inst_55>
8000073c:	3f80306f          	j	80003b34 <bad_trap>

80000740 <inst_55>:
80000740:	fdf00513          	li	a0,-33
80000744:	00457593          	andi	a1,a0,4
80000748:	08b12823          	sw	a1,144(sp)
8000074c:	00400313          	li	t1,4
80000750:	00b30463          	beq	t1,a1,80000758 <inst_56>
80000754:	3e00306f          	j	80003b34 <bad_trap>

80000758 <inst_56>:
80000758:	fbf00513          	li	a0,-65
8000075c:	00957593          	andi	a1,a0,9
80000760:	08b12a23          	sw	a1,148(sp)
80000764:	00900313          	li	t1,9
80000768:	00b30463          	beq	t1,a1,80000770 <inst_57>
8000076c:	3c80306f          	j	80003b34 <bad_trap>

80000770 <inst_57>:
80000770:	f7f00513          	li	a0,-129
80000774:	ffd57593          	andi	a1,a0,-3
80000778:	08b12c23          	sw	a1,152(sp)
8000077c:	f7d00313          	li	t1,-131
80000780:	00b30463          	beq	t1,a1,80000788 <inst_58>
80000784:	3b00306f          	j	80003b34 <bad_trap>

80000788 <inst_58>:
80000788:	eff00513          	li	a0,-257
8000078c:	33457593          	andi	a1,a0,820
80000790:	08b12e23          	sw	a1,156(sp)
80000794:	23400313          	li	t1,564
80000798:	00b30463          	beq	t1,a1,800007a0 <inst_59>
8000079c:	3980306f          	j	80003b34 <bad_trap>

800007a0 <inst_59>:
800007a0:	dff00513          	li	a0,-513
800007a4:	00057593          	andi	a1,a0,0
800007a8:	0ab12023          	sw	a1,160(sp)
800007ac:	00000313          	li	t1,0
800007b0:	00b30463          	beq	t1,a1,800007b8 <inst_60>
800007b4:	3800306f          	j	80003b34 <bad_trap>

800007b8 <inst_60>:
800007b8:	bff00513          	li	a0,-1025
800007bc:	04057593          	andi	a1,a0,64
800007c0:	0ab12223          	sw	a1,164(sp)
800007c4:	04000313          	li	t1,64
800007c8:	00b30463          	beq	t1,a1,800007d0 <inst_61>
800007cc:	3680306f          	j	80003b34 <bad_trap>

800007d0 <inst_61>:
800007d0:	fffff537          	lui	a0,0xfffff
800007d4:	7ff50513          	addi	a0,a0,2047 # fffff7ff <imm12+0xfffffd2f>
800007d8:	00957593          	andi	a1,a0,9
800007dc:	0ab12423          	sw	a1,168(sp)
800007e0:	00900313          	li	t1,9
800007e4:	00b30463          	beq	t1,a1,800007ec <inst_62>
800007e8:	34c0306f          	j	80003b34 <bad_trap>

800007ec <inst_62>:
800007ec:	ffffe537          	lui	a0,0xffffe
800007f0:	fff50513          	addi	a0,a0,-1 # ffffdfff <imm12+0xffffe52f>
800007f4:	66757593          	andi	a1,a0,1639
800007f8:	0ab12623          	sw	a1,172(sp)
800007fc:	66700313          	li	t1,1639
80000800:	00b30463          	beq	t1,a1,80000808 <inst_63>
80000804:	3300306f          	j	80003b34 <bad_trap>

80000808 <inst_63>:
80000808:	ffff0537          	lui	a0,0xffff0
8000080c:	fff50513          	addi	a0,a0,-1 # fffeffff <imm12+0xffff052f>
80000810:	7ff57593          	andi	a1,a0,2047
80000814:	0ab12823          	sw	a1,176(sp)
80000818:	7ff00313          	li	t1,2047
8000081c:	00b30463          	beq	t1,a1,80000824 <inst_64>
80000820:	3140306f          	j	80003b34 <bad_trap>

80000824 <inst_64>:
80000824:	fffc0537          	lui	a0,0xfffc0
80000828:	fff50513          	addi	a0,a0,-1 # fffbffff <imm12+0xfffc052f>
8000082c:	fd357593          	andi	a1,a0,-45
80000830:	0ab12a23          	sw	a1,180(sp)
80000834:	fffc0337          	lui	t1,0xfffc0
80000838:	fd330313          	addi	t1,t1,-45 # fffbffd3 <imm12+0xfffc0503>
8000083c:	00b30463          	beq	t1,a1,80000844 <inst_65>
80000840:	2f40306f          	j	80003b34 <bad_trap>

80000844 <inst_65>:
80000844:	fff80537          	lui	a0,0xfff80
80000848:	fff50513          	addi	a0,a0,-1 # fff7ffff <imm12+0xfff8052f>
8000084c:	20057593          	andi	a1,a0,512
80000850:	0ab12c23          	sw	a1,184(sp)
80000854:	20000313          	li	t1,512
80000858:	00b30463          	beq	t1,a1,80000860 <inst_66>
8000085c:	2d80306f          	j	80003b34 <bad_trap>

80000860 <inst_66>:
80000860:	ffe00537          	lui	a0,0xffe00
80000864:	fff50513          	addi	a0,a0,-1 # ffdfffff <imm12+0xffe0052f>
80000868:	fd457593          	andi	a1,a0,-44
8000086c:	0ab12e23          	sw	a1,188(sp)
80000870:	ffe00337          	lui	t1,0xffe00
80000874:	fd430313          	addi	t1,t1,-44 # ffdfffd4 <imm12+0xffe00504>
80000878:	00b30463          	beq	t1,a1,80000880 <inst_67>
8000087c:	2b80306f          	j	80003b34 <bad_trap>

80000880 <inst_67>:
80000880:	ffc00537          	lui	a0,0xffc00
80000884:	fff50513          	addi	a0,a0,-1 # ffbfffff <imm12+0xffc0052f>
80000888:	00557593          	andi	a1,a0,5
8000088c:	0cb12023          	sw	a1,192(sp)
80000890:	00500313          	li	t1,5
80000894:	00b30463          	beq	t1,a1,8000089c <inst_68>
80000898:	29c0306f          	j	80003b34 <bad_trap>

8000089c <inst_68>:
8000089c:	ff800537          	lui	a0,0xff800
800008a0:	fff50513          	addi	a0,a0,-1 # ff7fffff <imm12+0xff80052f>
800008a4:	00757593          	andi	a1,a0,7
800008a8:	0cb12223          	sw	a1,196(sp)
800008ac:	00700313          	li	t1,7
800008b0:	00b30463          	beq	t1,a1,800008b8 <inst_69>
800008b4:	2800306f          	j	80003b34 <bad_trap>

800008b8 <inst_69>:
800008b8:	ff000537          	lui	a0,0xff000
800008bc:	fff50513          	addi	a0,a0,-1 # feffffff <imm12+0xff00052f>
800008c0:	00657593          	andi	a1,a0,6
800008c4:	0cb12423          	sw	a1,200(sp)
800008c8:	00600313          	li	t1,6
800008cc:	00b30463          	beq	t1,a1,800008d4 <inst_70>
800008d0:	2640306f          	j	80003b34 <bad_trap>

800008d4 <inst_70>:
800008d4:	fc000537          	lui	a0,0xfc000
800008d8:	fff50513          	addi	a0,a0,-1 # fbffffff <imm12+0xfc00052f>
800008dc:	00857593          	andi	a1,a0,8
800008e0:	0cb12623          	sw	a1,204(sp)
800008e4:	00800313          	li	t1,8
800008e8:	00b30463          	beq	t1,a1,800008f0 <inst_71>
800008ec:	2480306f          	j	80003b34 <bad_trap>

800008f0 <inst_71>:
800008f0:	f8000537          	lui	a0,0xf8000
800008f4:	fff50513          	addi	a0,a0,-1 # f7ffffff <imm12+0xf800052f>
800008f8:	02e57593          	andi	a1,a0,46
800008fc:	0cb12823          	sw	a1,208(sp)
80000900:	02e00313          	li	t1,46
80000904:	00b30463          	beq	t1,a1,8000090c <inst_72>
80000908:	22c0306f          	j	80003b34 <bad_trap>

8000090c <inst_72>:
8000090c:	f0000537          	lui	a0,0xf0000
80000910:	fff50513          	addi	a0,a0,-1 # efffffff <imm12+0xf000052f>
80000914:	00157593          	andi	a1,a0,1
80000918:	0cb12a23          	sw	a1,212(sp)
8000091c:	00100313          	li	t1,1
80000920:	00b30463          	beq	t1,a1,80000928 <inst_73>
80000924:	2100306f          	j	80003b34 <bad_trap>

80000928 <inst_73>:
80000928:	e0000537          	lui	a0,0xe0000
8000092c:	fff50513          	addi	a0,a0,-1 # dfffffff <imm12+0xe000052f>
80000930:	fd457593          	andi	a1,a0,-44
80000934:	0cb12c23          	sw	a1,216(sp)
80000938:	e0000337          	lui	t1,0xe0000
8000093c:	fd430313          	addi	t1,t1,-44 # dfffffd4 <imm12+0xe0000504>
80000940:	00b30463          	beq	t1,a1,80000948 <inst_74>
80000944:	1f00306f          	j	80003b34 <bad_trap>

80000948 <inst_74>:
80000948:	c0000537          	lui	a0,0xc0000
8000094c:	fff50513          	addi	a0,a0,-1 # bfffffff <imm12+0xc000052f>
80000950:	55657593          	andi	a1,a0,1366
80000954:	0cb12e23          	sw	a1,220(sp)
80000958:	55600313          	li	t1,1366
8000095c:	00b30463          	beq	t1,a1,80000964 <inst_75>
80000960:	1d40306f          	j	80003b34 <bad_trap>

80000964 <inst_75>:
80000964:	55555537          	lui	a0,0x55555
80000968:	55550513          	addi	a0,a0,1365 # 55555555 <absimm+0x10263026>
8000096c:	ffb57593          	andi	a1,a0,-5
80000970:	0eb12023          	sw	a1,224(sp)
80000974:	55555337          	lui	t1,0x55555
80000978:	55130313          	addi	t1,t1,1361 # 55555551 <absimm+0x10263022>
8000097c:	00b30463          	beq	t1,a1,80000984 <inst_76>
80000980:	1b40306f          	j	80003b34 <bad_trap>

80000984 <inst_76>:
80000984:	aaaab537          	lui	a0,0xaaaab
80000988:	aaa50513          	addi	a0,a0,-1366 # aaaaaaaa <imm12+0xaaaaafda>
8000098c:	08057593          	andi	a1,a0,128
80000990:	0eb12223          	sw	a1,228(sp)
80000994:	08000313          	li	t1,128
80000998:	00b30463          	beq	t1,a1,800009a0 <inst_77>
8000099c:	1980306f          	j	80003b34 <bad_trap>

800009a0 <inst_77>:
800009a0:	00300513          	li	a0,3
800009a4:	00357593          	andi	a1,a0,3
800009a8:	0eb12423          	sw	a1,232(sp)
800009ac:	00300313          	li	t1,3
800009b0:	00b30463          	beq	t1,a1,800009b8 <inst_78>
800009b4:	1800306f          	j	80003b34 <bad_trap>

800009b8 <inst_78>:
800009b8:	00300513          	li	a0,3
800009bc:	55557593          	andi	a1,a0,1365
800009c0:	0eb12623          	sw	a1,236(sp)
800009c4:	00100313          	li	t1,1
800009c8:	00b30463          	beq	t1,a1,800009d0 <inst_79>
800009cc:	1680306f          	j	80003b34 <bad_trap>

800009d0 <inst_79>:
800009d0:	00300513          	li	a0,3
800009d4:	aaa57593          	andi	a1,a0,-1366
800009d8:	0eb12823          	sw	a1,240(sp)
800009dc:	00200313          	li	t1,2
800009e0:	00b30463          	beq	t1,a1,800009e8 <inst_80>
800009e4:	1500306f          	j	80003b34 <bad_trap>

800009e8 <inst_80>:
800009e8:	00300513          	li	a0,3
800009ec:	00557593          	andi	a1,a0,5
800009f0:	0eb12a23          	sw	a1,244(sp)
800009f4:	00100313          	li	t1,1
800009f8:	00b30463          	beq	t1,a1,80000a00 <inst_81>
800009fc:	1380306f          	j	80003b34 <bad_trap>

80000a00 <inst_81>:
80000a00:	00300513          	li	a0,3
80000a04:	33357593          	andi	a1,a0,819
80000a08:	0eb12c23          	sw	a1,248(sp)
80000a0c:	00300313          	li	t1,3
80000a10:	00b30463          	beq	t1,a1,80000a18 <inst_82>
80000a14:	1200306f          	j	80003b34 <bad_trap>

80000a18 <inst_82>:
80000a18:	00300513          	li	a0,3
80000a1c:	66657593          	andi	a1,a0,1638
80000a20:	0eb12e23          	sw	a1,252(sp)
80000a24:	00200313          	li	t1,2
80000a28:	00b30463          	beq	t1,a1,80000a30 <inst_83>
80000a2c:	1080306f          	j	80003b34 <bad_trap>

80000a30 <inst_83>:
80000a30:	00300513          	li	a0,3
80000a34:	fd357593          	andi	a1,a0,-45
80000a38:	10b12023          	sw	a1,256(sp)
80000a3c:	00300313          	li	t1,3
80000a40:	00b30463          	beq	t1,a1,80000a48 <inst_84>
80000a44:	0f00306f          	j	80003b34 <bad_trap>

80000a48 <inst_84>:
80000a48:	00300513          	li	a0,3
80000a4c:	02d57593          	andi	a1,a0,45
80000a50:	10b12223          	sw	a1,260(sp)
80000a54:	00100313          	li	t1,1
80000a58:	00b30463          	beq	t1,a1,80000a60 <inst_85>
80000a5c:	0d80306f          	j	80003b34 <bad_trap>

80000a60 <inst_85>:
80000a60:	00300513          	li	a0,3
80000a64:	00257593          	andi	a1,a0,2
80000a68:	10b12423          	sw	a1,264(sp)
80000a6c:	00200313          	li	t1,2
80000a70:	00b30463          	beq	t1,a1,80000a78 <inst_86>
80000a74:	0c00306f          	j	80003b34 <bad_trap>

80000a78 <inst_86>:
80000a78:	00300513          	li	a0,3
80000a7c:	55457593          	andi	a1,a0,1364
80000a80:	10b12623          	sw	a1,268(sp)
80000a84:	00000313          	li	t1,0
80000a88:	00b30463          	beq	t1,a1,80000a90 <inst_87>
80000a8c:	0a80306f          	j	80003b34 <bad_trap>

80000a90 <inst_87>:
80000a90:	00300513          	li	a0,3
80000a94:	00057593          	andi	a1,a0,0
80000a98:	10b12823          	sw	a1,272(sp)
80000a9c:	00000313          	li	t1,0
80000aa0:	00b30463          	beq	t1,a1,80000aa8 <inst_88>
80000aa4:	0900306f          	j	80003b34 <bad_trap>

80000aa8 <inst_88>:
80000aa8:	00300513          	li	a0,3
80000aac:	00457593          	andi	a1,a0,4
80000ab0:	10b12a23          	sw	a1,276(sp)
80000ab4:	00000313          	li	t1,0
80000ab8:	00b30463          	beq	t1,a1,80000ac0 <inst_89>
80000abc:	0780306f          	j	80003b34 <bad_trap>

80000ac0 <inst_89>:
80000ac0:	00300513          	li	a0,3
80000ac4:	33257593          	andi	a1,a0,818
80000ac8:	10b12c23          	sw	a1,280(sp)
80000acc:	00200313          	li	t1,2
80000ad0:	00b30463          	beq	t1,a1,80000ad8 <inst_90>
80000ad4:	0600306f          	j	80003b34 <bad_trap>

80000ad8 <inst_90>:
80000ad8:	00300513          	li	a0,3
80000adc:	66557593          	andi	a1,a0,1637
80000ae0:	10b12e23          	sw	a1,284(sp)
80000ae4:	00100313          	li	t1,1
80000ae8:	00b30463          	beq	t1,a1,80000af0 <inst_91>
80000aec:	0480306f          	j	80003b34 <bad_trap>

80000af0 <inst_91>:
80000af0:	00300513          	li	a0,3
80000af4:	02c57593          	andi	a1,a0,44
80000af8:	12b12023          	sw	a1,288(sp)
80000afc:	00000313          	li	t1,0
80000b00:	00b30463          	beq	t1,a1,80000b08 <inst_92>
80000b04:	0300306f          	j	80003b34 <bad_trap>

80000b08 <inst_92>:
80000b08:	00300513          	li	a0,3
80000b0c:	55657593          	andi	a1,a0,1366
80000b10:	12b12223          	sw	a1,292(sp)
80000b14:	00200313          	li	t1,2
80000b18:	00b30463          	beq	t1,a1,80000b20 <inst_93>
80000b1c:	0180306f          	j	80003b34 <bad_trap>

80000b20 <inst_93>:
80000b20:	00300513          	li	a0,3
80000b24:	aab57593          	andi	a1,a0,-1365
80000b28:	12b12423          	sw	a1,296(sp)
80000b2c:	00300313          	li	t1,3
80000b30:	00b30463          	beq	t1,a1,80000b38 <inst_94>
80000b34:	0000306f          	j	80003b34 <bad_trap>

80000b38 <inst_94>:
80000b38:	00300513          	li	a0,3
80000b3c:	00657593          	andi	a1,a0,6
80000b40:	12b12623          	sw	a1,300(sp)
80000b44:	00200313          	li	t1,2
80000b48:	00b30463          	beq	t1,a1,80000b50 <inst_95>
80000b4c:	7e90206f          	j	80003b34 <bad_trap>

80000b50 <inst_95>:
80000b50:	00300513          	li	a0,3
80000b54:	33457593          	andi	a1,a0,820
80000b58:	12b12823          	sw	a1,304(sp)
80000b5c:	00000313          	li	t1,0
80000b60:	00b30463          	beq	t1,a1,80000b68 <inst_96>
80000b64:	7d10206f          	j	80003b34 <bad_trap>

80000b68 <inst_96>:
80000b68:	00300513          	li	a0,3
80000b6c:	66757593          	andi	a1,a0,1639
80000b70:	12b12a23          	sw	a1,308(sp)
80000b74:	00300313          	li	t1,3
80000b78:	00b30463          	beq	t1,a1,80000b80 <inst_97>
80000b7c:	7b90206f          	j	80003b34 <bad_trap>

80000b80 <inst_97>:
80000b80:	00300513          	li	a0,3
80000b84:	fd457593          	andi	a1,a0,-44
80000b88:	12b12c23          	sw	a1,312(sp)
80000b8c:	00000313          	li	t1,0
80000b90:	00b30463          	beq	t1,a1,80000b98 <inst_98>
80000b94:	7a10206f          	j	80003b34 <bad_trap>

80000b98 <inst_98>:
80000b98:	00300513          	li	a0,3
80000b9c:	02e57593          	andi	a1,a0,46
80000ba0:	12b12e23          	sw	a1,316(sp)
80000ba4:	00200313          	li	t1,2
80000ba8:	00b30463          	beq	t1,a1,80000bb0 <inst_99>
80000bac:	7890206f          	j	80003b34 <bad_trap>

80000bb0 <inst_99>:
80000bb0:	55555537          	lui	a0,0x55555
80000bb4:	55550513          	addi	a0,a0,1365 # 55555555 <absimm+0x10263026>
80000bb8:	00357593          	andi	a1,a0,3
80000bbc:	14b12023          	sw	a1,320(sp)
80000bc0:	00100313          	li	t1,1
80000bc4:	00b30463          	beq	t1,a1,80000bcc <inst_100>
80000bc8:	76d0206f          	j	80003b34 <bad_trap>

80000bcc <inst_100>:
80000bcc:	55555537          	lui	a0,0x55555
80000bd0:	55550513          	addi	a0,a0,1365 # 55555555 <absimm+0x10263026>
80000bd4:	55557593          	andi	a1,a0,1365
80000bd8:	14b12223          	sw	a1,324(sp)
80000bdc:	55500313          	li	t1,1365
80000be0:	00b30463          	beq	t1,a1,80000be8 <inst_101>
80000be4:	7510206f          	j	80003b34 <bad_trap>

80000be8 <inst_101>:
80000be8:	55555537          	lui	a0,0x55555
80000bec:	55550513          	addi	a0,a0,1365 # 55555555 <absimm+0x10263026>
80000bf0:	aaa57593          	andi	a1,a0,-1366
80000bf4:	14b12423          	sw	a1,328(sp)
80000bf8:	55555337          	lui	t1,0x55555
80000bfc:	00b30463          	beq	t1,a1,80000c04 <inst_102>
80000c00:	7350206f          	j	80003b34 <bad_trap>

80000c04 <inst_102>:
80000c04:	55555537          	lui	a0,0x55555
80000c08:	55550513          	addi	a0,a0,1365 # 55555555 <absimm+0x10263026>
80000c0c:	00557593          	andi	a1,a0,5
80000c10:	14b12623          	sw	a1,332(sp)
80000c14:	00500313          	li	t1,5
80000c18:	00b30463          	beq	t1,a1,80000c20 <inst_103>
80000c1c:	7190206f          	j	80003b34 <bad_trap>

80000c20 <inst_103>:
80000c20:	55555537          	lui	a0,0x55555
80000c24:	55550513          	addi	a0,a0,1365 # 55555555 <absimm+0x10263026>
80000c28:	33357593          	andi	a1,a0,819
80000c2c:	14b12823          	sw	a1,336(sp)
80000c30:	11100313          	li	t1,273
80000c34:	00b30463          	beq	t1,a1,80000c3c <inst_104>
80000c38:	6fd0206f          	j	80003b34 <bad_trap>

80000c3c <inst_104>:
80000c3c:	55555537          	lui	a0,0x55555
80000c40:	55550513          	addi	a0,a0,1365 # 55555555 <absimm+0x10263026>
80000c44:	66657593          	andi	a1,a0,1638
80000c48:	14b12a23          	sw	a1,340(sp)
80000c4c:	44400313          	li	t1,1092
80000c50:	00b30463          	beq	t1,a1,80000c58 <inst_105>
80000c54:	6e10206f          	j	80003b34 <bad_trap>

80000c58 <inst_105>:
80000c58:	55555537          	lui	a0,0x55555
80000c5c:	55550513          	addi	a0,a0,1365 # 55555555 <absimm+0x10263026>
80000c60:	fd357593          	andi	a1,a0,-45
80000c64:	14b12c23          	sw	a1,344(sp)
80000c68:	55555337          	lui	t1,0x55555
80000c6c:	55130313          	addi	t1,t1,1361 # 55555551 <absimm+0x10263022>
80000c70:	00b30463          	beq	t1,a1,80000c78 <inst_106>
80000c74:	6c10206f          	j	80003b34 <bad_trap>

80000c78 <inst_106>:
80000c78:	55555537          	lui	a0,0x55555
80000c7c:	55550513          	addi	a0,a0,1365 # 55555555 <absimm+0x10263026>
80000c80:	02d57593          	andi	a1,a0,45
80000c84:	14b12e23          	sw	a1,348(sp)
80000c88:	00500313          	li	t1,5
80000c8c:	00b30463          	beq	t1,a1,80000c94 <inst_107>
80000c90:	6a50206f          	j	80003b34 <bad_trap>

80000c94 <inst_107>:
80000c94:	55555537          	lui	a0,0x55555
80000c98:	55550513          	addi	a0,a0,1365 # 55555555 <absimm+0x10263026>
80000c9c:	00257593          	andi	a1,a0,2
80000ca0:	16b12023          	sw	a1,352(sp)
80000ca4:	00000313          	li	t1,0
80000ca8:	00b30463          	beq	t1,a1,80000cb0 <inst_108>
80000cac:	6890206f          	j	80003b34 <bad_trap>

80000cb0 <inst_108>:
80000cb0:	55555537          	lui	a0,0x55555
80000cb4:	55550513          	addi	a0,a0,1365 # 55555555 <absimm+0x10263026>
80000cb8:	55457593          	andi	a1,a0,1364
80000cbc:	16b12223          	sw	a1,356(sp)
80000cc0:	55400313          	li	t1,1364
80000cc4:	00b30463          	beq	t1,a1,80000ccc <inst_109>
80000cc8:	66d0206f          	j	80003b34 <bad_trap>

80000ccc <inst_109>:
80000ccc:	55555537          	lui	a0,0x55555
80000cd0:	55550513          	addi	a0,a0,1365 # 55555555 <absimm+0x10263026>
80000cd4:	00057593          	andi	a1,a0,0
80000cd8:	16b12423          	sw	a1,360(sp)
80000cdc:	00000313          	li	t1,0
80000ce0:	00b30463          	beq	t1,a1,80000ce8 <inst_110>
80000ce4:	6510206f          	j	80003b34 <bad_trap>

80000ce8 <inst_110>:
80000ce8:	55555537          	lui	a0,0x55555
80000cec:	55550513          	addi	a0,a0,1365 # 55555555 <absimm+0x10263026>
80000cf0:	00457593          	andi	a1,a0,4
80000cf4:	16b12623          	sw	a1,364(sp)
80000cf8:	00400313          	li	t1,4
80000cfc:	00b30463          	beq	t1,a1,80000d04 <inst_111>
80000d00:	6350206f          	j	80003b34 <bad_trap>

80000d04 <inst_111>:
80000d04:	55555537          	lui	a0,0x55555
80000d08:	55550513          	addi	a0,a0,1365 # 55555555 <absimm+0x10263026>
80000d0c:	33257593          	andi	a1,a0,818
80000d10:	16b12823          	sw	a1,368(sp)
80000d14:	11000313          	li	t1,272
80000d18:	00b30463          	beq	t1,a1,80000d20 <inst_112>
80000d1c:	6190206f          	j	80003b34 <bad_trap>

80000d20 <inst_112>:
80000d20:	55555537          	lui	a0,0x55555
80000d24:	55550513          	addi	a0,a0,1365 # 55555555 <absimm+0x10263026>
80000d28:	66557593          	andi	a1,a0,1637
80000d2c:	16b12a23          	sw	a1,372(sp)
80000d30:	44500313          	li	t1,1093
80000d34:	00b30463          	beq	t1,a1,80000d3c <inst_113>
80000d38:	5fd0206f          	j	80003b34 <bad_trap>

80000d3c <inst_113>:
80000d3c:	55555537          	lui	a0,0x55555
80000d40:	55550513          	addi	a0,a0,1365 # 55555555 <absimm+0x10263026>
80000d44:	02c57593          	andi	a1,a0,44
80000d48:	16b12c23          	sw	a1,376(sp)
80000d4c:	00400313          	li	t1,4
80000d50:	00b30463          	beq	t1,a1,80000d58 <inst_114>
80000d54:	5e10206f          	j	80003b34 <bad_trap>

80000d58 <inst_114>:
80000d58:	55555537          	lui	a0,0x55555
80000d5c:	55550513          	addi	a0,a0,1365 # 55555555 <absimm+0x10263026>
80000d60:	55657593          	andi	a1,a0,1366
80000d64:	16b12e23          	sw	a1,380(sp)
80000d68:	55400313          	li	t1,1364
80000d6c:	00b30463          	beq	t1,a1,80000d74 <inst_115>
80000d70:	5c50206f          	j	80003b34 <bad_trap>

80000d74 <inst_115>:
80000d74:	55555537          	lui	a0,0x55555
80000d78:	55550513          	addi	a0,a0,1365 # 55555555 <absimm+0x10263026>
80000d7c:	aab57593          	andi	a1,a0,-1365
80000d80:	18b12023          	sw	a1,384(sp)
80000d84:	55555337          	lui	t1,0x55555
80000d88:	00130313          	addi	t1,t1,1 # 55555001 <absimm+0x10262ad2>
80000d8c:	00b30463          	beq	t1,a1,80000d94 <inst_116>
80000d90:	5a50206f          	j	80003b34 <bad_trap>

80000d94 <inst_116>:
80000d94:	55555537          	lui	a0,0x55555
80000d98:	55550513          	addi	a0,a0,1365 # 55555555 <absimm+0x10263026>
80000d9c:	00657593          	andi	a1,a0,6
80000da0:	18b12223          	sw	a1,388(sp)
80000da4:	00400313          	li	t1,4
80000da8:	00b30463          	beq	t1,a1,80000db0 <inst_117>
80000dac:	5890206f          	j	80003b34 <bad_trap>

80000db0 <inst_117>:
80000db0:	55555537          	lui	a0,0x55555
80000db4:	55550513          	addi	a0,a0,1365 # 55555555 <absimm+0x10263026>
80000db8:	33457593          	andi	a1,a0,820
80000dbc:	18b12423          	sw	a1,392(sp)
80000dc0:	11400313          	li	t1,276
80000dc4:	00b30463          	beq	t1,a1,80000dcc <inst_118>
80000dc8:	56d0206f          	j	80003b34 <bad_trap>

80000dcc <inst_118>:
80000dcc:	55555537          	lui	a0,0x55555
80000dd0:	55550513          	addi	a0,a0,1365 # 55555555 <absimm+0x10263026>
80000dd4:	66757593          	andi	a1,a0,1639
80000dd8:	18b12623          	sw	a1,396(sp)
80000ddc:	44500313          	li	t1,1093
80000de0:	00b30463          	beq	t1,a1,80000de8 <inst_119>
80000de4:	5510206f          	j	80003b34 <bad_trap>

80000de8 <inst_119>:
80000de8:	55555537          	lui	a0,0x55555
80000dec:	55550513          	addi	a0,a0,1365 # 55555555 <absimm+0x10263026>
80000df0:	fd457593          	andi	a1,a0,-44
80000df4:	18b12823          	sw	a1,400(sp)
80000df8:	55555337          	lui	t1,0x55555
80000dfc:	55430313          	addi	t1,t1,1364 # 55555554 <absimm+0x10263025>
80000e00:	00b30463          	beq	t1,a1,80000e08 <inst_120>
80000e04:	5310206f          	j	80003b34 <bad_trap>

80000e08 <inst_120>:
80000e08:	55555537          	lui	a0,0x55555
80000e0c:	55550513          	addi	a0,a0,1365 # 55555555 <absimm+0x10263026>
80000e10:	02e57593          	andi	a1,a0,46
80000e14:	18b12a23          	sw	a1,404(sp)
80000e18:	00400313          	li	t1,4
80000e1c:	00b30463          	beq	t1,a1,80000e24 <inst_121>
80000e20:	5150206f          	j	80003b34 <bad_trap>

80000e24 <inst_121>:
80000e24:	aaaab537          	lui	a0,0xaaaab
80000e28:	aaa50513          	addi	a0,a0,-1366 # aaaaaaaa <imm12+0xaaaaafda>
80000e2c:	00357593          	andi	a1,a0,3
80000e30:	18b12c23          	sw	a1,408(sp)
80000e34:	00200313          	li	t1,2
80000e38:	00b30463          	beq	t1,a1,80000e40 <inst_122>
80000e3c:	4f90206f          	j	80003b34 <bad_trap>

80000e40 <inst_122>:
80000e40:	aaaab537          	lui	a0,0xaaaab
80000e44:	aaa50513          	addi	a0,a0,-1366 # aaaaaaaa <imm12+0xaaaaafda>
80000e48:	55557593          	andi	a1,a0,1365
80000e4c:	18b12e23          	sw	a1,412(sp)
80000e50:	00000313          	li	t1,0
80000e54:	00b30463          	beq	t1,a1,80000e5c <inst_123>
80000e58:	4dd0206f          	j	80003b34 <bad_trap>

80000e5c <inst_123>:
80000e5c:	aaaab537          	lui	a0,0xaaaab
80000e60:	aaa50513          	addi	a0,a0,-1366 # aaaaaaaa <imm12+0xaaaaafda>
80000e64:	aaa57593          	andi	a1,a0,-1366
80000e68:	1ab12023          	sw	a1,416(sp)
80000e6c:	aaaab337          	lui	t1,0xaaaab
80000e70:	aaa30313          	addi	t1,t1,-1366 # aaaaaaaa <imm12+0xaaaaafda>
80000e74:	00b30463          	beq	t1,a1,80000e7c <inst_124>
80000e78:	4bd0206f          	j	80003b34 <bad_trap>

80000e7c <inst_124>:
80000e7c:	aaaab537          	lui	a0,0xaaaab
80000e80:	aaa50513          	addi	a0,a0,-1366 # aaaaaaaa <imm12+0xaaaaafda>
80000e84:	00557593          	andi	a1,a0,5
80000e88:	1ab12223          	sw	a1,420(sp)
80000e8c:	00000313          	li	t1,0
80000e90:	00b30463          	beq	t1,a1,80000e98 <inst_125>
80000e94:	4a10206f          	j	80003b34 <bad_trap>

80000e98 <inst_125>:
80000e98:	aaaab537          	lui	a0,0xaaaab
80000e9c:	aaa50513          	addi	a0,a0,-1366 # aaaaaaaa <imm12+0xaaaaafda>
80000ea0:	33357593          	andi	a1,a0,819
80000ea4:	1ab12423          	sw	a1,424(sp)
80000ea8:	22200313          	li	t1,546
80000eac:	00b30463          	beq	t1,a1,80000eb4 <inst_126>
80000eb0:	4850206f          	j	80003b34 <bad_trap>

80000eb4 <inst_126>:
80000eb4:	aaaab537          	lui	a0,0xaaaab
80000eb8:	aaa50513          	addi	a0,a0,-1366 # aaaaaaaa <imm12+0xaaaaafda>
80000ebc:	66657593          	andi	a1,a0,1638
80000ec0:	1ab12623          	sw	a1,428(sp)
80000ec4:	22200313          	li	t1,546
80000ec8:	00b30463          	beq	t1,a1,80000ed0 <inst_127>
80000ecc:	4690206f          	j	80003b34 <bad_trap>

80000ed0 <inst_127>:
80000ed0:	aaaab537          	lui	a0,0xaaaab
80000ed4:	aaa50513          	addi	a0,a0,-1366 # aaaaaaaa <imm12+0xaaaaafda>
80000ed8:	fd357593          	andi	a1,a0,-45
80000edc:	1ab12823          	sw	a1,432(sp)
80000ee0:	aaaab337          	lui	t1,0xaaaab
80000ee4:	a8230313          	addi	t1,t1,-1406 # aaaaaa82 <imm12+0xaaaaafb2>
80000ee8:	00b30463          	beq	t1,a1,80000ef0 <inst_128>
80000eec:	4490206f          	j	80003b34 <bad_trap>

80000ef0 <inst_128>:
80000ef0:	aaaab537          	lui	a0,0xaaaab
80000ef4:	aaa50513          	addi	a0,a0,-1366 # aaaaaaaa <imm12+0xaaaaafda>
80000ef8:	02d57593          	andi	a1,a0,45
80000efc:	1ab12a23          	sw	a1,436(sp)
80000f00:	02800313          	li	t1,40
80000f04:	00b30463          	beq	t1,a1,80000f0c <inst_129>
80000f08:	42d0206f          	j	80003b34 <bad_trap>

80000f0c <inst_129>:
80000f0c:	aaaab537          	lui	a0,0xaaaab
80000f10:	aaa50513          	addi	a0,a0,-1366 # aaaaaaaa <imm12+0xaaaaafda>
80000f14:	00257593          	andi	a1,a0,2
80000f18:	1ab12c23          	sw	a1,440(sp)
80000f1c:	00200313          	li	t1,2
80000f20:	00b30463          	beq	t1,a1,80000f28 <inst_130>
80000f24:	4110206f          	j	80003b34 <bad_trap>

80000f28 <inst_130>:
80000f28:	aaaab537          	lui	a0,0xaaaab
80000f2c:	aaa50513          	addi	a0,a0,-1366 # aaaaaaaa <imm12+0xaaaaafda>
80000f30:	55457593          	andi	a1,a0,1364
80000f34:	1ab12e23          	sw	a1,444(sp)
80000f38:	00000313          	li	t1,0
80000f3c:	00b30463          	beq	t1,a1,80000f44 <inst_131>
80000f40:	3f50206f          	j	80003b34 <bad_trap>

80000f44 <inst_131>:
80000f44:	aaaab537          	lui	a0,0xaaaab
80000f48:	aaa50513          	addi	a0,a0,-1366 # aaaaaaaa <imm12+0xaaaaafda>
80000f4c:	00057593          	andi	a1,a0,0
80000f50:	1cb12023          	sw	a1,448(sp)
80000f54:	00000313          	li	t1,0
80000f58:	00b30463          	beq	t1,a1,80000f60 <inst_132>
80000f5c:	3d90206f          	j	80003b34 <bad_trap>

80000f60 <inst_132>:
80000f60:	aaaab537          	lui	a0,0xaaaab
80000f64:	aaa50513          	addi	a0,a0,-1366 # aaaaaaaa <imm12+0xaaaaafda>
80000f68:	00457593          	andi	a1,a0,4
80000f6c:	1cb12223          	sw	a1,452(sp)
80000f70:	00000313          	li	t1,0
80000f74:	00b30463          	beq	t1,a1,80000f7c <inst_133>
80000f78:	3bd0206f          	j	80003b34 <bad_trap>

80000f7c <inst_133>:
80000f7c:	aaaab537          	lui	a0,0xaaaab
80000f80:	aaa50513          	addi	a0,a0,-1366 # aaaaaaaa <imm12+0xaaaaafda>
80000f84:	33257593          	andi	a1,a0,818
80000f88:	1cb12423          	sw	a1,456(sp)
80000f8c:	22200313          	li	t1,546
80000f90:	00b30463          	beq	t1,a1,80000f98 <inst_134>
80000f94:	3a10206f          	j	80003b34 <bad_trap>

80000f98 <inst_134>:
80000f98:	aaaab537          	lui	a0,0xaaaab
80000f9c:	aaa50513          	addi	a0,a0,-1366 # aaaaaaaa <imm12+0xaaaaafda>
80000fa0:	66557593          	andi	a1,a0,1637
80000fa4:	1cb12623          	sw	a1,460(sp)
80000fa8:	22000313          	li	t1,544
80000fac:	00b30463          	beq	t1,a1,80000fb4 <inst_135>
80000fb0:	3850206f          	j	80003b34 <bad_trap>

80000fb4 <inst_135>:
80000fb4:	aaaab537          	lui	a0,0xaaaab
80000fb8:	aaa50513          	addi	a0,a0,-1366 # aaaaaaaa <imm12+0xaaaaafda>
80000fbc:	02c57593          	andi	a1,a0,44
80000fc0:	1cb12823          	sw	a1,464(sp)
80000fc4:	02800313          	li	t1,40
80000fc8:	00b30463          	beq	t1,a1,80000fd0 <inst_136>
80000fcc:	3690206f          	j	80003b34 <bad_trap>

80000fd0 <inst_136>:
80000fd0:	aaaab537          	lui	a0,0xaaaab
80000fd4:	aaa50513          	addi	a0,a0,-1366 # aaaaaaaa <imm12+0xaaaaafda>
80000fd8:	55657593          	andi	a1,a0,1366
80000fdc:	1cb12a23          	sw	a1,468(sp)
80000fe0:	00200313          	li	t1,2
80000fe4:	00b30463          	beq	t1,a1,80000fec <inst_137>
80000fe8:	34d0206f          	j	80003b34 <bad_trap>

80000fec <inst_137>:
80000fec:	aaaab537          	lui	a0,0xaaaab
80000ff0:	aaa50513          	addi	a0,a0,-1366 # aaaaaaaa <imm12+0xaaaaafda>
80000ff4:	aab57593          	andi	a1,a0,-1365
80000ff8:	1cb12c23          	sw	a1,472(sp)
80000ffc:	aaaab337          	lui	t1,0xaaaab
80001000:	aaa30313          	addi	t1,t1,-1366 # aaaaaaaa <imm12+0xaaaaafda>
80001004:	00b30463          	beq	t1,a1,8000100c <inst_138>
80001008:	32d0206f          	j	80003b34 <bad_trap>

8000100c <inst_138>:
8000100c:	aaaab537          	lui	a0,0xaaaab
80001010:	aaa50513          	addi	a0,a0,-1366 # aaaaaaaa <imm12+0xaaaaafda>
80001014:	00657593          	andi	a1,a0,6
80001018:	1cb12e23          	sw	a1,476(sp)
8000101c:	00200313          	li	t1,2
80001020:	00b30463          	beq	t1,a1,80001028 <inst_139>
80001024:	3110206f          	j	80003b34 <bad_trap>

80001028 <inst_139>:
80001028:	aaaab537          	lui	a0,0xaaaab
8000102c:	aaa50513          	addi	a0,a0,-1366 # aaaaaaaa <imm12+0xaaaaafda>
80001030:	33457593          	andi	a1,a0,820
80001034:	1eb12023          	sw	a1,480(sp)
80001038:	22000313          	li	t1,544
8000103c:	00b30463          	beq	t1,a1,80001044 <inst_140>
80001040:	2f50206f          	j	80003b34 <bad_trap>

80001044 <inst_140>:
80001044:	aaaab537          	lui	a0,0xaaaab
80001048:	aaa50513          	addi	a0,a0,-1366 # aaaaaaaa <imm12+0xaaaaafda>
8000104c:	66757593          	andi	a1,a0,1639
80001050:	1eb12223          	sw	a1,484(sp)
80001054:	22200313          	li	t1,546
80001058:	00b30463          	beq	t1,a1,80001060 <inst_141>
8000105c:	2d90206f          	j	80003b34 <bad_trap>

80001060 <inst_141>:
80001060:	aaaab537          	lui	a0,0xaaaab
80001064:	aaa50513          	addi	a0,a0,-1366 # aaaaaaaa <imm12+0xaaaaafda>
80001068:	fd457593          	andi	a1,a0,-44
8000106c:	1eb12423          	sw	a1,488(sp)
80001070:	aaaab337          	lui	t1,0xaaaab
80001074:	a8030313          	addi	t1,t1,-1408 # aaaaaa80 <imm12+0xaaaaafb0>
80001078:	00b30463          	beq	t1,a1,80001080 <inst_142>
8000107c:	2b90206f          	j	80003b34 <bad_trap>

80001080 <inst_142>:
80001080:	aaaab537          	lui	a0,0xaaaab
80001084:	aaa50513          	addi	a0,a0,-1366 # aaaaaaaa <imm12+0xaaaaafda>
80001088:	02e57593          	andi	a1,a0,46
8000108c:	1eb12623          	sw	a1,492(sp)
80001090:	02a00313          	li	t1,42
80001094:	00b30463          	beq	t1,a1,8000109c <inst_143>
80001098:	29d0206f          	j	80003b34 <bad_trap>

8000109c <inst_143>:
8000109c:	00500513          	li	a0,5
800010a0:	00357593          	andi	a1,a0,3
800010a4:	1eb12823          	sw	a1,496(sp)
800010a8:	00100313          	li	t1,1
800010ac:	00b30463          	beq	t1,a1,800010b4 <inst_144>
800010b0:	2850206f          	j	80003b34 <bad_trap>

800010b4 <inst_144>:
800010b4:	00500513          	li	a0,5
800010b8:	55557593          	andi	a1,a0,1365
800010bc:	1eb12a23          	sw	a1,500(sp)
800010c0:	00500313          	li	t1,5
800010c4:	00b30463          	beq	t1,a1,800010cc <inst_145>
800010c8:	26d0206f          	j	80003b34 <bad_trap>

800010cc <inst_145>:
800010cc:	00500513          	li	a0,5
800010d0:	aaa57593          	andi	a1,a0,-1366
800010d4:	1eb12c23          	sw	a1,504(sp)
800010d8:	00000313          	li	t1,0
800010dc:	00b30463          	beq	t1,a1,800010e4 <inst_146>
800010e0:	2550206f          	j	80003b34 <bad_trap>

800010e4 <inst_146>:
800010e4:	00500513          	li	a0,5
800010e8:	00557593          	andi	a1,a0,5
800010ec:	1eb12e23          	sw	a1,508(sp)
800010f0:	00500313          	li	t1,5
800010f4:	00b30463          	beq	t1,a1,800010fc <inst_147>
800010f8:	23d0206f          	j	80003b34 <bad_trap>

800010fc <inst_147>:
800010fc:	00500513          	li	a0,5
80001100:	33357593          	andi	a1,a0,819
80001104:	20b12023          	sw	a1,512(sp)
80001108:	00100313          	li	t1,1
8000110c:	00b30463          	beq	t1,a1,80001114 <inst_148>
80001110:	2250206f          	j	80003b34 <bad_trap>

80001114 <inst_148>:
80001114:	00500513          	li	a0,5
80001118:	66657593          	andi	a1,a0,1638
8000111c:	20b12223          	sw	a1,516(sp)
80001120:	00400313          	li	t1,4
80001124:	00b30463          	beq	t1,a1,8000112c <inst_149>
80001128:	20d0206f          	j	80003b34 <bad_trap>

8000112c <inst_149>:
8000112c:	00500513          	li	a0,5
80001130:	fd357593          	andi	a1,a0,-45
80001134:	20b12423          	sw	a1,520(sp)
80001138:	00100313          	li	t1,1
8000113c:	00b30463          	beq	t1,a1,80001144 <inst_150>
80001140:	1f50206f          	j	80003b34 <bad_trap>

80001144 <inst_150>:
80001144:	00500513          	li	a0,5
80001148:	02d57593          	andi	a1,a0,45
8000114c:	20b12623          	sw	a1,524(sp)
80001150:	00500313          	li	t1,5
80001154:	00b30463          	beq	t1,a1,8000115c <inst_151>
80001158:	1dd0206f          	j	80003b34 <bad_trap>

8000115c <inst_151>:
8000115c:	00500513          	li	a0,5
80001160:	00257593          	andi	a1,a0,2
80001164:	20b12823          	sw	a1,528(sp)
80001168:	00000313          	li	t1,0
8000116c:	00b30463          	beq	t1,a1,80001174 <inst_152>
80001170:	1c50206f          	j	80003b34 <bad_trap>

80001174 <inst_152>:
80001174:	00500513          	li	a0,5
80001178:	55457593          	andi	a1,a0,1364
8000117c:	20b12a23          	sw	a1,532(sp)
80001180:	00400313          	li	t1,4
80001184:	00b30463          	beq	t1,a1,8000118c <inst_153>
80001188:	1ad0206f          	j	80003b34 <bad_trap>

8000118c <inst_153>:
8000118c:	00500513          	li	a0,5
80001190:	00057593          	andi	a1,a0,0
80001194:	20b12c23          	sw	a1,536(sp)
80001198:	00000313          	li	t1,0
8000119c:	00b30463          	beq	t1,a1,800011a4 <inst_154>
800011a0:	1950206f          	j	80003b34 <bad_trap>

800011a4 <inst_154>:
800011a4:	00500513          	li	a0,5
800011a8:	00457593          	andi	a1,a0,4
800011ac:	20b12e23          	sw	a1,540(sp)
800011b0:	00400313          	li	t1,4
800011b4:	00b30463          	beq	t1,a1,800011bc <inst_155>
800011b8:	17d0206f          	j	80003b34 <bad_trap>

800011bc <inst_155>:
800011bc:	00500513          	li	a0,5
800011c0:	33257593          	andi	a1,a0,818
800011c4:	22b12023          	sw	a1,544(sp)
800011c8:	00000313          	li	t1,0
800011cc:	00b30463          	beq	t1,a1,800011d4 <inst_156>
800011d0:	1650206f          	j	80003b34 <bad_trap>

800011d4 <inst_156>:
800011d4:	00500513          	li	a0,5
800011d8:	66557593          	andi	a1,a0,1637
800011dc:	22b12223          	sw	a1,548(sp)
800011e0:	00500313          	li	t1,5
800011e4:	00b30463          	beq	t1,a1,800011ec <inst_157>
800011e8:	14d0206f          	j	80003b34 <bad_trap>

800011ec <inst_157>:
800011ec:	00500513          	li	a0,5
800011f0:	02c57593          	andi	a1,a0,44
800011f4:	22b12423          	sw	a1,552(sp)
800011f8:	00400313          	li	t1,4
800011fc:	00b30463          	beq	t1,a1,80001204 <inst_158>
80001200:	1350206f          	j	80003b34 <bad_trap>

80001204 <inst_158>:
80001204:	00500513          	li	a0,5
80001208:	55657593          	andi	a1,a0,1366
8000120c:	22b12623          	sw	a1,556(sp)
80001210:	00400313          	li	t1,4
80001214:	00b30463          	beq	t1,a1,8000121c <inst_159>
80001218:	11d0206f          	j	80003b34 <bad_trap>

8000121c <inst_159>:
8000121c:	00500513          	li	a0,5
80001220:	aab57593          	andi	a1,a0,-1365
80001224:	22b12823          	sw	a1,560(sp)
80001228:	00100313          	li	t1,1
8000122c:	00b30463          	beq	t1,a1,80001234 <inst_160>
80001230:	1050206f          	j	80003b34 <bad_trap>

80001234 <inst_160>:
80001234:	00500513          	li	a0,5
80001238:	00657593          	andi	a1,a0,6
8000123c:	22b12a23          	sw	a1,564(sp)
80001240:	00400313          	li	t1,4
80001244:	00b30463          	beq	t1,a1,8000124c <inst_161>
80001248:	0ed0206f          	j	80003b34 <bad_trap>

8000124c <inst_161>:
8000124c:	00500513          	li	a0,5
80001250:	33457593          	andi	a1,a0,820
80001254:	22b12c23          	sw	a1,568(sp)
80001258:	00400313          	li	t1,4
8000125c:	00b30463          	beq	t1,a1,80001264 <inst_162>
80001260:	0d50206f          	j	80003b34 <bad_trap>

80001264 <inst_162>:
80001264:	00500513          	li	a0,5
80001268:	66757593          	andi	a1,a0,1639
8000126c:	22b12e23          	sw	a1,572(sp)
80001270:	00500313          	li	t1,5
80001274:	00b30463          	beq	t1,a1,8000127c <inst_163>
80001278:	0bd0206f          	j	80003b34 <bad_trap>

8000127c <inst_163>:
8000127c:	00500513          	li	a0,5
80001280:	fd457593          	andi	a1,a0,-44
80001284:	24b12023          	sw	a1,576(sp)
80001288:	00400313          	li	t1,4
8000128c:	00b30463          	beq	t1,a1,80001294 <inst_164>
80001290:	0a50206f          	j	80003b34 <bad_trap>

80001294 <inst_164>:
80001294:	00500513          	li	a0,5
80001298:	02e57593          	andi	a1,a0,46
8000129c:	24b12223          	sw	a1,580(sp)
800012a0:	00400313          	li	t1,4
800012a4:	00b30463          	beq	t1,a1,800012ac <inst_165>
800012a8:	08d0206f          	j	80003b34 <bad_trap>

800012ac <inst_165>:
800012ac:	33333537          	lui	a0,0x33333
800012b0:	33350513          	addi	a0,a0,819 # 33333333 <offset+0x333332b7>
800012b4:	00357593          	andi	a1,a0,3
800012b8:	24b12423          	sw	a1,584(sp)
800012bc:	00300313          	li	t1,3
800012c0:	00b30463          	beq	t1,a1,800012c8 <inst_166>
800012c4:	0710206f          	j	80003b34 <bad_trap>

800012c8 <inst_166>:
800012c8:	33333537          	lui	a0,0x33333
800012cc:	33350513          	addi	a0,a0,819 # 33333333 <offset+0x333332b7>
800012d0:	55557593          	andi	a1,a0,1365
800012d4:	24b12623          	sw	a1,588(sp)
800012d8:	11100313          	li	t1,273
800012dc:	00b30463          	beq	t1,a1,800012e4 <inst_167>
800012e0:	0550206f          	j	80003b34 <bad_trap>

800012e4 <inst_167>:
800012e4:	33333537          	lui	a0,0x33333
800012e8:	33350513          	addi	a0,a0,819 # 33333333 <offset+0x333332b7>
800012ec:	aaa57593          	andi	a1,a0,-1366
800012f0:	24b12823          	sw	a1,592(sp)
800012f4:	33333337          	lui	t1,0x33333
800012f8:	22230313          	addi	t1,t1,546 # 33333222 <offset+0x333331a6>
800012fc:	00b30463          	beq	t1,a1,80001304 <inst_168>
80001300:	0350206f          	j	80003b34 <bad_trap>

80001304 <inst_168>:
80001304:	33333537          	lui	a0,0x33333
80001308:	33350513          	addi	a0,a0,819 # 33333333 <offset+0x333332b7>
8000130c:	00557593          	andi	a1,a0,5
80001310:	24b12a23          	sw	a1,596(sp)
80001314:	00100313          	li	t1,1
80001318:	00b30463          	beq	t1,a1,80001320 <inst_169>
8000131c:	0190206f          	j	80003b34 <bad_trap>

80001320 <inst_169>:
80001320:	33333537          	lui	a0,0x33333
80001324:	33350513          	addi	a0,a0,819 # 33333333 <offset+0x333332b7>
80001328:	33357593          	andi	a1,a0,819
8000132c:	24b12c23          	sw	a1,600(sp)
80001330:	33300313          	li	t1,819
80001334:	00b30463          	beq	t1,a1,8000133c <inst_170>
80001338:	7fc0206f          	j	80003b34 <bad_trap>

8000133c <inst_170>:
8000133c:	33333537          	lui	a0,0x33333
80001340:	33350513          	addi	a0,a0,819 # 33333333 <offset+0x333332b7>
80001344:	66657593          	andi	a1,a0,1638
80001348:	24b12e23          	sw	a1,604(sp)
8000134c:	22200313          	li	t1,546
80001350:	00b30463          	beq	t1,a1,80001358 <inst_171>
80001354:	7e00206f          	j	80003b34 <bad_trap>

80001358 <inst_171>:
80001358:	33333537          	lui	a0,0x33333
8000135c:	33350513          	addi	a0,a0,819 # 33333333 <offset+0x333332b7>
80001360:	fd357593          	andi	a1,a0,-45
80001364:	26b12023          	sw	a1,608(sp)
80001368:	33333337          	lui	t1,0x33333
8000136c:	31330313          	addi	t1,t1,787 # 33333313 <offset+0x33333297>
80001370:	00b30463          	beq	t1,a1,80001378 <inst_172>
80001374:	7c00206f          	j	80003b34 <bad_trap>

80001378 <inst_172>:
80001378:	33333537          	lui	a0,0x33333
8000137c:	33350513          	addi	a0,a0,819 # 33333333 <offset+0x333332b7>
80001380:	02d57593          	andi	a1,a0,45
80001384:	26b12223          	sw	a1,612(sp)
80001388:	02100313          	li	t1,33
8000138c:	00b30463          	beq	t1,a1,80001394 <inst_173>
80001390:	7a40206f          	j	80003b34 <bad_trap>

80001394 <inst_173>:
80001394:	33333537          	lui	a0,0x33333
80001398:	33350513          	addi	a0,a0,819 # 33333333 <offset+0x333332b7>
8000139c:	00257593          	andi	a1,a0,2
800013a0:	26b12423          	sw	a1,616(sp)
800013a4:	00200313          	li	t1,2
800013a8:	00b30463          	beq	t1,a1,800013b0 <inst_174>
800013ac:	7880206f          	j	80003b34 <bad_trap>

800013b0 <inst_174>:
800013b0:	33333537          	lui	a0,0x33333
800013b4:	33350513          	addi	a0,a0,819 # 33333333 <offset+0x333332b7>
800013b8:	55457593          	andi	a1,a0,1364
800013bc:	26b12623          	sw	a1,620(sp)
800013c0:	11000313          	li	t1,272
800013c4:	00b30463          	beq	t1,a1,800013cc <inst_175>
800013c8:	76c0206f          	j	80003b34 <bad_trap>

800013cc <inst_175>:
800013cc:	33333537          	lui	a0,0x33333
800013d0:	33350513          	addi	a0,a0,819 # 33333333 <offset+0x333332b7>
800013d4:	00057593          	andi	a1,a0,0
800013d8:	26b12823          	sw	a1,624(sp)
800013dc:	00000313          	li	t1,0
800013e0:	00b30463          	beq	t1,a1,800013e8 <inst_176>
800013e4:	7500206f          	j	80003b34 <bad_trap>

800013e8 <inst_176>:
800013e8:	33333537          	lui	a0,0x33333
800013ec:	33350513          	addi	a0,a0,819 # 33333333 <offset+0x333332b7>
800013f0:	00457593          	andi	a1,a0,4
800013f4:	26b12a23          	sw	a1,628(sp)
800013f8:	00000313          	li	t1,0
800013fc:	00b30463          	beq	t1,a1,80001404 <inst_177>
80001400:	7340206f          	j	80003b34 <bad_trap>

80001404 <inst_177>:
80001404:	33333537          	lui	a0,0x33333
80001408:	33350513          	addi	a0,a0,819 # 33333333 <offset+0x333332b7>
8000140c:	33257593          	andi	a1,a0,818
80001410:	26b12c23          	sw	a1,632(sp)
80001414:	33200313          	li	t1,818
80001418:	00b30463          	beq	t1,a1,80001420 <inst_178>
8000141c:	7180206f          	j	80003b34 <bad_trap>

80001420 <inst_178>:
80001420:	33333537          	lui	a0,0x33333
80001424:	33350513          	addi	a0,a0,819 # 33333333 <offset+0x333332b7>
80001428:	66557593          	andi	a1,a0,1637
8000142c:	26b12e23          	sw	a1,636(sp)
80001430:	22100313          	li	t1,545
80001434:	00b30463          	beq	t1,a1,8000143c <inst_179>
80001438:	6fc0206f          	j	80003b34 <bad_trap>

8000143c <inst_179>:
8000143c:	33333537          	lui	a0,0x33333
80001440:	33350513          	addi	a0,a0,819 # 33333333 <offset+0x333332b7>
80001444:	02c57593          	andi	a1,a0,44
80001448:	28b12023          	sw	a1,640(sp)
8000144c:	02000313          	li	t1,32
80001450:	00b30463          	beq	t1,a1,80001458 <inst_180>
80001454:	6e00206f          	j	80003b34 <bad_trap>

80001458 <inst_180>:
80001458:	33333537          	lui	a0,0x33333
8000145c:	33350513          	addi	a0,a0,819 # 33333333 <offset+0x333332b7>
80001460:	55657593          	andi	a1,a0,1366
80001464:	28b12223          	sw	a1,644(sp)
80001468:	11200313          	li	t1,274
8000146c:	00b30463          	beq	t1,a1,80001474 <inst_181>
80001470:	6c40206f          	j	80003b34 <bad_trap>

80001474 <inst_181>:
80001474:	33333537          	lui	a0,0x33333
80001478:	33350513          	addi	a0,a0,819 # 33333333 <offset+0x333332b7>
8000147c:	aab57593          	andi	a1,a0,-1365
80001480:	28b12423          	sw	a1,648(sp)
80001484:	33333337          	lui	t1,0x33333
80001488:	22330313          	addi	t1,t1,547 # 33333223 <offset+0x333331a7>
8000148c:	00b30463          	beq	t1,a1,80001494 <inst_182>
80001490:	6a40206f          	j	80003b34 <bad_trap>

80001494 <inst_182>:
80001494:	33333537          	lui	a0,0x33333
80001498:	33350513          	addi	a0,a0,819 # 33333333 <offset+0x333332b7>
8000149c:	00657593          	andi	a1,a0,6
800014a0:	28b12623          	sw	a1,652(sp)
800014a4:	00200313          	li	t1,2
800014a8:	00b30463          	beq	t1,a1,800014b0 <inst_183>
800014ac:	6880206f          	j	80003b34 <bad_trap>

800014b0 <inst_183>:
800014b0:	33333537          	lui	a0,0x33333
800014b4:	33350513          	addi	a0,a0,819 # 33333333 <offset+0x333332b7>
800014b8:	33457593          	andi	a1,a0,820
800014bc:	28b12823          	sw	a1,656(sp)
800014c0:	33000313          	li	t1,816
800014c4:	00b30463          	beq	t1,a1,800014cc <inst_184>
800014c8:	66c0206f          	j	80003b34 <bad_trap>

800014cc <inst_184>:
800014cc:	33333537          	lui	a0,0x33333
800014d0:	33350513          	addi	a0,a0,819 # 33333333 <offset+0x333332b7>
800014d4:	66757593          	andi	a1,a0,1639
800014d8:	28b12a23          	sw	a1,660(sp)
800014dc:	22300313          	li	t1,547
800014e0:	00b30463          	beq	t1,a1,800014e8 <inst_185>
800014e4:	6500206f          	j	80003b34 <bad_trap>

800014e8 <inst_185>:
800014e8:	33333537          	lui	a0,0x33333
800014ec:	33350513          	addi	a0,a0,819 # 33333333 <offset+0x333332b7>
800014f0:	fd457593          	andi	a1,a0,-44
800014f4:	28b12c23          	sw	a1,664(sp)
800014f8:	33333337          	lui	t1,0x33333
800014fc:	31030313          	addi	t1,t1,784 # 33333310 <offset+0x33333294>
80001500:	00b30463          	beq	t1,a1,80001508 <inst_186>
80001504:	6300206f          	j	80003b34 <bad_trap>

80001508 <inst_186>:
80001508:	33333537          	lui	a0,0x33333
8000150c:	33350513          	addi	a0,a0,819 # 33333333 <offset+0x333332b7>
80001510:	02e57593          	andi	a1,a0,46
80001514:	28b12e23          	sw	a1,668(sp)
80001518:	02200313          	li	t1,34
8000151c:	00b30463          	beq	t1,a1,80001524 <inst_187>
80001520:	6140206f          	j	80003b34 <bad_trap>

80001524 <inst_187>:
80001524:	66666537          	lui	a0,0x66666
80001528:	66650513          	addi	a0,a0,1638 # 66666666 <absimm+0x21374137>
8000152c:	00357593          	andi	a1,a0,3
80001530:	2ab12023          	sw	a1,672(sp)
80001534:	00200313          	li	t1,2
80001538:	00b30463          	beq	t1,a1,80001540 <inst_188>
8000153c:	5f80206f          	j	80003b34 <bad_trap>

80001540 <inst_188>:
80001540:	66666537          	lui	a0,0x66666
80001544:	66650513          	addi	a0,a0,1638 # 66666666 <absimm+0x21374137>
80001548:	55557593          	andi	a1,a0,1365
8000154c:	2ab12223          	sw	a1,676(sp)
80001550:	44400313          	li	t1,1092
80001554:	00b30463          	beq	t1,a1,8000155c <inst_189>
80001558:	5dc0206f          	j	80003b34 <bad_trap>

8000155c <inst_189>:
8000155c:	66666537          	lui	a0,0x66666
80001560:	66650513          	addi	a0,a0,1638 # 66666666 <absimm+0x21374137>
80001564:	aaa57593          	andi	a1,a0,-1366
80001568:	2ab12423          	sw	a1,680(sp)
8000156c:	66666337          	lui	t1,0x66666
80001570:	22230313          	addi	t1,t1,546 # 66666222 <absimm+0x21373cf3>
80001574:	00b30463          	beq	t1,a1,8000157c <inst_190>
80001578:	5bc0206f          	j	80003b34 <bad_trap>

8000157c <inst_190>:
8000157c:	66666537          	lui	a0,0x66666
80001580:	66650513          	addi	a0,a0,1638 # 66666666 <absimm+0x21374137>
80001584:	00557593          	andi	a1,a0,5
80001588:	2ab12623          	sw	a1,684(sp)
8000158c:	00400313          	li	t1,4
80001590:	00b30463          	beq	t1,a1,80001598 <inst_191>
80001594:	5a00206f          	j	80003b34 <bad_trap>

80001598 <inst_191>:
80001598:	66666537          	lui	a0,0x66666
8000159c:	66650513          	addi	a0,a0,1638 # 66666666 <absimm+0x21374137>
800015a0:	33357593          	andi	a1,a0,819
800015a4:	2ab12823          	sw	a1,688(sp)
800015a8:	22200313          	li	t1,546
800015ac:	00b30463          	beq	t1,a1,800015b4 <inst_192>
800015b0:	5840206f          	j	80003b34 <bad_trap>

800015b4 <inst_192>:
800015b4:	66666537          	lui	a0,0x66666
800015b8:	66650513          	addi	a0,a0,1638 # 66666666 <absimm+0x21374137>
800015bc:	66657593          	andi	a1,a0,1638
800015c0:	2ab12a23          	sw	a1,692(sp)
800015c4:	66600313          	li	t1,1638
800015c8:	00b30463          	beq	t1,a1,800015d0 <inst_193>
800015cc:	5680206f          	j	80003b34 <bad_trap>

800015d0 <inst_193>:
800015d0:	66666537          	lui	a0,0x66666
800015d4:	66650513          	addi	a0,a0,1638 # 66666666 <absimm+0x21374137>
800015d8:	fd357593          	andi	a1,a0,-45
800015dc:	2ab12c23          	sw	a1,696(sp)
800015e0:	66666337          	lui	t1,0x66666
800015e4:	64230313          	addi	t1,t1,1602 # 66666642 <absimm+0x21374113>
800015e8:	00b30463          	beq	t1,a1,800015f0 <inst_194>
800015ec:	5480206f          	j	80003b34 <bad_trap>

800015f0 <inst_194>:
800015f0:	66666537          	lui	a0,0x66666
800015f4:	66650513          	addi	a0,a0,1638 # 66666666 <absimm+0x21374137>
800015f8:	02d57593          	andi	a1,a0,45
800015fc:	2ab12e23          	sw	a1,700(sp)
80001600:	02400313          	li	t1,36
80001604:	00b30463          	beq	t1,a1,8000160c <inst_195>
80001608:	52c0206f          	j	80003b34 <bad_trap>

8000160c <inst_195>:
8000160c:	66666537          	lui	a0,0x66666
80001610:	66650513          	addi	a0,a0,1638 # 66666666 <absimm+0x21374137>
80001614:	00257593          	andi	a1,a0,2
80001618:	2cb12023          	sw	a1,704(sp)
8000161c:	00200313          	li	t1,2
80001620:	00b30463          	beq	t1,a1,80001628 <inst_196>
80001624:	5100206f          	j	80003b34 <bad_trap>

80001628 <inst_196>:
80001628:	66666537          	lui	a0,0x66666
8000162c:	66650513          	addi	a0,a0,1638 # 66666666 <absimm+0x21374137>
80001630:	55457593          	andi	a1,a0,1364
80001634:	2cb12223          	sw	a1,708(sp)
80001638:	44400313          	li	t1,1092
8000163c:	00b30463          	beq	t1,a1,80001644 <inst_197>
80001640:	4f40206f          	j	80003b34 <bad_trap>

80001644 <inst_197>:
80001644:	66666537          	lui	a0,0x66666
80001648:	66650513          	addi	a0,a0,1638 # 66666666 <absimm+0x21374137>
8000164c:	00057593          	andi	a1,a0,0
80001650:	2cb12423          	sw	a1,712(sp)
80001654:	00000313          	li	t1,0
80001658:	00b30463          	beq	t1,a1,80001660 <inst_198>
8000165c:	4d80206f          	j	80003b34 <bad_trap>

80001660 <inst_198>:
80001660:	66666537          	lui	a0,0x66666
80001664:	66650513          	addi	a0,a0,1638 # 66666666 <absimm+0x21374137>
80001668:	00457593          	andi	a1,a0,4
8000166c:	2cb12623          	sw	a1,716(sp)
80001670:	00400313          	li	t1,4
80001674:	00b30463          	beq	t1,a1,8000167c <inst_199>
80001678:	4bc0206f          	j	80003b34 <bad_trap>

8000167c <inst_199>:
8000167c:	66666537          	lui	a0,0x66666
80001680:	66650513          	addi	a0,a0,1638 # 66666666 <absimm+0x21374137>
80001684:	33257593          	andi	a1,a0,818
80001688:	2cb12823          	sw	a1,720(sp)
8000168c:	22200313          	li	t1,546
80001690:	00b30463          	beq	t1,a1,80001698 <inst_200>
80001694:	4a00206f          	j	80003b34 <bad_trap>

80001698 <inst_200>:
80001698:	66666537          	lui	a0,0x66666
8000169c:	66650513          	addi	a0,a0,1638 # 66666666 <absimm+0x21374137>
800016a0:	66557593          	andi	a1,a0,1637
800016a4:	2cb12a23          	sw	a1,724(sp)
800016a8:	66400313          	li	t1,1636
800016ac:	00b30463          	beq	t1,a1,800016b4 <inst_201>
800016b0:	4840206f          	j	80003b34 <bad_trap>

800016b4 <inst_201>:
800016b4:	66666537          	lui	a0,0x66666
800016b8:	66650513          	addi	a0,a0,1638 # 66666666 <absimm+0x21374137>
800016bc:	02c57593          	andi	a1,a0,44
800016c0:	2cb12c23          	sw	a1,728(sp)
800016c4:	02400313          	li	t1,36
800016c8:	00b30463          	beq	t1,a1,800016d0 <inst_202>
800016cc:	4680206f          	j	80003b34 <bad_trap>

800016d0 <inst_202>:
800016d0:	66666537          	lui	a0,0x66666
800016d4:	66650513          	addi	a0,a0,1638 # 66666666 <absimm+0x21374137>
800016d8:	55657593          	andi	a1,a0,1366
800016dc:	2cb12e23          	sw	a1,732(sp)
800016e0:	44600313          	li	t1,1094
800016e4:	00b30463          	beq	t1,a1,800016ec <inst_203>
800016e8:	44c0206f          	j	80003b34 <bad_trap>

800016ec <inst_203>:
800016ec:	66666537          	lui	a0,0x66666
800016f0:	66650513          	addi	a0,a0,1638 # 66666666 <absimm+0x21374137>
800016f4:	aab57593          	andi	a1,a0,-1365
800016f8:	2eb12023          	sw	a1,736(sp)
800016fc:	66666337          	lui	t1,0x66666
80001700:	22230313          	addi	t1,t1,546 # 66666222 <absimm+0x21373cf3>
80001704:	00b30463          	beq	t1,a1,8000170c <inst_204>
80001708:	42c0206f          	j	80003b34 <bad_trap>

8000170c <inst_204>:
8000170c:	66666537          	lui	a0,0x66666
80001710:	66650513          	addi	a0,a0,1638 # 66666666 <absimm+0x21374137>
80001714:	00657593          	andi	a1,a0,6
80001718:	2eb12223          	sw	a1,740(sp)
8000171c:	00600313          	li	t1,6
80001720:	00b30463          	beq	t1,a1,80001728 <inst_205>
80001724:	4100206f          	j	80003b34 <bad_trap>

80001728 <inst_205>:
80001728:	66666537          	lui	a0,0x66666
8000172c:	66650513          	addi	a0,a0,1638 # 66666666 <absimm+0x21374137>
80001730:	33457593          	andi	a1,a0,820
80001734:	2eb12423          	sw	a1,744(sp)
80001738:	22400313          	li	t1,548
8000173c:	00b30463          	beq	t1,a1,80001744 <inst_206>
80001740:	3f40206f          	j	80003b34 <bad_trap>

80001744 <inst_206>:
80001744:	66666537          	lui	a0,0x66666
80001748:	66650513          	addi	a0,a0,1638 # 66666666 <absimm+0x21374137>
8000174c:	66757593          	andi	a1,a0,1639
80001750:	2eb12623          	sw	a1,748(sp)
80001754:	66600313          	li	t1,1638
80001758:	00b30463          	beq	t1,a1,80001760 <inst_207>
8000175c:	3d80206f          	j	80003b34 <bad_trap>

80001760 <inst_207>:
80001760:	66666537          	lui	a0,0x66666
80001764:	66650513          	addi	a0,a0,1638 # 66666666 <absimm+0x21374137>
80001768:	fd457593          	andi	a1,a0,-44
8000176c:	2eb12823          	sw	a1,752(sp)
80001770:	66666337          	lui	t1,0x66666
80001774:	64430313          	addi	t1,t1,1604 # 66666644 <absimm+0x21374115>
80001778:	00b30463          	beq	t1,a1,80001780 <inst_208>
8000177c:	3b80206f          	j	80003b34 <bad_trap>

80001780 <inst_208>:
80001780:	66666537          	lui	a0,0x66666
80001784:	66650513          	addi	a0,a0,1638 # 66666666 <absimm+0x21374137>
80001788:	02e57593          	andi	a1,a0,46
8000178c:	2eb12a23          	sw	a1,756(sp)
80001790:	02600313          	li	t1,38
80001794:	00b30463          	beq	t1,a1,8000179c <inst_209>
80001798:	39c0206f          	j	80003b34 <bad_trap>

8000179c <inst_209>:
8000179c:	ffff5537          	lui	a0,0xffff5
800017a0:	afc50513          	addi	a0,a0,-1284 # ffff4afc <imm12+0xffff502c>
800017a4:	00357593          	andi	a1,a0,3
800017a8:	2eb12c23          	sw	a1,760(sp)
800017ac:	00000313          	li	t1,0
800017b0:	00b30463          	beq	t1,a1,800017b8 <inst_210>
800017b4:	3800206f          	j	80003b34 <bad_trap>

800017b8 <inst_210>:
800017b8:	ffff5537          	lui	a0,0xffff5
800017bc:	afc50513          	addi	a0,a0,-1284 # ffff4afc <imm12+0xffff502c>
800017c0:	55557593          	andi	a1,a0,1365
800017c4:	2eb12e23          	sw	a1,764(sp)
800017c8:	05400313          	li	t1,84
800017cc:	00b30463          	beq	t1,a1,800017d4 <inst_211>
800017d0:	3640206f          	j	80003b34 <bad_trap>

800017d4 <inst_211>:
800017d4:	ffff5537          	lui	a0,0xffff5
800017d8:	afc50513          	addi	a0,a0,-1284 # ffff4afc <imm12+0xffff502c>
800017dc:	aaa57593          	andi	a1,a0,-1366
800017e0:	30b12023          	sw	a1,768(sp)
800017e4:	ffff5337          	lui	t1,0xffff5
800017e8:	aa830313          	addi	t1,t1,-1368 # ffff4aa8 <imm12+0xffff4fd8>
800017ec:	00b30463          	beq	t1,a1,800017f4 <inst_212>
800017f0:	3440206f          	j	80003b34 <bad_trap>

800017f4 <inst_212>:
800017f4:	ffff5537          	lui	a0,0xffff5
800017f8:	afc50513          	addi	a0,a0,-1284 # ffff4afc <imm12+0xffff502c>
800017fc:	00557593          	andi	a1,a0,5
80001800:	30b12223          	sw	a1,772(sp)
80001804:	00400313          	li	t1,4
80001808:	00b30463          	beq	t1,a1,80001810 <inst_213>
8000180c:	3280206f          	j	80003b34 <bad_trap>

80001810 <inst_213>:
80001810:	ffff5537          	lui	a0,0xffff5
80001814:	afc50513          	addi	a0,a0,-1284 # ffff4afc <imm12+0xffff502c>
80001818:	33357593          	andi	a1,a0,819
8000181c:	30b12423          	sw	a1,776(sp)
80001820:	23000313          	li	t1,560
80001824:	00b30463          	beq	t1,a1,8000182c <inst_214>
80001828:	30c0206f          	j	80003b34 <bad_trap>

8000182c <inst_214>:
8000182c:	ffff5537          	lui	a0,0xffff5
80001830:	afc50513          	addi	a0,a0,-1284 # ffff4afc <imm12+0xffff502c>
80001834:	66657593          	andi	a1,a0,1638
80001838:	30b12623          	sw	a1,780(sp)
8000183c:	26400313          	li	t1,612
80001840:	00b30463          	beq	t1,a1,80001848 <inst_215>
80001844:	2f00206f          	j	80003b34 <bad_trap>

80001848 <inst_215>:
80001848:	ffff5537          	lui	a0,0xffff5
8000184c:	afc50513          	addi	a0,a0,-1284 # ffff4afc <imm12+0xffff502c>
80001850:	fd357593          	andi	a1,a0,-45
80001854:	30b12823          	sw	a1,784(sp)
80001858:	ffff5337          	lui	t1,0xffff5
8000185c:	ad030313          	addi	t1,t1,-1328 # ffff4ad0 <imm12+0xffff5000>
80001860:	00b30463          	beq	t1,a1,80001868 <inst_216>
80001864:	2d00206f          	j	80003b34 <bad_trap>

80001868 <inst_216>:
80001868:	ffff5537          	lui	a0,0xffff5
8000186c:	afc50513          	addi	a0,a0,-1284 # ffff4afc <imm12+0xffff502c>
80001870:	02d57593          	andi	a1,a0,45
80001874:	30b12a23          	sw	a1,788(sp)
80001878:	02c00313          	li	t1,44
8000187c:	00b30463          	beq	t1,a1,80001884 <inst_217>
80001880:	2b40206f          	j	80003b34 <bad_trap>

80001884 <inst_217>:
80001884:	ffff5537          	lui	a0,0xffff5
80001888:	afc50513          	addi	a0,a0,-1284 # ffff4afc <imm12+0xffff502c>
8000188c:	00257593          	andi	a1,a0,2
80001890:	30b12c23          	sw	a1,792(sp)
80001894:	00000313          	li	t1,0
80001898:	00b30463          	beq	t1,a1,800018a0 <inst_218>
8000189c:	2980206f          	j	80003b34 <bad_trap>

800018a0 <inst_218>:
800018a0:	ffff5537          	lui	a0,0xffff5
800018a4:	afc50513          	addi	a0,a0,-1284 # ffff4afc <imm12+0xffff502c>
800018a8:	55457593          	andi	a1,a0,1364
800018ac:	30b12e23          	sw	a1,796(sp)
800018b0:	05400313          	li	t1,84
800018b4:	00b30463          	beq	t1,a1,800018bc <inst_219>
800018b8:	27c0206f          	j	80003b34 <bad_trap>

800018bc <inst_219>:
800018bc:	ffff5537          	lui	a0,0xffff5
800018c0:	afc50513          	addi	a0,a0,-1284 # ffff4afc <imm12+0xffff502c>
800018c4:	00057593          	andi	a1,a0,0
800018c8:	32b12023          	sw	a1,800(sp)
800018cc:	00000313          	li	t1,0
800018d0:	00b30463          	beq	t1,a1,800018d8 <inst_220>
800018d4:	2600206f          	j	80003b34 <bad_trap>

800018d8 <inst_220>:
800018d8:	ffff5537          	lui	a0,0xffff5
800018dc:	afc50513          	addi	a0,a0,-1284 # ffff4afc <imm12+0xffff502c>
800018e0:	00457593          	andi	a1,a0,4
800018e4:	32b12223          	sw	a1,804(sp)
800018e8:	00400313          	li	t1,4
800018ec:	00b30463          	beq	t1,a1,800018f4 <inst_221>
800018f0:	2440206f          	j	80003b34 <bad_trap>

800018f4 <inst_221>:
800018f4:	ffff5537          	lui	a0,0xffff5
800018f8:	afc50513          	addi	a0,a0,-1284 # ffff4afc <imm12+0xffff502c>
800018fc:	33257593          	andi	a1,a0,818
80001900:	32b12423          	sw	a1,808(sp)
80001904:	23000313          	li	t1,560
80001908:	00b30463          	beq	t1,a1,80001910 <inst_222>
8000190c:	2280206f          	j	80003b34 <bad_trap>

80001910 <inst_222>:
80001910:	ffff5537          	lui	a0,0xffff5
80001914:	afc50513          	addi	a0,a0,-1284 # ffff4afc <imm12+0xffff502c>
80001918:	66557593          	andi	a1,a0,1637
8000191c:	32b12623          	sw	a1,812(sp)
80001920:	26400313          	li	t1,612
80001924:	00b30463          	beq	t1,a1,8000192c <inst_223>
80001928:	20c0206f          	j	80003b34 <bad_trap>

8000192c <inst_223>:
8000192c:	ffff5537          	lui	a0,0xffff5
80001930:	afc50513          	addi	a0,a0,-1284 # ffff4afc <imm12+0xffff502c>
80001934:	02c57593          	andi	a1,a0,44
80001938:	32b12823          	sw	a1,816(sp)
8000193c:	02c00313          	li	t1,44
80001940:	00b30463          	beq	t1,a1,80001948 <inst_224>
80001944:	1f00206f          	j	80003b34 <bad_trap>

80001948 <inst_224>:
80001948:	ffff5537          	lui	a0,0xffff5
8000194c:	afc50513          	addi	a0,a0,-1284 # ffff4afc <imm12+0xffff502c>
80001950:	55657593          	andi	a1,a0,1366
80001954:	32b12a23          	sw	a1,820(sp)
80001958:	05400313          	li	t1,84
8000195c:	00b30463          	beq	t1,a1,80001964 <inst_225>
80001960:	1d40206f          	j	80003b34 <bad_trap>

80001964 <inst_225>:
80001964:	ffff5537          	lui	a0,0xffff5
80001968:	afc50513          	addi	a0,a0,-1284 # ffff4afc <imm12+0xffff502c>
8000196c:	aab57593          	andi	a1,a0,-1365
80001970:	32b12c23          	sw	a1,824(sp)
80001974:	ffff5337          	lui	t1,0xffff5
80001978:	aa830313          	addi	t1,t1,-1368 # ffff4aa8 <imm12+0xffff4fd8>
8000197c:	00b30463          	beq	t1,a1,80001984 <inst_226>
80001980:	1b40206f          	j	80003b34 <bad_trap>

80001984 <inst_226>:
80001984:	ffff5537          	lui	a0,0xffff5
80001988:	afc50513          	addi	a0,a0,-1284 # ffff4afc <imm12+0xffff502c>
8000198c:	00657593          	andi	a1,a0,6
80001990:	32b12e23          	sw	a1,828(sp)
80001994:	00400313          	li	t1,4
80001998:	00b30463          	beq	t1,a1,800019a0 <inst_227>
8000199c:	1980206f          	j	80003b34 <bad_trap>

800019a0 <inst_227>:
800019a0:	ffff5537          	lui	a0,0xffff5
800019a4:	afc50513          	addi	a0,a0,-1284 # ffff4afc <imm12+0xffff502c>
800019a8:	33457593          	andi	a1,a0,820
800019ac:	34b12023          	sw	a1,832(sp)
800019b0:	23400313          	li	t1,564
800019b4:	00b30463          	beq	t1,a1,800019bc <inst_228>
800019b8:	17c0206f          	j	80003b34 <bad_trap>

800019bc <inst_228>:
800019bc:	ffff5537          	lui	a0,0xffff5
800019c0:	afc50513          	addi	a0,a0,-1284 # ffff4afc <imm12+0xffff502c>
800019c4:	66757593          	andi	a1,a0,1639
800019c8:	34b12223          	sw	a1,836(sp)
800019cc:	26400313          	li	t1,612
800019d0:	00b30463          	beq	t1,a1,800019d8 <inst_229>
800019d4:	1600206f          	j	80003b34 <bad_trap>

800019d8 <inst_229>:
800019d8:	ffff5537          	lui	a0,0xffff5
800019dc:	afc50513          	addi	a0,a0,-1284 # ffff4afc <imm12+0xffff502c>
800019e0:	fd457593          	andi	a1,a0,-44
800019e4:	34b12423          	sw	a1,840(sp)
800019e8:	ffff5337          	lui	t1,0xffff5
800019ec:	ad430313          	addi	t1,t1,-1324 # ffff4ad4 <imm12+0xffff5004>
800019f0:	00b30463          	beq	t1,a1,800019f8 <inst_230>
800019f4:	1400206f          	j	80003b34 <bad_trap>

800019f8 <inst_230>:
800019f8:	ffff5537          	lui	a0,0xffff5
800019fc:	afc50513          	addi	a0,a0,-1284 # ffff4afc <imm12+0xffff502c>
80001a00:	02e57593          	andi	a1,a0,46
80001a04:	34b12623          	sw	a1,844(sp)
80001a08:	02c00313          	li	t1,44
80001a0c:	00b30463          	beq	t1,a1,80001a14 <inst_231>
80001a10:	1240206f          	j	80003b34 <bad_trap>

80001a14 <inst_231>:
80001a14:	0000b537          	lui	a0,0xb
80001a18:	50450513          	addi	a0,a0,1284 # b504 <offset+0xb488>
80001a1c:	00357593          	andi	a1,a0,3
80001a20:	34b12823          	sw	a1,848(sp)
80001a24:	00000313          	li	t1,0
80001a28:	00b30463          	beq	t1,a1,80001a30 <inst_232>
80001a2c:	1080206f          	j	80003b34 <bad_trap>

80001a30 <inst_232>:
80001a30:	0000b537          	lui	a0,0xb
80001a34:	50450513          	addi	a0,a0,1284 # b504 <offset+0xb488>
80001a38:	55557593          	andi	a1,a0,1365
80001a3c:	34b12a23          	sw	a1,852(sp)
80001a40:	50400313          	li	t1,1284
80001a44:	00b30463          	beq	t1,a1,80001a4c <inst_233>
80001a48:	0ec0206f          	j	80003b34 <bad_trap>

80001a4c <inst_233>:
80001a4c:	0000b537          	lui	a0,0xb
80001a50:	50450513          	addi	a0,a0,1284 # b504 <offset+0xb488>
80001a54:	aaa57593          	andi	a1,a0,-1366
80001a58:	34b12c23          	sw	a1,856(sp)
80001a5c:	0000b337          	lui	t1,0xb
80001a60:	00b30463          	beq	t1,a1,80001a68 <inst_234>
80001a64:	0d00206f          	j	80003b34 <bad_trap>

80001a68 <inst_234>:
80001a68:	0000b537          	lui	a0,0xb
80001a6c:	50450513          	addi	a0,a0,1284 # b504 <offset+0xb488>
80001a70:	00557593          	andi	a1,a0,5
80001a74:	34b12e23          	sw	a1,860(sp)
80001a78:	00400313          	li	t1,4
80001a7c:	00b30463          	beq	t1,a1,80001a84 <inst_235>
80001a80:	0b40206f          	j	80003b34 <bad_trap>

80001a84 <inst_235>:
80001a84:	0000b537          	lui	a0,0xb
80001a88:	50450513          	addi	a0,a0,1284 # b504 <offset+0xb488>
80001a8c:	33357593          	andi	a1,a0,819
80001a90:	36b12023          	sw	a1,864(sp)
80001a94:	10000313          	li	t1,256
80001a98:	00b30463          	beq	t1,a1,80001aa0 <inst_236>
80001a9c:	0980206f          	j	80003b34 <bad_trap>

80001aa0 <inst_236>:
80001aa0:	0000b537          	lui	a0,0xb
80001aa4:	50450513          	addi	a0,a0,1284 # b504 <offset+0xb488>
80001aa8:	66657593          	andi	a1,a0,1638
80001aac:	36b12223          	sw	a1,868(sp)
80001ab0:	40400313          	li	t1,1028
80001ab4:	00b30463          	beq	t1,a1,80001abc <inst_237>
80001ab8:	07c0206f          	j	80003b34 <bad_trap>

80001abc <inst_237>:
80001abc:	0000b537          	lui	a0,0xb
80001ac0:	50450513          	addi	a0,a0,1284 # b504 <offset+0xb488>
80001ac4:	fd357593          	andi	a1,a0,-45
80001ac8:	36b12423          	sw	a1,872(sp)
80001acc:	0000b337          	lui	t1,0xb
80001ad0:	50030313          	addi	t1,t1,1280 # b500 <offset+0xb484>
80001ad4:	00b30463          	beq	t1,a1,80001adc <inst_238>
80001ad8:	05c0206f          	j	80003b34 <bad_trap>

80001adc <inst_238>:
80001adc:	0000b537          	lui	a0,0xb
80001ae0:	50450513          	addi	a0,a0,1284 # b504 <offset+0xb488>
80001ae4:	02d57593          	andi	a1,a0,45
80001ae8:	36b12623          	sw	a1,876(sp)
80001aec:	00400313          	li	t1,4
80001af0:	00b30463          	beq	t1,a1,80001af8 <inst_239>
80001af4:	0400206f          	j	80003b34 <bad_trap>

80001af8 <inst_239>:
80001af8:	0000b537          	lui	a0,0xb
80001afc:	50450513          	addi	a0,a0,1284 # b504 <offset+0xb488>
80001b00:	00257593          	andi	a1,a0,2
80001b04:	36b12823          	sw	a1,880(sp)
80001b08:	00000313          	li	t1,0
80001b0c:	00b30463          	beq	t1,a1,80001b14 <inst_240>
80001b10:	0240206f          	j	80003b34 <bad_trap>

80001b14 <inst_240>:
80001b14:	0000b537          	lui	a0,0xb
80001b18:	50450513          	addi	a0,a0,1284 # b504 <offset+0xb488>
80001b1c:	55457593          	andi	a1,a0,1364
80001b20:	36b12a23          	sw	a1,884(sp)
80001b24:	50400313          	li	t1,1284
80001b28:	00b30463          	beq	t1,a1,80001b30 <inst_241>
80001b2c:	0080206f          	j	80003b34 <bad_trap>

80001b30 <inst_241>:
80001b30:	0000b537          	lui	a0,0xb
80001b34:	50450513          	addi	a0,a0,1284 # b504 <offset+0xb488>
80001b38:	00057593          	andi	a1,a0,0
80001b3c:	36b12c23          	sw	a1,888(sp)
80001b40:	00000313          	li	t1,0
80001b44:	00b30463          	beq	t1,a1,80001b4c <inst_242>
80001b48:	7ed0106f          	j	80003b34 <bad_trap>

80001b4c <inst_242>:
80001b4c:	0000b537          	lui	a0,0xb
80001b50:	50450513          	addi	a0,a0,1284 # b504 <offset+0xb488>
80001b54:	00457593          	andi	a1,a0,4
80001b58:	36b12e23          	sw	a1,892(sp)
80001b5c:	00400313          	li	t1,4
80001b60:	00b30463          	beq	t1,a1,80001b68 <inst_243>
80001b64:	7d10106f          	j	80003b34 <bad_trap>

80001b68 <inst_243>:
80001b68:	0000b537          	lui	a0,0xb
80001b6c:	50450513          	addi	a0,a0,1284 # b504 <offset+0xb488>
80001b70:	33257593          	andi	a1,a0,818
80001b74:	38b12023          	sw	a1,896(sp)
80001b78:	10000313          	li	t1,256
80001b7c:	00b30463          	beq	t1,a1,80001b84 <inst_244>
80001b80:	7b50106f          	j	80003b34 <bad_trap>

80001b84 <inst_244>:
80001b84:	0000b537          	lui	a0,0xb
80001b88:	50450513          	addi	a0,a0,1284 # b504 <offset+0xb488>
80001b8c:	66557593          	andi	a1,a0,1637
80001b90:	38b12223          	sw	a1,900(sp)
80001b94:	40400313          	li	t1,1028
80001b98:	00b30463          	beq	t1,a1,80001ba0 <inst_245>
80001b9c:	7990106f          	j	80003b34 <bad_trap>

80001ba0 <inst_245>:
80001ba0:	0000b537          	lui	a0,0xb
80001ba4:	50450513          	addi	a0,a0,1284 # b504 <offset+0xb488>
80001ba8:	02c57593          	andi	a1,a0,44
80001bac:	38b12423          	sw	a1,904(sp)
80001bb0:	00400313          	li	t1,4
80001bb4:	00b30463          	beq	t1,a1,80001bbc <inst_246>
80001bb8:	77d0106f          	j	80003b34 <bad_trap>

80001bbc <inst_246>:
80001bbc:	0000b537          	lui	a0,0xb
80001bc0:	50450513          	addi	a0,a0,1284 # b504 <offset+0xb488>
80001bc4:	55657593          	andi	a1,a0,1366
80001bc8:	38b12623          	sw	a1,908(sp)
80001bcc:	50400313          	li	t1,1284
80001bd0:	00b30463          	beq	t1,a1,80001bd8 <inst_247>
80001bd4:	7610106f          	j	80003b34 <bad_trap>

80001bd8 <inst_247>:
80001bd8:	0000b537          	lui	a0,0xb
80001bdc:	50450513          	addi	a0,a0,1284 # b504 <offset+0xb488>
80001be0:	aab57593          	andi	a1,a0,-1365
80001be4:	38b12823          	sw	a1,912(sp)
80001be8:	0000b337          	lui	t1,0xb
80001bec:	00b30463          	beq	t1,a1,80001bf4 <inst_248>
80001bf0:	7450106f          	j	80003b34 <bad_trap>

80001bf4 <inst_248>:
80001bf4:	0000b537          	lui	a0,0xb
80001bf8:	50450513          	addi	a0,a0,1284 # b504 <offset+0xb488>
80001bfc:	00657593          	andi	a1,a0,6
80001c00:	38b12a23          	sw	a1,916(sp)
80001c04:	00400313          	li	t1,4
80001c08:	00b30463          	beq	t1,a1,80001c10 <inst_249>
80001c0c:	7290106f          	j	80003b34 <bad_trap>

80001c10 <inst_249>:
80001c10:	0000b537          	lui	a0,0xb
80001c14:	50450513          	addi	a0,a0,1284 # b504 <offset+0xb488>
80001c18:	33457593          	andi	a1,a0,820
80001c1c:	38b12c23          	sw	a1,920(sp)
80001c20:	10400313          	li	t1,260
80001c24:	00b30463          	beq	t1,a1,80001c2c <inst_250>
80001c28:	70d0106f          	j	80003b34 <bad_trap>

80001c2c <inst_250>:
80001c2c:	0000b537          	lui	a0,0xb
80001c30:	50450513          	addi	a0,a0,1284 # b504 <offset+0xb488>
80001c34:	66757593          	andi	a1,a0,1639
80001c38:	38b12e23          	sw	a1,924(sp)
80001c3c:	40400313          	li	t1,1028
80001c40:	00b30463          	beq	t1,a1,80001c48 <inst_251>
80001c44:	6f10106f          	j	80003b34 <bad_trap>

80001c48 <inst_251>:
80001c48:	0000b537          	lui	a0,0xb
80001c4c:	50450513          	addi	a0,a0,1284 # b504 <offset+0xb488>
80001c50:	fd457593          	andi	a1,a0,-44
80001c54:	3ab12023          	sw	a1,928(sp)
80001c58:	0000b337          	lui	t1,0xb
80001c5c:	50430313          	addi	t1,t1,1284 # b504 <offset+0xb488>
80001c60:	00b30463          	beq	t1,a1,80001c68 <inst_252>
80001c64:	6d10106f          	j	80003b34 <bad_trap>

80001c68 <inst_252>:
80001c68:	0000b537          	lui	a0,0xb
80001c6c:	50450513          	addi	a0,a0,1284 # b504 <offset+0xb488>
80001c70:	02e57593          	andi	a1,a0,46
80001c74:	3ab12223          	sw	a1,932(sp)
80001c78:	00400313          	li	t1,4
80001c7c:	00b30463          	beq	t1,a1,80001c84 <inst_253>
80001c80:	6b50106f          	j	80003b34 <bad_trap>

80001c84 <inst_253>:
80001c84:	00200513          	li	a0,2
80001c88:	00357593          	andi	a1,a0,3
80001c8c:	3ab12423          	sw	a1,936(sp)
80001c90:	00200313          	li	t1,2
80001c94:	00b30463          	beq	t1,a1,80001c9c <inst_254>
80001c98:	69d0106f          	j	80003b34 <bad_trap>

80001c9c <inst_254>:
80001c9c:	00200513          	li	a0,2
80001ca0:	55557593          	andi	a1,a0,1365
80001ca4:	3ab12623          	sw	a1,940(sp)
80001ca8:	00000313          	li	t1,0
80001cac:	00b30463          	beq	t1,a1,80001cb4 <inst_255>
80001cb0:	6850106f          	j	80003b34 <bad_trap>

80001cb4 <inst_255>:
80001cb4:	00200513          	li	a0,2
80001cb8:	aaa57593          	andi	a1,a0,-1366
80001cbc:	3ab12823          	sw	a1,944(sp)
80001cc0:	00200313          	li	t1,2
80001cc4:	00b30463          	beq	t1,a1,80001ccc <inst_256>
80001cc8:	66d0106f          	j	80003b34 <bad_trap>

80001ccc <inst_256>:
80001ccc:	00200513          	li	a0,2
80001cd0:	00557593          	andi	a1,a0,5
80001cd4:	3ab12a23          	sw	a1,948(sp)
80001cd8:	00000313          	li	t1,0
80001cdc:	00b30463          	beq	t1,a1,80001ce4 <inst_257>
80001ce0:	6550106f          	j	80003b34 <bad_trap>

80001ce4 <inst_257>:
80001ce4:	00200513          	li	a0,2
80001ce8:	33357593          	andi	a1,a0,819
80001cec:	3ab12c23          	sw	a1,952(sp)
80001cf0:	00200313          	li	t1,2
80001cf4:	00b30463          	beq	t1,a1,80001cfc <inst_258>
80001cf8:	63d0106f          	j	80003b34 <bad_trap>

80001cfc <inst_258>:
80001cfc:	00200513          	li	a0,2
80001d00:	66657593          	andi	a1,a0,1638
80001d04:	3ab12e23          	sw	a1,956(sp)
80001d08:	00200313          	li	t1,2
80001d0c:	00b30463          	beq	t1,a1,80001d14 <inst_259>
80001d10:	6250106f          	j	80003b34 <bad_trap>

80001d14 <inst_259>:
80001d14:	00200513          	li	a0,2
80001d18:	fd357593          	andi	a1,a0,-45
80001d1c:	3cb12023          	sw	a1,960(sp)
80001d20:	00200313          	li	t1,2
80001d24:	00b30463          	beq	t1,a1,80001d2c <inst_260>
80001d28:	60d0106f          	j	80003b34 <bad_trap>

80001d2c <inst_260>:
80001d2c:	00200513          	li	a0,2
80001d30:	02d57593          	andi	a1,a0,45
80001d34:	3cb12223          	sw	a1,964(sp)
80001d38:	00000313          	li	t1,0
80001d3c:	00b30463          	beq	t1,a1,80001d44 <inst_261>
80001d40:	5f50106f          	j	80003b34 <bad_trap>

80001d44 <inst_261>:
80001d44:	00200513          	li	a0,2
80001d48:	00257593          	andi	a1,a0,2
80001d4c:	3cb12423          	sw	a1,968(sp)
80001d50:	00200313          	li	t1,2
80001d54:	00b30463          	beq	t1,a1,80001d5c <inst_262>
80001d58:	5dd0106f          	j	80003b34 <bad_trap>

80001d5c <inst_262>:
80001d5c:	00200513          	li	a0,2
80001d60:	55457593          	andi	a1,a0,1364
80001d64:	3cb12623          	sw	a1,972(sp)
80001d68:	00000313          	li	t1,0
80001d6c:	00b30463          	beq	t1,a1,80001d74 <inst_263>
80001d70:	5c50106f          	j	80003b34 <bad_trap>

80001d74 <inst_263>:
80001d74:	00200513          	li	a0,2
80001d78:	00057593          	andi	a1,a0,0
80001d7c:	3cb12823          	sw	a1,976(sp)
80001d80:	00000313          	li	t1,0
80001d84:	00b30463          	beq	t1,a1,80001d8c <inst_264>
80001d88:	5ad0106f          	j	80003b34 <bad_trap>

80001d8c <inst_264>:
80001d8c:	00200513          	li	a0,2
80001d90:	00457593          	andi	a1,a0,4
80001d94:	3cb12a23          	sw	a1,980(sp)
80001d98:	00000313          	li	t1,0
80001d9c:	00b30463          	beq	t1,a1,80001da4 <inst_265>
80001da0:	5950106f          	j	80003b34 <bad_trap>

80001da4 <inst_265>:
80001da4:	00200513          	li	a0,2
80001da8:	33257593          	andi	a1,a0,818
80001dac:	3cb12c23          	sw	a1,984(sp)
80001db0:	00200313          	li	t1,2
80001db4:	00b30463          	beq	t1,a1,80001dbc <inst_266>
80001db8:	57d0106f          	j	80003b34 <bad_trap>

80001dbc <inst_266>:
80001dbc:	00200513          	li	a0,2
80001dc0:	66557593          	andi	a1,a0,1637
80001dc4:	3cb12e23          	sw	a1,988(sp)
80001dc8:	00000313          	li	t1,0
80001dcc:	00b30463          	beq	t1,a1,80001dd4 <inst_267>
80001dd0:	5650106f          	j	80003b34 <bad_trap>

80001dd4 <inst_267>:
80001dd4:	00200513          	li	a0,2
80001dd8:	02c57593          	andi	a1,a0,44
80001ddc:	3eb12023          	sw	a1,992(sp)
80001de0:	00000313          	li	t1,0
80001de4:	00b30463          	beq	t1,a1,80001dec <inst_268>
80001de8:	54d0106f          	j	80003b34 <bad_trap>

80001dec <inst_268>:
80001dec:	00200513          	li	a0,2
80001df0:	55657593          	andi	a1,a0,1366
80001df4:	3eb12223          	sw	a1,996(sp)
80001df8:	00200313          	li	t1,2
80001dfc:	00b30463          	beq	t1,a1,80001e04 <inst_269>
80001e00:	5350106f          	j	80003b34 <bad_trap>

80001e04 <inst_269>:
80001e04:	00200513          	li	a0,2
80001e08:	aab57593          	andi	a1,a0,-1365
80001e0c:	3eb12423          	sw	a1,1000(sp)
80001e10:	00200313          	li	t1,2
80001e14:	00b30463          	beq	t1,a1,80001e1c <inst_270>
80001e18:	51d0106f          	j	80003b34 <bad_trap>

80001e1c <inst_270>:
80001e1c:	00200513          	li	a0,2
80001e20:	00657593          	andi	a1,a0,6
80001e24:	3eb12623          	sw	a1,1004(sp)
80001e28:	00200313          	li	t1,2
80001e2c:	00b30463          	beq	t1,a1,80001e34 <inst_271>
80001e30:	5050106f          	j	80003b34 <bad_trap>

80001e34 <inst_271>:
80001e34:	00200513          	li	a0,2
80001e38:	33457593          	andi	a1,a0,820
80001e3c:	3eb12823          	sw	a1,1008(sp)
80001e40:	00000313          	li	t1,0
80001e44:	00b30463          	beq	t1,a1,80001e4c <inst_272>
80001e48:	4ed0106f          	j	80003b34 <bad_trap>

80001e4c <inst_272>:
80001e4c:	00200513          	li	a0,2
80001e50:	66757593          	andi	a1,a0,1639
80001e54:	3eb12a23          	sw	a1,1012(sp)
80001e58:	00200313          	li	t1,2
80001e5c:	00b30463          	beq	t1,a1,80001e64 <inst_273>
80001e60:	4d50106f          	j	80003b34 <bad_trap>

80001e64 <inst_273>:
80001e64:	00200513          	li	a0,2
80001e68:	fd457593          	andi	a1,a0,-44
80001e6c:	3eb12c23          	sw	a1,1016(sp)
80001e70:	00000313          	li	t1,0
80001e74:	00b30463          	beq	t1,a1,80001e7c <inst_274>
80001e78:	4bd0106f          	j	80003b34 <bad_trap>

80001e7c <inst_274>:
80001e7c:	00200513          	li	a0,2
80001e80:	02e57593          	andi	a1,a0,46
80001e84:	3eb12e23          	sw	a1,1020(sp)
80001e88:	00200313          	li	t1,2
80001e8c:	00b30463          	beq	t1,a1,80001e94 <inst_275>
80001e90:	4a50106f          	j	80003b34 <bad_trap>

80001e94 <inst_275>:
80001e94:	55555537          	lui	a0,0x55555
80001e98:	55450513          	addi	a0,a0,1364 # 55555554 <absimm+0x10263025>
80001e9c:	00357593          	andi	a1,a0,3
80001ea0:	40b12023          	sw	a1,1024(sp)
80001ea4:	00000313          	li	t1,0
80001ea8:	00b30463          	beq	t1,a1,80001eb0 <inst_276>
80001eac:	4890106f          	j	80003b34 <bad_trap>

80001eb0 <inst_276>:
80001eb0:	55555537          	lui	a0,0x55555
80001eb4:	55450513          	addi	a0,a0,1364 # 55555554 <absimm+0x10263025>
80001eb8:	55557593          	andi	a1,a0,1365
80001ebc:	40b12223          	sw	a1,1028(sp)
80001ec0:	55400313          	li	t1,1364
80001ec4:	00b30463          	beq	t1,a1,80001ecc <inst_277>
80001ec8:	46d0106f          	j	80003b34 <bad_trap>

80001ecc <inst_277>:
80001ecc:	55555537          	lui	a0,0x55555
80001ed0:	55450513          	addi	a0,a0,1364 # 55555554 <absimm+0x10263025>
80001ed4:	aaa57593          	andi	a1,a0,-1366
80001ed8:	40b12423          	sw	a1,1032(sp)
80001edc:	55555337          	lui	t1,0x55555
80001ee0:	00b30463          	beq	t1,a1,80001ee8 <inst_278>
80001ee4:	4510106f          	j	80003b34 <bad_trap>

80001ee8 <inst_278>:
80001ee8:	55555537          	lui	a0,0x55555
80001eec:	55450513          	addi	a0,a0,1364 # 55555554 <absimm+0x10263025>
80001ef0:	00557593          	andi	a1,a0,5
80001ef4:	40b12623          	sw	a1,1036(sp)
80001ef8:	00400313          	li	t1,4
80001efc:	00b30463          	beq	t1,a1,80001f04 <inst_279>
80001f00:	4350106f          	j	80003b34 <bad_trap>

80001f04 <inst_279>:
80001f04:	55555537          	lui	a0,0x55555
80001f08:	55450513          	addi	a0,a0,1364 # 55555554 <absimm+0x10263025>
80001f0c:	33357593          	andi	a1,a0,819
80001f10:	40b12823          	sw	a1,1040(sp)
80001f14:	11000313          	li	t1,272
80001f18:	00b30463          	beq	t1,a1,80001f20 <inst_280>
80001f1c:	4190106f          	j	80003b34 <bad_trap>

80001f20 <inst_280>:
80001f20:	55555537          	lui	a0,0x55555
80001f24:	55450513          	addi	a0,a0,1364 # 55555554 <absimm+0x10263025>
80001f28:	66657593          	andi	a1,a0,1638
80001f2c:	40b12a23          	sw	a1,1044(sp)
80001f30:	44400313          	li	t1,1092
80001f34:	00b30463          	beq	t1,a1,80001f3c <inst_281>
80001f38:	3fd0106f          	j	80003b34 <bad_trap>

80001f3c <inst_281>:
80001f3c:	55555537          	lui	a0,0x55555
80001f40:	55450513          	addi	a0,a0,1364 # 55555554 <absimm+0x10263025>
80001f44:	fd357593          	andi	a1,a0,-45
80001f48:	40b12c23          	sw	a1,1048(sp)
80001f4c:	55555337          	lui	t1,0x55555
80001f50:	55030313          	addi	t1,t1,1360 # 55555550 <absimm+0x10263021>
80001f54:	00b30463          	beq	t1,a1,80001f5c <inst_282>
80001f58:	3dd0106f          	j	80003b34 <bad_trap>

80001f5c <inst_282>:
80001f5c:	55555537          	lui	a0,0x55555
80001f60:	55450513          	addi	a0,a0,1364 # 55555554 <absimm+0x10263025>
80001f64:	02d57593          	andi	a1,a0,45
80001f68:	40b12e23          	sw	a1,1052(sp)
80001f6c:	00400313          	li	t1,4
80001f70:	00b30463          	beq	t1,a1,80001f78 <inst_283>
80001f74:	3c10106f          	j	80003b34 <bad_trap>

80001f78 <inst_283>:
80001f78:	55555537          	lui	a0,0x55555
80001f7c:	55450513          	addi	a0,a0,1364 # 55555554 <absimm+0x10263025>
80001f80:	00257593          	andi	a1,a0,2
80001f84:	42b12023          	sw	a1,1056(sp)
80001f88:	00000313          	li	t1,0
80001f8c:	00b30463          	beq	t1,a1,80001f94 <inst_284>
80001f90:	3a50106f          	j	80003b34 <bad_trap>

80001f94 <inst_284>:
80001f94:	55555537          	lui	a0,0x55555
80001f98:	55450513          	addi	a0,a0,1364 # 55555554 <absimm+0x10263025>
80001f9c:	55457593          	andi	a1,a0,1364
80001fa0:	42b12223          	sw	a1,1060(sp)
80001fa4:	55400313          	li	t1,1364
80001fa8:	00b30463          	beq	t1,a1,80001fb0 <inst_285>
80001fac:	3890106f          	j	80003b34 <bad_trap>

80001fb0 <inst_285>:
80001fb0:	55555537          	lui	a0,0x55555
80001fb4:	55450513          	addi	a0,a0,1364 # 55555554 <absimm+0x10263025>
80001fb8:	00057593          	andi	a1,a0,0
80001fbc:	42b12423          	sw	a1,1064(sp)
80001fc0:	00000313          	li	t1,0
80001fc4:	00b30463          	beq	t1,a1,80001fcc <inst_286>
80001fc8:	36d0106f          	j	80003b34 <bad_trap>

80001fcc <inst_286>:
80001fcc:	55555537          	lui	a0,0x55555
80001fd0:	55450513          	addi	a0,a0,1364 # 55555554 <absimm+0x10263025>
80001fd4:	00457593          	andi	a1,a0,4
80001fd8:	42b12623          	sw	a1,1068(sp)
80001fdc:	00400313          	li	t1,4
80001fe0:	00b30463          	beq	t1,a1,80001fe8 <inst_287>
80001fe4:	3510106f          	j	80003b34 <bad_trap>

80001fe8 <inst_287>:
80001fe8:	55555537          	lui	a0,0x55555
80001fec:	55450513          	addi	a0,a0,1364 # 55555554 <absimm+0x10263025>
80001ff0:	33257593          	andi	a1,a0,818
80001ff4:	42b12823          	sw	a1,1072(sp)
80001ff8:	11000313          	li	t1,272
80001ffc:	00b30463          	beq	t1,a1,80002004 <inst_288>
80002000:	3350106f          	j	80003b34 <bad_trap>

80002004 <inst_288>:
80002004:	55555537          	lui	a0,0x55555
80002008:	55450513          	addi	a0,a0,1364 # 55555554 <absimm+0x10263025>
8000200c:	66557593          	andi	a1,a0,1637
80002010:	42b12a23          	sw	a1,1076(sp)
80002014:	44400313          	li	t1,1092
80002018:	00b30463          	beq	t1,a1,80002020 <inst_289>
8000201c:	3190106f          	j	80003b34 <bad_trap>

80002020 <inst_289>:
80002020:	55555537          	lui	a0,0x55555
80002024:	55450513          	addi	a0,a0,1364 # 55555554 <absimm+0x10263025>
80002028:	02c57593          	andi	a1,a0,44
8000202c:	42b12c23          	sw	a1,1080(sp)
80002030:	00400313          	li	t1,4
80002034:	00b30463          	beq	t1,a1,8000203c <inst_290>
80002038:	2fd0106f          	j	80003b34 <bad_trap>

8000203c <inst_290>:
8000203c:	55555537          	lui	a0,0x55555
80002040:	55450513          	addi	a0,a0,1364 # 55555554 <absimm+0x10263025>
80002044:	55657593          	andi	a1,a0,1366
80002048:	42b12e23          	sw	a1,1084(sp)
8000204c:	55400313          	li	t1,1364
80002050:	00b30463          	beq	t1,a1,80002058 <inst_291>
80002054:	2e10106f          	j	80003b34 <bad_trap>

80002058 <inst_291>:
80002058:	55555537          	lui	a0,0x55555
8000205c:	55450513          	addi	a0,a0,1364 # 55555554 <absimm+0x10263025>
80002060:	aab57593          	andi	a1,a0,-1365
80002064:	44b12023          	sw	a1,1088(sp)
80002068:	55555337          	lui	t1,0x55555
8000206c:	00b30463          	beq	t1,a1,80002074 <inst_292>
80002070:	2c50106f          	j	80003b34 <bad_trap>

80002074 <inst_292>:
80002074:	55555537          	lui	a0,0x55555
80002078:	55450513          	addi	a0,a0,1364 # 55555554 <absimm+0x10263025>
8000207c:	00657593          	andi	a1,a0,6
80002080:	44b12223          	sw	a1,1092(sp)
80002084:	00400313          	li	t1,4
80002088:	00b30463          	beq	t1,a1,80002090 <inst_293>
8000208c:	2a90106f          	j	80003b34 <bad_trap>

80002090 <inst_293>:
80002090:	55555537          	lui	a0,0x55555
80002094:	55450513          	addi	a0,a0,1364 # 55555554 <absimm+0x10263025>
80002098:	33457593          	andi	a1,a0,820
8000209c:	44b12423          	sw	a1,1096(sp)
800020a0:	11400313          	li	t1,276
800020a4:	00b30463          	beq	t1,a1,800020ac <inst_294>
800020a8:	28d0106f          	j	80003b34 <bad_trap>

800020ac <inst_294>:
800020ac:	55555537          	lui	a0,0x55555
800020b0:	55450513          	addi	a0,a0,1364 # 55555554 <absimm+0x10263025>
800020b4:	66757593          	andi	a1,a0,1639
800020b8:	44b12623          	sw	a1,1100(sp)
800020bc:	44400313          	li	t1,1092
800020c0:	00b30463          	beq	t1,a1,800020c8 <inst_295>
800020c4:	2710106f          	j	80003b34 <bad_trap>

800020c8 <inst_295>:
800020c8:	55555537          	lui	a0,0x55555
800020cc:	55450513          	addi	a0,a0,1364 # 55555554 <absimm+0x10263025>
800020d0:	fd457593          	andi	a1,a0,-44
800020d4:	44b12823          	sw	a1,1104(sp)
800020d8:	55555337          	lui	t1,0x55555
800020dc:	55430313          	addi	t1,t1,1364 # 55555554 <absimm+0x10263025>
800020e0:	00b30463          	beq	t1,a1,800020e8 <inst_296>
800020e4:	2510106f          	j	80003b34 <bad_trap>

800020e8 <inst_296>:
800020e8:	55555537          	lui	a0,0x55555
800020ec:	55450513          	addi	a0,a0,1364 # 55555554 <absimm+0x10263025>
800020f0:	02e57593          	andi	a1,a0,46
800020f4:	44b12a23          	sw	a1,1108(sp)
800020f8:	00400313          	li	t1,4
800020fc:	00b30463          	beq	t1,a1,80002104 <inst_297>
80002100:	2350106f          	j	80003b34 <bad_trap>

80002104 <inst_297>:
80002104:	00000513          	li	a0,0
80002108:	00357593          	andi	a1,a0,3
8000210c:	44b12c23          	sw	a1,1112(sp)
80002110:	00000313          	li	t1,0
80002114:	00b30463          	beq	t1,a1,8000211c <inst_298>
80002118:	21d0106f          	j	80003b34 <bad_trap>

8000211c <inst_298>:
8000211c:	00000513          	li	a0,0
80002120:	55557593          	andi	a1,a0,1365
80002124:	44b12e23          	sw	a1,1116(sp)
80002128:	00000313          	li	t1,0
8000212c:	00b30463          	beq	t1,a1,80002134 <inst_299>
80002130:	2050106f          	j	80003b34 <bad_trap>

80002134 <inst_299>:
80002134:	00000513          	li	a0,0
80002138:	aaa57593          	andi	a1,a0,-1366
8000213c:	46b12023          	sw	a1,1120(sp)
80002140:	00000313          	li	t1,0
80002144:	00b30463          	beq	t1,a1,8000214c <inst_300>
80002148:	1ed0106f          	j	80003b34 <bad_trap>

8000214c <inst_300>:
8000214c:	00000513          	li	a0,0
80002150:	00557593          	andi	a1,a0,5
80002154:	46b12223          	sw	a1,1124(sp)
80002158:	00000313          	li	t1,0
8000215c:	00b30463          	beq	t1,a1,80002164 <inst_301>
80002160:	1d50106f          	j	80003b34 <bad_trap>

80002164 <inst_301>:
80002164:	00000513          	li	a0,0
80002168:	33357593          	andi	a1,a0,819
8000216c:	46b12423          	sw	a1,1128(sp)
80002170:	00000313          	li	t1,0
80002174:	00b30463          	beq	t1,a1,8000217c <inst_302>
80002178:	1bd0106f          	j	80003b34 <bad_trap>

8000217c <inst_302>:
8000217c:	00000513          	li	a0,0
80002180:	66657593          	andi	a1,a0,1638
80002184:	46b12623          	sw	a1,1132(sp)
80002188:	00000313          	li	t1,0
8000218c:	00b30463          	beq	t1,a1,80002194 <inst_303>
80002190:	1a50106f          	j	80003b34 <bad_trap>

80002194 <inst_303>:
80002194:	00000513          	li	a0,0
80002198:	fd357593          	andi	a1,a0,-45
8000219c:	46b12823          	sw	a1,1136(sp)
800021a0:	00000313          	li	t1,0
800021a4:	00b30463          	beq	t1,a1,800021ac <inst_304>
800021a8:	18d0106f          	j	80003b34 <bad_trap>

800021ac <inst_304>:
800021ac:	00000513          	li	a0,0
800021b0:	02d57593          	andi	a1,a0,45
800021b4:	46b12a23          	sw	a1,1140(sp)
800021b8:	00000313          	li	t1,0
800021bc:	00b30463          	beq	t1,a1,800021c4 <inst_305>
800021c0:	1750106f          	j	80003b34 <bad_trap>

800021c4 <inst_305>:
800021c4:	33333537          	lui	a0,0x33333
800021c8:	33450513          	addi	a0,a0,820 # 33333334 <offset+0x333332b8>
800021cc:	33257593          	andi	a1,a0,818
800021d0:	46b12c23          	sw	a1,1144(sp)
800021d4:	33000313          	li	t1,816
800021d8:	00b30463          	beq	t1,a1,800021e0 <inst_306>
800021dc:	1590106f          	j	80003b34 <bad_trap>

800021e0 <inst_306>:
800021e0:	33333537          	lui	a0,0x33333
800021e4:	33450513          	addi	a0,a0,820 # 33333334 <offset+0x333332b8>
800021e8:	66557593          	andi	a1,a0,1637
800021ec:	46b12e23          	sw	a1,1148(sp)
800021f0:	22400313          	li	t1,548
800021f4:	00b30463          	beq	t1,a1,800021fc <inst_307>
800021f8:	13d0106f          	j	80003b34 <bad_trap>

800021fc <inst_307>:
800021fc:	33333537          	lui	a0,0x33333
80002200:	33450513          	addi	a0,a0,820 # 33333334 <offset+0x333332b8>
80002204:	02c57593          	andi	a1,a0,44
80002208:	48b12023          	sw	a1,1152(sp)
8000220c:	02400313          	li	t1,36
80002210:	00b30463          	beq	t1,a1,80002218 <inst_308>
80002214:	1210106f          	j	80003b34 <bad_trap>

80002218 <inst_308>:
80002218:	33333537          	lui	a0,0x33333
8000221c:	33450513          	addi	a0,a0,820 # 33333334 <offset+0x333332b8>
80002220:	55657593          	andi	a1,a0,1366
80002224:	48b12223          	sw	a1,1156(sp)
80002228:	11400313          	li	t1,276
8000222c:	00b30463          	beq	t1,a1,80002234 <inst_309>
80002230:	1050106f          	j	80003b34 <bad_trap>

80002234 <inst_309>:
80002234:	33333537          	lui	a0,0x33333
80002238:	33450513          	addi	a0,a0,820 # 33333334 <offset+0x333332b8>
8000223c:	aab57593          	andi	a1,a0,-1365
80002240:	48b12423          	sw	a1,1160(sp)
80002244:	33333337          	lui	t1,0x33333
80002248:	22030313          	addi	t1,t1,544 # 33333220 <offset+0x333331a4>
8000224c:	00b30463          	beq	t1,a1,80002254 <inst_310>
80002250:	0e50106f          	j	80003b34 <bad_trap>

80002254 <inst_310>:
80002254:	33333537          	lui	a0,0x33333
80002258:	33450513          	addi	a0,a0,820 # 33333334 <offset+0x333332b8>
8000225c:	00657593          	andi	a1,a0,6
80002260:	48b12623          	sw	a1,1164(sp)
80002264:	00400313          	li	t1,4
80002268:	00b30463          	beq	t1,a1,80002270 <inst_311>
8000226c:	0c90106f          	j	80003b34 <bad_trap>

80002270 <inst_311>:
80002270:	33333537          	lui	a0,0x33333
80002274:	33450513          	addi	a0,a0,820 # 33333334 <offset+0x333332b8>
80002278:	33457593          	andi	a1,a0,820
8000227c:	48b12823          	sw	a1,1168(sp)
80002280:	33400313          	li	t1,820
80002284:	00b30463          	beq	t1,a1,8000228c <inst_312>
80002288:	0ad0106f          	j	80003b34 <bad_trap>

8000228c <inst_312>:
8000228c:	33333537          	lui	a0,0x33333
80002290:	33450513          	addi	a0,a0,820 # 33333334 <offset+0x333332b8>
80002294:	66757593          	andi	a1,a0,1639
80002298:	48b12a23          	sw	a1,1172(sp)
8000229c:	22400313          	li	t1,548
800022a0:	00b30463          	beq	t1,a1,800022a8 <inst_313>
800022a4:	0910106f          	j	80003b34 <bad_trap>

800022a8 <inst_313>:
800022a8:	33333537          	lui	a0,0x33333
800022ac:	33450513          	addi	a0,a0,820 # 33333334 <offset+0x333332b8>
800022b0:	fd457593          	andi	a1,a0,-44
800022b4:	48b12c23          	sw	a1,1176(sp)
800022b8:	33333337          	lui	t1,0x33333
800022bc:	31430313          	addi	t1,t1,788 # 33333314 <offset+0x33333298>
800022c0:	00b30463          	beq	t1,a1,800022c8 <inst_314>
800022c4:	0710106f          	j	80003b34 <bad_trap>

800022c8 <inst_314>:
800022c8:	33333537          	lui	a0,0x33333
800022cc:	33450513          	addi	a0,a0,820 # 33333334 <offset+0x333332b8>
800022d0:	02e57593          	andi	a1,a0,46
800022d4:	48b12e23          	sw	a1,1180(sp)
800022d8:	02400313          	li	t1,36
800022dc:	00b30463          	beq	t1,a1,800022e4 <inst_315>
800022e0:	0550106f          	j	80003b34 <bad_trap>

800022e4 <inst_315>:
800022e4:	66666537          	lui	a0,0x66666
800022e8:	66750513          	addi	a0,a0,1639 # 66666667 <absimm+0x21374138>
800022ec:	00357593          	andi	a1,a0,3
800022f0:	4ab12023          	sw	a1,1184(sp)
800022f4:	00300313          	li	t1,3
800022f8:	00b30463          	beq	t1,a1,80002300 <inst_316>
800022fc:	0390106f          	j	80003b34 <bad_trap>

80002300 <inst_316>:
80002300:	66666537          	lui	a0,0x66666
80002304:	66750513          	addi	a0,a0,1639 # 66666667 <absimm+0x21374138>
80002308:	55557593          	andi	a1,a0,1365
8000230c:	4ab12223          	sw	a1,1188(sp)
80002310:	44500313          	li	t1,1093
80002314:	00b30463          	beq	t1,a1,8000231c <inst_317>
80002318:	01d0106f          	j	80003b34 <bad_trap>

8000231c <inst_317>:
8000231c:	66666537          	lui	a0,0x66666
80002320:	66750513          	addi	a0,a0,1639 # 66666667 <absimm+0x21374138>
80002324:	aaa57593          	andi	a1,a0,-1366
80002328:	4ab12423          	sw	a1,1192(sp)
8000232c:	66666337          	lui	t1,0x66666
80002330:	22230313          	addi	t1,t1,546 # 66666222 <absimm+0x21373cf3>
80002334:	00b30463          	beq	t1,a1,8000233c <inst_318>
80002338:	7fc0106f          	j	80003b34 <bad_trap>

8000233c <inst_318>:
8000233c:	66666537          	lui	a0,0x66666
80002340:	66750513          	addi	a0,a0,1639 # 66666667 <absimm+0x21374138>
80002344:	00557593          	andi	a1,a0,5
80002348:	4ab12623          	sw	a1,1196(sp)
8000234c:	00500313          	li	t1,5
80002350:	00b30463          	beq	t1,a1,80002358 <inst_319>
80002354:	7e00106f          	j	80003b34 <bad_trap>

80002358 <inst_319>:
80002358:	66666537          	lui	a0,0x66666
8000235c:	66750513          	addi	a0,a0,1639 # 66666667 <absimm+0x21374138>
80002360:	33357593          	andi	a1,a0,819
80002364:	4ab12823          	sw	a1,1200(sp)
80002368:	22300313          	li	t1,547
8000236c:	00b30463          	beq	t1,a1,80002374 <inst_320>
80002370:	7c40106f          	j	80003b34 <bad_trap>

80002374 <inst_320>:
80002374:	66666537          	lui	a0,0x66666
80002378:	66750513          	addi	a0,a0,1639 # 66666667 <absimm+0x21374138>
8000237c:	66657593          	andi	a1,a0,1638
80002380:	4ab12a23          	sw	a1,1204(sp)
80002384:	66600313          	li	t1,1638
80002388:	00b30463          	beq	t1,a1,80002390 <inst_321>
8000238c:	7a80106f          	j	80003b34 <bad_trap>

80002390 <inst_321>:
80002390:	66666537          	lui	a0,0x66666
80002394:	66750513          	addi	a0,a0,1639 # 66666667 <absimm+0x21374138>
80002398:	fd357593          	andi	a1,a0,-45
8000239c:	4ab12c23          	sw	a1,1208(sp)
800023a0:	66666337          	lui	t1,0x66666
800023a4:	64330313          	addi	t1,t1,1603 # 66666643 <absimm+0x21374114>
800023a8:	00b30463          	beq	t1,a1,800023b0 <inst_322>
800023ac:	7880106f          	j	80003b34 <bad_trap>

800023b0 <inst_322>:
800023b0:	66666537          	lui	a0,0x66666
800023b4:	66750513          	addi	a0,a0,1639 # 66666667 <absimm+0x21374138>
800023b8:	02d57593          	andi	a1,a0,45
800023bc:	4ab12e23          	sw	a1,1212(sp)
800023c0:	02500313          	li	t1,37
800023c4:	00b30463          	beq	t1,a1,800023cc <inst_323>
800023c8:	76c0106f          	j	80003b34 <bad_trap>

800023cc <inst_323>:
800023cc:	66666537          	lui	a0,0x66666
800023d0:	66750513          	addi	a0,a0,1639 # 66666667 <absimm+0x21374138>
800023d4:	00257593          	andi	a1,a0,2
800023d8:	4cb12023          	sw	a1,1216(sp)
800023dc:	00200313          	li	t1,2
800023e0:	00b30463          	beq	t1,a1,800023e8 <inst_324>
800023e4:	7500106f          	j	80003b34 <bad_trap>

800023e8 <inst_324>:
800023e8:	66666537          	lui	a0,0x66666
800023ec:	66750513          	addi	a0,a0,1639 # 66666667 <absimm+0x21374138>
800023f0:	55457593          	andi	a1,a0,1364
800023f4:	4cb12223          	sw	a1,1220(sp)
800023f8:	44400313          	li	t1,1092
800023fc:	00b30463          	beq	t1,a1,80002404 <inst_325>
80002400:	7340106f          	j	80003b34 <bad_trap>

80002404 <inst_325>:
80002404:	66666537          	lui	a0,0x66666
80002408:	66750513          	addi	a0,a0,1639 # 66666667 <absimm+0x21374138>
8000240c:	00057593          	andi	a1,a0,0
80002410:	4cb12423          	sw	a1,1224(sp)
80002414:	00000313          	li	t1,0
80002418:	00b30463          	beq	t1,a1,80002420 <inst_326>
8000241c:	7180106f          	j	80003b34 <bad_trap>

80002420 <inst_326>:
80002420:	66666537          	lui	a0,0x66666
80002424:	66750513          	addi	a0,a0,1639 # 66666667 <absimm+0x21374138>
80002428:	00457593          	andi	a1,a0,4
8000242c:	4cb12623          	sw	a1,1228(sp)
80002430:	00400313          	li	t1,4
80002434:	00b30463          	beq	t1,a1,8000243c <inst_327>
80002438:	6fc0106f          	j	80003b34 <bad_trap>

8000243c <inst_327>:
8000243c:	66666537          	lui	a0,0x66666
80002440:	66750513          	addi	a0,a0,1639 # 66666667 <absimm+0x21374138>
80002444:	33257593          	andi	a1,a0,818
80002448:	4cb12823          	sw	a1,1232(sp)
8000244c:	22200313          	li	t1,546
80002450:	00b30463          	beq	t1,a1,80002458 <inst_328>
80002454:	6e00106f          	j	80003b34 <bad_trap>

80002458 <inst_328>:
80002458:	66666537          	lui	a0,0x66666
8000245c:	66750513          	addi	a0,a0,1639 # 66666667 <absimm+0x21374138>
80002460:	66557593          	andi	a1,a0,1637
80002464:	4cb12a23          	sw	a1,1236(sp)
80002468:	66500313          	li	t1,1637
8000246c:	00b30463          	beq	t1,a1,80002474 <inst_329>
80002470:	6c40106f          	j	80003b34 <bad_trap>

80002474 <inst_329>:
80002474:	66666537          	lui	a0,0x66666
80002478:	66750513          	addi	a0,a0,1639 # 66666667 <absimm+0x21374138>
8000247c:	02c57593          	andi	a1,a0,44
80002480:	4cb12c23          	sw	a1,1240(sp)
80002484:	02400313          	li	t1,36
80002488:	00b30463          	beq	t1,a1,80002490 <inst_330>
8000248c:	6a80106f          	j	80003b34 <bad_trap>

80002490 <inst_330>:
80002490:	66666537          	lui	a0,0x66666
80002494:	66750513          	addi	a0,a0,1639 # 66666667 <absimm+0x21374138>
80002498:	55657593          	andi	a1,a0,1366
8000249c:	4cb12e23          	sw	a1,1244(sp)
800024a0:	44600313          	li	t1,1094
800024a4:	00b30463          	beq	t1,a1,800024ac <inst_331>
800024a8:	68c0106f          	j	80003b34 <bad_trap>

800024ac <inst_331>:
800024ac:	66666537          	lui	a0,0x66666
800024b0:	66750513          	addi	a0,a0,1639 # 66666667 <absimm+0x21374138>
800024b4:	aab57593          	andi	a1,a0,-1365
800024b8:	4eb12023          	sw	a1,1248(sp)
800024bc:	66666337          	lui	t1,0x66666
800024c0:	22330313          	addi	t1,t1,547 # 66666223 <absimm+0x21373cf4>
800024c4:	00b30463          	beq	t1,a1,800024cc <inst_332>
800024c8:	66c0106f          	j	80003b34 <bad_trap>

800024cc <inst_332>:
800024cc:	66666537          	lui	a0,0x66666
800024d0:	66750513          	addi	a0,a0,1639 # 66666667 <absimm+0x21374138>
800024d4:	00657593          	andi	a1,a0,6
800024d8:	4eb12223          	sw	a1,1252(sp)
800024dc:	00600313          	li	t1,6
800024e0:	00b30463          	beq	t1,a1,800024e8 <inst_333>
800024e4:	6500106f          	j	80003b34 <bad_trap>

800024e8 <inst_333>:
800024e8:	66666537          	lui	a0,0x66666
800024ec:	66750513          	addi	a0,a0,1639 # 66666667 <absimm+0x21374138>
800024f0:	33457593          	andi	a1,a0,820
800024f4:	4eb12423          	sw	a1,1256(sp)
800024f8:	22400313          	li	t1,548
800024fc:	00b30463          	beq	t1,a1,80002504 <inst_334>
80002500:	6340106f          	j	80003b34 <bad_trap>

80002504 <inst_334>:
80002504:	66666537          	lui	a0,0x66666
80002508:	66750513          	addi	a0,a0,1639 # 66666667 <absimm+0x21374138>
8000250c:	66757593          	andi	a1,a0,1639
80002510:	4eb12623          	sw	a1,1260(sp)
80002514:	66700313          	li	t1,1639
80002518:	00b30463          	beq	t1,a1,80002520 <inst_335>
8000251c:	6180106f          	j	80003b34 <bad_trap>

80002520 <inst_335>:
80002520:	66666537          	lui	a0,0x66666
80002524:	66750513          	addi	a0,a0,1639 # 66666667 <absimm+0x21374138>
80002528:	fd457593          	andi	a1,a0,-44
8000252c:	4eb12823          	sw	a1,1264(sp)
80002530:	66666337          	lui	t1,0x66666
80002534:	64430313          	addi	t1,t1,1604 # 66666644 <absimm+0x21374115>
80002538:	00b30463          	beq	t1,a1,80002540 <inst_336>
8000253c:	5f80106f          	j	80003b34 <bad_trap>

80002540 <inst_336>:
80002540:	66666537          	lui	a0,0x66666
80002544:	66750513          	addi	a0,a0,1639 # 66666667 <absimm+0x21374138>
80002548:	02e57593          	andi	a1,a0,46
8000254c:	4eb12a23          	sw	a1,1268(sp)
80002550:	02600313          	li	t1,38
80002554:	00b30463          	beq	t1,a1,8000255c <inst_337>
80002558:	5dc0106f          	j	80003b34 <bad_trap>

8000255c <inst_337>:
8000255c:	ffff5537          	lui	a0,0xffff5
80002560:	afd50513          	addi	a0,a0,-1283 # ffff4afd <imm12+0xffff502d>
80002564:	00357593          	andi	a1,a0,3
80002568:	4eb12c23          	sw	a1,1272(sp)
8000256c:	00100313          	li	t1,1
80002570:	00b30463          	beq	t1,a1,80002578 <inst_338>
80002574:	5c00106f          	j	80003b34 <bad_trap>

80002578 <inst_338>:
80002578:	ffff5537          	lui	a0,0xffff5
8000257c:	afd50513          	addi	a0,a0,-1283 # ffff4afd <imm12+0xffff502d>
80002580:	55557593          	andi	a1,a0,1365
80002584:	4eb12e23          	sw	a1,1276(sp)
80002588:	05500313          	li	t1,85
8000258c:	00b30463          	beq	t1,a1,80002594 <inst_339>
80002590:	5a40106f          	j	80003b34 <bad_trap>

80002594 <inst_339>:
80002594:	ffff5537          	lui	a0,0xffff5
80002598:	afd50513          	addi	a0,a0,-1283 # ffff4afd <imm12+0xffff502d>
8000259c:	aaa57593          	andi	a1,a0,-1366
800025a0:	50b12023          	sw	a1,1280(sp)
800025a4:	ffff5337          	lui	t1,0xffff5
800025a8:	aa830313          	addi	t1,t1,-1368 # ffff4aa8 <imm12+0xffff4fd8>
800025ac:	00b30463          	beq	t1,a1,800025b4 <inst_340>
800025b0:	5840106f          	j	80003b34 <bad_trap>

800025b4 <inst_340>:
800025b4:	ffff5537          	lui	a0,0xffff5
800025b8:	afd50513          	addi	a0,a0,-1283 # ffff4afd <imm12+0xffff502d>
800025bc:	00557593          	andi	a1,a0,5
800025c0:	50b12223          	sw	a1,1284(sp)
800025c4:	00500313          	li	t1,5
800025c8:	00b30463          	beq	t1,a1,800025d0 <inst_341>
800025cc:	5680106f          	j	80003b34 <bad_trap>

800025d0 <inst_341>:
800025d0:	ffff5537          	lui	a0,0xffff5
800025d4:	afd50513          	addi	a0,a0,-1283 # ffff4afd <imm12+0xffff502d>
800025d8:	33357593          	andi	a1,a0,819
800025dc:	50b12423          	sw	a1,1288(sp)
800025e0:	23100313          	li	t1,561
800025e4:	00b30463          	beq	t1,a1,800025ec <inst_342>
800025e8:	54c0106f          	j	80003b34 <bad_trap>

800025ec <inst_342>:
800025ec:	ffff5537          	lui	a0,0xffff5
800025f0:	afd50513          	addi	a0,a0,-1283 # ffff4afd <imm12+0xffff502d>
800025f4:	66657593          	andi	a1,a0,1638
800025f8:	50b12623          	sw	a1,1292(sp)
800025fc:	26400313          	li	t1,612
80002600:	00b30463          	beq	t1,a1,80002608 <inst_343>
80002604:	5300106f          	j	80003b34 <bad_trap>

80002608 <inst_343>:
80002608:	ffff5537          	lui	a0,0xffff5
8000260c:	afd50513          	addi	a0,a0,-1283 # ffff4afd <imm12+0xffff502d>
80002610:	fd357593          	andi	a1,a0,-45
80002614:	50b12823          	sw	a1,1296(sp)
80002618:	ffff5337          	lui	t1,0xffff5
8000261c:	ad130313          	addi	t1,t1,-1327 # ffff4ad1 <imm12+0xffff5001>
80002620:	00b30463          	beq	t1,a1,80002628 <inst_344>
80002624:	5100106f          	j	80003b34 <bad_trap>

80002628 <inst_344>:
80002628:	ffff5537          	lui	a0,0xffff5
8000262c:	afd50513          	addi	a0,a0,-1283 # ffff4afd <imm12+0xffff502d>
80002630:	02d57593          	andi	a1,a0,45
80002634:	50b12a23          	sw	a1,1300(sp)
80002638:	02d00313          	li	t1,45
8000263c:	00b30463          	beq	t1,a1,80002644 <inst_345>
80002640:	4f40106f          	j	80003b34 <bad_trap>

80002644 <inst_345>:
80002644:	ffff5537          	lui	a0,0xffff5
80002648:	afd50513          	addi	a0,a0,-1283 # ffff4afd <imm12+0xffff502d>
8000264c:	00257593          	andi	a1,a0,2
80002650:	50b12c23          	sw	a1,1304(sp)
80002654:	00000313          	li	t1,0
80002658:	00b30463          	beq	t1,a1,80002660 <inst_346>
8000265c:	4d80106f          	j	80003b34 <bad_trap>

80002660 <inst_346>:
80002660:	ffff5537          	lui	a0,0xffff5
80002664:	afd50513          	addi	a0,a0,-1283 # ffff4afd <imm12+0xffff502d>
80002668:	55457593          	andi	a1,a0,1364
8000266c:	50b12e23          	sw	a1,1308(sp)
80002670:	05400313          	li	t1,84
80002674:	00b30463          	beq	t1,a1,8000267c <inst_347>
80002678:	4bc0106f          	j	80003b34 <bad_trap>

8000267c <inst_347>:
8000267c:	ffff5537          	lui	a0,0xffff5
80002680:	afd50513          	addi	a0,a0,-1283 # ffff4afd <imm12+0xffff502d>
80002684:	00057593          	andi	a1,a0,0
80002688:	52b12023          	sw	a1,1312(sp)
8000268c:	00000313          	li	t1,0
80002690:	00b30463          	beq	t1,a1,80002698 <inst_348>
80002694:	4a00106f          	j	80003b34 <bad_trap>

80002698 <inst_348>:
80002698:	ffff5537          	lui	a0,0xffff5
8000269c:	afd50513          	addi	a0,a0,-1283 # ffff4afd <imm12+0xffff502d>
800026a0:	00457593          	andi	a1,a0,4
800026a4:	52b12223          	sw	a1,1316(sp)
800026a8:	00400313          	li	t1,4
800026ac:	00b30463          	beq	t1,a1,800026b4 <inst_349>
800026b0:	4840106f          	j	80003b34 <bad_trap>

800026b4 <inst_349>:
800026b4:	ffff5537          	lui	a0,0xffff5
800026b8:	afd50513          	addi	a0,a0,-1283 # ffff4afd <imm12+0xffff502d>
800026bc:	33257593          	andi	a1,a0,818
800026c0:	52b12423          	sw	a1,1320(sp)
800026c4:	23000313          	li	t1,560
800026c8:	00b30463          	beq	t1,a1,800026d0 <inst_350>
800026cc:	4680106f          	j	80003b34 <bad_trap>

800026d0 <inst_350>:
800026d0:	ffff5537          	lui	a0,0xffff5
800026d4:	afd50513          	addi	a0,a0,-1283 # ffff4afd <imm12+0xffff502d>
800026d8:	66557593          	andi	a1,a0,1637
800026dc:	52b12623          	sw	a1,1324(sp)
800026e0:	26500313          	li	t1,613
800026e4:	00b30463          	beq	t1,a1,800026ec <inst_351>
800026e8:	44c0106f          	j	80003b34 <bad_trap>

800026ec <inst_351>:
800026ec:	ffff5537          	lui	a0,0xffff5
800026f0:	afd50513          	addi	a0,a0,-1283 # ffff4afd <imm12+0xffff502d>
800026f4:	02c57593          	andi	a1,a0,44
800026f8:	52b12823          	sw	a1,1328(sp)
800026fc:	02c00313          	li	t1,44
80002700:	00b30463          	beq	t1,a1,80002708 <inst_352>
80002704:	4300106f          	j	80003b34 <bad_trap>

80002708 <inst_352>:
80002708:	ffff5537          	lui	a0,0xffff5
8000270c:	afd50513          	addi	a0,a0,-1283 # ffff4afd <imm12+0xffff502d>
80002710:	55657593          	andi	a1,a0,1366
80002714:	52b12a23          	sw	a1,1332(sp)
80002718:	05400313          	li	t1,84
8000271c:	00b30463          	beq	t1,a1,80002724 <inst_353>
80002720:	4140106f          	j	80003b34 <bad_trap>

80002724 <inst_353>:
80002724:	ffff5537          	lui	a0,0xffff5
80002728:	afd50513          	addi	a0,a0,-1283 # ffff4afd <imm12+0xffff502d>
8000272c:	aab57593          	andi	a1,a0,-1365
80002730:	52b12c23          	sw	a1,1336(sp)
80002734:	ffff5337          	lui	t1,0xffff5
80002738:	aa930313          	addi	t1,t1,-1367 # ffff4aa9 <imm12+0xffff4fd9>
8000273c:	00b30463          	beq	t1,a1,80002744 <inst_354>
80002740:	3f40106f          	j	80003b34 <bad_trap>

80002744 <inst_354>:
80002744:	ffff5537          	lui	a0,0xffff5
80002748:	afd50513          	addi	a0,a0,-1283 # ffff4afd <imm12+0xffff502d>
8000274c:	00657593          	andi	a1,a0,6
80002750:	52b12e23          	sw	a1,1340(sp)
80002754:	00400313          	li	t1,4
80002758:	00b30463          	beq	t1,a1,80002760 <inst_355>
8000275c:	3d80106f          	j	80003b34 <bad_trap>

80002760 <inst_355>:
80002760:	ffff5537          	lui	a0,0xffff5
80002764:	afd50513          	addi	a0,a0,-1283 # ffff4afd <imm12+0xffff502d>
80002768:	33457593          	andi	a1,a0,820
8000276c:	54b12023          	sw	a1,1344(sp)
80002770:	23400313          	li	t1,564
80002774:	00b30463          	beq	t1,a1,8000277c <inst_356>
80002778:	3bc0106f          	j	80003b34 <bad_trap>

8000277c <inst_356>:
8000277c:	ffff5537          	lui	a0,0xffff5
80002780:	afd50513          	addi	a0,a0,-1283 # ffff4afd <imm12+0xffff502d>
80002784:	66757593          	andi	a1,a0,1639
80002788:	54b12223          	sw	a1,1348(sp)
8000278c:	26500313          	li	t1,613
80002790:	00b30463          	beq	t1,a1,80002798 <inst_357>
80002794:	3a00106f          	j	80003b34 <bad_trap>

80002798 <inst_357>:
80002798:	ffff5537          	lui	a0,0xffff5
8000279c:	afd50513          	addi	a0,a0,-1283 # ffff4afd <imm12+0xffff502d>
800027a0:	fd457593          	andi	a1,a0,-44
800027a4:	54b12423          	sw	a1,1352(sp)
800027a8:	ffff5337          	lui	t1,0xffff5
800027ac:	ad430313          	addi	t1,t1,-1324 # ffff4ad4 <imm12+0xffff5004>
800027b0:	00b30463          	beq	t1,a1,800027b8 <inst_358>
800027b4:	3800106f          	j	80003b34 <bad_trap>

800027b8 <inst_358>:
800027b8:	ffff5537          	lui	a0,0xffff5
800027bc:	afd50513          	addi	a0,a0,-1283 # ffff4afd <imm12+0xffff502d>
800027c0:	02e57593          	andi	a1,a0,46
800027c4:	54b12623          	sw	a1,1356(sp)
800027c8:	02c00313          	li	t1,44
800027cc:	00b30463          	beq	t1,a1,800027d4 <inst_359>
800027d0:	3640106f          	j	80003b34 <bad_trap>

800027d4 <inst_359>:
800027d4:	0000b537          	lui	a0,0xb
800027d8:	50550513          	addi	a0,a0,1285 # b505 <offset+0xb489>
800027dc:	00357593          	andi	a1,a0,3
800027e0:	54b12823          	sw	a1,1360(sp)
800027e4:	00100313          	li	t1,1
800027e8:	00b30463          	beq	t1,a1,800027f0 <inst_360>
800027ec:	3480106f          	j	80003b34 <bad_trap>

800027f0 <inst_360>:
800027f0:	0000b537          	lui	a0,0xb
800027f4:	50550513          	addi	a0,a0,1285 # b505 <offset+0xb489>
800027f8:	55557593          	andi	a1,a0,1365
800027fc:	54b12a23          	sw	a1,1364(sp)
80002800:	50500313          	li	t1,1285
80002804:	00b30463          	beq	t1,a1,8000280c <inst_361>
80002808:	32c0106f          	j	80003b34 <bad_trap>

8000280c <inst_361>:
8000280c:	0000b537          	lui	a0,0xb
80002810:	50550513          	addi	a0,a0,1285 # b505 <offset+0xb489>
80002814:	aaa57593          	andi	a1,a0,-1366
80002818:	54b12c23          	sw	a1,1368(sp)
8000281c:	0000b337          	lui	t1,0xb
80002820:	00b30463          	beq	t1,a1,80002828 <inst_362>
80002824:	3100106f          	j	80003b34 <bad_trap>

80002828 <inst_362>:
80002828:	0000b537          	lui	a0,0xb
8000282c:	50550513          	addi	a0,a0,1285 # b505 <offset+0xb489>
80002830:	00557593          	andi	a1,a0,5
80002834:	54b12e23          	sw	a1,1372(sp)
80002838:	00500313          	li	t1,5
8000283c:	00b30463          	beq	t1,a1,80002844 <inst_363>
80002840:	2f40106f          	j	80003b34 <bad_trap>

80002844 <inst_363>:
80002844:	0000b537          	lui	a0,0xb
80002848:	50550513          	addi	a0,a0,1285 # b505 <offset+0xb489>
8000284c:	33357593          	andi	a1,a0,819
80002850:	56b12023          	sw	a1,1376(sp)
80002854:	10100313          	li	t1,257
80002858:	00b30463          	beq	t1,a1,80002860 <inst_364>
8000285c:	2d80106f          	j	80003b34 <bad_trap>

80002860 <inst_364>:
80002860:	0000b537          	lui	a0,0xb
80002864:	50550513          	addi	a0,a0,1285 # b505 <offset+0xb489>
80002868:	66657593          	andi	a1,a0,1638
8000286c:	56b12223          	sw	a1,1380(sp)
80002870:	40400313          	li	t1,1028
80002874:	00b30463          	beq	t1,a1,8000287c <inst_365>
80002878:	2bc0106f          	j	80003b34 <bad_trap>

8000287c <inst_365>:
8000287c:	0000b537          	lui	a0,0xb
80002880:	50550513          	addi	a0,a0,1285 # b505 <offset+0xb489>
80002884:	fd357593          	andi	a1,a0,-45
80002888:	56b12423          	sw	a1,1384(sp)
8000288c:	0000b337          	lui	t1,0xb
80002890:	50130313          	addi	t1,t1,1281 # b501 <offset+0xb485>
80002894:	00b30463          	beq	t1,a1,8000289c <inst_366>
80002898:	29c0106f          	j	80003b34 <bad_trap>

8000289c <inst_366>:
8000289c:	0000b537          	lui	a0,0xb
800028a0:	50550513          	addi	a0,a0,1285 # b505 <offset+0xb489>
800028a4:	02d57593          	andi	a1,a0,45
800028a8:	56b12623          	sw	a1,1388(sp)
800028ac:	00500313          	li	t1,5
800028b0:	00b30463          	beq	t1,a1,800028b8 <inst_367>
800028b4:	2800106f          	j	80003b34 <bad_trap>

800028b8 <inst_367>:
800028b8:	0000b537          	lui	a0,0xb
800028bc:	50550513          	addi	a0,a0,1285 # b505 <offset+0xb489>
800028c0:	00257593          	andi	a1,a0,2
800028c4:	56b12823          	sw	a1,1392(sp)
800028c8:	00000313          	li	t1,0
800028cc:	00b30463          	beq	t1,a1,800028d4 <inst_368>
800028d0:	2640106f          	j	80003b34 <bad_trap>

800028d4 <inst_368>:
800028d4:	0000b537          	lui	a0,0xb
800028d8:	50550513          	addi	a0,a0,1285 # b505 <offset+0xb489>
800028dc:	55457593          	andi	a1,a0,1364
800028e0:	56b12a23          	sw	a1,1396(sp)
800028e4:	50400313          	li	t1,1284
800028e8:	00b30463          	beq	t1,a1,800028f0 <inst_369>
800028ec:	2480106f          	j	80003b34 <bad_trap>

800028f0 <inst_369>:
800028f0:	0000b537          	lui	a0,0xb
800028f4:	50550513          	addi	a0,a0,1285 # b505 <offset+0xb489>
800028f8:	00057593          	andi	a1,a0,0
800028fc:	56b12c23          	sw	a1,1400(sp)
80002900:	00000313          	li	t1,0
80002904:	00b30463          	beq	t1,a1,8000290c <inst_370>
80002908:	22c0106f          	j	80003b34 <bad_trap>

8000290c <inst_370>:
8000290c:	0000b537          	lui	a0,0xb
80002910:	50550513          	addi	a0,a0,1285 # b505 <offset+0xb489>
80002914:	00457593          	andi	a1,a0,4
80002918:	56b12e23          	sw	a1,1404(sp)
8000291c:	00400313          	li	t1,4
80002920:	00b30463          	beq	t1,a1,80002928 <inst_371>
80002924:	2100106f          	j	80003b34 <bad_trap>

80002928 <inst_371>:
80002928:	0000b537          	lui	a0,0xb
8000292c:	50550513          	addi	a0,a0,1285 # b505 <offset+0xb489>
80002930:	33257593          	andi	a1,a0,818
80002934:	58b12023          	sw	a1,1408(sp)
80002938:	10000313          	li	t1,256
8000293c:	00b30463          	beq	t1,a1,80002944 <inst_372>
80002940:	1f40106f          	j	80003b34 <bad_trap>

80002944 <inst_372>:
80002944:	0000b537          	lui	a0,0xb
80002948:	50550513          	addi	a0,a0,1285 # b505 <offset+0xb489>
8000294c:	66557593          	andi	a1,a0,1637
80002950:	58b12223          	sw	a1,1412(sp)
80002954:	40500313          	li	t1,1029
80002958:	00b30463          	beq	t1,a1,80002960 <inst_373>
8000295c:	1d80106f          	j	80003b34 <bad_trap>

80002960 <inst_373>:
80002960:	0000b537          	lui	a0,0xb
80002964:	50550513          	addi	a0,a0,1285 # b505 <offset+0xb489>
80002968:	02c57593          	andi	a1,a0,44
8000296c:	58b12423          	sw	a1,1416(sp)
80002970:	00400313          	li	t1,4
80002974:	00b30463          	beq	t1,a1,8000297c <inst_374>
80002978:	1bc0106f          	j	80003b34 <bad_trap>

8000297c <inst_374>:
8000297c:	0000b537          	lui	a0,0xb
80002980:	50550513          	addi	a0,a0,1285 # b505 <offset+0xb489>
80002984:	55657593          	andi	a1,a0,1366
80002988:	58b12623          	sw	a1,1420(sp)
8000298c:	50400313          	li	t1,1284
80002990:	00b30463          	beq	t1,a1,80002998 <inst_375>
80002994:	1a00106f          	j	80003b34 <bad_trap>

80002998 <inst_375>:
80002998:	0000b537          	lui	a0,0xb
8000299c:	50550513          	addi	a0,a0,1285 # b505 <offset+0xb489>
800029a0:	aab57593          	andi	a1,a0,-1365
800029a4:	58b12823          	sw	a1,1424(sp)
800029a8:	0000b337          	lui	t1,0xb
800029ac:	00130313          	addi	t1,t1,1 # b001 <offset+0xaf85>
800029b0:	00b30463          	beq	t1,a1,800029b8 <inst_376>
800029b4:	1800106f          	j	80003b34 <bad_trap>

800029b8 <inst_376>:
800029b8:	0000b537          	lui	a0,0xb
800029bc:	50550513          	addi	a0,a0,1285 # b505 <offset+0xb489>
800029c0:	00657593          	andi	a1,a0,6
800029c4:	58b12a23          	sw	a1,1428(sp)
800029c8:	00400313          	li	t1,4
800029cc:	00b30463          	beq	t1,a1,800029d4 <inst_377>
800029d0:	1640106f          	j	80003b34 <bad_trap>

800029d4 <inst_377>:
800029d4:	0000b537          	lui	a0,0xb
800029d8:	50550513          	addi	a0,a0,1285 # b505 <offset+0xb489>
800029dc:	33457593          	andi	a1,a0,820
800029e0:	58b12c23          	sw	a1,1432(sp)
800029e4:	10400313          	li	t1,260
800029e8:	00b30463          	beq	t1,a1,800029f0 <inst_378>
800029ec:	1480106f          	j	80003b34 <bad_trap>

800029f0 <inst_378>:
800029f0:	0000b537          	lui	a0,0xb
800029f4:	50550513          	addi	a0,a0,1285 # b505 <offset+0xb489>
800029f8:	66757593          	andi	a1,a0,1639
800029fc:	58b12e23          	sw	a1,1436(sp)
80002a00:	40500313          	li	t1,1029
80002a04:	00b30463          	beq	t1,a1,80002a0c <inst_379>
80002a08:	12c0106f          	j	80003b34 <bad_trap>

80002a0c <inst_379>:
80002a0c:	0000b537          	lui	a0,0xb
80002a10:	50550513          	addi	a0,a0,1285 # b505 <offset+0xb489>
80002a14:	fd457593          	andi	a1,a0,-44
80002a18:	5ab12023          	sw	a1,1440(sp)
80002a1c:	0000b337          	lui	t1,0xb
80002a20:	50430313          	addi	t1,t1,1284 # b504 <offset+0xb488>
80002a24:	00b30463          	beq	t1,a1,80002a2c <inst_380>
80002a28:	10c0106f          	j	80003b34 <bad_trap>

80002a2c <inst_380>:
80002a2c:	0000b537          	lui	a0,0xb
80002a30:	50550513          	addi	a0,a0,1285 # b505 <offset+0xb489>
80002a34:	02e57593          	andi	a1,a0,46
80002a38:	5ab12223          	sw	a1,1444(sp)
80002a3c:	00400313          	li	t1,4
80002a40:	00b30463          	beq	t1,a1,80002a48 <inst_381>
80002a44:	0f00106f          	j	80003b34 <bad_trap>

80002a48 <inst_381>:
80002a48:	00000513          	li	a0,0
80002a4c:	00257593          	andi	a1,a0,2
80002a50:	5ab12423          	sw	a1,1448(sp)
80002a54:	00000313          	li	t1,0
80002a58:	00b30463          	beq	t1,a1,80002a60 <inst_382>
80002a5c:	0d80106f          	j	80003b34 <bad_trap>

80002a60 <inst_382>:
80002a60:	00000513          	li	a0,0
80002a64:	55457593          	andi	a1,a0,1364
80002a68:	5ab12623          	sw	a1,1452(sp)
80002a6c:	00000313          	li	t1,0
80002a70:	00b30463          	beq	t1,a1,80002a78 <inst_383>
80002a74:	0c00106f          	j	80003b34 <bad_trap>

80002a78 <inst_383>:
80002a78:	00000513          	li	a0,0
80002a7c:	00057593          	andi	a1,a0,0
80002a80:	5ab12823          	sw	a1,1456(sp)
80002a84:	00000313          	li	t1,0
80002a88:	00b30463          	beq	t1,a1,80002a90 <inst_384>
80002a8c:	0a80106f          	j	80003b34 <bad_trap>

80002a90 <inst_384>:
80002a90:	00000513          	li	a0,0
80002a94:	00457593          	andi	a1,a0,4
80002a98:	5ab12a23          	sw	a1,1460(sp)
80002a9c:	00000313          	li	t1,0
80002aa0:	00b30463          	beq	t1,a1,80002aa8 <inst_385>
80002aa4:	0900106f          	j	80003b34 <bad_trap>

80002aa8 <inst_385>:
80002aa8:	00000513          	li	a0,0
80002aac:	33257593          	andi	a1,a0,818
80002ab0:	5ab12c23          	sw	a1,1464(sp)
80002ab4:	00000313          	li	t1,0
80002ab8:	00b30463          	beq	t1,a1,80002ac0 <inst_386>
80002abc:	0780106f          	j	80003b34 <bad_trap>

80002ac0 <inst_386>:
80002ac0:	00000513          	li	a0,0
80002ac4:	66557593          	andi	a1,a0,1637
80002ac8:	5ab12e23          	sw	a1,1468(sp)
80002acc:	00000313          	li	t1,0
80002ad0:	00b30463          	beq	t1,a1,80002ad8 <inst_387>
80002ad4:	0600106f          	j	80003b34 <bad_trap>

80002ad8 <inst_387>:
80002ad8:	00000513          	li	a0,0
80002adc:	02c57593          	andi	a1,a0,44
80002ae0:	5cb12023          	sw	a1,1472(sp)
80002ae4:	00000313          	li	t1,0
80002ae8:	00b30463          	beq	t1,a1,80002af0 <inst_388>
80002aec:	0480106f          	j	80003b34 <bad_trap>

80002af0 <inst_388>:
80002af0:	00000513          	li	a0,0
80002af4:	55657593          	andi	a1,a0,1366
80002af8:	5cb12223          	sw	a1,1476(sp)
80002afc:	00000313          	li	t1,0
80002b00:	00b30463          	beq	t1,a1,80002b08 <inst_389>
80002b04:	0300106f          	j	80003b34 <bad_trap>

80002b08 <inst_389>:
80002b08:	00000513          	li	a0,0
80002b0c:	aab57593          	andi	a1,a0,-1365
80002b10:	5cb12423          	sw	a1,1480(sp)
80002b14:	00000313          	li	t1,0
80002b18:	00b30463          	beq	t1,a1,80002b20 <inst_390>
80002b1c:	0180106f          	j	80003b34 <bad_trap>

80002b20 <inst_390>:
80002b20:	00000513          	li	a0,0
80002b24:	00657593          	andi	a1,a0,6
80002b28:	5cb12623          	sw	a1,1484(sp)
80002b2c:	00000313          	li	t1,0
80002b30:	00b30463          	beq	t1,a1,80002b38 <inst_391>
80002b34:	0000106f          	j	80003b34 <bad_trap>

80002b38 <inst_391>:
80002b38:	00000513          	li	a0,0
80002b3c:	33457593          	andi	a1,a0,820
80002b40:	5cb12823          	sw	a1,1488(sp)
80002b44:	00000313          	li	t1,0
80002b48:	00b30463          	beq	t1,a1,80002b50 <inst_392>
80002b4c:	7e90006f          	j	80003b34 <bad_trap>

80002b50 <inst_392>:
80002b50:	00000513          	li	a0,0
80002b54:	66757593          	andi	a1,a0,1639
80002b58:	5cb12a23          	sw	a1,1492(sp)
80002b5c:	00000313          	li	t1,0
80002b60:	7cb31ae3          	bne	t1,a1,80003b34 <bad_trap>

80002b64 <inst_393>:
80002b64:	00000513          	li	a0,0
80002b68:	fd457593          	andi	a1,a0,-44
80002b6c:	5cb12c23          	sw	a1,1496(sp)
80002b70:	00000313          	li	t1,0
80002b74:	7cb310e3          	bne	t1,a1,80003b34 <bad_trap>

80002b78 <inst_394>:
80002b78:	00000513          	li	a0,0
80002b7c:	02e57593          	andi	a1,a0,46
80002b80:	5cb12e23          	sw	a1,1500(sp)
80002b84:	00000313          	li	t1,0
80002b88:	7ab316e3          	bne	t1,a1,80003b34 <bad_trap>

80002b8c <inst_395>:
80002b8c:	00400513          	li	a0,4
80002b90:	00357593          	andi	a1,a0,3
80002b94:	5eb12023          	sw	a1,1504(sp)
80002b98:	00000313          	li	t1,0
80002b9c:	78b31ce3          	bne	t1,a1,80003b34 <bad_trap>

80002ba0 <inst_396>:
80002ba0:	00400513          	li	a0,4
80002ba4:	55557593          	andi	a1,a0,1365
80002ba8:	5eb12223          	sw	a1,1508(sp)
80002bac:	00400313          	li	t1,4
80002bb0:	78b312e3          	bne	t1,a1,80003b34 <bad_trap>

80002bb4 <inst_397>:
80002bb4:	00400513          	li	a0,4
80002bb8:	aaa57593          	andi	a1,a0,-1366
80002bbc:	5eb12423          	sw	a1,1512(sp)
80002bc0:	00000313          	li	t1,0
80002bc4:	76b318e3          	bne	t1,a1,80003b34 <bad_trap>

80002bc8 <inst_398>:
80002bc8:	00400513          	li	a0,4
80002bcc:	00557593          	andi	a1,a0,5
80002bd0:	5eb12623          	sw	a1,1516(sp)
80002bd4:	00400313          	li	t1,4
80002bd8:	74b31ee3          	bne	t1,a1,80003b34 <bad_trap>

80002bdc <inst_399>:
80002bdc:	00400513          	li	a0,4
80002be0:	33357593          	andi	a1,a0,819
80002be4:	5eb12823          	sw	a1,1520(sp)
80002be8:	00000313          	li	t1,0
80002bec:	74b314e3          	bne	t1,a1,80003b34 <bad_trap>

80002bf0 <inst_400>:
80002bf0:	00400513          	li	a0,4
80002bf4:	66657593          	andi	a1,a0,1638
80002bf8:	5eb12a23          	sw	a1,1524(sp)
80002bfc:	00400313          	li	t1,4
80002c00:	72b31ae3          	bne	t1,a1,80003b34 <bad_trap>

80002c04 <inst_401>:
80002c04:	00400513          	li	a0,4
80002c08:	fd357593          	andi	a1,a0,-45
80002c0c:	5eb12c23          	sw	a1,1528(sp)
80002c10:	00000313          	li	t1,0
80002c14:	72b310e3          	bne	t1,a1,80003b34 <bad_trap>

80002c18 <inst_402>:
80002c18:	00400513          	li	a0,4
80002c1c:	02d57593          	andi	a1,a0,45
80002c20:	5eb12e23          	sw	a1,1532(sp)
80002c24:	00400313          	li	t1,4
80002c28:	70b316e3          	bne	t1,a1,80003b34 <bad_trap>

80002c2c <inst_403>:
80002c2c:	00400513          	li	a0,4
80002c30:	00257593          	andi	a1,a0,2
80002c34:	60b12023          	sw	a1,1536(sp)
80002c38:	00000313          	li	t1,0
80002c3c:	6eb31ce3          	bne	t1,a1,80003b34 <bad_trap>

80002c40 <inst_404>:
80002c40:	00400513          	li	a0,4
80002c44:	55457593          	andi	a1,a0,1364
80002c48:	60b12223          	sw	a1,1540(sp)
80002c4c:	00400313          	li	t1,4
80002c50:	6eb312e3          	bne	t1,a1,80003b34 <bad_trap>

80002c54 <inst_405>:
80002c54:	00400513          	li	a0,4
80002c58:	00057593          	andi	a1,a0,0
80002c5c:	60b12423          	sw	a1,1544(sp)
80002c60:	00000313          	li	t1,0
80002c64:	6cb318e3          	bne	t1,a1,80003b34 <bad_trap>

80002c68 <inst_406>:
80002c68:	00400513          	li	a0,4
80002c6c:	00457593          	andi	a1,a0,4
80002c70:	60b12623          	sw	a1,1548(sp)
80002c74:	00400313          	li	t1,4
80002c78:	6ab31ee3          	bne	t1,a1,80003b34 <bad_trap>

80002c7c <inst_407>:
80002c7c:	00400513          	li	a0,4
80002c80:	33257593          	andi	a1,a0,818
80002c84:	60b12823          	sw	a1,1552(sp)
80002c88:	00000313          	li	t1,0
80002c8c:	6ab314e3          	bne	t1,a1,80003b34 <bad_trap>

80002c90 <inst_408>:
80002c90:	00400513          	li	a0,4
80002c94:	66557593          	andi	a1,a0,1637
80002c98:	60b12a23          	sw	a1,1556(sp)
80002c9c:	00400313          	li	t1,4
80002ca0:	68b31ae3          	bne	t1,a1,80003b34 <bad_trap>

80002ca4 <inst_409>:
80002ca4:	00400513          	li	a0,4
80002ca8:	02c57593          	andi	a1,a0,44
80002cac:	60b12c23          	sw	a1,1560(sp)
80002cb0:	00400313          	li	t1,4
80002cb4:	68b310e3          	bne	t1,a1,80003b34 <bad_trap>

80002cb8 <inst_410>:
80002cb8:	00400513          	li	a0,4
80002cbc:	55657593          	andi	a1,a0,1366
80002cc0:	60b12e23          	sw	a1,1564(sp)
80002cc4:	00400313          	li	t1,4
80002cc8:	66b316e3          	bne	t1,a1,80003b34 <bad_trap>

80002ccc <inst_411>:
80002ccc:	00400513          	li	a0,4
80002cd0:	aab57593          	andi	a1,a0,-1365
80002cd4:	62b12023          	sw	a1,1568(sp)
80002cd8:	00000313          	li	t1,0
80002cdc:	64b31ce3          	bne	t1,a1,80003b34 <bad_trap>

80002ce0 <inst_412>:
80002ce0:	00400513          	li	a0,4
80002ce4:	00657593          	andi	a1,a0,6
80002ce8:	62b12223          	sw	a1,1572(sp)
80002cec:	00400313          	li	t1,4
80002cf0:	64b312e3          	bne	t1,a1,80003b34 <bad_trap>

80002cf4 <inst_413>:
80002cf4:	00400513          	li	a0,4
80002cf8:	33457593          	andi	a1,a0,820
80002cfc:	62b12423          	sw	a1,1576(sp)
80002d00:	00400313          	li	t1,4
80002d04:	62b318e3          	bne	t1,a1,80003b34 <bad_trap>

80002d08 <inst_414>:
80002d08:	00400513          	li	a0,4
80002d0c:	fd457593          	andi	a1,a0,-44
80002d10:	62b12623          	sw	a1,1580(sp)
80002d14:	00400313          	li	t1,4
80002d18:	60b31ee3          	bne	t1,a1,80003b34 <bad_trap>

80002d1c <inst_415>:
80002d1c:	00400513          	li	a0,4
80002d20:	02e57593          	andi	a1,a0,46
80002d24:	62b12823          	sw	a1,1584(sp)
80002d28:	00400313          	li	t1,4
80002d2c:	60b314e3          	bne	t1,a1,80003b34 <bad_trap>

80002d30 <inst_416>:
80002d30:	33333537          	lui	a0,0x33333
80002d34:	33250513          	addi	a0,a0,818 # 33333332 <offset+0x333332b6>
80002d38:	00357593          	andi	a1,a0,3
80002d3c:	62b12a23          	sw	a1,1588(sp)
80002d40:	00200313          	li	t1,2
80002d44:	5eb318e3          	bne	t1,a1,80003b34 <bad_trap>

80002d48 <inst_417>:
80002d48:	33333537          	lui	a0,0x33333
80002d4c:	33250513          	addi	a0,a0,818 # 33333332 <offset+0x333332b6>
80002d50:	55557593          	andi	a1,a0,1365
80002d54:	62b12c23          	sw	a1,1592(sp)
80002d58:	11000313          	li	t1,272
80002d5c:	5cb31ce3          	bne	t1,a1,80003b34 <bad_trap>

80002d60 <inst_418>:
80002d60:	33333537          	lui	a0,0x33333
80002d64:	33250513          	addi	a0,a0,818 # 33333332 <offset+0x333332b6>
80002d68:	aaa57593          	andi	a1,a0,-1366
80002d6c:	62b12e23          	sw	a1,1596(sp)
80002d70:	33333337          	lui	t1,0x33333
80002d74:	22230313          	addi	t1,t1,546 # 33333222 <offset+0x333331a6>
80002d78:	5ab31ee3          	bne	t1,a1,80003b34 <bad_trap>

80002d7c <inst_419>:
80002d7c:	33333537          	lui	a0,0x33333
80002d80:	33250513          	addi	a0,a0,818 # 33333332 <offset+0x333332b6>
80002d84:	00557593          	andi	a1,a0,5
80002d88:	64b12023          	sw	a1,1600(sp)
80002d8c:	00000313          	li	t1,0
80002d90:	5ab312e3          	bne	t1,a1,80003b34 <bad_trap>

80002d94 <inst_420>:
80002d94:	33333537          	lui	a0,0x33333
80002d98:	33250513          	addi	a0,a0,818 # 33333332 <offset+0x333332b6>
80002d9c:	33357593          	andi	a1,a0,819
80002da0:	64b12223          	sw	a1,1604(sp)
80002da4:	33200313          	li	t1,818
80002da8:	58b316e3          	bne	t1,a1,80003b34 <bad_trap>

80002dac <inst_421>:
80002dac:	33333537          	lui	a0,0x33333
80002db0:	33250513          	addi	a0,a0,818 # 33333332 <offset+0x333332b6>
80002db4:	66657593          	andi	a1,a0,1638
80002db8:	64b12423          	sw	a1,1608(sp)
80002dbc:	22200313          	li	t1,546
80002dc0:	56b31ae3          	bne	t1,a1,80003b34 <bad_trap>

80002dc4 <inst_422>:
80002dc4:	33333537          	lui	a0,0x33333
80002dc8:	33250513          	addi	a0,a0,818 # 33333332 <offset+0x333332b6>
80002dcc:	fd357593          	andi	a1,a0,-45
80002dd0:	64b12623          	sw	a1,1612(sp)
80002dd4:	33333337          	lui	t1,0x33333
80002dd8:	31230313          	addi	t1,t1,786 # 33333312 <offset+0x33333296>
80002ddc:	54b31ce3          	bne	t1,a1,80003b34 <bad_trap>

80002de0 <inst_423>:
80002de0:	33333537          	lui	a0,0x33333
80002de4:	33250513          	addi	a0,a0,818 # 33333332 <offset+0x333332b6>
80002de8:	02d57593          	andi	a1,a0,45
80002dec:	64b12823          	sw	a1,1616(sp)
80002df0:	02000313          	li	t1,32
80002df4:	54b310e3          	bne	t1,a1,80003b34 <bad_trap>

80002df8 <inst_424>:
80002df8:	33333537          	lui	a0,0x33333
80002dfc:	33250513          	addi	a0,a0,818 # 33333332 <offset+0x333332b6>
80002e00:	00257593          	andi	a1,a0,2
80002e04:	64b12a23          	sw	a1,1620(sp)
80002e08:	00200313          	li	t1,2
80002e0c:	52b314e3          	bne	t1,a1,80003b34 <bad_trap>

80002e10 <inst_425>:
80002e10:	33333537          	lui	a0,0x33333
80002e14:	33250513          	addi	a0,a0,818 # 33333332 <offset+0x333332b6>
80002e18:	55457593          	andi	a1,a0,1364
80002e1c:	64b12c23          	sw	a1,1624(sp)
80002e20:	11000313          	li	t1,272
80002e24:	50b318e3          	bne	t1,a1,80003b34 <bad_trap>

80002e28 <inst_426>:
80002e28:	33333537          	lui	a0,0x33333
80002e2c:	33250513          	addi	a0,a0,818 # 33333332 <offset+0x333332b6>
80002e30:	00057593          	andi	a1,a0,0
80002e34:	64b12e23          	sw	a1,1628(sp)
80002e38:	00000313          	li	t1,0
80002e3c:	4eb31ce3          	bne	t1,a1,80003b34 <bad_trap>

80002e40 <inst_427>:
80002e40:	33333537          	lui	a0,0x33333
80002e44:	33250513          	addi	a0,a0,818 # 33333332 <offset+0x333332b6>
80002e48:	00457593          	andi	a1,a0,4
80002e4c:	66b12023          	sw	a1,1632(sp)
80002e50:	00000313          	li	t1,0
80002e54:	4eb310e3          	bne	t1,a1,80003b34 <bad_trap>

80002e58 <inst_428>:
80002e58:	33333537          	lui	a0,0x33333
80002e5c:	33250513          	addi	a0,a0,818 # 33333332 <offset+0x333332b6>
80002e60:	33257593          	andi	a1,a0,818
80002e64:	66b12223          	sw	a1,1636(sp)
80002e68:	33200313          	li	t1,818
80002e6c:	4cb314e3          	bne	t1,a1,80003b34 <bad_trap>

80002e70 <inst_429>:
80002e70:	33333537          	lui	a0,0x33333
80002e74:	33250513          	addi	a0,a0,818 # 33333332 <offset+0x333332b6>
80002e78:	66557593          	andi	a1,a0,1637
80002e7c:	66b12423          	sw	a1,1640(sp)
80002e80:	22000313          	li	t1,544
80002e84:	4ab318e3          	bne	t1,a1,80003b34 <bad_trap>

80002e88 <inst_430>:
80002e88:	33333537          	lui	a0,0x33333
80002e8c:	33250513          	addi	a0,a0,818 # 33333332 <offset+0x333332b6>
80002e90:	02c57593          	andi	a1,a0,44
80002e94:	66b12623          	sw	a1,1644(sp)
80002e98:	02000313          	li	t1,32
80002e9c:	48b31ce3          	bne	t1,a1,80003b34 <bad_trap>

80002ea0 <inst_431>:
80002ea0:	33333537          	lui	a0,0x33333
80002ea4:	33250513          	addi	a0,a0,818 # 33333332 <offset+0x333332b6>
80002ea8:	55657593          	andi	a1,a0,1366
80002eac:	66b12823          	sw	a1,1648(sp)
80002eb0:	11200313          	li	t1,274
80002eb4:	48b310e3          	bne	t1,a1,80003b34 <bad_trap>

80002eb8 <inst_432>:
80002eb8:	33333537          	lui	a0,0x33333
80002ebc:	33250513          	addi	a0,a0,818 # 33333332 <offset+0x333332b6>
80002ec0:	aab57593          	andi	a1,a0,-1365
80002ec4:	66b12a23          	sw	a1,1652(sp)
80002ec8:	33333337          	lui	t1,0x33333
80002ecc:	22230313          	addi	t1,t1,546 # 33333222 <offset+0x333331a6>
80002ed0:	46b312e3          	bne	t1,a1,80003b34 <bad_trap>

80002ed4 <inst_433>:
80002ed4:	33333537          	lui	a0,0x33333
80002ed8:	33250513          	addi	a0,a0,818 # 33333332 <offset+0x333332b6>
80002edc:	00657593          	andi	a1,a0,6
80002ee0:	66b12c23          	sw	a1,1656(sp)
80002ee4:	00200313          	li	t1,2
80002ee8:	44b316e3          	bne	t1,a1,80003b34 <bad_trap>

80002eec <inst_434>:
80002eec:	33333537          	lui	a0,0x33333
80002ef0:	33250513          	addi	a0,a0,818 # 33333332 <offset+0x333332b6>
80002ef4:	33457593          	andi	a1,a0,820
80002ef8:	66b12e23          	sw	a1,1660(sp)
80002efc:	33000313          	li	t1,816
80002f00:	42b31ae3          	bne	t1,a1,80003b34 <bad_trap>

80002f04 <inst_435>:
80002f04:	33333537          	lui	a0,0x33333
80002f08:	33250513          	addi	a0,a0,818 # 33333332 <offset+0x333332b6>
80002f0c:	66757593          	andi	a1,a0,1639
80002f10:	68b12023          	sw	a1,1664(sp)
80002f14:	22200313          	li	t1,546
80002f18:	40b31ee3          	bne	t1,a1,80003b34 <bad_trap>

80002f1c <inst_436>:
80002f1c:	33333537          	lui	a0,0x33333
80002f20:	33250513          	addi	a0,a0,818 # 33333332 <offset+0x333332b6>
80002f24:	fd457593          	andi	a1,a0,-44
80002f28:	68b12223          	sw	a1,1668(sp)
80002f2c:	33333337          	lui	t1,0x33333
80002f30:	31030313          	addi	t1,t1,784 # 33333310 <offset+0x33333294>
80002f34:	40b310e3          	bne	t1,a1,80003b34 <bad_trap>

80002f38 <inst_437>:
80002f38:	33333537          	lui	a0,0x33333
80002f3c:	33250513          	addi	a0,a0,818 # 33333332 <offset+0x333332b6>
80002f40:	02e57593          	andi	a1,a0,46
80002f44:	68b12423          	sw	a1,1672(sp)
80002f48:	02200313          	li	t1,34
80002f4c:	3eb314e3          	bne	t1,a1,80003b34 <bad_trap>

80002f50 <inst_438>:
80002f50:	66666537          	lui	a0,0x66666
80002f54:	66550513          	addi	a0,a0,1637 # 66666665 <absimm+0x21374136>
80002f58:	00357593          	andi	a1,a0,3
80002f5c:	68b12623          	sw	a1,1676(sp)
80002f60:	00100313          	li	t1,1
80002f64:	3cb318e3          	bne	t1,a1,80003b34 <bad_trap>

80002f68 <inst_439>:
80002f68:	66666537          	lui	a0,0x66666
80002f6c:	66550513          	addi	a0,a0,1637 # 66666665 <absimm+0x21374136>
80002f70:	55557593          	andi	a1,a0,1365
80002f74:	68b12823          	sw	a1,1680(sp)
80002f78:	44500313          	li	t1,1093
80002f7c:	3ab31ce3          	bne	t1,a1,80003b34 <bad_trap>

80002f80 <inst_440>:
80002f80:	66666537          	lui	a0,0x66666
80002f84:	66550513          	addi	a0,a0,1637 # 66666665 <absimm+0x21374136>
80002f88:	aaa57593          	andi	a1,a0,-1366
80002f8c:	68b12a23          	sw	a1,1684(sp)
80002f90:	66666337          	lui	t1,0x66666
80002f94:	22030313          	addi	t1,t1,544 # 66666220 <absimm+0x21373cf1>
80002f98:	38b31ee3          	bne	t1,a1,80003b34 <bad_trap>

80002f9c <inst_441>:
80002f9c:	66666537          	lui	a0,0x66666
80002fa0:	66550513          	addi	a0,a0,1637 # 66666665 <absimm+0x21374136>
80002fa4:	00557593          	andi	a1,a0,5
80002fa8:	68b12c23          	sw	a1,1688(sp)
80002fac:	00500313          	li	t1,5
80002fb0:	38b312e3          	bne	t1,a1,80003b34 <bad_trap>

80002fb4 <inst_442>:
80002fb4:	66666537          	lui	a0,0x66666
80002fb8:	66550513          	addi	a0,a0,1637 # 66666665 <absimm+0x21374136>
80002fbc:	33357593          	andi	a1,a0,819
80002fc0:	68b12e23          	sw	a1,1692(sp)
80002fc4:	22100313          	li	t1,545
80002fc8:	36b316e3          	bne	t1,a1,80003b34 <bad_trap>

80002fcc <inst_443>:
80002fcc:	66666537          	lui	a0,0x66666
80002fd0:	66550513          	addi	a0,a0,1637 # 66666665 <absimm+0x21374136>
80002fd4:	66657593          	andi	a1,a0,1638
80002fd8:	6ab12023          	sw	a1,1696(sp)
80002fdc:	66400313          	li	t1,1636
80002fe0:	34b31ae3          	bne	t1,a1,80003b34 <bad_trap>

80002fe4 <inst_444>:
80002fe4:	66666537          	lui	a0,0x66666
80002fe8:	66550513          	addi	a0,a0,1637 # 66666665 <absimm+0x21374136>
80002fec:	fd357593          	andi	a1,a0,-45
80002ff0:	6ab12223          	sw	a1,1700(sp)
80002ff4:	66666337          	lui	t1,0x66666
80002ff8:	64130313          	addi	t1,t1,1601 # 66666641 <absimm+0x21374112>
80002ffc:	32b31ce3          	bne	t1,a1,80003b34 <bad_trap>

80003000 <inst_445>:
80003000:	66666537          	lui	a0,0x66666
80003004:	66550513          	addi	a0,a0,1637 # 66666665 <absimm+0x21374136>
80003008:	02d57593          	andi	a1,a0,45
8000300c:	6ab12423          	sw	a1,1704(sp)
80003010:	02500313          	li	t1,37
80003014:	32b310e3          	bne	t1,a1,80003b34 <bad_trap>

80003018 <inst_446>:
80003018:	66666537          	lui	a0,0x66666
8000301c:	66550513          	addi	a0,a0,1637 # 66666665 <absimm+0x21374136>
80003020:	00257593          	andi	a1,a0,2
80003024:	6ab12623          	sw	a1,1708(sp)
80003028:	00000313          	li	t1,0
8000302c:	30b314e3          	bne	t1,a1,80003b34 <bad_trap>

80003030 <inst_447>:
80003030:	66666537          	lui	a0,0x66666
80003034:	66550513          	addi	a0,a0,1637 # 66666665 <absimm+0x21374136>
80003038:	55457593          	andi	a1,a0,1364
8000303c:	6ab12823          	sw	a1,1712(sp)
80003040:	44400313          	li	t1,1092
80003044:	2eb318e3          	bne	t1,a1,80003b34 <bad_trap>

80003048 <inst_448>:
80003048:	66666537          	lui	a0,0x66666
8000304c:	66550513          	addi	a0,a0,1637 # 66666665 <absimm+0x21374136>
80003050:	00057593          	andi	a1,a0,0
80003054:	6ab12a23          	sw	a1,1716(sp)
80003058:	00000313          	li	t1,0
8000305c:	2cb31ce3          	bne	t1,a1,80003b34 <bad_trap>

80003060 <inst_449>:
80003060:	66666537          	lui	a0,0x66666
80003064:	66550513          	addi	a0,a0,1637 # 66666665 <absimm+0x21374136>
80003068:	00457593          	andi	a1,a0,4
8000306c:	6ab12c23          	sw	a1,1720(sp)
80003070:	00400313          	li	t1,4
80003074:	2cb310e3          	bne	t1,a1,80003b34 <bad_trap>

80003078 <inst_450>:
80003078:	66666537          	lui	a0,0x66666
8000307c:	66550513          	addi	a0,a0,1637 # 66666665 <absimm+0x21374136>
80003080:	33257593          	andi	a1,a0,818
80003084:	6ab12e23          	sw	a1,1724(sp)
80003088:	22000313          	li	t1,544
8000308c:	2ab314e3          	bne	t1,a1,80003b34 <bad_trap>

80003090 <inst_451>:
80003090:	66666537          	lui	a0,0x66666
80003094:	66550513          	addi	a0,a0,1637 # 66666665 <absimm+0x21374136>
80003098:	66557593          	andi	a1,a0,1637
8000309c:	6cb12023          	sw	a1,1728(sp)
800030a0:	66500313          	li	t1,1637
800030a4:	28b318e3          	bne	t1,a1,80003b34 <bad_trap>

800030a8 <inst_452>:
800030a8:	66666537          	lui	a0,0x66666
800030ac:	66550513          	addi	a0,a0,1637 # 66666665 <absimm+0x21374136>
800030b0:	02c57593          	andi	a1,a0,44
800030b4:	6cb12223          	sw	a1,1732(sp)
800030b8:	02400313          	li	t1,36
800030bc:	26b31ce3          	bne	t1,a1,80003b34 <bad_trap>

800030c0 <inst_453>:
800030c0:	66666537          	lui	a0,0x66666
800030c4:	66550513          	addi	a0,a0,1637 # 66666665 <absimm+0x21374136>
800030c8:	55657593          	andi	a1,a0,1366
800030cc:	6cb12423          	sw	a1,1736(sp)
800030d0:	44400313          	li	t1,1092
800030d4:	26b310e3          	bne	t1,a1,80003b34 <bad_trap>

800030d8 <inst_454>:
800030d8:	66666537          	lui	a0,0x66666
800030dc:	66550513          	addi	a0,a0,1637 # 66666665 <absimm+0x21374136>
800030e0:	aab57593          	andi	a1,a0,-1365
800030e4:	6cb12623          	sw	a1,1740(sp)
800030e8:	66666337          	lui	t1,0x66666
800030ec:	22130313          	addi	t1,t1,545 # 66666221 <absimm+0x21373cf2>
800030f0:	24b312e3          	bne	t1,a1,80003b34 <bad_trap>

800030f4 <inst_455>:
800030f4:	66666537          	lui	a0,0x66666
800030f8:	66550513          	addi	a0,a0,1637 # 66666665 <absimm+0x21374136>
800030fc:	00657593          	andi	a1,a0,6
80003100:	6cb12823          	sw	a1,1744(sp)
80003104:	00400313          	li	t1,4
80003108:	22b316e3          	bne	t1,a1,80003b34 <bad_trap>

8000310c <inst_456>:
8000310c:	66666537          	lui	a0,0x66666
80003110:	66550513          	addi	a0,a0,1637 # 66666665 <absimm+0x21374136>
80003114:	33457593          	andi	a1,a0,820
80003118:	6cb12a23          	sw	a1,1748(sp)
8000311c:	22400313          	li	t1,548
80003120:	20b31ae3          	bne	t1,a1,80003b34 <bad_trap>

80003124 <inst_457>:
80003124:	66666537          	lui	a0,0x66666
80003128:	66550513          	addi	a0,a0,1637 # 66666665 <absimm+0x21374136>
8000312c:	66757593          	andi	a1,a0,1639
80003130:	6cb12c23          	sw	a1,1752(sp)
80003134:	66500313          	li	t1,1637
80003138:	1eb31ee3          	bne	t1,a1,80003b34 <bad_trap>

8000313c <inst_458>:
8000313c:	66666537          	lui	a0,0x66666
80003140:	66550513          	addi	a0,a0,1637 # 66666665 <absimm+0x21374136>
80003144:	fd457593          	andi	a1,a0,-44
80003148:	6cb12e23          	sw	a1,1756(sp)
8000314c:	66666337          	lui	t1,0x66666
80003150:	64430313          	addi	t1,t1,1604 # 66666644 <absimm+0x21374115>
80003154:	1eb310e3          	bne	t1,a1,80003b34 <bad_trap>

80003158 <inst_459>:
80003158:	66666537          	lui	a0,0x66666
8000315c:	66550513          	addi	a0,a0,1637 # 66666665 <absimm+0x21374136>
80003160:	02e57593          	andi	a1,a0,46
80003164:	6eb12023          	sw	a1,1760(sp)
80003168:	02400313          	li	t1,36
8000316c:	1cb314e3          	bne	t1,a1,80003b34 <bad_trap>

80003170 <inst_460>:
80003170:	0000b537          	lui	a0,0xb
80003174:	50350513          	addi	a0,a0,1283 # b503 <offset+0xb487>
80003178:	00357593          	andi	a1,a0,3
8000317c:	6eb12223          	sw	a1,1764(sp)
80003180:	00300313          	li	t1,3
80003184:	1ab318e3          	bne	t1,a1,80003b34 <bad_trap>

80003188 <inst_461>:
80003188:	0000b537          	lui	a0,0xb
8000318c:	50350513          	addi	a0,a0,1283 # b503 <offset+0xb487>
80003190:	55557593          	andi	a1,a0,1365
80003194:	6eb12423          	sw	a1,1768(sp)
80003198:	50100313          	li	t1,1281
8000319c:	18b31ce3          	bne	t1,a1,80003b34 <bad_trap>

800031a0 <inst_462>:
800031a0:	0000b537          	lui	a0,0xb
800031a4:	50350513          	addi	a0,a0,1283 # b503 <offset+0xb487>
800031a8:	aaa57593          	andi	a1,a0,-1366
800031ac:	6eb12623          	sw	a1,1772(sp)
800031b0:	0000b337          	lui	t1,0xb
800031b4:	00230313          	addi	t1,t1,2 # b002 <offset+0xaf86>
800031b8:	16b31ee3          	bne	t1,a1,80003b34 <bad_trap>

800031bc <inst_463>:
800031bc:	0000b537          	lui	a0,0xb
800031c0:	50350513          	addi	a0,a0,1283 # b503 <offset+0xb487>
800031c4:	00557593          	andi	a1,a0,5
800031c8:	6eb12823          	sw	a1,1776(sp)
800031cc:	00100313          	li	t1,1
800031d0:	16b312e3          	bne	t1,a1,80003b34 <bad_trap>

800031d4 <inst_464>:
800031d4:	0000b537          	lui	a0,0xb
800031d8:	50350513          	addi	a0,a0,1283 # b503 <offset+0xb487>
800031dc:	33357593          	andi	a1,a0,819
800031e0:	6eb12a23          	sw	a1,1780(sp)
800031e4:	10300313          	li	t1,259
800031e8:	14b316e3          	bne	t1,a1,80003b34 <bad_trap>

800031ec <inst_465>:
800031ec:	0000b537          	lui	a0,0xb
800031f0:	50350513          	addi	a0,a0,1283 # b503 <offset+0xb487>
800031f4:	66657593          	andi	a1,a0,1638
800031f8:	6eb12c23          	sw	a1,1784(sp)
800031fc:	40200313          	li	t1,1026
80003200:	12b31ae3          	bne	t1,a1,80003b34 <bad_trap>

80003204 <inst_466>:
80003204:	0000b537          	lui	a0,0xb
80003208:	50350513          	addi	a0,a0,1283 # b503 <offset+0xb487>
8000320c:	fd357593          	andi	a1,a0,-45
80003210:	6eb12e23          	sw	a1,1788(sp)
80003214:	0000b337          	lui	t1,0xb
80003218:	50330313          	addi	t1,t1,1283 # b503 <offset+0xb487>
8000321c:	10b31ce3          	bne	t1,a1,80003b34 <bad_trap>

80003220 <inst_467>:
80003220:	0000b537          	lui	a0,0xb
80003224:	50350513          	addi	a0,a0,1283 # b503 <offset+0xb487>
80003228:	02d57593          	andi	a1,a0,45
8000322c:	70b12023          	sw	a1,1792(sp)
80003230:	00100313          	li	t1,1
80003234:	10b310e3          	bne	t1,a1,80003b34 <bad_trap>

80003238 <inst_468>:
80003238:	0000b537          	lui	a0,0xb
8000323c:	50350513          	addi	a0,a0,1283 # b503 <offset+0xb487>
80003240:	00257593          	andi	a1,a0,2
80003244:	70b12223          	sw	a1,1796(sp)
80003248:	00200313          	li	t1,2
8000324c:	0eb314e3          	bne	t1,a1,80003b34 <bad_trap>

80003250 <inst_469>:
80003250:	0000b537          	lui	a0,0xb
80003254:	50350513          	addi	a0,a0,1283 # b503 <offset+0xb487>
80003258:	55457593          	andi	a1,a0,1364
8000325c:	70b12423          	sw	a1,1800(sp)
80003260:	50000313          	li	t1,1280
80003264:	0cb318e3          	bne	t1,a1,80003b34 <bad_trap>

80003268 <inst_470>:
80003268:	0000b537          	lui	a0,0xb
8000326c:	50350513          	addi	a0,a0,1283 # b503 <offset+0xb487>
80003270:	00057593          	andi	a1,a0,0
80003274:	70b12623          	sw	a1,1804(sp)
80003278:	00000313          	li	t1,0
8000327c:	0ab31ce3          	bne	t1,a1,80003b34 <bad_trap>

80003280 <inst_471>:
80003280:	0000b537          	lui	a0,0xb
80003284:	50350513          	addi	a0,a0,1283 # b503 <offset+0xb487>
80003288:	00457593          	andi	a1,a0,4
8000328c:	70b12823          	sw	a1,1808(sp)
80003290:	00000313          	li	t1,0
80003294:	0ab310e3          	bne	t1,a1,80003b34 <bad_trap>

80003298 <inst_472>:
80003298:	0000b537          	lui	a0,0xb
8000329c:	50350513          	addi	a0,a0,1283 # b503 <offset+0xb487>
800032a0:	33257593          	andi	a1,a0,818
800032a4:	70b12a23          	sw	a1,1812(sp)
800032a8:	10200313          	li	t1,258
800032ac:	08b314e3          	bne	t1,a1,80003b34 <bad_trap>

800032b0 <inst_473>:
800032b0:	0000b537          	lui	a0,0xb
800032b4:	50350513          	addi	a0,a0,1283 # b503 <offset+0xb487>
800032b8:	66557593          	andi	a1,a0,1637
800032bc:	70b12c23          	sw	a1,1816(sp)
800032c0:	40100313          	li	t1,1025
800032c4:	06b318e3          	bne	t1,a1,80003b34 <bad_trap>

800032c8 <inst_474>:
800032c8:	0000b537          	lui	a0,0xb
800032cc:	50350513          	addi	a0,a0,1283 # b503 <offset+0xb487>
800032d0:	02c57593          	andi	a1,a0,44
800032d4:	70b12e23          	sw	a1,1820(sp)
800032d8:	00000313          	li	t1,0
800032dc:	04b31ce3          	bne	t1,a1,80003b34 <bad_trap>

800032e0 <inst_475>:
800032e0:	0000b537          	lui	a0,0xb
800032e4:	50350513          	addi	a0,a0,1283 # b503 <offset+0xb487>
800032e8:	55657593          	andi	a1,a0,1366
800032ec:	72b12023          	sw	a1,1824(sp)
800032f0:	50200313          	li	t1,1282
800032f4:	04b310e3          	bne	t1,a1,80003b34 <bad_trap>

800032f8 <inst_476>:
800032f8:	0000b537          	lui	a0,0xb
800032fc:	50350513          	addi	a0,a0,1283 # b503 <offset+0xb487>
80003300:	aab57593          	andi	a1,a0,-1365
80003304:	72b12223          	sw	a1,1828(sp)
80003308:	0000b337          	lui	t1,0xb
8000330c:	00330313          	addi	t1,t1,3 # b003 <offset+0xaf87>
80003310:	02b312e3          	bne	t1,a1,80003b34 <bad_trap>

80003314 <inst_477>:
80003314:	0000b537          	lui	a0,0xb
80003318:	50350513          	addi	a0,a0,1283 # b503 <offset+0xb487>
8000331c:	00657593          	andi	a1,a0,6
80003320:	72b12423          	sw	a1,1832(sp)
80003324:	00200313          	li	t1,2
80003328:	00b316e3          	bne	t1,a1,80003b34 <bad_trap>

8000332c <inst_478>:
8000332c:	0000b537          	lui	a0,0xb
80003330:	50350513          	addi	a0,a0,1283 # b503 <offset+0xb487>
80003334:	33457593          	andi	a1,a0,820
80003338:	72b12623          	sw	a1,1836(sp)
8000333c:	10000313          	li	t1,256
80003340:	7eb31a63          	bne	t1,a1,80003b34 <bad_trap>

80003344 <inst_479>:
80003344:	0000b537          	lui	a0,0xb
80003348:	50350513          	addi	a0,a0,1283 # b503 <offset+0xb487>
8000334c:	66757593          	andi	a1,a0,1639
80003350:	72b12823          	sw	a1,1840(sp)
80003354:	40300313          	li	t1,1027
80003358:	7cb31e63          	bne	t1,a1,80003b34 <bad_trap>

8000335c <inst_480>:
8000335c:	0000b537          	lui	a0,0xb
80003360:	50350513          	addi	a0,a0,1283 # b503 <offset+0xb487>
80003364:	fd457593          	andi	a1,a0,-44
80003368:	72b12a23          	sw	a1,1844(sp)
8000336c:	0000b337          	lui	t1,0xb
80003370:	50030313          	addi	t1,t1,1280 # b500 <offset+0xb484>
80003374:	7cb31063          	bne	t1,a1,80003b34 <bad_trap>

80003378 <inst_481>:
80003378:	0000b537          	lui	a0,0xb
8000337c:	50350513          	addi	a0,a0,1283 # b503 <offset+0xb487>
80003380:	02e57593          	andi	a1,a0,46
80003384:	72b12c23          	sw	a1,1848(sp)
80003388:	00200313          	li	t1,2
8000338c:	7ab31463          	bne	t1,a1,80003b34 <bad_trap>

80003390 <inst_482>:
80003390:	55555537          	lui	a0,0x55555
80003394:	55650513          	addi	a0,a0,1366 # 55555556 <absimm+0x10263027>
80003398:	00357593          	andi	a1,a0,3
8000339c:	72b12e23          	sw	a1,1852(sp)
800033a0:	00200313          	li	t1,2
800033a4:	78b31863          	bne	t1,a1,80003b34 <bad_trap>

800033a8 <inst_483>:
800033a8:	55555537          	lui	a0,0x55555
800033ac:	55650513          	addi	a0,a0,1366 # 55555556 <absimm+0x10263027>
800033b0:	55557593          	andi	a1,a0,1365
800033b4:	74b12023          	sw	a1,1856(sp)
800033b8:	55400313          	li	t1,1364
800033bc:	76b31c63          	bne	t1,a1,80003b34 <bad_trap>

800033c0 <inst_484>:
800033c0:	55555537          	lui	a0,0x55555
800033c4:	55650513          	addi	a0,a0,1366 # 55555556 <absimm+0x10263027>
800033c8:	aaa57593          	andi	a1,a0,-1366
800033cc:	74b12223          	sw	a1,1860(sp)
800033d0:	55555337          	lui	t1,0x55555
800033d4:	00230313          	addi	t1,t1,2 # 55555002 <absimm+0x10262ad3>
800033d8:	74b31e63          	bne	t1,a1,80003b34 <bad_trap>

800033dc <inst_485>:
800033dc:	55555537          	lui	a0,0x55555
800033e0:	55650513          	addi	a0,a0,1366 # 55555556 <absimm+0x10263027>
800033e4:	00557593          	andi	a1,a0,5
800033e8:	74b12423          	sw	a1,1864(sp)
800033ec:	00400313          	li	t1,4
800033f0:	74b31263          	bne	t1,a1,80003b34 <bad_trap>

800033f4 <inst_486>:
800033f4:	55555537          	lui	a0,0x55555
800033f8:	55650513          	addi	a0,a0,1366 # 55555556 <absimm+0x10263027>
800033fc:	33357593          	andi	a1,a0,819
80003400:	74b12623          	sw	a1,1868(sp)
80003404:	11200313          	li	t1,274
80003408:	72b31663          	bne	t1,a1,80003b34 <bad_trap>

8000340c <inst_487>:
8000340c:	55555537          	lui	a0,0x55555
80003410:	55650513          	addi	a0,a0,1366 # 55555556 <absimm+0x10263027>
80003414:	66657593          	andi	a1,a0,1638
80003418:	74b12823          	sw	a1,1872(sp)
8000341c:	44600313          	li	t1,1094
80003420:	70b31a63          	bne	t1,a1,80003b34 <bad_trap>

80003424 <inst_488>:
80003424:	55555537          	lui	a0,0x55555
80003428:	55650513          	addi	a0,a0,1366 # 55555556 <absimm+0x10263027>
8000342c:	fd357593          	andi	a1,a0,-45
80003430:	74b12a23          	sw	a1,1876(sp)
80003434:	55555337          	lui	t1,0x55555
80003438:	55230313          	addi	t1,t1,1362 # 55555552 <absimm+0x10263023>
8000343c:	6eb31c63          	bne	t1,a1,80003b34 <bad_trap>

80003440 <inst_489>:
80003440:	55555537          	lui	a0,0x55555
80003444:	55650513          	addi	a0,a0,1366 # 55555556 <absimm+0x10263027>
80003448:	02d57593          	andi	a1,a0,45
8000344c:	74b12c23          	sw	a1,1880(sp)
80003450:	00400313          	li	t1,4
80003454:	6eb31063          	bne	t1,a1,80003b34 <bad_trap>

80003458 <inst_490>:
80003458:	55555537          	lui	a0,0x55555
8000345c:	55650513          	addi	a0,a0,1366 # 55555556 <absimm+0x10263027>
80003460:	00257593          	andi	a1,a0,2
80003464:	74b12e23          	sw	a1,1884(sp)
80003468:	00200313          	li	t1,2
8000346c:	6cb31463          	bne	t1,a1,80003b34 <bad_trap>

80003470 <inst_491>:
80003470:	55555537          	lui	a0,0x55555
80003474:	55650513          	addi	a0,a0,1366 # 55555556 <absimm+0x10263027>
80003478:	55457593          	andi	a1,a0,1364
8000347c:	76b12023          	sw	a1,1888(sp)
80003480:	55400313          	li	t1,1364
80003484:	6ab31863          	bne	t1,a1,80003b34 <bad_trap>

80003488 <inst_492>:
80003488:	55555537          	lui	a0,0x55555
8000348c:	55650513          	addi	a0,a0,1366 # 55555556 <absimm+0x10263027>
80003490:	00057593          	andi	a1,a0,0
80003494:	76b12223          	sw	a1,1892(sp)
80003498:	00000313          	li	t1,0
8000349c:	68b31c63          	bne	t1,a1,80003b34 <bad_trap>

800034a0 <inst_493>:
800034a0:	55555537          	lui	a0,0x55555
800034a4:	55650513          	addi	a0,a0,1366 # 55555556 <absimm+0x10263027>
800034a8:	00457593          	andi	a1,a0,4
800034ac:	76b12423          	sw	a1,1896(sp)
800034b0:	00400313          	li	t1,4
800034b4:	68b31063          	bne	t1,a1,80003b34 <bad_trap>

800034b8 <inst_494>:
800034b8:	55555537          	lui	a0,0x55555
800034bc:	55650513          	addi	a0,a0,1366 # 55555556 <absimm+0x10263027>
800034c0:	33257593          	andi	a1,a0,818
800034c4:	76b12623          	sw	a1,1900(sp)
800034c8:	11200313          	li	t1,274
800034cc:	66b31463          	bne	t1,a1,80003b34 <bad_trap>

800034d0 <inst_495>:
800034d0:	55555537          	lui	a0,0x55555
800034d4:	55650513          	addi	a0,a0,1366 # 55555556 <absimm+0x10263027>
800034d8:	66557593          	andi	a1,a0,1637
800034dc:	76b12823          	sw	a1,1904(sp)
800034e0:	44400313          	li	t1,1092
800034e4:	64b31863          	bne	t1,a1,80003b34 <bad_trap>

800034e8 <inst_496>:
800034e8:	55555537          	lui	a0,0x55555
800034ec:	55650513          	addi	a0,a0,1366 # 55555556 <absimm+0x10263027>
800034f0:	02c57593          	andi	a1,a0,44
800034f4:	76b12a23          	sw	a1,1908(sp)
800034f8:	00400313          	li	t1,4
800034fc:	62b31c63          	bne	t1,a1,80003b34 <bad_trap>

80003500 <inst_497>:
80003500:	55555537          	lui	a0,0x55555
80003504:	55650513          	addi	a0,a0,1366 # 55555556 <absimm+0x10263027>
80003508:	55657593          	andi	a1,a0,1366
8000350c:	76b12c23          	sw	a1,1912(sp)
80003510:	55600313          	li	t1,1366
80003514:	62b31063          	bne	t1,a1,80003b34 <bad_trap>

80003518 <inst_498>:
80003518:	55555537          	lui	a0,0x55555
8000351c:	55650513          	addi	a0,a0,1366 # 55555556 <absimm+0x10263027>
80003520:	aab57593          	andi	a1,a0,-1365
80003524:	76b12e23          	sw	a1,1916(sp)
80003528:	55555337          	lui	t1,0x55555
8000352c:	00230313          	addi	t1,t1,2 # 55555002 <absimm+0x10262ad3>
80003530:	60b31263          	bne	t1,a1,80003b34 <bad_trap>

80003534 <inst_499>:
80003534:	55555537          	lui	a0,0x55555
80003538:	55650513          	addi	a0,a0,1366 # 55555556 <absimm+0x10263027>
8000353c:	00657593          	andi	a1,a0,6
80003540:	78b12023          	sw	a1,1920(sp)
80003544:	00600313          	li	t1,6
80003548:	5eb31663          	bne	t1,a1,80003b34 <bad_trap>

8000354c <inst_500>:
8000354c:	55555537          	lui	a0,0x55555
80003550:	55650513          	addi	a0,a0,1366 # 55555556 <absimm+0x10263027>
80003554:	33457593          	andi	a1,a0,820
80003558:	78b12223          	sw	a1,1924(sp)
8000355c:	11400313          	li	t1,276
80003560:	5cb31a63          	bne	t1,a1,80003b34 <bad_trap>

80003564 <inst_501>:
80003564:	55555537          	lui	a0,0x55555
80003568:	55650513          	addi	a0,a0,1366 # 55555556 <absimm+0x10263027>
8000356c:	66757593          	andi	a1,a0,1639
80003570:	78b12423          	sw	a1,1928(sp)
80003574:	44600313          	li	t1,1094
80003578:	5ab31e63          	bne	t1,a1,80003b34 <bad_trap>

8000357c <inst_502>:
8000357c:	55555537          	lui	a0,0x55555
80003580:	55650513          	addi	a0,a0,1366 # 55555556 <absimm+0x10263027>
80003584:	fd457593          	andi	a1,a0,-44
80003588:	78b12623          	sw	a1,1932(sp)
8000358c:	55555337          	lui	t1,0x55555
80003590:	55430313          	addi	t1,t1,1364 # 55555554 <absimm+0x10263025>
80003594:	5ab31063          	bne	t1,a1,80003b34 <bad_trap>

80003598 <inst_503>:
80003598:	55555537          	lui	a0,0x55555
8000359c:	55650513          	addi	a0,a0,1366 # 55555556 <absimm+0x10263027>
800035a0:	02e57593          	andi	a1,a0,46
800035a4:	78b12823          	sw	a1,1936(sp)
800035a8:	00600313          	li	t1,6
800035ac:	58b31463          	bne	t1,a1,80003b34 <bad_trap>

800035b0 <inst_504>:
800035b0:	aaaab537          	lui	a0,0xaaaab
800035b4:	aab50513          	addi	a0,a0,-1365 # aaaaaaab <imm12+0xaaaaafdb>
800035b8:	00357593          	andi	a1,a0,3
800035bc:	78b12a23          	sw	a1,1940(sp)
800035c0:	00300313          	li	t1,3
800035c4:	56b31863          	bne	t1,a1,80003b34 <bad_trap>

800035c8 <inst_505>:
800035c8:	aaaab537          	lui	a0,0xaaaab
800035cc:	aab50513          	addi	a0,a0,-1365 # aaaaaaab <imm12+0xaaaaafdb>
800035d0:	55557593          	andi	a1,a0,1365
800035d4:	78b12c23          	sw	a1,1944(sp)
800035d8:	00100313          	li	t1,1
800035dc:	54b31c63          	bne	t1,a1,80003b34 <bad_trap>

800035e0 <inst_506>:
800035e0:	aaaab537          	lui	a0,0xaaaab
800035e4:	aab50513          	addi	a0,a0,-1365 # aaaaaaab <imm12+0xaaaaafdb>
800035e8:	aaa57593          	andi	a1,a0,-1366
800035ec:	78b12e23          	sw	a1,1948(sp)
800035f0:	aaaab337          	lui	t1,0xaaaab
800035f4:	aaa30313          	addi	t1,t1,-1366 # aaaaaaaa <imm12+0xaaaaafda>
800035f8:	52b31e63          	bne	t1,a1,80003b34 <bad_trap>

800035fc <inst_507>:
800035fc:	aaaab537          	lui	a0,0xaaaab
80003600:	aab50513          	addi	a0,a0,-1365 # aaaaaaab <imm12+0xaaaaafdb>
80003604:	00557593          	andi	a1,a0,5
80003608:	7ab12023          	sw	a1,1952(sp)
8000360c:	00100313          	li	t1,1
80003610:	52b31263          	bne	t1,a1,80003b34 <bad_trap>

80003614 <inst_508>:
80003614:	aaaab537          	lui	a0,0xaaaab
80003618:	aab50513          	addi	a0,a0,-1365 # aaaaaaab <imm12+0xaaaaafdb>
8000361c:	33357593          	andi	a1,a0,819
80003620:	7ab12223          	sw	a1,1956(sp)
80003624:	22300313          	li	t1,547
80003628:	50b31663          	bne	t1,a1,80003b34 <bad_trap>

8000362c <inst_509>:
8000362c:	aaaab537          	lui	a0,0xaaaab
80003630:	aab50513          	addi	a0,a0,-1365 # aaaaaaab <imm12+0xaaaaafdb>
80003634:	66657593          	andi	a1,a0,1638
80003638:	7ab12423          	sw	a1,1960(sp)
8000363c:	22200313          	li	t1,546
80003640:	4eb31a63          	bne	t1,a1,80003b34 <bad_trap>

80003644 <inst_510>:
80003644:	aaaab537          	lui	a0,0xaaaab
80003648:	aab50513          	addi	a0,a0,-1365 # aaaaaaab <imm12+0xaaaaafdb>
8000364c:	fd357593          	andi	a1,a0,-45
80003650:	7ab12623          	sw	a1,1964(sp)
80003654:	aaaab337          	lui	t1,0xaaaab
80003658:	a8330313          	addi	t1,t1,-1405 # aaaaaa83 <imm12+0xaaaaafb3>
8000365c:	4cb31c63          	bne	t1,a1,80003b34 <bad_trap>

80003660 <inst_511>:
80003660:	aaaab537          	lui	a0,0xaaaab
80003664:	aab50513          	addi	a0,a0,-1365 # aaaaaaab <imm12+0xaaaaafdb>
80003668:	02d57593          	andi	a1,a0,45
8000366c:	7ab12823          	sw	a1,1968(sp)
80003670:	02900313          	li	t1,41
80003674:	4cb31063          	bne	t1,a1,80003b34 <bad_trap>

80003678 <inst_512>:
80003678:	aaaab537          	lui	a0,0xaaaab
8000367c:	aab50513          	addi	a0,a0,-1365 # aaaaaaab <imm12+0xaaaaafdb>
80003680:	00257593          	andi	a1,a0,2
80003684:	7ab12a23          	sw	a1,1972(sp)
80003688:	00200313          	li	t1,2
8000368c:	4ab31463          	bne	t1,a1,80003b34 <bad_trap>

80003690 <inst_513>:
80003690:	aaaab537          	lui	a0,0xaaaab
80003694:	aab50513          	addi	a0,a0,-1365 # aaaaaaab <imm12+0xaaaaafdb>
80003698:	55457593          	andi	a1,a0,1364
8000369c:	7ab12c23          	sw	a1,1976(sp)
800036a0:	00000313          	li	t1,0
800036a4:	48b31863          	bne	t1,a1,80003b34 <bad_trap>

800036a8 <inst_514>:
800036a8:	aaaab537          	lui	a0,0xaaaab
800036ac:	aab50513          	addi	a0,a0,-1365 # aaaaaaab <imm12+0xaaaaafdb>
800036b0:	00057593          	andi	a1,a0,0
800036b4:	7ab12e23          	sw	a1,1980(sp)
800036b8:	00000313          	li	t1,0
800036bc:	46b31c63          	bne	t1,a1,80003b34 <bad_trap>

800036c0 <inst_515>:
800036c0:	aaaab537          	lui	a0,0xaaaab
800036c4:	aab50513          	addi	a0,a0,-1365 # aaaaaaab <imm12+0xaaaaafdb>
800036c8:	00457593          	andi	a1,a0,4
800036cc:	7cb12023          	sw	a1,1984(sp)
800036d0:	00000313          	li	t1,0
800036d4:	46b31063          	bne	t1,a1,80003b34 <bad_trap>

800036d8 <inst_516>:
800036d8:	aaaab537          	lui	a0,0xaaaab
800036dc:	aab50513          	addi	a0,a0,-1365 # aaaaaaab <imm12+0xaaaaafdb>
800036e0:	33257593          	andi	a1,a0,818
800036e4:	7cb12223          	sw	a1,1988(sp)
800036e8:	22200313          	li	t1,546
800036ec:	44b31463          	bne	t1,a1,80003b34 <bad_trap>

800036f0 <inst_517>:
800036f0:	aaaab537          	lui	a0,0xaaaab
800036f4:	aab50513          	addi	a0,a0,-1365 # aaaaaaab <imm12+0xaaaaafdb>
800036f8:	66557593          	andi	a1,a0,1637
800036fc:	7cb12423          	sw	a1,1992(sp)
80003700:	22100313          	li	t1,545
80003704:	42b31863          	bne	t1,a1,80003b34 <bad_trap>

80003708 <inst_518>:
80003708:	aaaab537          	lui	a0,0xaaaab
8000370c:	aab50513          	addi	a0,a0,-1365 # aaaaaaab <imm12+0xaaaaafdb>
80003710:	02c57593          	andi	a1,a0,44
80003714:	7cb12623          	sw	a1,1996(sp)
80003718:	02800313          	li	t1,40
8000371c:	40b31c63          	bne	t1,a1,80003b34 <bad_trap>

80003720 <inst_519>:
80003720:	aaaab537          	lui	a0,0xaaaab
80003724:	aab50513          	addi	a0,a0,-1365 # aaaaaaab <imm12+0xaaaaafdb>
80003728:	55657593          	andi	a1,a0,1366
8000372c:	7cb12823          	sw	a1,2000(sp)
80003730:	00200313          	li	t1,2
80003734:	40b31063          	bne	t1,a1,80003b34 <bad_trap>

80003738 <inst_520>:
80003738:	aaaab537          	lui	a0,0xaaaab
8000373c:	aab50513          	addi	a0,a0,-1365 # aaaaaaab <imm12+0xaaaaafdb>
80003740:	aab57593          	andi	a1,a0,-1365
80003744:	7cb12a23          	sw	a1,2004(sp)
80003748:	aaaab337          	lui	t1,0xaaaab
8000374c:	aab30313          	addi	t1,t1,-1365 # aaaaaaab <imm12+0xaaaaafdb>
80003750:	3eb31263          	bne	t1,a1,80003b34 <bad_trap>

80003754 <inst_521>:
80003754:	aaaab537          	lui	a0,0xaaaab
80003758:	aab50513          	addi	a0,a0,-1365 # aaaaaaab <imm12+0xaaaaafdb>
8000375c:	00657593          	andi	a1,a0,6
80003760:	7cb12c23          	sw	a1,2008(sp)
80003764:	00200313          	li	t1,2
80003768:	3cb31663          	bne	t1,a1,80003b34 <bad_trap>

8000376c <inst_522>:
8000376c:	aaaab537          	lui	a0,0xaaaab
80003770:	aab50513          	addi	a0,a0,-1365 # aaaaaaab <imm12+0xaaaaafdb>
80003774:	33457593          	andi	a1,a0,820
80003778:	7cb12e23          	sw	a1,2012(sp)
8000377c:	22000313          	li	t1,544
80003780:	3ab31a63          	bne	t1,a1,80003b34 <bad_trap>

80003784 <inst_523>:
80003784:	aaaab537          	lui	a0,0xaaaab
80003788:	aab50513          	addi	a0,a0,-1365 # aaaaaaab <imm12+0xaaaaafdb>
8000378c:	66757593          	andi	a1,a0,1639
80003790:	7eb12023          	sw	a1,2016(sp)
80003794:	22300313          	li	t1,547
80003798:	38b31e63          	bne	t1,a1,80003b34 <bad_trap>

8000379c <inst_524>:
8000379c:	aaaab537          	lui	a0,0xaaaab
800037a0:	aab50513          	addi	a0,a0,-1365 # aaaaaaab <imm12+0xaaaaafdb>
800037a4:	fd457593          	andi	a1,a0,-44
800037a8:	7eb12223          	sw	a1,2020(sp)
800037ac:	aaaab337          	lui	t1,0xaaaab
800037b0:	a8030313          	addi	t1,t1,-1408 # aaaaaa80 <imm12+0xaaaaafb0>
800037b4:	38b31063          	bne	t1,a1,80003b34 <bad_trap>

800037b8 <inst_525>:
800037b8:	aaaab537          	lui	a0,0xaaaab
800037bc:	aab50513          	addi	a0,a0,-1365 # aaaaaaab <imm12+0xaaaaafdb>
800037c0:	02e57593          	andi	a1,a0,46
800037c4:	7eb12423          	sw	a1,2024(sp)
800037c8:	02a00313          	li	t1,42
800037cc:	36b31463          	bne	t1,a1,80003b34 <bad_trap>

800037d0 <inst_526>:
800037d0:	00600513          	li	a0,6
800037d4:	00357593          	andi	a1,a0,3
800037d8:	7eb12623          	sw	a1,2028(sp)
800037dc:	00200313          	li	t1,2
800037e0:	34b31a63          	bne	t1,a1,80003b34 <bad_trap>

800037e4 <inst_527>:
800037e4:	00600513          	li	a0,6
800037e8:	55557593          	andi	a1,a0,1365
800037ec:	7eb12823          	sw	a1,2032(sp)
800037f0:	00400313          	li	t1,4
800037f4:	34b31063          	bne	t1,a1,80003b34 <bad_trap>

800037f8 <inst_528>:
800037f8:	00600513          	li	a0,6
800037fc:	aaa57593          	andi	a1,a0,-1366
80003800:	7eb12a23          	sw	a1,2036(sp)
80003804:	00200313          	li	t1,2
80003808:	32b31663          	bne	t1,a1,80003b34 <bad_trap>

8000380c <inst_529>:
8000380c:	00600513          	li	a0,6
80003810:	00557593          	andi	a1,a0,5
80003814:	7eb12c23          	sw	a1,2040(sp)
80003818:	00400313          	li	t1,4
8000381c:	30b31c63          	bne	t1,a1,80003b34 <bad_trap>

80003820 <inst_530>:
80003820:	00600513          	li	a0,6
80003824:	33357593          	andi	a1,a0,819
80003828:	7eb12e23          	sw	a1,2044(sp)
8000382c:	00200313          	li	t1,2
80003830:	30b31263          	bne	t1,a1,80003b34 <bad_trap>
80003834:	00000013          	nop
80003838:	00000013          	nop
8000383c:	00000013          	nop
80003840:	00002117          	auipc	sp,0x2
80003844:	01010113          	addi	sp,sp,16 # 80005850 <signature_x2_1>
80003848:	00000013          	nop
8000384c:	00000013          	nop
80003850:	00000013          	nop
80003854:	00000013          	nop
80003858:	00000013          	nop
8000385c:	00000013          	nop

80003860 <inst_531>:
80003860:	00600513          	li	a0,6
80003864:	66657593          	andi	a1,a0,1638
80003868:	00b12023          	sw	a1,0(sp)
8000386c:	00600313          	li	t1,6
80003870:	2cb31263          	bne	t1,a1,80003b34 <bad_trap>

80003874 <inst_532>:
80003874:	00600513          	li	a0,6
80003878:	fd357593          	andi	a1,a0,-45
8000387c:	00b12223          	sw	a1,4(sp)
80003880:	00200313          	li	t1,2
80003884:	2ab31863          	bne	t1,a1,80003b34 <bad_trap>

80003888 <inst_533>:
80003888:	00600513          	li	a0,6
8000388c:	02d57593          	andi	a1,a0,45
80003890:	00b12423          	sw	a1,8(sp)
80003894:	00400313          	li	t1,4
80003898:	28b31e63          	bne	t1,a1,80003b34 <bad_trap>

8000389c <inst_534>:
8000389c:	00600513          	li	a0,6
800038a0:	00257593          	andi	a1,a0,2
800038a4:	00b12623          	sw	a1,12(sp)
800038a8:	00200313          	li	t1,2
800038ac:	28b31463          	bne	t1,a1,80003b34 <bad_trap>

800038b0 <inst_535>:
800038b0:	00600513          	li	a0,6
800038b4:	55457593          	andi	a1,a0,1364
800038b8:	00b12823          	sw	a1,16(sp)
800038bc:	00400313          	li	t1,4
800038c0:	26b31a63          	bne	t1,a1,80003b34 <bad_trap>

800038c4 <inst_536>:
800038c4:	00600513          	li	a0,6
800038c8:	00057593          	andi	a1,a0,0
800038cc:	00b12a23          	sw	a1,20(sp)
800038d0:	00000313          	li	t1,0
800038d4:	26b31063          	bne	t1,a1,80003b34 <bad_trap>

800038d8 <inst_537>:
800038d8:	00600513          	li	a0,6
800038dc:	00457593          	andi	a1,a0,4
800038e0:	00b12c23          	sw	a1,24(sp)
800038e4:	00400313          	li	t1,4
800038e8:	24b31663          	bne	t1,a1,80003b34 <bad_trap>

800038ec <inst_538>:
800038ec:	00600513          	li	a0,6
800038f0:	33257593          	andi	a1,a0,818
800038f4:	00b12e23          	sw	a1,28(sp)
800038f8:	00200313          	li	t1,2
800038fc:	22b31c63          	bne	t1,a1,80003b34 <bad_trap>

80003900 <inst_539>:
80003900:	00600513          	li	a0,6
80003904:	66557593          	andi	a1,a0,1637
80003908:	02b12023          	sw	a1,32(sp)
8000390c:	00400313          	li	t1,4
80003910:	22b31263          	bne	t1,a1,80003b34 <bad_trap>

80003914 <inst_540>:
80003914:	00600513          	li	a0,6
80003918:	02c57593          	andi	a1,a0,44
8000391c:	02b12223          	sw	a1,36(sp)
80003920:	00400313          	li	t1,4
80003924:	20b31863          	bne	t1,a1,80003b34 <bad_trap>

80003928 <inst_541>:
80003928:	00600513          	li	a0,6
8000392c:	55657593          	andi	a1,a0,1366
80003930:	02b12423          	sw	a1,40(sp)
80003934:	00600313          	li	t1,6
80003938:	1eb31e63          	bne	t1,a1,80003b34 <bad_trap>

8000393c <inst_542>:
8000393c:	00600513          	li	a0,6
80003940:	aab57593          	andi	a1,a0,-1365
80003944:	02b12623          	sw	a1,44(sp)
80003948:	00200313          	li	t1,2
8000394c:	1eb31463          	bne	t1,a1,80003b34 <bad_trap>

80003950 <inst_543>:
80003950:	00600513          	li	a0,6
80003954:	00657593          	andi	a1,a0,6
80003958:	02b12823          	sw	a1,48(sp)
8000395c:	00600313          	li	t1,6
80003960:	1cb31a63          	bne	t1,a1,80003b34 <bad_trap>

80003964 <inst_544>:
80003964:	00600513          	li	a0,6
80003968:	33457593          	andi	a1,a0,820
8000396c:	02b12a23          	sw	a1,52(sp)
80003970:	00400313          	li	t1,4
80003974:	1cb31063          	bne	t1,a1,80003b34 <bad_trap>

80003978 <inst_545>:
80003978:	00600513          	li	a0,6
8000397c:	66757593          	andi	a1,a0,1639
80003980:	02b12c23          	sw	a1,56(sp)
80003984:	00600313          	li	t1,6
80003988:	1ab31663          	bne	t1,a1,80003b34 <bad_trap>

8000398c <inst_546>:
8000398c:	00600513          	li	a0,6
80003990:	fd457593          	andi	a1,a0,-44
80003994:	02b12e23          	sw	a1,60(sp)
80003998:	00400313          	li	t1,4
8000399c:	18b31c63          	bne	t1,a1,80003b34 <bad_trap>

800039a0 <inst_547>:
800039a0:	00600513          	li	a0,6
800039a4:	02e57593          	andi	a1,a0,46
800039a8:	04b12023          	sw	a1,64(sp)
800039ac:	00600313          	li	t1,6
800039b0:	18b31263          	bne	t1,a1,80003b34 <bad_trap>

800039b4 <inst_548>:
800039b4:	33333537          	lui	a0,0x33333
800039b8:	33450513          	addi	a0,a0,820 # 33333334 <offset+0x333332b8>
800039bc:	00357593          	andi	a1,a0,3
800039c0:	04b12223          	sw	a1,68(sp)
800039c4:	00000313          	li	t1,0
800039c8:	16b31663          	bne	t1,a1,80003b34 <bad_trap>

800039cc <inst_549>:
800039cc:	33333537          	lui	a0,0x33333
800039d0:	33450513          	addi	a0,a0,820 # 33333334 <offset+0x333332b8>
800039d4:	55557593          	andi	a1,a0,1365
800039d8:	04b12423          	sw	a1,72(sp)
800039dc:	11400313          	li	t1,276
800039e0:	14b31a63          	bne	t1,a1,80003b34 <bad_trap>

800039e4 <inst_550>:
800039e4:	33333537          	lui	a0,0x33333
800039e8:	33450513          	addi	a0,a0,820 # 33333334 <offset+0x333332b8>
800039ec:	aaa57593          	andi	a1,a0,-1366
800039f0:	04b12623          	sw	a1,76(sp)
800039f4:	33333337          	lui	t1,0x33333
800039f8:	22030313          	addi	t1,t1,544 # 33333220 <offset+0x333331a4>
800039fc:	12b31c63          	bne	t1,a1,80003b34 <bad_trap>

80003a00 <inst_551>:
80003a00:	33333537          	lui	a0,0x33333
80003a04:	33450513          	addi	a0,a0,820 # 33333334 <offset+0x333332b8>
80003a08:	00557593          	andi	a1,a0,5
80003a0c:	04b12823          	sw	a1,80(sp)
80003a10:	00400313          	li	t1,4
80003a14:	12b31063          	bne	t1,a1,80003b34 <bad_trap>

80003a18 <inst_552>:
80003a18:	33333537          	lui	a0,0x33333
80003a1c:	33450513          	addi	a0,a0,820 # 33333334 <offset+0x333332b8>
80003a20:	33357593          	andi	a1,a0,819
80003a24:	04b12a23          	sw	a1,84(sp)
80003a28:	33000313          	li	t1,816
80003a2c:	10b31463          	bne	t1,a1,80003b34 <bad_trap>

80003a30 <inst_553>:
80003a30:	33333537          	lui	a0,0x33333
80003a34:	33450513          	addi	a0,a0,820 # 33333334 <offset+0x333332b8>
80003a38:	66657593          	andi	a1,a0,1638
80003a3c:	04b12c23          	sw	a1,88(sp)
80003a40:	22400313          	li	t1,548
80003a44:	0eb31863          	bne	t1,a1,80003b34 <bad_trap>

80003a48 <inst_554>:
80003a48:	33333537          	lui	a0,0x33333
80003a4c:	33450513          	addi	a0,a0,820 # 33333334 <offset+0x333332b8>
80003a50:	fd357593          	andi	a1,a0,-45
80003a54:	04b12e23          	sw	a1,92(sp)
80003a58:	33333337          	lui	t1,0x33333
80003a5c:	31030313          	addi	t1,t1,784 # 33333310 <offset+0x33333294>
80003a60:	0cb31a63          	bne	t1,a1,80003b34 <bad_trap>

80003a64 <inst_555>:
80003a64:	33333537          	lui	a0,0x33333
80003a68:	33450513          	addi	a0,a0,820 # 33333334 <offset+0x333332b8>
80003a6c:	02d57593          	andi	a1,a0,45
80003a70:	06b12023          	sw	a1,96(sp)
80003a74:	02400313          	li	t1,36
80003a78:	0ab31e63          	bne	t1,a1,80003b34 <bad_trap>

80003a7c <inst_556>:
80003a7c:	33333537          	lui	a0,0x33333
80003a80:	33450513          	addi	a0,a0,820 # 33333334 <offset+0x333332b8>
80003a84:	00257593          	andi	a1,a0,2
80003a88:	06b12223          	sw	a1,100(sp)
80003a8c:	00000313          	li	t1,0
80003a90:	0ab31263          	bne	t1,a1,80003b34 <bad_trap>

80003a94 <inst_557>:
80003a94:	33333537          	lui	a0,0x33333
80003a98:	33450513          	addi	a0,a0,820 # 33333334 <offset+0x333332b8>
80003a9c:	55457593          	andi	a1,a0,1364
80003aa0:	06b12423          	sw	a1,104(sp)
80003aa4:	11400313          	li	t1,276
80003aa8:	08b31663          	bne	t1,a1,80003b34 <bad_trap>

80003aac <inst_558>:
80003aac:	33333537          	lui	a0,0x33333
80003ab0:	33450513          	addi	a0,a0,820 # 33333334 <offset+0x333332b8>
80003ab4:	00057593          	andi	a1,a0,0
80003ab8:	06b12623          	sw	a1,108(sp)
80003abc:	00000313          	li	t1,0
80003ac0:	06b31a63          	bne	t1,a1,80003b34 <bad_trap>

80003ac4 <inst_559>:
80003ac4:	33333537          	lui	a0,0x33333
80003ac8:	33450513          	addi	a0,a0,820 # 33333334 <offset+0x333332b8>
80003acc:	00457593          	andi	a1,a0,4
80003ad0:	06b12823          	sw	a1,112(sp)
80003ad4:	00400313          	li	t1,4
80003ad8:	04b31e63          	bne	t1,a1,80003b34 <bad_trap>

80003adc <inst_560>:
80003adc:	01000537          	lui	a0,0x1000
80003ae0:	00257593          	andi	a1,a0,2
80003ae4:	06b12a23          	sw	a1,116(sp)
80003ae8:	00000313          	li	t1,0
80003aec:	04b31463          	bne	t1,a1,80003b34 <bad_trap>

80003af0 <inst_561>:
80003af0:	ffff5537          	lui	a0,0xffff5
80003af4:	afc50513          	addi	a0,a0,-1284 # ffff4afc <imm12+0xffff502c>
80003af8:	eff57593          	andi	a1,a0,-257
80003afc:	06b12c23          	sw	a1,120(sp)
80003b00:	ffff5337          	lui	t1,0xffff5
80003b04:	afc30313          	addi	t1,t1,-1284 # ffff4afc <imm12+0xffff502c>
80003b08:	02b31663          	bne	t1,a1,80003b34 <bad_trap>

80003b0c <cleanup_epilogs>:
80003b0c:	0200006f          	j	80003b2c <exit_cleanup>

80003b10 <abort_tests>:
80003b10:	17812483          	lw	s1,376(sp)
80003b14:	18012303          	lw	t1,384(sp)
80003b18:	00930333          	add	t1,t1,s1
80003b1c:	bad0e337          	lui	t1,0xbad0e
80003b20:	ad030313          	addi	t1,t1,-1328 # bad0dad0 <imm12+0xbad0e000>
80003b24:	fe64ae23          	sw	t1,-4(s1) # 3ffc <offset+0x3f80>
80003b28:	0040006f          	j	80003b2c <exit_cleanup>

80003b2c <exit_cleanup>:
80003b2c:	00000513          	li	a0,0
80003b30:	020000ef          	jal	ra,80003b50 <halt>

80003b34 <bad_trap>:
80003b34:	00100513          	li	a0,1
80003b38:	018000ef          	jal	ra,80003b50 <halt>
	...

80003b50 <halt>:
80003b50:	0000006f          	j	80003b50 <halt>

80003b54 <_trm_init>:
80003b54:	ff010113          	addi	sp,sp,-16
80003b58:	00000517          	auipc	a0,0x0
80003b5c:	01450513          	addi	a0,a0,20 # 80003b6c <_etext>
80003b60:	00112623          	sw	ra,12(sp)
80003b64:	cacfc0ef          	jal	ra,80000010 <main>
80003b68:	0000006f          	j	80003b68 <_trm_init+0x14>
