
test/mul-riscv32-ni.elf:     file format elf32-littleriscv


Disassembly of section .text:

80000000 <_start>:
80000000:	00000413          	li	s0,0
80000004:	00018117          	auipc	sp,0x18
80000008:	ffc10113          	addi	sp,sp,-4 # 80018000 <_end>
8000000c:	0bd050ef          	jal	ra,800058c8 <_trm_init>

80000010 <main>:
80000010:	010000ef          	jal	ra,80000020 <rvtest_entry_point>
80000014:	00000513          	li	a0,0
80000018:	00008067          	ret
8000001c:	0000                	unimp
	...

80000020 <rvtest_entry_point>:
80000020:	7d5c0837          	lui	a6,0x7d5c0
80000024:	ddb80813          	addi	a6,a6,-549 # 7d5bfddb <absimm+0x382cd8ac>
80000028:	00785893          	srli	a7,a6,0x7
8000002c:	01985793          	srli	a5,a6,0x19
80000030:	00f8e8b3          	or	a7,a7,a5
80000034:	0078d913          	srli	s2,a7,0x7
80000038:	0198d793          	srli	a5,a7,0x19
8000003c:	00f96933          	or	s2,s2,a5
80000040:	00795993          	srli	s3,s2,0x7
80000044:	01995793          	srli	a5,s2,0x19
80000048:	00f9e9b3          	or	s3,s3,a5
8000004c:	0079da13          	srli	s4,s3,0x7
80000050:	0199d793          	srli	a5,s3,0x19
80000054:	00fa6a33          	or	s4,s4,a5
80000058:	007a5a93          	srli	s5,s4,0x7
8000005c:	019a5793          	srli	a5,s4,0x19
80000060:	00faeab3          	or	s5,s5,a5
80000064:	007adb13          	srli	s6,s5,0x7
80000068:	019ad793          	srli	a5,s5,0x19
8000006c:	00fb6b33          	or	s6,s6,a5
80000070:	007b5b93          	srli	s7,s6,0x7
80000074:	019b5793          	srli	a5,s6,0x19
80000078:	00fbebb3          	or	s7,s7,a5
8000007c:	007bdc13          	srli	s8,s7,0x7
80000080:	019bd793          	srli	a5,s7,0x19
80000084:	00fc6c33          	or	s8,s8,a5
80000088:	007c5c93          	srli	s9,s8,0x7
8000008c:	019c5793          	srli	a5,s8,0x19
80000090:	00fcecb3          	or	s9,s9,a5
80000094:	007cdd13          	srli	s10,s9,0x7
80000098:	019cd793          	srli	a5,s9,0x19
8000009c:	00fd6d33          	or	s10,s10,a5
800000a0:	007d5d93          	srli	s11,s10,0x7
800000a4:	019d5793          	srli	a5,s10,0x19
800000a8:	00fdedb3          	or	s11,s11,a5
800000ac:	007dde13          	srli	t3,s11,0x7
800000b0:	019dd793          	srli	a5,s11,0x19
800000b4:	00fe6e33          	or	t3,t3,a5
800000b8:	007e5e93          	srli	t4,t3,0x7
800000bc:	019e5793          	srli	a5,t3,0x19
800000c0:	00feeeb3          	or	t4,t4,a5
800000c4:	007edf13          	srli	t5,t4,0x7
800000c8:	019ed793          	srli	a5,t4,0x19
800000cc:	00ff6f33          	or	t5,t5,a5
800000d0:	feedc0b7          	lui	ra,0xfeedc
800000d4:	ead08093          	addi	ra,ra,-339 # feedbead <imm12+0xfeedc3dd>
800000d8:	0070d113          	srli	sp,ra,0x7
800000dc:	0190d793          	srli	a5,ra,0x19
800000e0:	00f16133          	or	sp,sp,a5
800000e4:	00715193          	srli	gp,sp,0x7
800000e8:	01915793          	srli	a5,sp,0x19
800000ec:	00f1e1b3          	or	gp,gp,a5
800000f0:	0071d213          	srli	tp,gp,0x7
800000f4:	0191d793          	srli	a5,gp,0x19
800000f8:	00f26233          	or	tp,tp,a5
800000fc:	00725293          	srli	t0,tp,0x7
80000100:	01925793          	srli	a5,tp,0x19
80000104:	00f2e2b3          	or	t0,t0,a5
80000108:	0072d313          	srli	t1,t0,0x7
8000010c:	0192d793          	srli	a5,t0,0x19
80000110:	00f36333          	or	t1,t1,a5
80000114:	00735393          	srli	t2,t1,0x7
80000118:	01935793          	srli	a5,t1,0x19
8000011c:	00f3e3b3          	or	t2,t2,a5
80000120:	0073d413          	srli	s0,t2,0x7
80000124:	0193d793          	srli	a5,t2,0x19
80000128:	00f46433          	or	s0,s0,a5
8000012c:	00745493          	srli	s1,s0,0x7
80000130:	01945793          	srli	a5,s0,0x19
80000134:	00f4e4b3          	or	s1,s1,a5
80000138:	0074d513          	srli	a0,s1,0x7
8000013c:	0194d793          	srli	a5,s1,0x19
80000140:	00f56533          	or	a0,a0,a5
80000144:	00755593          	srli	a1,a0,0x7
80000148:	01955793          	srli	a5,a0,0x19
8000014c:	00f5e5b3          	or	a1,a1,a5
80000150:	0075d613          	srli	a2,a1,0x7
80000154:	0195d793          	srli	a5,a1,0x19
80000158:	00f66633          	or	a2,a2,a5
8000015c:	00765693          	srli	a3,a2,0x7
80000160:	01965793          	srli	a5,a2,0x19
80000164:	00f6e6b3          	or	a3,a3,a5

80000168 <rvtest_code_begin>:
80000168:	00000013          	nop
8000016c:	00000013          	nop
80000170:	00000013          	nop
80000174:	00000013          	nop
80000178:	00000013          	nop
8000017c:	00000013          	nop
80000180:	00007097          	auipc	ra,0x7
80000184:	e8408093          	addi	ra,ra,-380 # 80007004 <signature_x1_0>
80000188:	00000013          	nop
8000018c:	00000013          	nop
80000190:	00000013          	nop
80000194:	00000013          	nop
80000198:	00000013          	nop
8000019c:	00000013          	nop

800001a0 <inst_0>:
800001a0:	0000bfb7          	lui	t6,0xb
800001a4:	505f8f93          	addi	t6,t6,1285 # b505 <offset+0xb3d1>
800001a8:	0000bfb7          	lui	t6,0xb
800001ac:	505f8f93          	addi	t6,t6,1285 # b505 <offset+0xb3d1>
800001b0:	03ff8fb3          	mul	t6,t6,t6
800001b4:	01f0a023          	sw	t6,0(ra)
800001b8:	80001137          	lui	sp,0x80001
800001bc:	21910113          	addi	sp,sp,537 # 80001219 <imm12+0x80001749>
800001c0:	01f10463          	beq	sp,t6,800001c8 <inst_1>
800001c4:	6e40506f          	j	800058a8 <bad_trap>

800001c8 <inst_1>:
800001c8:	ffff5f37          	lui	t5,0xffff5
800001cc:	afdf0f13          	addi	t5,t5,-1283 # ffff4afd <imm12+0xffff502d>
800001d0:	ffff5eb7          	lui	t4,0xffff5
800001d4:	afde8e93          	addi	t4,t4,-1283 # ffff4afd <imm12+0xffff502d>
800001d8:	03df0f33          	mul	t5,t5,t4
800001dc:	01e0a223          	sw	t5,4(ra)
800001e0:	7ffd4137          	lui	sp,0x7ffd4
800001e4:	e0910113          	addi	sp,sp,-503 # 7ffd3e09 <absimm+0x3ace18da>
800001e8:	01e10463          	beq	sp,t5,800001f0 <inst_2>
800001ec:	6bc0506f          	j	800058a8 <bad_trap>

800001f0 <inst_2>:
800001f0:	ffff5eb7          	lui	t4,0xffff5
800001f4:	afde8e93          	addi	t4,t4,-1283 # ffff4afd <imm12+0xffff502d>
800001f8:	0000be37          	lui	t3,0xb
800001fc:	505e0e13          	addi	t3,t3,1285 # b505 <offset+0xb3d1>
80000200:	03ce8e33          	mul	t3,t4,t3
80000204:	01c0a423          	sw	t3,8(ra)
80000208:	80015137          	lui	sp,0x80015
8000020c:	7f110113          	addi	sp,sp,2033 # 800157f1 <imm12+0x80015d21>
80000210:	01c10463          	beq	sp,t3,80000218 <inst_3>
80000214:	6940506f          	j	800058a8 <bad_trap>

80000218 <inst_3>:
80000218:	80000e37          	lui	t3,0x80000
8000021c:	0000bf37          	lui	t5,0xb
80000220:	505f0f13          	addi	t5,t5,1285 # b505 <offset+0xb3d1>
80000224:	03ee0eb3          	mul	t4,t3,t5
80000228:	01d0a623          	sw	t4,12(ra)
8000022c:	80000137          	lui	sp,0x80000
80000230:	01d10463          	beq	sp,t4,80000238 <inst_4>
80000234:	6740506f          	j	800058a8 <bad_trap>

80000238 <inst_4>:
80000238:	80000d37          	lui	s10,0x80000
8000023c:	fffd0d13          	addi	s10,s10,-1 # 7fffffff <imm12+0x8000052f>
80000240:	80000d37          	lui	s10,0x80000
80000244:	fffd0d13          	addi	s10,s10,-1 # 7fffffff <imm12+0x8000052f>
80000248:	03ad0db3          	mul	s11,s10,s10
8000024c:	01b0a823          	sw	s11,16(ra)
80000250:	00100113          	li	sp,1
80000254:	01b10463          	beq	sp,s11,8000025c <inst_5>
80000258:	6500506f          	j	800058a8 <bad_trap>

8000025c <inst_5>:
8000025c:	80000db7          	lui	s11,0x80000
80000260:	fff00c93          	li	s9,-1
80000264:	039d8d33          	mul	s10,s11,s9
80000268:	01a0aa23          	sw	s10,20(ra)
8000026c:	80000137          	lui	sp,0x80000
80000270:	01a10463          	beq	sp,s10,80000278 <inst_6>
80000274:	6340506f          	j	800058a8 <bad_trap>

80000278 <inst_6>:
80000278:	0000bc37          	lui	s8,0xb
8000027c:	505c0c13          	addi	s8,s8,1285 # b505 <offset+0xb3d1>
80000280:	ffe00d93          	li	s11,-2
80000284:	03bc0cb3          	mul	s9,s8,s11
80000288:	0190ac23          	sw	s9,24(ra)
8000028c:	fffe9137          	lui	sp,0xfffe9
80000290:	5f610113          	addi	sp,sp,1526 # fffe95f6 <imm12+0xfffe9b26>
80000294:	01910463          	beq	sp,s9,8000029c <inst_7>
80000298:	6100506f          	j	800058a8 <bad_trap>

8000029c <inst_7>:
8000029c:	0000bcb7          	lui	s9,0xb
800002a0:	505c8c93          	addi	s9,s9,1285 # b505 <offset+0xb3d1>
800002a4:	ffd00b93          	li	s7,-3
800002a8:	037c8c33          	mul	s8,s9,s7
800002ac:	0180ae23          	sw	s8,28(ra)
800002b0:	fffde137          	lui	sp,0xfffde
800002b4:	0f110113          	addi	sp,sp,241 # fffde0f1 <imm12+0xfffde621>
800002b8:	01810463          	beq	sp,s8,800002c0 <inst_8>
800002bc:	5ec0506f          	j	800058a8 <bad_trap>

800002c0 <inst_8>:
800002c0:	0000bb37          	lui	s6,0xb
800002c4:	505b0b13          	addi	s6,s6,1285 # b505 <offset+0xb3d1>
800002c8:	ffb00c13          	li	s8,-5
800002cc:	038b0bb3          	mul	s7,s6,s8
800002d0:	0370a023          	sw	s7,32(ra)
800002d4:	fffc7137          	lui	sp,0xfffc7
800002d8:	6e710113          	addi	sp,sp,1767 # fffc76e7 <imm12+0xfffc7c17>
800002dc:	01710463          	beq	sp,s7,800002e4 <inst_9>
800002e0:	5c80506f          	j	800058a8 <bad_trap>

800002e4 <inst_9>:
800002e4:	0000bbb7          	lui	s7,0xb
800002e8:	505b8b93          	addi	s7,s7,1285 # b505 <offset+0xb3d1>
800002ec:	ff700a93          	li	s5,-9
800002f0:	035b8b33          	mul	s6,s7,s5
800002f4:	0360a223          	sw	s6,36(ra)
800002f8:	fff9a137          	lui	sp,0xfff9a
800002fc:	2d310113          	addi	sp,sp,723 # fff9a2d3 <imm12+0xfff9a803>
80000300:	01610463          	beq	sp,s6,80000308 <inst_10>
80000304:	5a40506f          	j	800058a8 <bad_trap>

80000308 <inst_10>:
80000308:	0000ba37          	lui	s4,0xb
8000030c:	505a0a13          	addi	s4,s4,1285 # b505 <offset+0xb3d1>
80000310:	fef00b13          	li	s6,-17
80000314:	036a0ab3          	mul	s5,s4,s6
80000318:	0350a423          	sw	s5,40(ra)
8000031c:	fff40137          	lui	sp,0xfff40
80000320:	aab10113          	addi	sp,sp,-1365 # fff3faab <imm12+0xfff3ffdb>
80000324:	01510463          	beq	sp,s5,8000032c <inst_11>
80000328:	5800506f          	j	800058a8 <bad_trap>

8000032c <inst_11>:
8000032c:	0000bab7          	lui	s5,0xb
80000330:	505a8a93          	addi	s5,s5,1285 # b505 <offset+0xb3d1>
80000334:	fdf00993          	li	s3,-33
80000338:	033a8a33          	mul	s4,s5,s3
8000033c:	0340a623          	sw	s4,44(ra)
80000340:	ffe8b137          	lui	sp,0xffe8b
80000344:	a5b10113          	addi	sp,sp,-1445 # ffe8aa5b <imm12+0xffe8af8b>
80000348:	01410463          	beq	sp,s4,80000350 <inst_12>
8000034c:	55c0506f          	j	800058a8 <bad_trap>

80000350 <inst_12>:
80000350:	0000b937          	lui	s2,0xb
80000354:	50590913          	addi	s2,s2,1285 # b505 <offset+0xb3d1>
80000358:	fbf00a13          	li	s4,-65
8000035c:	034909b3          	mul	s3,s2,s4
80000360:	0330a823          	sw	s3,48(ra)
80000364:	ffd21137          	lui	sp,0xffd21
80000368:	9bb10113          	addi	sp,sp,-1605 # ffd209bb <imm12+0xffd20eeb>
8000036c:	01310463          	beq	sp,s3,80000374 <inst_13>
80000370:	5380506f          	j	800058a8 <bad_trap>

80000374 <inst_13>:
80000374:	0000b9b7          	lui	s3,0xb
80000378:	50598993          	addi	s3,s3,1285 # b505 <offset+0xb3d1>
8000037c:	f7f00893          	li	a7,-129
80000380:	03198933          	mul	s2,s3,a7
80000384:	0320aa23          	sw	s2,52(ra)
80000388:	ffa4d137          	lui	sp,0xffa4d
8000038c:	87b10113          	addi	sp,sp,-1925 # ffa4c87b <imm12+0xffa4cdab>
80000390:	01210463          	beq	sp,s2,80000398 <inst_14>
80000394:	5140506f          	j	800058a8 <bad_trap>

80000398 <inst_14>:
80000398:	0000b837          	lui	a6,0xb
8000039c:	50580813          	addi	a6,a6,1285 # b505 <offset+0xb3d1>
800003a0:	eff00913          	li	s2,-257
800003a4:	032808b3          	mul	a7,a6,s2
800003a8:	0310ac23          	sw	a7,56(ra)
800003ac:	ff4a4137          	lui	sp,0xff4a4
800003b0:	5fb10113          	addi	sp,sp,1531 # ff4a45fb <imm12+0xff4a4b2b>
800003b4:	01110463          	beq	sp,a7,800003bc <inst_15>
800003b8:	4f00506f          	j	800058a8 <bad_trap>

800003bc <inst_15>:
800003bc:	0000b8b7          	lui	a7,0xb
800003c0:	50588893          	addi	a7,a7,1285 # b505 <offset+0xb3d1>
800003c4:	dff00793          	li	a5,-513
800003c8:	02f88833          	mul	a6,a7,a5
800003cc:	0300ae23          	sw	a6,60(ra)
800003d0:	fe954137          	lui	sp,0xfe954
800003d4:	0fb10113          	addi	sp,sp,251 # fe9540fb <imm12+0xfe95462b>
800003d8:	01010463          	beq	sp,a6,800003e0 <inst_16>
800003dc:	4cc0506f          	j	800058a8 <bad_trap>

800003e0 <inst_16>:
800003e0:	0000b737          	lui	a4,0xb
800003e4:	50570713          	addi	a4,a4,1285 # b505 <offset+0xb3d1>
800003e8:	bff00813          	li	a6,-1025
800003ec:	030707b3          	mul	a5,a4,a6
800003f0:	04f0a023          	sw	a5,64(ra)
800003f4:	fd2b3137          	lui	sp,0xfd2b3
800003f8:	6fb10113          	addi	sp,sp,1787 # fd2b36fb <imm12+0xfd2b3c2b>
800003fc:	00f10463          	beq	sp,a5,80000404 <inst_17>
80000400:	4a80506f          	j	800058a8 <bad_trap>

80000404 <inst_17>:
80000404:	0000b7b7          	lui	a5,0xb
80000408:	50578793          	addi	a5,a5,1285 # b505 <offset+0xb3d1>
8000040c:	fffff6b7          	lui	a3,0xfffff
80000410:	7ff68693          	addi	a3,a3,2047 # fffff7ff <imm12+0xfffffd2f>
80000414:	02d78733          	mul	a4,a5,a3
80000418:	04e0a223          	sw	a4,68(ra)
8000041c:	fa572137          	lui	sp,0xfa572
80000420:	2fb10113          	addi	sp,sp,763 # fa5722fb <imm12+0xfa57282b>
80000424:	00e10463          	beq	sp,a4,8000042c <inst_18>
80000428:	4800506f          	j	800058a8 <bad_trap>

8000042c <inst_18>:
8000042c:	0000b637          	lui	a2,0xb
80000430:	50560613          	addi	a2,a2,1285 # b505 <offset+0xb3d1>
80000434:	fffff737          	lui	a4,0xfffff
80000438:	fff70713          	addi	a4,a4,-1 # ffffefff <imm12+0xfffff52f>
8000043c:	02e606b3          	mul	a3,a2,a4
80000440:	04d0a423          	sw	a3,72(ra)
80000444:	f4af0137          	lui	sp,0xf4af0
80000448:	afb10113          	addi	sp,sp,-1285 # f4aefafb <imm12+0xf4af002b>
8000044c:	00d10463          	beq	sp,a3,80000454 <inst_19>
80000450:	4580506f          	j	800058a8 <bad_trap>

80000454 <inst_19>:
80000454:	0000b6b7          	lui	a3,0xb
80000458:	50568693          	addi	a3,a3,1285 # b505 <offset+0xb3d1>
8000045c:	ffffe5b7          	lui	a1,0xffffe
80000460:	fff58593          	addi	a1,a1,-1 # ffffdfff <imm12+0xffffe52f>
80000464:	02b68633          	mul	a2,a3,a1
80000468:	04c0a623          	sw	a2,76(ra)
8000046c:	e95eb137          	lui	sp,0xe95eb
80000470:	afb10113          	addi	sp,sp,-1285 # e95eaafb <imm12+0xe95eb02b>
80000474:	00c10463          	beq	sp,a2,8000047c <inst_20>
80000478:	4300506f          	j	800058a8 <bad_trap>

8000047c <inst_20>:
8000047c:	0000b537          	lui	a0,0xb
80000480:	50550513          	addi	a0,a0,1285 # b505 <offset+0xb3d1>
80000484:	ffffc637          	lui	a2,0xffffc
80000488:	fff60613          	addi	a2,a2,-1 # ffffbfff <imm12+0xffffc52f>
8000048c:	02c505b3          	mul	a1,a0,a2
80000490:	04b0a823          	sw	a1,80(ra)
80000494:	d2be1137          	lui	sp,0xd2be1
80000498:	afb10113          	addi	sp,sp,-1285 # d2be0afb <imm12+0xd2be102b>
8000049c:	00b10463          	beq	sp,a1,800004a4 <inst_21>
800004a0:	4080506f          	j	800058a8 <bad_trap>

800004a4 <inst_21>:
800004a4:	0000b5b7          	lui	a1,0xb
800004a8:	50558593          	addi	a1,a1,1285 # b505 <offset+0xb3d1>
800004ac:	ffff84b7          	lui	s1,0xffff8
800004b0:	fff48493          	addi	s1,s1,-1 # ffff7fff <imm12+0xffff852f>
800004b4:	02958533          	mul	a0,a1,s1
800004b8:	04a0aa23          	sw	a0,84(ra)
800004bc:	a57cd137          	lui	sp,0xa57cd
800004c0:	afb10113          	addi	sp,sp,-1285 # a57ccafb <imm12+0xa57cd02b>
800004c4:	00a10463          	beq	sp,a0,800004cc <inst_22>
800004c8:	3e00506f          	j	800058a8 <bad_trap>

800004cc <inst_22>:
800004cc:	0000b437          	lui	s0,0xb
800004d0:	50540413          	addi	s0,s0,1285 # b505 <offset+0xb3d1>
800004d4:	ffff0537          	lui	a0,0xffff0
800004d8:	fff50513          	addi	a0,a0,-1 # fffeffff <imm12+0xffff052f>
800004dc:	02a404b3          	mul	s1,s0,a0
800004e0:	0490ac23          	sw	s1,88(ra)
800004e4:	4afa5137          	lui	sp,0x4afa5
800004e8:	afb10113          	addi	sp,sp,-1285 # 4afa4afb <absimm+0x5cb25cc>
800004ec:	00910463          	beq	sp,s1,800004f4 <inst_23>
800004f0:	3b80506f          	j	800058a8 <bad_trap>

800004f4 <inst_23>:
800004f4:	0000b4b7          	lui	s1,0xb
800004f8:	50548493          	addi	s1,s1,1285 # b505 <offset+0xb3d1>
800004fc:	fffe03b7          	lui	t2,0xfffe0
80000500:	fff38393          	addi	t2,t2,-1 # fffdffff <imm12+0xfffe052f>
80000504:	02748433          	mul	s0,s1,t2
80000508:	0480ae23          	sw	s0,92(ra)
8000050c:	95f55137          	lui	sp,0x95f55
80000510:	afb10113          	addi	sp,sp,-1285 # 95f54afb <imm12+0x95f5502b>
80000514:	00810463          	beq	sp,s0,8000051c <inst_24>
80000518:	3900506f          	j	800058a8 <bad_trap>

8000051c <inst_24>:
8000051c:	0000b337          	lui	t1,0xb
80000520:	50530313          	addi	t1,t1,1285 # b505 <offset+0xb3d1>
80000524:	fffc0437          	lui	s0,0xfffc0
80000528:	fff40413          	addi	s0,s0,-1 # fffbffff <imm12+0xfffc052f>
8000052c:	028303b3          	mul	t2,t1,s0
80000530:	0670a023          	sw	t2,96(ra)
80000534:	2beb54b7          	lui	s1,0x2beb5
80000538:	afb48493          	addi	s1,s1,-1285 # 2beb4afb <offset+0x2beb49c7>
8000053c:	00748463          	beq	s1,t2,80000544 <inst_24+0x28>
80000540:	3680506f          	j	800058a8 <bad_trap>
80000544:	00000013          	nop
80000548:	00000013          	nop
8000054c:	00000013          	nop
80000550:	00000013          	nop
80000554:	00000013          	nop
80000558:	00000013          	nop
8000055c:	00000013          	nop
80000560:	00007417          	auipc	s0,0x7
80000564:	b0840413          	addi	s0,s0,-1272 # 80007068 <signature_x8_0>
80000568:	00000013          	nop
8000056c:	00000013          	nop
80000570:	00000013          	nop
80000574:	00000013          	nop
80000578:	00000013          	nop
8000057c:	00000013          	nop

80000580 <inst_25>:
80000580:	0000b3b7          	lui	t2,0xb
80000584:	50538393          	addi	t2,t2,1285 # b505 <offset+0xb3d1>
80000588:	fff802b7          	lui	t0,0xfff80
8000058c:	fff28293          	addi	t0,t0,-1 # fff7ffff <imm12+0xfff8052f>
80000590:	02538333          	mul	t1,t2,t0
80000594:	00642023          	sw	t1,0(s0)
80000598:	57d754b7          	lui	s1,0x57d75
8000059c:	afb48493          	addi	s1,s1,-1285 # 57d74afb <absimm+0x12a825cc>
800005a0:	00648463          	beq	s1,t1,800005a8 <inst_26>
800005a4:	3040506f          	j	800058a8 <bad_trap>

800005a8 <inst_26>:
800005a8:	0000b237          	lui	tp,0xb
800005ac:	50520213          	addi	tp,tp,1285 # b505 <offset+0xb3d1>
800005b0:	fff00337          	lui	t1,0xfff00
800005b4:	fff30313          	addi	t1,t1,-1 # ffefffff <imm12+0xfff0052f>
800005b8:	026202b3          	mul	t0,tp,t1
800005bc:	00542223          	sw	t0,4(s0)
800005c0:	afaf54b7          	lui	s1,0xafaf5
800005c4:	afb48493          	addi	s1,s1,-1285 # afaf4afb <imm12+0xafaf502b>
800005c8:	00548463          	beq	s1,t0,800005d0 <inst_27>
800005cc:	2dc0506f          	j	800058a8 <bad_trap>

800005d0 <inst_27>:
800005d0:	0000b2b7          	lui	t0,0xb
800005d4:	50528293          	addi	t0,t0,1285 # b505 <offset+0xb3d1>
800005d8:	ffe001b7          	lui	gp,0xffe00
800005dc:	fff18193          	addi	gp,gp,-1 # ffdfffff <imm12+0xffe0052f>
800005e0:	02328233          	mul	tp,t0,gp
800005e4:	00442423          	sw	tp,8(s0)
800005e8:	5f5f54b7          	lui	s1,0x5f5f5
800005ec:	afb48493          	addi	s1,s1,-1285 # 5f5f4afb <absimm+0x1a3025cc>
800005f0:	00448463          	beq	s1,tp,800005f8 <inst_28>
800005f4:	2b40506f          	j	800058a8 <bad_trap>

800005f8 <inst_28>:
800005f8:	0000b137          	lui	sp,0xb
800005fc:	50510113          	addi	sp,sp,1285 # b505 <offset+0xb3d1>
80000600:	ffc00237          	lui	tp,0xffc00
80000604:	fff20213          	addi	tp,tp,-1 # ffbfffff <imm12+0xffc0052f>
80000608:	024101b3          	mul	gp,sp,tp
8000060c:	00342623          	sw	gp,12(s0)
80000610:	bebf54b7          	lui	s1,0xbebf5
80000614:	afb48493          	addi	s1,s1,-1285 # bebf4afb <imm12+0xbebf502b>
80000618:	00348463          	beq	s1,gp,80000620 <inst_29>
8000061c:	28c0506f          	j	800058a8 <bad_trap>

80000620 <inst_29>:
80000620:	0000b1b7          	lui	gp,0xb
80000624:	50518193          	addi	gp,gp,1285 # b505 <offset+0xb3d1>
80000628:	ff8000b7          	lui	ra,0xff800
8000062c:	fff08093          	addi	ra,ra,-1 # ff7fffff <imm12+0xff80052f>
80000630:	02118133          	mul	sp,gp,ra
80000634:	00242823          	sw	sp,16(s0)
80000638:	7d7f54b7          	lui	s1,0x7d7f5
8000063c:	afb48493          	addi	s1,s1,-1285 # 7d7f4afb <absimm+0x385025cc>
80000640:	00248463          	beq	s1,sp,80000648 <inst_30>
80000644:	2640506f          	j	800058a8 <bad_trap>

80000648 <inst_30>:
80000648:	00000013          	nop
8000064c:	ff000137          	lui	sp,0xff000
80000650:	fff10113          	addi	sp,sp,-1 # feffffff <imm12+0xff00052f>
80000654:	022000b3          	mul	ra,zero,sp
80000658:	00142a23          	sw	ra,20(s0)
8000065c:	00000493          	li	s1,0
80000660:	00148463          	beq	s1,ra,80000668 <inst_31>
80000664:	2440506f          	j	800058a8 <bad_trap>

80000668 <inst_31>:
80000668:	0000b0b7          	lui	ra,0xb
8000066c:	50508093          	addi	ra,ra,1285 # b505 <offset+0xb3d1>
80000670:	fe000f37          	lui	t5,0xfe000
80000674:	ffff0f13          	addi	t5,t5,-1 # fdffffff <imm12+0xfe00052f>
80000678:	03e08fb3          	mul	t6,ra,t5
8000067c:	01f42c23          	sw	t6,24(s0)
80000680:	f5ff54b7          	lui	s1,0xf5ff5
80000684:	afb48493          	addi	s1,s1,-1285 # f5ff4afb <imm12+0xf5ff502b>
80000688:	01f48463          	beq	s1,t6,80000690 <inst_32>
8000068c:	21c0506f          	j	800058a8 <bad_trap>

80000690 <inst_32>:
80000690:	0000bf37          	lui	t5,0xb
80000694:	505f0f13          	addi	t5,t5,1285 # b505 <offset+0xb3d1>
80000698:	00000013          	nop
8000069c:	020f0fb3          	mul	t6,t5,zero
800006a0:	01f42e23          	sw	t6,28(s0)
800006a4:	00000493          	li	s1,0
800006a8:	01f48463          	beq	s1,t6,800006b0 <inst_33>
800006ac:	1fc0506f          	j	800058a8 <bad_trap>

800006b0 <inst_33>:
800006b0:	0000bfb7          	lui	t6,0xb
800006b4:	505f8f93          	addi	t6,t6,1285 # b505 <offset+0xb3d1>
800006b8:	f8000f37          	lui	t5,0xf8000
800006bc:	ffff0f13          	addi	t5,t5,-1 # f7ffffff <imm12+0xf800052f>
800006c0:	03ef8033          	mul	zero,t6,t5
800006c4:	02042023          	sw	zero,32(s0)
800006c8:	00000493          	li	s1,0
800006cc:	00048463          	beqz	s1,800006d4 <inst_34>
800006d0:	1d80506f          	j	800058a8 <bad_trap>

800006d4 <inst_34>:
800006d4:	0000bf37          	lui	t5,0xb
800006d8:	505f0f13          	addi	t5,t5,1285 # b505 <offset+0xb3d1>
800006dc:	f0000eb7          	lui	t4,0xf0000
800006e0:	fffe8e93          	addi	t4,t4,-1 # efffffff <imm12+0xf000052f>
800006e4:	03df0fb3          	mul	t6,t5,t4
800006e8:	03f42223          	sw	t6,36(s0)
800006ec:	afff54b7          	lui	s1,0xafff5
800006f0:	afb48493          	addi	s1,s1,-1285 # afff4afb <imm12+0xafff502b>
800006f4:	01f48463          	beq	s1,t6,800006fc <inst_35>
800006f8:	1b00506f          	j	800058a8 <bad_trap>

800006fc <inst_35>:
800006fc:	0000bf37          	lui	t5,0xb
80000700:	505f0f13          	addi	t5,t5,1285 # b505 <offset+0xb3d1>
80000704:	e0000eb7          	lui	t4,0xe0000
80000708:	fffe8e93          	addi	t4,t4,-1 # dfffffff <imm12+0xe000052f>
8000070c:	03df0fb3          	mul	t6,t5,t4
80000710:	03f42423          	sw	t6,40(s0)
80000714:	5fff54b7          	lui	s1,0x5fff5
80000718:	afb48493          	addi	s1,s1,-1285 # 5fff4afb <absimm+0x1ad025cc>
8000071c:	01f48463          	beq	s1,t6,80000724 <inst_36>
80000720:	1880506f          	j	800058a8 <bad_trap>

80000724 <inst_36>:
80000724:	0000bf37          	lui	t5,0xb
80000728:	505f0f13          	addi	t5,t5,1285 # b505 <offset+0xb3d1>
8000072c:	c0000eb7          	lui	t4,0xc0000
80000730:	fffe8e93          	addi	t4,t4,-1 # bfffffff <imm12+0xc000052f>
80000734:	03df0fb3          	mul	t6,t5,t4
80000738:	03f42623          	sw	t6,44(s0)
8000073c:	bfff54b7          	lui	s1,0xbfff5
80000740:	afb48493          	addi	s1,s1,-1285 # bfff4afb <imm12+0xbfff502b>
80000744:	01f48463          	beq	s1,t6,8000074c <inst_37>
80000748:	1600506f          	j	800058a8 <bad_trap>

8000074c <inst_37>:
8000074c:	0000bf37          	lui	t5,0xb
80000750:	505f0f13          	addi	t5,t5,1285 # b505 <offset+0xb3d1>
80000754:	80000eb7          	lui	t4,0x80000
80000758:	fffe8e93          	addi	t4,t4,-1 # 7fffffff <imm12+0x8000052f>
8000075c:	03df0fb3          	mul	t6,t5,t4
80000760:	03f42823          	sw	t6,48(s0)
80000764:	7fff54b7          	lui	s1,0x7fff5
80000768:	afb48493          	addi	s1,s1,-1285 # 7fff4afb <absimm+0x3ad025cc>
8000076c:	01f48463          	beq	s1,t6,80000774 <inst_38>
80000770:	1380506f          	j	800058a8 <bad_trap>

80000774 <inst_38>:
80000774:	ffe00f13          	li	t5,-2
80000778:	0000beb7          	lui	t4,0xb
8000077c:	505e8e93          	addi	t4,t4,1285 # b505 <offset+0xb3d1>
80000780:	03df0fb3          	mul	t6,t5,t4
80000784:	03f42a23          	sw	t6,52(s0)
80000788:	fffe94b7          	lui	s1,0xfffe9
8000078c:	5f648493          	addi	s1,s1,1526 # fffe95f6 <imm12+0xfffe9b26>
80000790:	01f48463          	beq	s1,t6,80000798 <inst_39>
80000794:	1140506f          	j	800058a8 <bad_trap>

80000798 <inst_39>:
80000798:	ffd00f13          	li	t5,-3
8000079c:	0000beb7          	lui	t4,0xb
800007a0:	505e8e93          	addi	t4,t4,1285 # b505 <offset+0xb3d1>
800007a4:	03df0fb3          	mul	t6,t5,t4
800007a8:	03f42c23          	sw	t6,56(s0)
800007ac:	fffde4b7          	lui	s1,0xfffde
800007b0:	0f148493          	addi	s1,s1,241 # fffde0f1 <imm12+0xfffde621>
800007b4:	01f48463          	beq	s1,t6,800007bc <inst_40>
800007b8:	0f00506f          	j	800058a8 <bad_trap>

800007bc <inst_40>:
800007bc:	ffb00f13          	li	t5,-5
800007c0:	0000beb7          	lui	t4,0xb
800007c4:	505e8e93          	addi	t4,t4,1285 # b505 <offset+0xb3d1>
800007c8:	03df0fb3          	mul	t6,t5,t4
800007cc:	03f42e23          	sw	t6,60(s0)
800007d0:	fffc74b7          	lui	s1,0xfffc7
800007d4:	6e748493          	addi	s1,s1,1767 # fffc76e7 <imm12+0xfffc7c17>
800007d8:	01f48463          	beq	s1,t6,800007e0 <inst_41>
800007dc:	0cc0506f          	j	800058a8 <bad_trap>

800007e0 <inst_41>:
800007e0:	ff700f13          	li	t5,-9
800007e4:	0000beb7          	lui	t4,0xb
800007e8:	505e8e93          	addi	t4,t4,1285 # b505 <offset+0xb3d1>
800007ec:	03df0fb3          	mul	t6,t5,t4
800007f0:	05f42023          	sw	t6,64(s0)
800007f4:	fff9a4b7          	lui	s1,0xfff9a
800007f8:	2d348493          	addi	s1,s1,723 # fff9a2d3 <imm12+0xfff9a803>
800007fc:	01f48463          	beq	s1,t6,80000804 <inst_42>
80000800:	0a80506f          	j	800058a8 <bad_trap>

80000804 <inst_42>:
80000804:	fef00f13          	li	t5,-17
80000808:	0000beb7          	lui	t4,0xb
8000080c:	505e8e93          	addi	t4,t4,1285 # b505 <offset+0xb3d1>
80000810:	03df0fb3          	mul	t6,t5,t4
80000814:	05f42223          	sw	t6,68(s0)
80000818:	fff404b7          	lui	s1,0xfff40
8000081c:	aab48493          	addi	s1,s1,-1365 # fff3faab <imm12+0xfff3ffdb>
80000820:	01f48463          	beq	s1,t6,80000828 <inst_43>
80000824:	0840506f          	j	800058a8 <bad_trap>

80000828 <inst_43>:
80000828:	fdf00f13          	li	t5,-33
8000082c:	0000beb7          	lui	t4,0xb
80000830:	505e8e93          	addi	t4,t4,1285 # b505 <offset+0xb3d1>
80000834:	03df0fb3          	mul	t6,t5,t4
80000838:	05f42423          	sw	t6,72(s0)
8000083c:	ffe8b4b7          	lui	s1,0xffe8b
80000840:	a5b48493          	addi	s1,s1,-1445 # ffe8aa5b <imm12+0xffe8af8b>
80000844:	01f48463          	beq	s1,t6,8000084c <inst_44>
80000848:	0600506f          	j	800058a8 <bad_trap>

8000084c <inst_44>:
8000084c:	fbf00f13          	li	t5,-65
80000850:	0000beb7          	lui	t4,0xb
80000854:	505e8e93          	addi	t4,t4,1285 # b505 <offset+0xb3d1>
80000858:	03df0fb3          	mul	t6,t5,t4
8000085c:	05f42623          	sw	t6,76(s0)
80000860:	ffd214b7          	lui	s1,0xffd21
80000864:	9bb48493          	addi	s1,s1,-1605 # ffd209bb <imm12+0xffd20eeb>
80000868:	01f48463          	beq	s1,t6,80000870 <inst_45>
8000086c:	03c0506f          	j	800058a8 <bad_trap>

80000870 <inst_45>:
80000870:	f7f00f13          	li	t5,-129
80000874:	0000beb7          	lui	t4,0xb
80000878:	505e8e93          	addi	t4,t4,1285 # b505 <offset+0xb3d1>
8000087c:	03df0fb3          	mul	t6,t5,t4
80000880:	05f42823          	sw	t6,80(s0)
80000884:	ffa4d4b7          	lui	s1,0xffa4d
80000888:	87b48493          	addi	s1,s1,-1925 # ffa4c87b <imm12+0xffa4cdab>
8000088c:	01f48463          	beq	s1,t6,80000894 <inst_46>
80000890:	0180506f          	j	800058a8 <bad_trap>

80000894 <inst_46>:
80000894:	eff00f13          	li	t5,-257
80000898:	0000beb7          	lui	t4,0xb
8000089c:	505e8e93          	addi	t4,t4,1285 # b505 <offset+0xb3d1>
800008a0:	03df0fb3          	mul	t6,t5,t4
800008a4:	05f42a23          	sw	t6,84(s0)
800008a8:	ff4a44b7          	lui	s1,0xff4a4
800008ac:	5fb48493          	addi	s1,s1,1531 # ff4a45fb <imm12+0xff4a4b2b>
800008b0:	01f48463          	beq	s1,t6,800008b8 <inst_47>
800008b4:	7f50406f          	j	800058a8 <bad_trap>

800008b8 <inst_47>:
800008b8:	dff00f13          	li	t5,-513
800008bc:	0000beb7          	lui	t4,0xb
800008c0:	505e8e93          	addi	t4,t4,1285 # b505 <offset+0xb3d1>
800008c4:	03df0fb3          	mul	t6,t5,t4
800008c8:	05f42c23          	sw	t6,88(s0)
800008cc:	fe9544b7          	lui	s1,0xfe954
800008d0:	0fb48493          	addi	s1,s1,251 # fe9540fb <imm12+0xfe95462b>
800008d4:	01f48463          	beq	s1,t6,800008dc <inst_48>
800008d8:	7d10406f          	j	800058a8 <bad_trap>

800008dc <inst_48>:
800008dc:	bff00f13          	li	t5,-1025
800008e0:	0000beb7          	lui	t4,0xb
800008e4:	505e8e93          	addi	t4,t4,1285 # b505 <offset+0xb3d1>
800008e8:	03df0fb3          	mul	t6,t5,t4
800008ec:	05f42e23          	sw	t6,92(s0)
800008f0:	fd2b34b7          	lui	s1,0xfd2b3
800008f4:	6fb48493          	addi	s1,s1,1787 # fd2b36fb <imm12+0xfd2b3c2b>
800008f8:	01f48463          	beq	s1,t6,80000900 <inst_49>
800008fc:	7ad0406f          	j	800058a8 <bad_trap>

80000900 <inst_49>:
80000900:	ffffff37          	lui	t5,0xfffff
80000904:	7fff0f13          	addi	t5,t5,2047 # fffff7ff <imm12+0xfffffd2f>
80000908:	0000beb7          	lui	t4,0xb
8000090c:	505e8e93          	addi	t4,t4,1285 # b505 <offset+0xb3d1>
80000910:	03df0fb3          	mul	t6,t5,t4
80000914:	07f42023          	sw	t6,96(s0)
80000918:	fa5724b7          	lui	s1,0xfa572
8000091c:	2fb48493          	addi	s1,s1,763 # fa5722fb <imm12+0xfa57282b>
80000920:	01f48463          	beq	s1,t6,80000928 <inst_50>
80000924:	7850406f          	j	800058a8 <bad_trap>

80000928 <inst_50>:
80000928:	ffffff37          	lui	t5,0xfffff
8000092c:	ffff0f13          	addi	t5,t5,-1 # ffffefff <imm12+0xfffff52f>
80000930:	0000beb7          	lui	t4,0xb
80000934:	505e8e93          	addi	t4,t4,1285 # b505 <offset+0xb3d1>
80000938:	03df0fb3          	mul	t6,t5,t4
8000093c:	07f42223          	sw	t6,100(s0)
80000940:	f4af04b7          	lui	s1,0xf4af0
80000944:	afb48493          	addi	s1,s1,-1285 # f4aefafb <imm12+0xf4af002b>
80000948:	01f48463          	beq	s1,t6,80000950 <inst_51>
8000094c:	75d0406f          	j	800058a8 <bad_trap>

80000950 <inst_51>:
80000950:	ffffef37          	lui	t5,0xffffe
80000954:	ffff0f13          	addi	t5,t5,-1 # ffffdfff <imm12+0xffffe52f>
80000958:	0000beb7          	lui	t4,0xb
8000095c:	505e8e93          	addi	t4,t4,1285 # b505 <offset+0xb3d1>
80000960:	03df0fb3          	mul	t6,t5,t4
80000964:	07f42423          	sw	t6,104(s0)
80000968:	e95eb4b7          	lui	s1,0xe95eb
8000096c:	afb48493          	addi	s1,s1,-1285 # e95eaafb <imm12+0xe95eb02b>
80000970:	01f48463          	beq	s1,t6,80000978 <inst_52>
80000974:	7350406f          	j	800058a8 <bad_trap>

80000978 <inst_52>:
80000978:	ffffcf37          	lui	t5,0xffffc
8000097c:	ffff0f13          	addi	t5,t5,-1 # ffffbfff <imm12+0xffffc52f>
80000980:	0000beb7          	lui	t4,0xb
80000984:	505e8e93          	addi	t4,t4,1285 # b505 <offset+0xb3d1>
80000988:	03df0fb3          	mul	t6,t5,t4
8000098c:	07f42623          	sw	t6,108(s0)
80000990:	d2be14b7          	lui	s1,0xd2be1
80000994:	afb48493          	addi	s1,s1,-1285 # d2be0afb <imm12+0xd2be102b>
80000998:	01f48463          	beq	s1,t6,800009a0 <inst_53>
8000099c:	70d0406f          	j	800058a8 <bad_trap>

800009a0 <inst_53>:
800009a0:	ffff8f37          	lui	t5,0xffff8
800009a4:	ffff0f13          	addi	t5,t5,-1 # ffff7fff <imm12+0xffff852f>
800009a8:	0000beb7          	lui	t4,0xb
800009ac:	505e8e93          	addi	t4,t4,1285 # b505 <offset+0xb3d1>
800009b0:	03df0fb3          	mul	t6,t5,t4
800009b4:	07f42823          	sw	t6,112(s0)
800009b8:	a57cd4b7          	lui	s1,0xa57cd
800009bc:	afb48493          	addi	s1,s1,-1285 # a57ccafb <imm12+0xa57cd02b>
800009c0:	01f48463          	beq	s1,t6,800009c8 <inst_54>
800009c4:	6e50406f          	j	800058a8 <bad_trap>

800009c8 <inst_54>:
800009c8:	ffff0f37          	lui	t5,0xffff0
800009cc:	ffff0f13          	addi	t5,t5,-1 # fffeffff <imm12+0xffff052f>
800009d0:	0000beb7          	lui	t4,0xb
800009d4:	505e8e93          	addi	t4,t4,1285 # b505 <offset+0xb3d1>
800009d8:	03df0fb3          	mul	t6,t5,t4
800009dc:	07f42a23          	sw	t6,116(s0)
800009e0:	4afa54b7          	lui	s1,0x4afa5
800009e4:	afb48493          	addi	s1,s1,-1285 # 4afa4afb <absimm+0x5cb25cc>
800009e8:	01f48463          	beq	s1,t6,800009f0 <inst_55>
800009ec:	6bd0406f          	j	800058a8 <bad_trap>

800009f0 <inst_55>:
800009f0:	fffe0f37          	lui	t5,0xfffe0
800009f4:	ffff0f13          	addi	t5,t5,-1 # fffdffff <imm12+0xfffe052f>
800009f8:	0000beb7          	lui	t4,0xb
800009fc:	505e8e93          	addi	t4,t4,1285 # b505 <offset+0xb3d1>
80000a00:	03df0fb3          	mul	t6,t5,t4
80000a04:	07f42c23          	sw	t6,120(s0)
80000a08:	95f554b7          	lui	s1,0x95f55
80000a0c:	afb48493          	addi	s1,s1,-1285 # 95f54afb <imm12+0x95f5502b>
80000a10:	01f48463          	beq	s1,t6,80000a18 <inst_56>
80000a14:	6950406f          	j	800058a8 <bad_trap>

80000a18 <inst_56>:
80000a18:	fffc0f37          	lui	t5,0xfffc0
80000a1c:	ffff0f13          	addi	t5,t5,-1 # fffbffff <imm12+0xfffc052f>
80000a20:	0000beb7          	lui	t4,0xb
80000a24:	505e8e93          	addi	t4,t4,1285 # b505 <offset+0xb3d1>
80000a28:	03df0fb3          	mul	t6,t5,t4
80000a2c:	07f42e23          	sw	t6,124(s0)
80000a30:	2beb54b7          	lui	s1,0x2beb5
80000a34:	afb48493          	addi	s1,s1,-1285 # 2beb4afb <offset+0x2beb49c7>
80000a38:	01f48463          	beq	s1,t6,80000a40 <inst_57>
80000a3c:	66d0406f          	j	800058a8 <bad_trap>

80000a40 <inst_57>:
80000a40:	fff80f37          	lui	t5,0xfff80
80000a44:	ffff0f13          	addi	t5,t5,-1 # fff7ffff <imm12+0xfff8052f>
80000a48:	0000beb7          	lui	t4,0xb
80000a4c:	505e8e93          	addi	t4,t4,1285 # b505 <offset+0xb3d1>
80000a50:	03df0fb3          	mul	t6,t5,t4
80000a54:	09f42023          	sw	t6,128(s0)
80000a58:	57d754b7          	lui	s1,0x57d75
80000a5c:	afb48493          	addi	s1,s1,-1285 # 57d74afb <absimm+0x12a825cc>
80000a60:	01f48463          	beq	s1,t6,80000a68 <inst_58>
80000a64:	6450406f          	j	800058a8 <bad_trap>

80000a68 <inst_58>:
80000a68:	fff00f37          	lui	t5,0xfff00
80000a6c:	ffff0f13          	addi	t5,t5,-1 # ffefffff <imm12+0xfff0052f>
80000a70:	0000beb7          	lui	t4,0xb
80000a74:	505e8e93          	addi	t4,t4,1285 # b505 <offset+0xb3d1>
80000a78:	03df0fb3          	mul	t6,t5,t4
80000a7c:	09f42223          	sw	t6,132(s0)
80000a80:	afaf54b7          	lui	s1,0xafaf5
80000a84:	afb48493          	addi	s1,s1,-1285 # afaf4afb <imm12+0xafaf502b>
80000a88:	01f48463          	beq	s1,t6,80000a90 <inst_59>
80000a8c:	61d0406f          	j	800058a8 <bad_trap>

80000a90 <inst_59>:
80000a90:	ffe00f37          	lui	t5,0xffe00
80000a94:	ffff0f13          	addi	t5,t5,-1 # ffdfffff <imm12+0xffe0052f>
80000a98:	0000beb7          	lui	t4,0xb
80000a9c:	505e8e93          	addi	t4,t4,1285 # b505 <offset+0xb3d1>
80000aa0:	03df0fb3          	mul	t6,t5,t4
80000aa4:	09f42423          	sw	t6,136(s0)
80000aa8:	5f5f54b7          	lui	s1,0x5f5f5
80000aac:	afb48493          	addi	s1,s1,-1285 # 5f5f4afb <absimm+0x1a3025cc>
80000ab0:	01f48463          	beq	s1,t6,80000ab8 <inst_60>
80000ab4:	5f50406f          	j	800058a8 <bad_trap>

80000ab8 <inst_60>:
80000ab8:	ffc00f37          	lui	t5,0xffc00
80000abc:	ffff0f13          	addi	t5,t5,-1 # ffbfffff <imm12+0xffc0052f>
80000ac0:	0000beb7          	lui	t4,0xb
80000ac4:	505e8e93          	addi	t4,t4,1285 # b505 <offset+0xb3d1>
80000ac8:	03df0fb3          	mul	t6,t5,t4
80000acc:	09f42623          	sw	t6,140(s0)
80000ad0:	bebf54b7          	lui	s1,0xbebf5
80000ad4:	afb48493          	addi	s1,s1,-1285 # bebf4afb <imm12+0xbebf502b>
80000ad8:	01f48463          	beq	s1,t6,80000ae0 <inst_61>
80000adc:	5cd0406f          	j	800058a8 <bad_trap>

80000ae0 <inst_61>:
80000ae0:	ff800f37          	lui	t5,0xff800
80000ae4:	ffff0f13          	addi	t5,t5,-1 # ff7fffff <imm12+0xff80052f>
80000ae8:	0000beb7          	lui	t4,0xb
80000aec:	505e8e93          	addi	t4,t4,1285 # b505 <offset+0xb3d1>
80000af0:	03df0fb3          	mul	t6,t5,t4
80000af4:	09f42823          	sw	t6,144(s0)
80000af8:	7d7f54b7          	lui	s1,0x7d7f5
80000afc:	afb48493          	addi	s1,s1,-1285 # 7d7f4afb <absimm+0x385025cc>
80000b00:	01f48463          	beq	s1,t6,80000b08 <inst_62>
80000b04:	5a50406f          	j	800058a8 <bad_trap>

80000b08 <inst_62>:
80000b08:	ff000f37          	lui	t5,0xff000
80000b0c:	ffff0f13          	addi	t5,t5,-1 # feffffff <imm12+0xff00052f>
80000b10:	0000beb7          	lui	t4,0xb
80000b14:	505e8e93          	addi	t4,t4,1285 # b505 <offset+0xb3d1>
80000b18:	03df0fb3          	mul	t6,t5,t4
80000b1c:	09f42a23          	sw	t6,148(s0)
80000b20:	faff54b7          	lui	s1,0xfaff5
80000b24:	afb48493          	addi	s1,s1,-1285 # faff4afb <imm12+0xfaff502b>
80000b28:	01f48463          	beq	s1,t6,80000b30 <inst_63>
80000b2c:	57d0406f          	j	800058a8 <bad_trap>

80000b30 <inst_63>:
80000b30:	fe000f37          	lui	t5,0xfe000
80000b34:	ffff0f13          	addi	t5,t5,-1 # fdffffff <imm12+0xfe00052f>
80000b38:	0000beb7          	lui	t4,0xb
80000b3c:	505e8e93          	addi	t4,t4,1285 # b505 <offset+0xb3d1>
80000b40:	03df0fb3          	mul	t6,t5,t4
80000b44:	09f42c23          	sw	t6,152(s0)
80000b48:	f5ff54b7          	lui	s1,0xf5ff5
80000b4c:	afb48493          	addi	s1,s1,-1285 # f5ff4afb <imm12+0xf5ff502b>
80000b50:	01f48463          	beq	s1,t6,80000b58 <inst_64>
80000b54:	5550406f          	j	800058a8 <bad_trap>

80000b58 <inst_64>:
80000b58:	fc000f37          	lui	t5,0xfc000
80000b5c:	ffff0f13          	addi	t5,t5,-1 # fbffffff <imm12+0xfc00052f>
80000b60:	0000beb7          	lui	t4,0xb
80000b64:	505e8e93          	addi	t4,t4,1285 # b505 <offset+0xb3d1>
80000b68:	03df0fb3          	mul	t6,t5,t4
80000b6c:	09f42e23          	sw	t6,156(s0)
80000b70:	ebff54b7          	lui	s1,0xebff5
80000b74:	afb48493          	addi	s1,s1,-1285 # ebff4afb <imm12+0xebff502b>
80000b78:	01f48463          	beq	s1,t6,80000b80 <inst_65>
80000b7c:	52d0406f          	j	800058a8 <bad_trap>

80000b80 <inst_65>:
80000b80:	f8000f37          	lui	t5,0xf8000
80000b84:	ffff0f13          	addi	t5,t5,-1 # f7ffffff <imm12+0xf800052f>
80000b88:	0000beb7          	lui	t4,0xb
80000b8c:	505e8e93          	addi	t4,t4,1285 # b505 <offset+0xb3d1>
80000b90:	03df0fb3          	mul	t6,t5,t4
80000b94:	0bf42023          	sw	t6,160(s0)
80000b98:	d7ff54b7          	lui	s1,0xd7ff5
80000b9c:	afb48493          	addi	s1,s1,-1285 # d7ff4afb <imm12+0xd7ff502b>
80000ba0:	01f48463          	beq	s1,t6,80000ba8 <inst_66>
80000ba4:	5050406f          	j	800058a8 <bad_trap>

80000ba8 <inst_66>:
80000ba8:	f0000f37          	lui	t5,0xf0000
80000bac:	ffff0f13          	addi	t5,t5,-1 # efffffff <imm12+0xf000052f>
80000bb0:	0000beb7          	lui	t4,0xb
80000bb4:	505e8e93          	addi	t4,t4,1285 # b505 <offset+0xb3d1>
80000bb8:	03df0fb3          	mul	t6,t5,t4
80000bbc:	0bf42223          	sw	t6,164(s0)
80000bc0:	afff54b7          	lui	s1,0xafff5
80000bc4:	afb48493          	addi	s1,s1,-1285 # afff4afb <imm12+0xafff502b>
80000bc8:	01f48463          	beq	s1,t6,80000bd0 <inst_67>
80000bcc:	4dd0406f          	j	800058a8 <bad_trap>

80000bd0 <inst_67>:
80000bd0:	e0000f37          	lui	t5,0xe0000
80000bd4:	ffff0f13          	addi	t5,t5,-1 # dfffffff <imm12+0xe000052f>
80000bd8:	0000beb7          	lui	t4,0xb
80000bdc:	505e8e93          	addi	t4,t4,1285 # b505 <offset+0xb3d1>
80000be0:	03df0fb3          	mul	t6,t5,t4
80000be4:	0bf42423          	sw	t6,168(s0)
80000be8:	5fff54b7          	lui	s1,0x5fff5
80000bec:	afb48493          	addi	s1,s1,-1285 # 5fff4afb <absimm+0x1ad025cc>
80000bf0:	01f48463          	beq	s1,t6,80000bf8 <inst_68>
80000bf4:	4b50406f          	j	800058a8 <bad_trap>

80000bf8 <inst_68>:
80000bf8:	c0000f37          	lui	t5,0xc0000
80000bfc:	ffff0f13          	addi	t5,t5,-1 # bfffffff <imm12+0xc000052f>
80000c00:	0000beb7          	lui	t4,0xb
80000c04:	505e8e93          	addi	t4,t4,1285 # b505 <offset+0xb3d1>
80000c08:	03df0fb3          	mul	t6,t5,t4
80000c0c:	0bf42623          	sw	t6,172(s0)
80000c10:	bfff54b7          	lui	s1,0xbfff5
80000c14:	afb48493          	addi	s1,s1,-1285 # bfff4afb <imm12+0xbfff502b>
80000c18:	01f48463          	beq	s1,t6,80000c20 <inst_69>
80000c1c:	48d0406f          	j	800058a8 <bad_trap>

80000c20 <inst_69>:
80000c20:	0000bf37          	lui	t5,0xb
80000c24:	505f0f13          	addi	t5,t5,1285 # b505 <offset+0xb3d1>
80000c28:	00100e93          	li	t4,1
80000c2c:	03df0fb3          	mul	t6,t5,t4
80000c30:	0bf42823          	sw	t6,176(s0)
80000c34:	0000b4b7          	lui	s1,0xb
80000c38:	50548493          	addi	s1,s1,1285 # b505 <offset+0xb3d1>
80000c3c:	01f48463          	beq	s1,t6,80000c44 <inst_70>
80000c40:	4690406f          	j	800058a8 <bad_trap>

80000c44 <inst_70>:
80000c44:	0000bf37          	lui	t5,0xb
80000c48:	505f0f13          	addi	t5,t5,1285 # b505 <offset+0xb3d1>
80000c4c:	00200e93          	li	t4,2
80000c50:	03df0fb3          	mul	t6,t5,t4
80000c54:	0bf42a23          	sw	t6,180(s0)
80000c58:	000174b7          	lui	s1,0x17
80000c5c:	a0a48493          	addi	s1,s1,-1526 # 16a0a <offset+0x168d6>
80000c60:	01f48463          	beq	s1,t6,80000c68 <inst_71>
80000c64:	4450406f          	j	800058a8 <bad_trap>

80000c68 <inst_71>:
80000c68:	0000bf37          	lui	t5,0xb
80000c6c:	505f0f13          	addi	t5,t5,1285 # b505 <offset+0xb3d1>
80000c70:	00400e93          	li	t4,4
80000c74:	03df0fb3          	mul	t6,t5,t4
80000c78:	0bf42c23          	sw	t6,184(s0)
80000c7c:	0002d4b7          	lui	s1,0x2d
80000c80:	41448493          	addi	s1,s1,1044 # 2d414 <offset+0x2d2e0>
80000c84:	01f48463          	beq	s1,t6,80000c8c <inst_72>
80000c88:	4210406f          	j	800058a8 <bad_trap>

80000c8c <inst_72>:
80000c8c:	0000bf37          	lui	t5,0xb
80000c90:	505f0f13          	addi	t5,t5,1285 # b505 <offset+0xb3d1>
80000c94:	00800e93          	li	t4,8
80000c98:	03df0fb3          	mul	t6,t5,t4
80000c9c:	0bf42e23          	sw	t6,188(s0)
80000ca0:	0005b4b7          	lui	s1,0x5b
80000ca4:	82848493          	addi	s1,s1,-2008 # 5a828 <offset+0x5a6f4>
80000ca8:	01f48463          	beq	s1,t6,80000cb0 <inst_73>
80000cac:	3fd0406f          	j	800058a8 <bad_trap>

80000cb0 <inst_73>:
80000cb0:	0000bf37          	lui	t5,0xb
80000cb4:	505f0f13          	addi	t5,t5,1285 # b505 <offset+0xb3d1>
80000cb8:	01000e93          	li	t4,16
80000cbc:	03df0fb3          	mul	t6,t5,t4
80000cc0:	0df42023          	sw	t6,192(s0)
80000cc4:	000b54b7          	lui	s1,0xb5
80000cc8:	05048493          	addi	s1,s1,80 # b5050 <offset+0xb4f1c>
80000ccc:	01f48463          	beq	s1,t6,80000cd4 <inst_74>
80000cd0:	3d90406f          	j	800058a8 <bad_trap>

80000cd4 <inst_74>:
80000cd4:	0000bf37          	lui	t5,0xb
80000cd8:	505f0f13          	addi	t5,t5,1285 # b505 <offset+0xb3d1>
80000cdc:	02000e93          	li	t4,32
80000ce0:	03df0fb3          	mul	t6,t5,t4
80000ce4:	0df42223          	sw	t6,196(s0)
80000ce8:	0016a4b7          	lui	s1,0x16a
80000cec:	0a048493          	addi	s1,s1,160 # 16a0a0 <offset+0x169f6c>
80000cf0:	01f48463          	beq	s1,t6,80000cf8 <inst_75>
80000cf4:	3b50406f          	j	800058a8 <bad_trap>

80000cf8 <inst_75>:
80000cf8:	0000bf37          	lui	t5,0xb
80000cfc:	505f0f13          	addi	t5,t5,1285 # b505 <offset+0xb3d1>
80000d00:	04000e93          	li	t4,64
80000d04:	03df0fb3          	mul	t6,t5,t4
80000d08:	0df42423          	sw	t6,200(s0)
80000d0c:	002d44b7          	lui	s1,0x2d4
80000d10:	14048493          	addi	s1,s1,320 # 2d4140 <offset+0x2d400c>
80000d14:	01f48463          	beq	s1,t6,80000d1c <inst_76>
80000d18:	3910406f          	j	800058a8 <bad_trap>

80000d1c <inst_76>:
80000d1c:	0000bf37          	lui	t5,0xb
80000d20:	505f0f13          	addi	t5,t5,1285 # b505 <offset+0xb3d1>
80000d24:	08000e93          	li	t4,128
80000d28:	03df0fb3          	mul	t6,t5,t4
80000d2c:	0df42623          	sw	t6,204(s0)
80000d30:	005a84b7          	lui	s1,0x5a8
80000d34:	28048493          	addi	s1,s1,640 # 5a8280 <offset+0x5a814c>
80000d38:	01f48463          	beq	s1,t6,80000d40 <inst_77>
80000d3c:	36d0406f          	j	800058a8 <bad_trap>

80000d40 <inst_77>:
80000d40:	0000bf37          	lui	t5,0xb
80000d44:	505f0f13          	addi	t5,t5,1285 # b505 <offset+0xb3d1>
80000d48:	10000e93          	li	t4,256
80000d4c:	03df0fb3          	mul	t6,t5,t4
80000d50:	0df42823          	sw	t6,208(s0)
80000d54:	00b504b7          	lui	s1,0xb50
80000d58:	50048493          	addi	s1,s1,1280 # b50500 <offset+0xb503cc>
80000d5c:	01f48463          	beq	s1,t6,80000d64 <inst_78>
80000d60:	3490406f          	j	800058a8 <bad_trap>

80000d64 <inst_78>:
80000d64:	0000bf37          	lui	t5,0xb
80000d68:	505f0f13          	addi	t5,t5,1285 # b505 <offset+0xb3d1>
80000d6c:	20000e93          	li	t4,512
80000d70:	03df0fb3          	mul	t6,t5,t4
80000d74:	0df42a23          	sw	t6,212(s0)
80000d78:	016a14b7          	lui	s1,0x16a1
80000d7c:	a0048493          	addi	s1,s1,-1536 # 16a0a00 <offset+0x16a08cc>
80000d80:	01f48463          	beq	s1,t6,80000d88 <inst_79>
80000d84:	3250406f          	j	800058a8 <bad_trap>

80000d88 <inst_79>:
80000d88:	0000bf37          	lui	t5,0xb
80000d8c:	505f0f13          	addi	t5,t5,1285 # b505 <offset+0xb3d1>
80000d90:	40000e93          	li	t4,1024
80000d94:	03df0fb3          	mul	t6,t5,t4
80000d98:	0df42c23          	sw	t6,216(s0)
80000d9c:	02d414b7          	lui	s1,0x2d41
80000da0:	40048493          	addi	s1,s1,1024 # 2d41400 <offset+0x2d412cc>
80000da4:	01f48463          	beq	s1,t6,80000dac <inst_80>
80000da8:	3010406f          	j	800058a8 <bad_trap>

80000dac <inst_80>:
80000dac:	0000bf37          	lui	t5,0xb
80000db0:	505f0f13          	addi	t5,t5,1285 # b505 <offset+0xb3d1>
80000db4:	00001eb7          	lui	t4,0x1
80000db8:	800e8e93          	addi	t4,t4,-2048 # 800 <offset+0x6cc>
80000dbc:	03df0fb3          	mul	t6,t5,t4
80000dc0:	0df42e23          	sw	t6,220(s0)
80000dc4:	05a834b7          	lui	s1,0x5a83
80000dc8:	80048493          	addi	s1,s1,-2048 # 5a82800 <offset+0x5a826cc>
80000dcc:	01f48463          	beq	s1,t6,80000dd4 <inst_81>
80000dd0:	2d90406f          	j	800058a8 <bad_trap>

80000dd4 <inst_81>:
80000dd4:	0000bf37          	lui	t5,0xb
80000dd8:	505f0f13          	addi	t5,t5,1285 # b505 <offset+0xb3d1>
80000ddc:	00001eb7          	lui	t4,0x1
80000de0:	03df0fb3          	mul	t6,t5,t4
80000de4:	0ff42023          	sw	t6,224(s0)
80000de8:	0b5054b7          	lui	s1,0xb505
80000dec:	01f48463          	beq	s1,t6,80000df4 <inst_82>
80000df0:	2b90406f          	j	800058a8 <bad_trap>

80000df4 <inst_82>:
80000df4:	0000bf37          	lui	t5,0xb
80000df8:	505f0f13          	addi	t5,t5,1285 # b505 <offset+0xb3d1>
80000dfc:	00002eb7          	lui	t4,0x2
80000e00:	03df0fb3          	mul	t6,t5,t4
80000e04:	0ff42223          	sw	t6,228(s0)
80000e08:	16a0a4b7          	lui	s1,0x16a0a
80000e0c:	01f48463          	beq	s1,t6,80000e14 <inst_83>
80000e10:	2990406f          	j	800058a8 <bad_trap>

80000e14 <inst_83>:
80000e14:	0000bf37          	lui	t5,0xb
80000e18:	505f0f13          	addi	t5,t5,1285 # b505 <offset+0xb3d1>
80000e1c:	00004eb7          	lui	t4,0x4
80000e20:	03df0fb3          	mul	t6,t5,t4
80000e24:	0ff42423          	sw	t6,232(s0)
80000e28:	2d4144b7          	lui	s1,0x2d414
80000e2c:	01f48463          	beq	s1,t6,80000e34 <inst_84>
80000e30:	2790406f          	j	800058a8 <bad_trap>

80000e34 <inst_84>:
80000e34:	0000bf37          	lui	t5,0xb
80000e38:	505f0f13          	addi	t5,t5,1285 # b505 <offset+0xb3d1>
80000e3c:	00008eb7          	lui	t4,0x8
80000e40:	03df0fb3          	mul	t6,t5,t4
80000e44:	0ff42623          	sw	t6,236(s0)
80000e48:	5a8284b7          	lui	s1,0x5a828
80000e4c:	01f48463          	beq	s1,t6,80000e54 <inst_85>
80000e50:	2590406f          	j	800058a8 <bad_trap>

80000e54 <inst_85>:
80000e54:	0000bf37          	lui	t5,0xb
80000e58:	505f0f13          	addi	t5,t5,1285 # b505 <offset+0xb3d1>
80000e5c:	00010eb7          	lui	t4,0x10
80000e60:	03df0fb3          	mul	t6,t5,t4
80000e64:	0ff42823          	sw	t6,240(s0)
80000e68:	b50504b7          	lui	s1,0xb5050
80000e6c:	01f48463          	beq	s1,t6,80000e74 <inst_86>
80000e70:	2390406f          	j	800058a8 <bad_trap>

80000e74 <inst_86>:
80000e74:	0000bf37          	lui	t5,0xb
80000e78:	505f0f13          	addi	t5,t5,1285 # b505 <offset+0xb3d1>
80000e7c:	00020eb7          	lui	t4,0x20
80000e80:	03df0fb3          	mul	t6,t5,t4
80000e84:	0ff42a23          	sw	t6,244(s0)
80000e88:	6a0a04b7          	lui	s1,0x6a0a0
80000e8c:	01f48463          	beq	s1,t6,80000e94 <inst_87>
80000e90:	2190406f          	j	800058a8 <bad_trap>

80000e94 <inst_87>:
80000e94:	0000bf37          	lui	t5,0xb
80000e98:	505f0f13          	addi	t5,t5,1285 # b505 <offset+0xb3d1>
80000e9c:	00040eb7          	lui	t4,0x40
80000ea0:	03df0fb3          	mul	t6,t5,t4
80000ea4:	0ff42c23          	sw	t6,248(s0)
80000ea8:	d41404b7          	lui	s1,0xd4140
80000eac:	01f48463          	beq	s1,t6,80000eb4 <inst_88>
80000eb0:	1f90406f          	j	800058a8 <bad_trap>

80000eb4 <inst_88>:
80000eb4:	0000bf37          	lui	t5,0xb
80000eb8:	505f0f13          	addi	t5,t5,1285 # b505 <offset+0xb3d1>
80000ebc:	00080eb7          	lui	t4,0x80
80000ec0:	03df0fb3          	mul	t6,t5,t4
80000ec4:	0ff42e23          	sw	t6,252(s0)
80000ec8:	a82804b7          	lui	s1,0xa8280
80000ecc:	01f48463          	beq	s1,t6,80000ed4 <inst_89>
80000ed0:	1d90406f          	j	800058a8 <bad_trap>

80000ed4 <inst_89>:
80000ed4:	0000bf37          	lui	t5,0xb
80000ed8:	505f0f13          	addi	t5,t5,1285 # b505 <offset+0xb3d1>
80000edc:	00100eb7          	lui	t4,0x100
80000ee0:	03df0fb3          	mul	t6,t5,t4
80000ee4:	11f42023          	sw	t6,256(s0)
80000ee8:	505004b7          	lui	s1,0x50500
80000eec:	01f48463          	beq	s1,t6,80000ef4 <inst_90>
80000ef0:	1b90406f          	j	800058a8 <bad_trap>

80000ef4 <inst_90>:
80000ef4:	0000bf37          	lui	t5,0xb
80000ef8:	505f0f13          	addi	t5,t5,1285 # b505 <offset+0xb3d1>
80000efc:	00200eb7          	lui	t4,0x200
80000f00:	03df0fb3          	mul	t6,t5,t4
80000f04:	11f42223          	sw	t6,260(s0)
80000f08:	a0a004b7          	lui	s1,0xa0a00
80000f0c:	01f48463          	beq	s1,t6,80000f14 <inst_91>
80000f10:	1990406f          	j	800058a8 <bad_trap>

80000f14 <inst_91>:
80000f14:	0000bf37          	lui	t5,0xb
80000f18:	505f0f13          	addi	t5,t5,1285 # b505 <offset+0xb3d1>
80000f1c:	00400eb7          	lui	t4,0x400
80000f20:	03df0fb3          	mul	t6,t5,t4
80000f24:	11f42423          	sw	t6,264(s0)
80000f28:	414004b7          	lui	s1,0x41400
80000f2c:	01f48463          	beq	s1,t6,80000f34 <inst_92>
80000f30:	1790406f          	j	800058a8 <bad_trap>

80000f34 <inst_92>:
80000f34:	0000bf37          	lui	t5,0xb
80000f38:	505f0f13          	addi	t5,t5,1285 # b505 <offset+0xb3d1>
80000f3c:	00800eb7          	lui	t4,0x800
80000f40:	03df0fb3          	mul	t6,t5,t4
80000f44:	11f42623          	sw	t6,268(s0)
80000f48:	828004b7          	lui	s1,0x82800
80000f4c:	01f48463          	beq	s1,t6,80000f54 <inst_93>
80000f50:	1590406f          	j	800058a8 <bad_trap>

80000f54 <inst_93>:
80000f54:	0000bf37          	lui	t5,0xb
80000f58:	505f0f13          	addi	t5,t5,1285 # b505 <offset+0xb3d1>
80000f5c:	01000eb7          	lui	t4,0x1000
80000f60:	03df0fb3          	mul	t6,t5,t4
80000f64:	11f42823          	sw	t6,272(s0)
80000f68:	050004b7          	lui	s1,0x5000
80000f6c:	01f48463          	beq	s1,t6,80000f74 <inst_94>
80000f70:	1390406f          	j	800058a8 <bad_trap>

80000f74 <inst_94>:
80000f74:	0000bf37          	lui	t5,0xb
80000f78:	505f0f13          	addi	t5,t5,1285 # b505 <offset+0xb3d1>
80000f7c:	02000eb7          	lui	t4,0x2000
80000f80:	03df0fb3          	mul	t6,t5,t4
80000f84:	11f42a23          	sw	t6,276(s0)
80000f88:	0a0004b7          	lui	s1,0xa000
80000f8c:	01f48463          	beq	s1,t6,80000f94 <inst_95>
80000f90:	1190406f          	j	800058a8 <bad_trap>

80000f94 <inst_95>:
80000f94:	0000bf37          	lui	t5,0xb
80000f98:	505f0f13          	addi	t5,t5,1285 # b505 <offset+0xb3d1>
80000f9c:	04000eb7          	lui	t4,0x4000
80000fa0:	03df0fb3          	mul	t6,t5,t4
80000fa4:	11f42c23          	sw	t6,280(s0)
80000fa8:	140004b7          	lui	s1,0x14000
80000fac:	01f48463          	beq	s1,t6,80000fb4 <inst_96>
80000fb0:	0f90406f          	j	800058a8 <bad_trap>

80000fb4 <inst_96>:
80000fb4:	0000bf37          	lui	t5,0xb
80000fb8:	505f0f13          	addi	t5,t5,1285 # b505 <offset+0xb3d1>
80000fbc:	08000eb7          	lui	t4,0x8000
80000fc0:	03df0fb3          	mul	t6,t5,t4
80000fc4:	11f42e23          	sw	t6,284(s0)
80000fc8:	280004b7          	lui	s1,0x28000
80000fcc:	01f48463          	beq	s1,t6,80000fd4 <inst_97>
80000fd0:	0d90406f          	j	800058a8 <bad_trap>

80000fd4 <inst_97>:
80000fd4:	0000bf37          	lui	t5,0xb
80000fd8:	505f0f13          	addi	t5,t5,1285 # b505 <offset+0xb3d1>
80000fdc:	10000eb7          	lui	t4,0x10000
80000fe0:	03df0fb3          	mul	t6,t5,t4
80000fe4:	13f42023          	sw	t6,288(s0)
80000fe8:	500004b7          	lui	s1,0x50000
80000fec:	01f48463          	beq	s1,t6,80000ff4 <inst_98>
80000ff0:	0b90406f          	j	800058a8 <bad_trap>

80000ff4 <inst_98>:
80000ff4:	0000bf37          	lui	t5,0xb
80000ff8:	505f0f13          	addi	t5,t5,1285 # b505 <offset+0xb3d1>
80000ffc:	20000eb7          	lui	t4,0x20000
80001000:	03df0fb3          	mul	t6,t5,t4
80001004:	13f42223          	sw	t6,292(s0)
80001008:	a00004b7          	lui	s1,0xa0000
8000100c:	01f48463          	beq	s1,t6,80001014 <inst_99>
80001010:	0990406f          	j	800058a8 <bad_trap>

80001014 <inst_99>:
80001014:	0000bf37          	lui	t5,0xb
80001018:	505f0f13          	addi	t5,t5,1285 # b505 <offset+0xb3d1>
8000101c:	40000eb7          	lui	t4,0x40000
80001020:	03df0fb3          	mul	t6,t5,t4
80001024:	13f42423          	sw	t6,296(s0)
80001028:	400004b7          	lui	s1,0x40000
8000102c:	01f48463          	beq	s1,t6,80001034 <inst_100>
80001030:	0790406f          	j	800058a8 <bad_trap>

80001034 <inst_100>:
80001034:	0000bf37          	lui	t5,0xb
80001038:	505f0f13          	addi	t5,t5,1285 # b505 <offset+0xb3d1>
8000103c:	80000eb7          	lui	t4,0x80000
80001040:	03df0fb3          	mul	t6,t5,t4
80001044:	13f42623          	sw	t6,300(s0)
80001048:	800004b7          	lui	s1,0x80000
8000104c:	01f48463          	beq	s1,t6,80001054 <inst_101>
80001050:	0590406f          	j	800058a8 <bad_trap>

80001054 <inst_101>:
80001054:	00100f13          	li	t5,1
80001058:	0000beb7          	lui	t4,0xb
8000105c:	505e8e93          	addi	t4,t4,1285 # b505 <offset+0xb3d1>
80001060:	03df0fb3          	mul	t6,t5,t4
80001064:	13f42823          	sw	t6,304(s0)
80001068:	0000b4b7          	lui	s1,0xb
8000106c:	50548493          	addi	s1,s1,1285 # b505 <offset+0xb3d1>
80001070:	01f48463          	beq	s1,t6,80001078 <inst_102>
80001074:	0350406f          	j	800058a8 <bad_trap>

80001078 <inst_102>:
80001078:	00200f13          	li	t5,2
8000107c:	0000beb7          	lui	t4,0xb
80001080:	505e8e93          	addi	t4,t4,1285 # b505 <offset+0xb3d1>
80001084:	03df0fb3          	mul	t6,t5,t4
80001088:	13f42a23          	sw	t6,308(s0)
8000108c:	000174b7          	lui	s1,0x17
80001090:	a0a48493          	addi	s1,s1,-1526 # 16a0a <offset+0x168d6>
80001094:	01f48463          	beq	s1,t6,8000109c <inst_103>
80001098:	0110406f          	j	800058a8 <bad_trap>

8000109c <inst_103>:
8000109c:	00400f13          	li	t5,4
800010a0:	0000beb7          	lui	t4,0xb
800010a4:	505e8e93          	addi	t4,t4,1285 # b505 <offset+0xb3d1>
800010a8:	03df0fb3          	mul	t6,t5,t4
800010ac:	13f42c23          	sw	t6,312(s0)
800010b0:	0002d4b7          	lui	s1,0x2d
800010b4:	41448493          	addi	s1,s1,1044 # 2d414 <offset+0x2d2e0>
800010b8:	01f48463          	beq	s1,t6,800010c0 <inst_104>
800010bc:	7ec0406f          	j	800058a8 <bad_trap>

800010c0 <inst_104>:
800010c0:	00800f13          	li	t5,8
800010c4:	0000beb7          	lui	t4,0xb
800010c8:	505e8e93          	addi	t4,t4,1285 # b505 <offset+0xb3d1>
800010cc:	03df0fb3          	mul	t6,t5,t4
800010d0:	13f42e23          	sw	t6,316(s0)
800010d4:	0005b4b7          	lui	s1,0x5b
800010d8:	82848493          	addi	s1,s1,-2008 # 5a828 <offset+0x5a6f4>
800010dc:	01f48463          	beq	s1,t6,800010e4 <inst_105>
800010e0:	7c80406f          	j	800058a8 <bad_trap>

800010e4 <inst_105>:
800010e4:	01000f13          	li	t5,16
800010e8:	0000beb7          	lui	t4,0xb
800010ec:	505e8e93          	addi	t4,t4,1285 # b505 <offset+0xb3d1>
800010f0:	03df0fb3          	mul	t6,t5,t4
800010f4:	15f42023          	sw	t6,320(s0)
800010f8:	000b54b7          	lui	s1,0xb5
800010fc:	05048493          	addi	s1,s1,80 # b5050 <offset+0xb4f1c>
80001100:	01f48463          	beq	s1,t6,80001108 <inst_106>
80001104:	7a40406f          	j	800058a8 <bad_trap>

80001108 <inst_106>:
80001108:	02000f13          	li	t5,32
8000110c:	0000beb7          	lui	t4,0xb
80001110:	505e8e93          	addi	t4,t4,1285 # b505 <offset+0xb3d1>
80001114:	03df0fb3          	mul	t6,t5,t4
80001118:	15f42223          	sw	t6,324(s0)
8000111c:	0016a4b7          	lui	s1,0x16a
80001120:	0a048493          	addi	s1,s1,160 # 16a0a0 <offset+0x169f6c>
80001124:	01f48463          	beq	s1,t6,8000112c <inst_107>
80001128:	7800406f          	j	800058a8 <bad_trap>

8000112c <inst_107>:
8000112c:	04000f13          	li	t5,64
80001130:	0000beb7          	lui	t4,0xb
80001134:	505e8e93          	addi	t4,t4,1285 # b505 <offset+0xb3d1>
80001138:	03df0fb3          	mul	t6,t5,t4
8000113c:	15f42423          	sw	t6,328(s0)
80001140:	002d44b7          	lui	s1,0x2d4
80001144:	14048493          	addi	s1,s1,320 # 2d4140 <offset+0x2d400c>
80001148:	01f48463          	beq	s1,t6,80001150 <inst_108>
8000114c:	75c0406f          	j	800058a8 <bad_trap>

80001150 <inst_108>:
80001150:	08000f13          	li	t5,128
80001154:	0000beb7          	lui	t4,0xb
80001158:	505e8e93          	addi	t4,t4,1285 # b505 <offset+0xb3d1>
8000115c:	03df0fb3          	mul	t6,t5,t4
80001160:	15f42623          	sw	t6,332(s0)
80001164:	005a84b7          	lui	s1,0x5a8
80001168:	28048493          	addi	s1,s1,640 # 5a8280 <offset+0x5a814c>
8000116c:	01f48463          	beq	s1,t6,80001174 <inst_109>
80001170:	7380406f          	j	800058a8 <bad_trap>

80001174 <inst_109>:
80001174:	10000f13          	li	t5,256
80001178:	0000beb7          	lui	t4,0xb
8000117c:	505e8e93          	addi	t4,t4,1285 # b505 <offset+0xb3d1>
80001180:	03df0fb3          	mul	t6,t5,t4
80001184:	15f42823          	sw	t6,336(s0)
80001188:	00b504b7          	lui	s1,0xb50
8000118c:	50048493          	addi	s1,s1,1280 # b50500 <offset+0xb503cc>
80001190:	01f48463          	beq	s1,t6,80001198 <inst_110>
80001194:	7140406f          	j	800058a8 <bad_trap>

80001198 <inst_110>:
80001198:	20000f13          	li	t5,512
8000119c:	0000beb7          	lui	t4,0xb
800011a0:	505e8e93          	addi	t4,t4,1285 # b505 <offset+0xb3d1>
800011a4:	03df0fb3          	mul	t6,t5,t4
800011a8:	15f42a23          	sw	t6,340(s0)
800011ac:	016a14b7          	lui	s1,0x16a1
800011b0:	a0048493          	addi	s1,s1,-1536 # 16a0a00 <offset+0x16a08cc>
800011b4:	01f48463          	beq	s1,t6,800011bc <inst_111>
800011b8:	6f00406f          	j	800058a8 <bad_trap>

800011bc <inst_111>:
800011bc:	40000f13          	li	t5,1024
800011c0:	0000beb7          	lui	t4,0xb
800011c4:	505e8e93          	addi	t4,t4,1285 # b505 <offset+0xb3d1>
800011c8:	03df0fb3          	mul	t6,t5,t4
800011cc:	15f42c23          	sw	t6,344(s0)
800011d0:	02d414b7          	lui	s1,0x2d41
800011d4:	40048493          	addi	s1,s1,1024 # 2d41400 <offset+0x2d412cc>
800011d8:	01f48463          	beq	s1,t6,800011e0 <inst_112>
800011dc:	6cc0406f          	j	800058a8 <bad_trap>

800011e0 <inst_112>:
800011e0:	00001f37          	lui	t5,0x1
800011e4:	800f0f13          	addi	t5,t5,-2048 # 800 <offset+0x6cc>
800011e8:	0000beb7          	lui	t4,0xb
800011ec:	505e8e93          	addi	t4,t4,1285 # b505 <offset+0xb3d1>
800011f0:	03df0fb3          	mul	t6,t5,t4
800011f4:	15f42e23          	sw	t6,348(s0)
800011f8:	05a834b7          	lui	s1,0x5a83
800011fc:	80048493          	addi	s1,s1,-2048 # 5a82800 <offset+0x5a826cc>
80001200:	01f48463          	beq	s1,t6,80001208 <inst_113>
80001204:	6a40406f          	j	800058a8 <bad_trap>

80001208 <inst_113>:
80001208:	00001f37          	lui	t5,0x1
8000120c:	0000beb7          	lui	t4,0xb
80001210:	505e8e93          	addi	t4,t4,1285 # b505 <offset+0xb3d1>
80001214:	03df0fb3          	mul	t6,t5,t4
80001218:	17f42023          	sw	t6,352(s0)
8000121c:	0b5054b7          	lui	s1,0xb505
80001220:	01f48463          	beq	s1,t6,80001228 <inst_114>
80001224:	6840406f          	j	800058a8 <bad_trap>

80001228 <inst_114>:
80001228:	00002f37          	lui	t5,0x2
8000122c:	0000beb7          	lui	t4,0xb
80001230:	505e8e93          	addi	t4,t4,1285 # b505 <offset+0xb3d1>
80001234:	03df0fb3          	mul	t6,t5,t4
80001238:	17f42223          	sw	t6,356(s0)
8000123c:	16a0a4b7          	lui	s1,0x16a0a
80001240:	01f48463          	beq	s1,t6,80001248 <inst_115>
80001244:	6640406f          	j	800058a8 <bad_trap>

80001248 <inst_115>:
80001248:	00004f37          	lui	t5,0x4
8000124c:	0000beb7          	lui	t4,0xb
80001250:	505e8e93          	addi	t4,t4,1285 # b505 <offset+0xb3d1>
80001254:	03df0fb3          	mul	t6,t5,t4
80001258:	17f42423          	sw	t6,360(s0)
8000125c:	2d4144b7          	lui	s1,0x2d414
80001260:	01f48463          	beq	s1,t6,80001268 <inst_116>
80001264:	6440406f          	j	800058a8 <bad_trap>

80001268 <inst_116>:
80001268:	00008f37          	lui	t5,0x8
8000126c:	0000beb7          	lui	t4,0xb
80001270:	505e8e93          	addi	t4,t4,1285 # b505 <offset+0xb3d1>
80001274:	03df0fb3          	mul	t6,t5,t4
80001278:	17f42623          	sw	t6,364(s0)
8000127c:	5a8284b7          	lui	s1,0x5a828
80001280:	01f48463          	beq	s1,t6,80001288 <inst_117>
80001284:	6240406f          	j	800058a8 <bad_trap>

80001288 <inst_117>:
80001288:	00010f37          	lui	t5,0x10
8000128c:	0000beb7          	lui	t4,0xb
80001290:	505e8e93          	addi	t4,t4,1285 # b505 <offset+0xb3d1>
80001294:	03df0fb3          	mul	t6,t5,t4
80001298:	17f42823          	sw	t6,368(s0)
8000129c:	b50504b7          	lui	s1,0xb5050
800012a0:	01f48463          	beq	s1,t6,800012a8 <inst_118>
800012a4:	6040406f          	j	800058a8 <bad_trap>

800012a8 <inst_118>:
800012a8:	00020f37          	lui	t5,0x20
800012ac:	0000beb7          	lui	t4,0xb
800012b0:	505e8e93          	addi	t4,t4,1285 # b505 <offset+0xb3d1>
800012b4:	03df0fb3          	mul	t6,t5,t4
800012b8:	17f42a23          	sw	t6,372(s0)
800012bc:	6a0a04b7          	lui	s1,0x6a0a0
800012c0:	01f48463          	beq	s1,t6,800012c8 <inst_119>
800012c4:	5e40406f          	j	800058a8 <bad_trap>

800012c8 <inst_119>:
800012c8:	00040f37          	lui	t5,0x40
800012cc:	0000beb7          	lui	t4,0xb
800012d0:	505e8e93          	addi	t4,t4,1285 # b505 <offset+0xb3d1>
800012d4:	03df0fb3          	mul	t6,t5,t4
800012d8:	17f42c23          	sw	t6,376(s0)
800012dc:	d41404b7          	lui	s1,0xd4140
800012e0:	01f48463          	beq	s1,t6,800012e8 <inst_120>
800012e4:	5c40406f          	j	800058a8 <bad_trap>

800012e8 <inst_120>:
800012e8:	00080f37          	lui	t5,0x80
800012ec:	0000beb7          	lui	t4,0xb
800012f0:	505e8e93          	addi	t4,t4,1285 # b505 <offset+0xb3d1>
800012f4:	03df0fb3          	mul	t6,t5,t4
800012f8:	17f42e23          	sw	t6,380(s0)
800012fc:	a82804b7          	lui	s1,0xa8280
80001300:	01f48463          	beq	s1,t6,80001308 <inst_121>
80001304:	5a40406f          	j	800058a8 <bad_trap>

80001308 <inst_121>:
80001308:	00100f37          	lui	t5,0x100
8000130c:	0000beb7          	lui	t4,0xb
80001310:	505e8e93          	addi	t4,t4,1285 # b505 <offset+0xb3d1>
80001314:	03df0fb3          	mul	t6,t5,t4
80001318:	19f42023          	sw	t6,384(s0)
8000131c:	505004b7          	lui	s1,0x50500
80001320:	01f48463          	beq	s1,t6,80001328 <inst_122>
80001324:	5840406f          	j	800058a8 <bad_trap>

80001328 <inst_122>:
80001328:	00200f37          	lui	t5,0x200
8000132c:	0000beb7          	lui	t4,0xb
80001330:	505e8e93          	addi	t4,t4,1285 # b505 <offset+0xb3d1>
80001334:	03df0fb3          	mul	t6,t5,t4
80001338:	19f42223          	sw	t6,388(s0)
8000133c:	a0a004b7          	lui	s1,0xa0a00
80001340:	01f48463          	beq	s1,t6,80001348 <inst_123>
80001344:	5640406f          	j	800058a8 <bad_trap>

80001348 <inst_123>:
80001348:	00400f37          	lui	t5,0x400
8000134c:	0000beb7          	lui	t4,0xb
80001350:	505e8e93          	addi	t4,t4,1285 # b505 <offset+0xb3d1>
80001354:	03df0fb3          	mul	t6,t5,t4
80001358:	19f42423          	sw	t6,392(s0)
8000135c:	414004b7          	lui	s1,0x41400
80001360:	01f48463          	beq	s1,t6,80001368 <inst_124>
80001364:	5440406f          	j	800058a8 <bad_trap>

80001368 <inst_124>:
80001368:	00800f37          	lui	t5,0x800
8000136c:	0000beb7          	lui	t4,0xb
80001370:	505e8e93          	addi	t4,t4,1285 # b505 <offset+0xb3d1>
80001374:	03df0fb3          	mul	t6,t5,t4
80001378:	19f42623          	sw	t6,396(s0)
8000137c:	828004b7          	lui	s1,0x82800
80001380:	01f48463          	beq	s1,t6,80001388 <inst_125>
80001384:	5240406f          	j	800058a8 <bad_trap>

80001388 <inst_125>:
80001388:	01000f37          	lui	t5,0x1000
8000138c:	0000beb7          	lui	t4,0xb
80001390:	505e8e93          	addi	t4,t4,1285 # b505 <offset+0xb3d1>
80001394:	03df0fb3          	mul	t6,t5,t4
80001398:	19f42823          	sw	t6,400(s0)
8000139c:	050004b7          	lui	s1,0x5000
800013a0:	01f48463          	beq	s1,t6,800013a8 <inst_126>
800013a4:	5040406f          	j	800058a8 <bad_trap>

800013a8 <inst_126>:
800013a8:	02000f37          	lui	t5,0x2000
800013ac:	0000beb7          	lui	t4,0xb
800013b0:	505e8e93          	addi	t4,t4,1285 # b505 <offset+0xb3d1>
800013b4:	03df0fb3          	mul	t6,t5,t4
800013b8:	19f42a23          	sw	t6,404(s0)
800013bc:	0a0004b7          	lui	s1,0xa000
800013c0:	01f48463          	beq	s1,t6,800013c8 <inst_127>
800013c4:	4e40406f          	j	800058a8 <bad_trap>

800013c8 <inst_127>:
800013c8:	04000f37          	lui	t5,0x4000
800013cc:	0000beb7          	lui	t4,0xb
800013d0:	505e8e93          	addi	t4,t4,1285 # b505 <offset+0xb3d1>
800013d4:	03df0fb3          	mul	t6,t5,t4
800013d8:	19f42c23          	sw	t6,408(s0)
800013dc:	140004b7          	lui	s1,0x14000
800013e0:	01f48463          	beq	s1,t6,800013e8 <inst_128>
800013e4:	4c40406f          	j	800058a8 <bad_trap>

800013e8 <inst_128>:
800013e8:	08000f37          	lui	t5,0x8000
800013ec:	0000beb7          	lui	t4,0xb
800013f0:	505e8e93          	addi	t4,t4,1285 # b505 <offset+0xb3d1>
800013f4:	03df0fb3          	mul	t6,t5,t4
800013f8:	19f42e23          	sw	t6,412(s0)
800013fc:	280004b7          	lui	s1,0x28000
80001400:	01f48463          	beq	s1,t6,80001408 <inst_129>
80001404:	4a40406f          	j	800058a8 <bad_trap>

80001408 <inst_129>:
80001408:	10000f37          	lui	t5,0x10000
8000140c:	0000beb7          	lui	t4,0xb
80001410:	505e8e93          	addi	t4,t4,1285 # b505 <offset+0xb3d1>
80001414:	03df0fb3          	mul	t6,t5,t4
80001418:	1bf42023          	sw	t6,416(s0)
8000141c:	500004b7          	lui	s1,0x50000
80001420:	01f48463          	beq	s1,t6,80001428 <inst_130>
80001424:	4840406f          	j	800058a8 <bad_trap>

80001428 <inst_130>:
80001428:	20000f37          	lui	t5,0x20000
8000142c:	0000beb7          	lui	t4,0xb
80001430:	505e8e93          	addi	t4,t4,1285 # b505 <offset+0xb3d1>
80001434:	03df0fb3          	mul	t6,t5,t4
80001438:	1bf42223          	sw	t6,420(s0)
8000143c:	a00004b7          	lui	s1,0xa0000
80001440:	01f48463          	beq	s1,t6,80001448 <inst_131>
80001444:	4640406f          	j	800058a8 <bad_trap>

80001448 <inst_131>:
80001448:	40000f37          	lui	t5,0x40000
8000144c:	0000beb7          	lui	t4,0xb
80001450:	505e8e93          	addi	t4,t4,1285 # b505 <offset+0xb3d1>
80001454:	03df0fb3          	mul	t6,t5,t4
80001458:	1bf42423          	sw	t6,424(s0)
8000145c:	400004b7          	lui	s1,0x40000
80001460:	01f48463          	beq	s1,t6,80001468 <inst_132>
80001464:	4440406f          	j	800058a8 <bad_trap>

80001468 <inst_132>:
80001468:	00300f13          	li	t5,3
8000146c:	00300e93          	li	t4,3
80001470:	03df0fb3          	mul	t6,t5,t4
80001474:	1bf42623          	sw	t6,428(s0)
80001478:	00900493          	li	s1,9
8000147c:	01f48463          	beq	s1,t6,80001484 <inst_133>
80001480:	4280406f          	j	800058a8 <bad_trap>

80001484 <inst_133>:
80001484:	00300f13          	li	t5,3
80001488:	55555eb7          	lui	t4,0x55555
8000148c:	555e8e93          	addi	t4,t4,1365 # 55555555 <absimm+0x10263026>
80001490:	03df0fb3          	mul	t6,t5,t4
80001494:	1bf42823          	sw	t6,432(s0)
80001498:	fff00493          	li	s1,-1
8000149c:	01f48463          	beq	s1,t6,800014a4 <inst_134>
800014a0:	4080406f          	j	800058a8 <bad_trap>

800014a4 <inst_134>:
800014a4:	00300f13          	li	t5,3
800014a8:	aaaabeb7          	lui	t4,0xaaaab
800014ac:	aaae8e93          	addi	t4,t4,-1366 # aaaaaaaa <imm12+0xaaaaafda>
800014b0:	03df0fb3          	mul	t6,t5,t4
800014b4:	1bf42a23          	sw	t6,436(s0)
800014b8:	ffe00493          	li	s1,-2
800014bc:	01f48463          	beq	s1,t6,800014c4 <inst_135>
800014c0:	3e80406f          	j	800058a8 <bad_trap>

800014c4 <inst_135>:
800014c4:	00300f13          	li	t5,3
800014c8:	00500e93          	li	t4,5
800014cc:	03df0fb3          	mul	t6,t5,t4
800014d0:	1bf42c23          	sw	t6,440(s0)
800014d4:	00f00493          	li	s1,15
800014d8:	01f48463          	beq	s1,t6,800014e0 <inst_136>
800014dc:	3cc0406f          	j	800058a8 <bad_trap>

800014e0 <inst_136>:
800014e0:	00300f13          	li	t5,3
800014e4:	33333eb7          	lui	t4,0x33333
800014e8:	333e8e93          	addi	t4,t4,819 # 33333333 <offset+0x333331ff>
800014ec:	03df0fb3          	mul	t6,t5,t4
800014f0:	1bf42e23          	sw	t6,444(s0)
800014f4:	9999a4b7          	lui	s1,0x9999a
800014f8:	99948493          	addi	s1,s1,-1639 # 99999999 <imm12+0x99999ec9>
800014fc:	01f48463          	beq	s1,t6,80001504 <inst_137>
80001500:	3a80406f          	j	800058a8 <bad_trap>

80001504 <inst_137>:
80001504:	00300f13          	li	t5,3
80001508:	66666eb7          	lui	t4,0x66666
8000150c:	666e8e93          	addi	t4,t4,1638 # 66666666 <absimm+0x21374137>
80001510:	03df0fb3          	mul	t6,t5,t4
80001514:	1df42023          	sw	t6,448(s0)
80001518:	333334b7          	lui	s1,0x33333
8000151c:	33248493          	addi	s1,s1,818 # 33333332 <offset+0x333331fe>
80001520:	01f48463          	beq	s1,t6,80001528 <inst_138>
80001524:	3840406f          	j	800058a8 <bad_trap>

80001528 <inst_138>:
80001528:	00300f13          	li	t5,3
8000152c:	ffff5eb7          	lui	t4,0xffff5
80001530:	afce8e93          	addi	t4,t4,-1284 # ffff4afc <imm12+0xffff502c>
80001534:	03df0fb3          	mul	t6,t5,t4
80001538:	1df42223          	sw	t6,452(s0)
8000153c:	fffde4b7          	lui	s1,0xfffde
80001540:	0f448493          	addi	s1,s1,244 # fffde0f4 <imm12+0xfffde624>
80001544:	01f48463          	beq	s1,t6,8000154c <inst_139>
80001548:	3600406f          	j	800058a8 <bad_trap>

8000154c <inst_139>:
8000154c:	00300f13          	li	t5,3
80001550:	0000beb7          	lui	t4,0xb
80001554:	504e8e93          	addi	t4,t4,1284 # b504 <offset+0xb3d0>
80001558:	03df0fb3          	mul	t6,t5,t4
8000155c:	1df42423          	sw	t6,456(s0)
80001560:	000224b7          	lui	s1,0x22
80001564:	f0c48493          	addi	s1,s1,-244 # 21f0c <offset+0x21dd8>
80001568:	01f48463          	beq	s1,t6,80001570 <inst_140>
8000156c:	33c0406f          	j	800058a8 <bad_trap>

80001570 <inst_140>:
80001570:	00300f13          	li	t5,3
80001574:	00200e93          	li	t4,2
80001578:	03df0fb3          	mul	t6,t5,t4
8000157c:	1df42623          	sw	t6,460(s0)
80001580:	00600493          	li	s1,6
80001584:	01f48463          	beq	s1,t6,8000158c <inst_141>
80001588:	3200406f          	j	800058a8 <bad_trap>

8000158c <inst_141>:
8000158c:	00300f13          	li	t5,3
80001590:	55555eb7          	lui	t4,0x55555
80001594:	554e8e93          	addi	t4,t4,1364 # 55555554 <absimm+0x10263025>
80001598:	03df0fb3          	mul	t6,t5,t4
8000159c:	1df42823          	sw	t6,464(s0)
800015a0:	ffc00493          	li	s1,-4
800015a4:	01f48463          	beq	s1,t6,800015ac <inst_142>
800015a8:	3000406f          	j	800058a8 <bad_trap>

800015ac <inst_142>:
800015ac:	00300f13          	li	t5,3
800015b0:	33333eb7          	lui	t4,0x33333
800015b4:	332e8e93          	addi	t4,t4,818 # 33333332 <offset+0x333331fe>
800015b8:	03df0fb3          	mul	t6,t5,t4
800015bc:	1df42a23          	sw	t6,468(s0)
800015c0:	9999a4b7          	lui	s1,0x9999a
800015c4:	99648493          	addi	s1,s1,-1642 # 99999996 <imm12+0x99999ec6>
800015c8:	01f48463          	beq	s1,t6,800015d0 <inst_143>
800015cc:	2dc0406f          	j	800058a8 <bad_trap>

800015d0 <inst_143>:
800015d0:	00300f13          	li	t5,3
800015d4:	66666eb7          	lui	t4,0x66666
800015d8:	665e8e93          	addi	t4,t4,1637 # 66666665 <absimm+0x21374136>
800015dc:	03df0fb3          	mul	t6,t5,t4
800015e0:	1df42c23          	sw	t6,472(s0)
800015e4:	333334b7          	lui	s1,0x33333
800015e8:	32f48493          	addi	s1,s1,815 # 3333332f <offset+0x333331fb>
800015ec:	01f48463          	beq	s1,t6,800015f4 <inst_144>
800015f0:	2b80406f          	j	800058a8 <bad_trap>

800015f4 <inst_144>:
800015f4:	55555f37          	lui	t5,0x55555
800015f8:	555f0f13          	addi	t5,t5,1365 # 55555555 <absimm+0x10263026>
800015fc:	0000beb7          	lui	t4,0xb
80001600:	505e8e93          	addi	t4,t4,1285 # b505 <offset+0xb3d1>
80001604:	03df0fb3          	mul	t6,t5,t4
80001608:	1df42e23          	sw	t6,476(s0)
8000160c:	ffffc4b7          	lui	s1,0xffffc
80001610:	3a948493          	addi	s1,s1,937 # ffffc3a9 <imm12+0xffffc8d9>
80001614:	01f48463          	beq	s1,t6,8000161c <inst_145>
80001618:	2900406f          	j	800058a8 <bad_trap>

8000161c <inst_145>:
8000161c:	00300f13          	li	t5,3
80001620:	00000e93          	li	t4,0
80001624:	03df0fb3          	mul	t6,t5,t4
80001628:	1ff42023          	sw	t6,480(s0)
8000162c:	00000493          	li	s1,0
80001630:	01f48463          	beq	s1,t6,80001638 <inst_146>
80001634:	2740406f          	j	800058a8 <bad_trap>

80001638 <inst_146>:
80001638:	00300f13          	li	t5,3
8000163c:	0000beb7          	lui	t4,0xb
80001640:	503e8e93          	addi	t4,t4,1283 # b503 <offset+0xb3cf>
80001644:	03df0fb3          	mul	t6,t5,t4
80001648:	1ff42223          	sw	t6,484(s0)
8000164c:	000224b7          	lui	s1,0x22
80001650:	f0948493          	addi	s1,s1,-247 # 21f09 <offset+0x21dd5>
80001654:	01f48463          	beq	s1,t6,8000165c <inst_147>
80001658:	2500406f          	j	800058a8 <bad_trap>

8000165c <inst_147>:
8000165c:	aaaabf37          	lui	t5,0xaaaab
80001660:	aaaf0f13          	addi	t5,t5,-1366 # aaaaaaaa <imm12+0xaaaaafda>
80001664:	0000beb7          	lui	t4,0xb
80001668:	505e8e93          	addi	t4,t4,1285 # b505 <offset+0xb3d1>
8000166c:	03df0fb3          	mul	t6,t5,t4
80001670:	1ff42423          	sw	t6,488(s0)
80001674:	ffff84b7          	lui	s1,0xffff8
80001678:	75248493          	addi	s1,s1,1874 # ffff8752 <imm12+0xffff8c82>
8000167c:	01f48463          	beq	s1,t6,80001684 <inst_148>
80001680:	2280406f          	j	800058a8 <bad_trap>

80001684 <inst_148>:
80001684:	00300f13          	li	t5,3
80001688:	00400e93          	li	t4,4
8000168c:	03df0fb3          	mul	t6,t5,t4
80001690:	1ff42623          	sw	t6,492(s0)
80001694:	00c00493          	li	s1,12
80001698:	01f48463          	beq	s1,t6,800016a0 <inst_149>
8000169c:	20c0406f          	j	800058a8 <bad_trap>

800016a0 <inst_149>:
800016a0:	00300f13          	li	t5,3
800016a4:	55555eb7          	lui	t4,0x55555
800016a8:	556e8e93          	addi	t4,t4,1366 # 55555556 <absimm+0x10263027>
800016ac:	03df0fb3          	mul	t6,t5,t4
800016b0:	1ff42823          	sw	t6,496(s0)
800016b4:	00200493          	li	s1,2
800016b8:	01f48463          	beq	s1,t6,800016c0 <inst_150>
800016bc:	1ec0406f          	j	800058a8 <bad_trap>

800016c0 <inst_150>:
800016c0:	00300f13          	li	t5,3
800016c4:	aaaabeb7          	lui	t4,0xaaaab
800016c8:	aabe8e93          	addi	t4,t4,-1365 # aaaaaaab <imm12+0xaaaaafdb>
800016cc:	03df0fb3          	mul	t6,t5,t4
800016d0:	1ff42a23          	sw	t6,500(s0)
800016d4:	00100493          	li	s1,1
800016d8:	01f48463          	beq	s1,t6,800016e0 <inst_151>
800016dc:	1cc0406f          	j	800058a8 <bad_trap>

800016e0 <inst_151>:
800016e0:	00300f13          	li	t5,3
800016e4:	00600e93          	li	t4,6
800016e8:	03df0fb3          	mul	t6,t5,t4
800016ec:	1ff42c23          	sw	t6,504(s0)
800016f0:	01200493          	li	s1,18
800016f4:	01f48463          	beq	s1,t6,800016fc <inst_152>
800016f8:	1b00406f          	j	800058a8 <bad_trap>

800016fc <inst_152>:
800016fc:	00300f13          	li	t5,3
80001700:	33333eb7          	lui	t4,0x33333
80001704:	334e8e93          	addi	t4,t4,820 # 33333334 <offset+0x33333200>
80001708:	03df0fb3          	mul	t6,t5,t4
8000170c:	1ff42e23          	sw	t6,508(s0)
80001710:	9999a4b7          	lui	s1,0x9999a
80001714:	99c48493          	addi	s1,s1,-1636 # 9999999c <imm12+0x99999ecc>
80001718:	01f48463          	beq	s1,t6,80001720 <inst_153>
8000171c:	18c0406f          	j	800058a8 <bad_trap>

80001720 <inst_153>:
80001720:	00300f13          	li	t5,3
80001724:	66666eb7          	lui	t4,0x66666
80001728:	667e8e93          	addi	t4,t4,1639 # 66666667 <absimm+0x21374138>
8000172c:	03df0fb3          	mul	t6,t5,t4
80001730:	21f42023          	sw	t6,512(s0)
80001734:	333334b7          	lui	s1,0x33333
80001738:	33548493          	addi	s1,s1,821 # 33333335 <offset+0x33333201>
8000173c:	01f48463          	beq	s1,t6,80001744 <inst_154>
80001740:	1680406f          	j	800058a8 <bad_trap>

80001744 <inst_154>:
80001744:	00000f13          	li	t5,0
80001748:	0000beb7          	lui	t4,0xb
8000174c:	505e8e93          	addi	t4,t4,1285 # b505 <offset+0xb3d1>
80001750:	03df0fb3          	mul	t6,t5,t4
80001754:	21f42223          	sw	t6,516(s0)
80001758:	00000493          	li	s1,0
8000175c:	01f48463          	beq	s1,t6,80001764 <inst_155>
80001760:	1480406f          	j	800058a8 <bad_trap>

80001764 <inst_155>:
80001764:	00300f13          	li	t5,3
80001768:	ffff5eb7          	lui	t4,0xffff5
8000176c:	afde8e93          	addi	t4,t4,-1283 # ffff4afd <imm12+0xffff502d>
80001770:	03df0fb3          	mul	t6,t5,t4
80001774:	21f42423          	sw	t6,520(s0)
80001778:	fffde4b7          	lui	s1,0xfffde
8000177c:	0f748493          	addi	s1,s1,247 # fffde0f7 <imm12+0xfffde627>
80001780:	01f48463          	beq	s1,t6,80001788 <inst_156>
80001784:	1240406f          	j	800058a8 <bad_trap>

80001788 <inst_156>:
80001788:	00300f13          	li	t5,3
8000178c:	0000beb7          	lui	t4,0xb
80001790:	505e8e93          	addi	t4,t4,1285 # b505 <offset+0xb3d1>
80001794:	03df0fb3          	mul	t6,t5,t4
80001798:	21f42623          	sw	t6,524(s0)
8000179c:	000224b7          	lui	s1,0x22
800017a0:	f0f48493          	addi	s1,s1,-241 # 21f0f <offset+0x21ddb>
800017a4:	01f48463          	beq	s1,t6,800017ac <inst_157>
800017a8:	1000406f          	j	800058a8 <bad_trap>

800017ac <inst_157>:
800017ac:	55555f37          	lui	t5,0x55555
800017b0:	555f0f13          	addi	t5,t5,1365 # 55555555 <absimm+0x10263026>
800017b4:	00300e93          	li	t4,3
800017b8:	03df0fb3          	mul	t6,t5,t4
800017bc:	21f42823          	sw	t6,528(s0)
800017c0:	fff00493          	li	s1,-1
800017c4:	01f48463          	beq	s1,t6,800017cc <inst_158>
800017c8:	0e00406f          	j	800058a8 <bad_trap>

800017cc <inst_158>:
800017cc:	55555f37          	lui	t5,0x55555
800017d0:	555f0f13          	addi	t5,t5,1365 # 55555555 <absimm+0x10263026>
800017d4:	55555eb7          	lui	t4,0x55555
800017d8:	555e8e93          	addi	t4,t4,1365 # 55555555 <absimm+0x10263026>
800017dc:	03df0fb3          	mul	t6,t5,t4
800017e0:	21f42a23          	sw	t6,532(s0)
800017e4:	38e394b7          	lui	s1,0x38e39
800017e8:	e3948493          	addi	s1,s1,-455 # 38e38e39 <offset+0x38e38d05>
800017ec:	01f48463          	beq	s1,t6,800017f4 <inst_159>
800017f0:	0b80406f          	j	800058a8 <bad_trap>

800017f4 <inst_159>:
800017f4:	55555f37          	lui	t5,0x55555
800017f8:	555f0f13          	addi	t5,t5,1365 # 55555555 <absimm+0x10263026>
800017fc:	aaaabeb7          	lui	t4,0xaaaab
80001800:	aaae8e93          	addi	t4,t4,-1366 # aaaaaaaa <imm12+0xaaaaafda>
80001804:	03df0fb3          	mul	t6,t5,t4
80001808:	21f42c23          	sw	t6,536(s0)
8000180c:	71c724b7          	lui	s1,0x71c72
80001810:	c7248493          	addi	s1,s1,-910 # 71c71c72 <absimm+0x2c97f743>
80001814:	01f48463          	beq	s1,t6,8000181c <inst_160>
80001818:	0900406f          	j	800058a8 <bad_trap>

8000181c <inst_160>:
8000181c:	55555f37          	lui	t5,0x55555
80001820:	555f0f13          	addi	t5,t5,1365 # 55555555 <absimm+0x10263026>
80001824:	00500e93          	li	t4,5
80001828:	03df0fb3          	mul	t6,t5,t4
8000182c:	21f42e23          	sw	t6,540(s0)
80001830:	aaaab4b7          	lui	s1,0xaaaab
80001834:	aa948493          	addi	s1,s1,-1367 # aaaaaaa9 <imm12+0xaaaaafd9>
80001838:	01f48463          	beq	s1,t6,80001840 <inst_161>
8000183c:	06c0406f          	j	800058a8 <bad_trap>

80001840 <inst_161>:
80001840:	55555f37          	lui	t5,0x55555
80001844:	555f0f13          	addi	t5,t5,1365 # 55555555 <absimm+0x10263026>
80001848:	33333eb7          	lui	t4,0x33333
8000184c:	333e8e93          	addi	t4,t4,819 # 33333333 <offset+0x333331ff>
80001850:	03df0fb3          	mul	t6,t5,t4
80001854:	23f42023          	sw	t6,544(s0)
80001858:	eeeef4b7          	lui	s1,0xeeeef
8000185c:	eef48493          	addi	s1,s1,-273 # eeeeeeef <imm12+0xeeeef41f>
80001860:	01f48463          	beq	s1,t6,80001868 <inst_162>
80001864:	0440406f          	j	800058a8 <bad_trap>

80001868 <inst_162>:
80001868:	55555f37          	lui	t5,0x55555
8000186c:	555f0f13          	addi	t5,t5,1365 # 55555555 <absimm+0x10263026>
80001870:	66666eb7          	lui	t4,0x66666
80001874:	666e8e93          	addi	t4,t4,1638 # 66666666 <absimm+0x21374137>
80001878:	03df0fb3          	mul	t6,t5,t4
8000187c:	23f42223          	sw	t6,548(s0)
80001880:	dddde4b7          	lui	s1,0xdddde
80001884:	dde48493          	addi	s1,s1,-546 # ddddddde <imm12+0xdddde30e>
80001888:	01f48463          	beq	s1,t6,80001890 <inst_163>
8000188c:	01c0406f          	j	800058a8 <bad_trap>

80001890 <inst_163>:
80001890:	55555f37          	lui	t5,0x55555
80001894:	555f0f13          	addi	t5,t5,1365 # 55555555 <absimm+0x10263026>
80001898:	ffff5eb7          	lui	t4,0xffff5
8000189c:	afce8e93          	addi	t4,t4,-1284 # ffff4afc <imm12+0xffff502c>
800018a0:	03df0fb3          	mul	t6,t5,t4
800018a4:	23f42423          	sw	t6,552(s0)
800018a8:	555594b7          	lui	s1,0x55559
800018ac:	1ac48493          	addi	s1,s1,428 # 555591ac <absimm+0x10266c7d>
800018b0:	01f48463          	beq	s1,t6,800018b8 <inst_164>
800018b4:	7f50306f          	j	800058a8 <bad_trap>

800018b8 <inst_164>:
800018b8:	55555f37          	lui	t5,0x55555
800018bc:	555f0f13          	addi	t5,t5,1365 # 55555555 <absimm+0x10263026>
800018c0:	0000beb7          	lui	t4,0xb
800018c4:	504e8e93          	addi	t4,t4,1284 # b504 <offset+0xb3d0>
800018c8:	03df0fb3          	mul	t6,t5,t4
800018cc:	23f42623          	sw	t6,556(s0)
800018d0:	aaaa74b7          	lui	s1,0xaaaa7
800018d4:	e5448493          	addi	s1,s1,-428 # aaaa6e54 <imm12+0xaaaa7384>
800018d8:	01f48463          	beq	s1,t6,800018e0 <inst_165>
800018dc:	7cd0306f          	j	800058a8 <bad_trap>

800018e0 <inst_165>:
800018e0:	55555f37          	lui	t5,0x55555
800018e4:	555f0f13          	addi	t5,t5,1365 # 55555555 <absimm+0x10263026>
800018e8:	00200e93          	li	t4,2
800018ec:	03df0fb3          	mul	t6,t5,t4
800018f0:	23f42823          	sw	t6,560(s0)
800018f4:	aaaab4b7          	lui	s1,0xaaaab
800018f8:	aaa48493          	addi	s1,s1,-1366 # aaaaaaaa <imm12+0xaaaaafda>
800018fc:	01f48463          	beq	s1,t6,80001904 <inst_166>
80001900:	7a90306f          	j	800058a8 <bad_trap>

80001904 <inst_166>:
80001904:	55555f37          	lui	t5,0x55555
80001908:	555f0f13          	addi	t5,t5,1365 # 55555555 <absimm+0x10263026>
8000190c:	55555eb7          	lui	t4,0x55555
80001910:	554e8e93          	addi	t4,t4,1364 # 55555554 <absimm+0x10263025>
80001914:	03df0fb3          	mul	t6,t5,t4
80001918:	23f42a23          	sw	t6,564(s0)
8000191c:	e38e44b7          	lui	s1,0xe38e4
80001920:	8e448493          	addi	s1,s1,-1820 # e38e38e4 <imm12+0xe38e3e14>
80001924:	01f48463          	beq	s1,t6,8000192c <inst_167>
80001928:	7810306f          	j	800058a8 <bad_trap>

8000192c <inst_167>:
8000192c:	55555f37          	lui	t5,0x55555
80001930:	555f0f13          	addi	t5,t5,1365 # 55555555 <absimm+0x10263026>
80001934:	33333eb7          	lui	t4,0x33333
80001938:	332e8e93          	addi	t4,t4,818 # 33333332 <offset+0x333331fe>
8000193c:	03df0fb3          	mul	t6,t5,t4
80001940:	23f42c23          	sw	t6,568(s0)
80001944:	9999a4b7          	lui	s1,0x9999a
80001948:	99a48493          	addi	s1,s1,-1638 # 9999999a <imm12+0x99999eca>
8000194c:	01f48463          	beq	s1,t6,80001954 <inst_168>
80001950:	7590306f          	j	800058a8 <bad_trap>

80001954 <inst_168>:
80001954:	55555f37          	lui	t5,0x55555
80001958:	555f0f13          	addi	t5,t5,1365 # 55555555 <absimm+0x10263026>
8000195c:	66666eb7          	lui	t4,0x66666
80001960:	665e8e93          	addi	t4,t4,1637 # 66666665 <absimm+0x21374136>
80001964:	03df0fb3          	mul	t6,t5,t4
80001968:	23f42e23          	sw	t6,572(s0)
8000196c:	888894b7          	lui	s1,0x88889
80001970:	88948493          	addi	s1,s1,-1911 # 88888889 <imm12+0x88888db9>
80001974:	01f48463          	beq	s1,t6,8000197c <inst_169>
80001978:	7310306f          	j	800058a8 <bad_trap>

8000197c <inst_169>:
8000197c:	55555f37          	lui	t5,0x55555
80001980:	555f0f13          	addi	t5,t5,1365 # 55555555 <absimm+0x10263026>
80001984:	00000e93          	li	t4,0
80001988:	03df0fb3          	mul	t6,t5,t4
8000198c:	25f42023          	sw	t6,576(s0)
80001990:	00000493          	li	s1,0
80001994:	01f48463          	beq	s1,t6,8000199c <inst_170>
80001998:	7110306f          	j	800058a8 <bad_trap>

8000199c <inst_170>:
8000199c:	55555f37          	lui	t5,0x55555
800019a0:	555f0f13          	addi	t5,t5,1365 # 55555555 <absimm+0x10263026>
800019a4:	0000beb7          	lui	t4,0xb
800019a8:	503e8e93          	addi	t4,t4,1283 # b503 <offset+0xb3cf>
800019ac:	03df0fb3          	mul	t6,t5,t4
800019b0:	25f42223          	sw	t6,580(s0)
800019b4:	555524b7          	lui	s1,0x55552
800019b8:	8ff48493          	addi	s1,s1,-1793 # 555518ff <absimm+0x1025f3d0>
800019bc:	01f48463          	beq	s1,t6,800019c4 <inst_171>
800019c0:	6e90306f          	j	800058a8 <bad_trap>

800019c4 <inst_171>:
800019c4:	55555f37          	lui	t5,0x55555
800019c8:	555f0f13          	addi	t5,t5,1365 # 55555555 <absimm+0x10263026>
800019cc:	00400e93          	li	t4,4
800019d0:	03df0fb3          	mul	t6,t5,t4
800019d4:	25f42423          	sw	t6,584(s0)
800019d8:	555554b7          	lui	s1,0x55555
800019dc:	55448493          	addi	s1,s1,1364 # 55555554 <absimm+0x10263025>
800019e0:	01f48463          	beq	s1,t6,800019e8 <inst_172>
800019e4:	6c50306f          	j	800058a8 <bad_trap>

800019e8 <inst_172>:
800019e8:	55555f37          	lui	t5,0x55555
800019ec:	555f0f13          	addi	t5,t5,1365 # 55555555 <absimm+0x10263026>
800019f0:	55555eb7          	lui	t4,0x55555
800019f4:	556e8e93          	addi	t4,t4,1366 # 55555556 <absimm+0x10263027>
800019f8:	03df0fb3          	mul	t6,t5,t4
800019fc:	25f42623          	sw	t6,588(s0)
80001a00:	8e38e4b7          	lui	s1,0x8e38e
80001a04:	38e48493          	addi	s1,s1,910 # 8e38e38e <imm12+0x8e38e8be>
80001a08:	01f48463          	beq	s1,t6,80001a10 <inst_173>
80001a0c:	69d0306f          	j	800058a8 <bad_trap>

80001a10 <inst_173>:
80001a10:	55555f37          	lui	t5,0x55555
80001a14:	555f0f13          	addi	t5,t5,1365 # 55555555 <absimm+0x10263026>
80001a18:	aaaabeb7          	lui	t4,0xaaaab
80001a1c:	aabe8e93          	addi	t4,t4,-1365 # aaaaaaab <imm12+0xaaaaafdb>
80001a20:	03df0fb3          	mul	t6,t5,t4
80001a24:	25f42823          	sw	t6,592(s0)
80001a28:	c71c74b7          	lui	s1,0xc71c7
80001a2c:	1c748493          	addi	s1,s1,455 # c71c71c7 <imm12+0xc71c76f7>
80001a30:	01f48463          	beq	s1,t6,80001a38 <inst_174>
80001a34:	6750306f          	j	800058a8 <bad_trap>

80001a38 <inst_174>:
80001a38:	55555f37          	lui	t5,0x55555
80001a3c:	555f0f13          	addi	t5,t5,1365 # 55555555 <absimm+0x10263026>
80001a40:	00600e93          	li	t4,6
80001a44:	03df0fb3          	mul	t6,t5,t4
80001a48:	25f42a23          	sw	t6,596(s0)
80001a4c:	ffe00493          	li	s1,-2
80001a50:	01f48463          	beq	s1,t6,80001a58 <inst_175>
80001a54:	6550306f          	j	800058a8 <bad_trap>

80001a58 <inst_175>:
80001a58:	55555f37          	lui	t5,0x55555
80001a5c:	555f0f13          	addi	t5,t5,1365 # 55555555 <absimm+0x10263026>
80001a60:	33333eb7          	lui	t4,0x33333
80001a64:	334e8e93          	addi	t4,t4,820 # 33333334 <offset+0x33333200>
80001a68:	03df0fb3          	mul	t6,t5,t4
80001a6c:	25f42c23          	sw	t6,600(s0)
80001a70:	444444b7          	lui	s1,0x44444
80001a74:	44448493          	addi	s1,s1,1092 # 44444444 <offset+0x44444310>
80001a78:	01f48463          	beq	s1,t6,80001a80 <inst_176>
80001a7c:	62d0306f          	j	800058a8 <bad_trap>

80001a80 <inst_176>:
80001a80:	55555f37          	lui	t5,0x55555
80001a84:	555f0f13          	addi	t5,t5,1365 # 55555555 <absimm+0x10263026>
80001a88:	66666eb7          	lui	t4,0x66666
80001a8c:	667e8e93          	addi	t4,t4,1639 # 66666667 <absimm+0x21374138>
80001a90:	03df0fb3          	mul	t6,t5,t4
80001a94:	25f42e23          	sw	t6,604(s0)
80001a98:	333334b7          	lui	s1,0x33333
80001a9c:	33348493          	addi	s1,s1,819 # 33333333 <offset+0x333331ff>
80001aa0:	01f48463          	beq	s1,t6,80001aa8 <inst_177>
80001aa4:	6050306f          	j	800058a8 <bad_trap>

80001aa8 <inst_177>:
80001aa8:	55555f37          	lui	t5,0x55555
80001aac:	555f0f13          	addi	t5,t5,1365 # 55555555 <absimm+0x10263026>
80001ab0:	ffff5eb7          	lui	t4,0xffff5
80001ab4:	afde8e93          	addi	t4,t4,-1283 # ffff4afd <imm12+0xffff502d>
80001ab8:	03df0fb3          	mul	t6,t5,t4
80001abc:	27f42023          	sw	t6,608(s0)
80001ac0:	aaaae4b7          	lui	s1,0xaaaae
80001ac4:	70148493          	addi	s1,s1,1793 # aaaae701 <imm12+0xaaaaec31>
80001ac8:	01f48463          	beq	s1,t6,80001ad0 <inst_178>
80001acc:	5dd0306f          	j	800058a8 <bad_trap>

80001ad0 <inst_178>:
80001ad0:	aaaabf37          	lui	t5,0xaaaab
80001ad4:	aaaf0f13          	addi	t5,t5,-1366 # aaaaaaaa <imm12+0xaaaaafda>
80001ad8:	00300e93          	li	t4,3
80001adc:	03df0fb3          	mul	t6,t5,t4
80001ae0:	27f42223          	sw	t6,612(s0)
80001ae4:	ffe00493          	li	s1,-2
80001ae8:	01f48463          	beq	s1,t6,80001af0 <inst_179>
80001aec:	5bd0306f          	j	800058a8 <bad_trap>

80001af0 <inst_179>:
80001af0:	aaaabf37          	lui	t5,0xaaaab
80001af4:	aaaf0f13          	addi	t5,t5,-1366 # aaaaaaaa <imm12+0xaaaaafda>
80001af8:	55555eb7          	lui	t4,0x55555
80001afc:	555e8e93          	addi	t4,t4,1365 # 55555555 <absimm+0x10263026>
80001b00:	03df0fb3          	mul	t6,t5,t4
80001b04:	27f42423          	sw	t6,616(s0)
80001b08:	71c724b7          	lui	s1,0x71c72
80001b0c:	c7248493          	addi	s1,s1,-910 # 71c71c72 <absimm+0x2c97f743>
80001b10:	01f48463          	beq	s1,t6,80001b18 <inst_180>
80001b14:	5950306f          	j	800058a8 <bad_trap>

80001b18 <inst_180>:
80001b18:	aaaabf37          	lui	t5,0xaaaab
80001b1c:	aaaf0f13          	addi	t5,t5,-1366 # aaaaaaaa <imm12+0xaaaaafda>
80001b20:	aaaabeb7          	lui	t4,0xaaaab
80001b24:	aaae8e93          	addi	t4,t4,-1366 # aaaaaaaa <imm12+0xaaaaafda>
80001b28:	03df0fb3          	mul	t6,t5,t4
80001b2c:	27f42623          	sw	t6,620(s0)
80001b30:	e38e44b7          	lui	s1,0xe38e4
80001b34:	8e448493          	addi	s1,s1,-1820 # e38e38e4 <imm12+0xe38e3e14>
80001b38:	01f48463          	beq	s1,t6,80001b40 <inst_181>
80001b3c:	56d0306f          	j	800058a8 <bad_trap>

80001b40 <inst_181>:
80001b40:	aaaabf37          	lui	t5,0xaaaab
80001b44:	aaaf0f13          	addi	t5,t5,-1366 # aaaaaaaa <imm12+0xaaaaafda>
80001b48:	00500e93          	li	t4,5
80001b4c:	03df0fb3          	mul	t6,t5,t4
80001b50:	27f42823          	sw	t6,624(s0)
80001b54:	555554b7          	lui	s1,0x55555
80001b58:	55248493          	addi	s1,s1,1362 # 55555552 <absimm+0x10263023>
80001b5c:	01f48463          	beq	s1,t6,80001b64 <inst_182>
80001b60:	5490306f          	j	800058a8 <bad_trap>

80001b64 <inst_182>:
80001b64:	aaaabf37          	lui	t5,0xaaaab
80001b68:	aaaf0f13          	addi	t5,t5,-1366 # aaaaaaaa <imm12+0xaaaaafda>
80001b6c:	33333eb7          	lui	t4,0x33333
80001b70:	333e8e93          	addi	t4,t4,819 # 33333333 <offset+0x333331ff>
80001b74:	03df0fb3          	mul	t6,t5,t4
80001b78:	27f42a23          	sw	t6,628(s0)
80001b7c:	dddde4b7          	lui	s1,0xdddde
80001b80:	dde48493          	addi	s1,s1,-546 # ddddddde <imm12+0xdddde30e>
80001b84:	01f48463          	beq	s1,t6,80001b8c <inst_183>
80001b88:	5210306f          	j	800058a8 <bad_trap>

80001b8c <inst_183>:
80001b8c:	aaaabf37          	lui	t5,0xaaaab
80001b90:	aaaf0f13          	addi	t5,t5,-1366 # aaaaaaaa <imm12+0xaaaaafda>
80001b94:	66666eb7          	lui	t4,0x66666
80001b98:	666e8e93          	addi	t4,t4,1638 # 66666666 <absimm+0x21374137>
80001b9c:	03df0fb3          	mul	t6,t5,t4
80001ba0:	27f42c23          	sw	t6,632(s0)
80001ba4:	bbbbc4b7          	lui	s1,0xbbbbc
80001ba8:	bbc48493          	addi	s1,s1,-1092 # bbbbbbbc <imm12+0xbbbbc0ec>
80001bac:	01f48463          	beq	s1,t6,80001bb4 <inst_184>
80001bb0:	4f90306f          	j	800058a8 <bad_trap>

80001bb4 <inst_184>:
80001bb4:	aaaabf37          	lui	t5,0xaaaab
80001bb8:	aaaf0f13          	addi	t5,t5,-1366 # aaaaaaaa <imm12+0xaaaaafda>
80001bbc:	ffff5eb7          	lui	t4,0xffff5
80001bc0:	afce8e93          	addi	t4,t4,-1284 # ffff4afc <imm12+0xffff502c>
80001bc4:	03df0fb3          	mul	t6,t5,t4
80001bc8:	27f42e23          	sw	t6,636(s0)
80001bcc:	aaab24b7          	lui	s1,0xaaab2
80001bd0:	35848493          	addi	s1,s1,856 # aaab2358 <imm12+0xaaab2888>
80001bd4:	01f48463          	beq	s1,t6,80001bdc <inst_185>
80001bd8:	4d10306f          	j	800058a8 <bad_trap>

80001bdc <inst_185>:
80001bdc:	aaaabf37          	lui	t5,0xaaaab
80001be0:	aaaf0f13          	addi	t5,t5,-1366 # aaaaaaaa <imm12+0xaaaaafda>
80001be4:	0000beb7          	lui	t4,0xb
80001be8:	504e8e93          	addi	t4,t4,1284 # b504 <offset+0xb3d0>
80001bec:	03df0fb3          	mul	t6,t5,t4
80001bf0:	29f42023          	sw	t6,640(s0)
80001bf4:	5554e4b7          	lui	s1,0x5554e
80001bf8:	ca848493          	addi	s1,s1,-856 # 5554dca8 <absimm+0x1025b779>
80001bfc:	01f48463          	beq	s1,t6,80001c04 <inst_186>
80001c00:	4a90306f          	j	800058a8 <bad_trap>

80001c04 <inst_186>:
80001c04:	aaaabf37          	lui	t5,0xaaaab
80001c08:	aaaf0f13          	addi	t5,t5,-1366 # aaaaaaaa <imm12+0xaaaaafda>
80001c0c:	00200e93          	li	t4,2
80001c10:	03df0fb3          	mul	t6,t5,t4
80001c14:	29f42223          	sw	t6,644(s0)
80001c18:	555554b7          	lui	s1,0x55555
80001c1c:	55448493          	addi	s1,s1,1364 # 55555554 <absimm+0x10263025>
80001c20:	01f48463          	beq	s1,t6,80001c28 <inst_187>
80001c24:	4850306f          	j	800058a8 <bad_trap>

80001c28 <inst_187>:
80001c28:	aaaabf37          	lui	t5,0xaaaab
80001c2c:	aaaf0f13          	addi	t5,t5,-1366 # aaaaaaaa <imm12+0xaaaaafda>
80001c30:	55555eb7          	lui	t4,0x55555
80001c34:	554e8e93          	addi	t4,t4,1364 # 55555554 <absimm+0x10263025>
80001c38:	03df0fb3          	mul	t6,t5,t4
80001c3c:	29f42423          	sw	t6,648(s0)
80001c40:	c71c74b7          	lui	s1,0xc71c7
80001c44:	1c848493          	addi	s1,s1,456 # c71c71c8 <imm12+0xc71c76f8>
80001c48:	01f48463          	beq	s1,t6,80001c50 <inst_188>
80001c4c:	45d0306f          	j	800058a8 <bad_trap>

80001c50 <inst_188>:
80001c50:	aaaabf37          	lui	t5,0xaaaab
80001c54:	aaaf0f13          	addi	t5,t5,-1366 # aaaaaaaa <imm12+0xaaaaafda>
80001c58:	33333eb7          	lui	t4,0x33333
80001c5c:	332e8e93          	addi	t4,t4,818 # 33333332 <offset+0x333331fe>
80001c60:	03df0fb3          	mul	t6,t5,t4
80001c64:	29f42623          	sw	t6,652(s0)
80001c68:	333334b7          	lui	s1,0x33333
80001c6c:	33448493          	addi	s1,s1,820 # 33333334 <offset+0x33333200>
80001c70:	01f48463          	beq	s1,t6,80001c78 <inst_189>
80001c74:	4350306f          	j	800058a8 <bad_trap>

80001c78 <inst_189>:
80001c78:	aaaabf37          	lui	t5,0xaaaab
80001c7c:	aaaf0f13          	addi	t5,t5,-1366 # aaaaaaaa <imm12+0xaaaaafda>
80001c80:	66666eb7          	lui	t4,0x66666
80001c84:	665e8e93          	addi	t4,t4,1637 # 66666665 <absimm+0x21374136>
80001c88:	03df0fb3          	mul	t6,t5,t4
80001c8c:	29f42823          	sw	t6,656(s0)
80001c90:	111114b7          	lui	s1,0x11111
80001c94:	11248493          	addi	s1,s1,274 # 11111112 <offset+0x11110fde>
80001c98:	01f48463          	beq	s1,t6,80001ca0 <inst_190>
80001c9c:	40d0306f          	j	800058a8 <bad_trap>

80001ca0 <inst_190>:
80001ca0:	aaaabf37          	lui	t5,0xaaaab
80001ca4:	aaaf0f13          	addi	t5,t5,-1366 # aaaaaaaa <imm12+0xaaaaafda>
80001ca8:	00000e93          	li	t4,0
80001cac:	03df0fb3          	mul	t6,t5,t4
80001cb0:	29f42a23          	sw	t6,660(s0)
80001cb4:	00000493          	li	s1,0
80001cb8:	01f48463          	beq	s1,t6,80001cc0 <inst_191>
80001cbc:	3ed0306f          	j	800058a8 <bad_trap>

80001cc0 <inst_191>:
80001cc0:	aaaabf37          	lui	t5,0xaaaab
80001cc4:	aaaf0f13          	addi	t5,t5,-1366 # aaaaaaaa <imm12+0xaaaaafda>
80001cc8:	0000beb7          	lui	t4,0xb
80001ccc:	503e8e93          	addi	t4,t4,1283 # b503 <offset+0xb3cf>
80001cd0:	03df0fb3          	mul	t6,t5,t4
80001cd4:	29f42c23          	sw	t6,664(s0)
80001cd8:	aaaa34b7          	lui	s1,0xaaaa3
80001cdc:	1fe48493          	addi	s1,s1,510 # aaaa31fe <imm12+0xaaaa372e>
80001ce0:	01f48463          	beq	s1,t6,80001ce8 <inst_192>
80001ce4:	3c50306f          	j	800058a8 <bad_trap>

80001ce8 <inst_192>:
80001ce8:	aaaabf37          	lui	t5,0xaaaab
80001cec:	aaaf0f13          	addi	t5,t5,-1366 # aaaaaaaa <imm12+0xaaaaafda>
80001cf0:	00400e93          	li	t4,4
80001cf4:	03df0fb3          	mul	t6,t5,t4
80001cf8:	29f42e23          	sw	t6,668(s0)
80001cfc:	aaaab4b7          	lui	s1,0xaaaab
80001d00:	aa848493          	addi	s1,s1,-1368 # aaaaaaa8 <imm12+0xaaaaafd8>
80001d04:	01f48463          	beq	s1,t6,80001d0c <inst_193>
80001d08:	3a10306f          	j	800058a8 <bad_trap>

80001d0c <inst_193>:
80001d0c:	aaaabf37          	lui	t5,0xaaaab
80001d10:	aaaf0f13          	addi	t5,t5,-1366 # aaaaaaaa <imm12+0xaaaaafda>
80001d14:	55555eb7          	lui	t4,0x55555
80001d18:	556e8e93          	addi	t4,t4,1366 # 55555556 <absimm+0x10263027>
80001d1c:	03df0fb3          	mul	t6,t5,t4
80001d20:	2bf42023          	sw	t6,672(s0)
80001d24:	1c71c4b7          	lui	s1,0x1c71c
80001d28:	71c48493          	addi	s1,s1,1820 # 1c71c71c <offset+0x1c71c5e8>
80001d2c:	01f48463          	beq	s1,t6,80001d34 <inst_194>
80001d30:	3790306f          	j	800058a8 <bad_trap>

80001d34 <inst_194>:
80001d34:	aaaabf37          	lui	t5,0xaaaab
80001d38:	aaaf0f13          	addi	t5,t5,-1366 # aaaaaaaa <imm12+0xaaaaafda>
80001d3c:	aaaabeb7          	lui	t4,0xaaaab
80001d40:	aabe8e93          	addi	t4,t4,-1365 # aaaaaaab <imm12+0xaaaaafdb>
80001d44:	03df0fb3          	mul	t6,t5,t4
80001d48:	2bf42223          	sw	t6,676(s0)
80001d4c:	8e38e4b7          	lui	s1,0x8e38e
80001d50:	38e48493          	addi	s1,s1,910 # 8e38e38e <imm12+0x8e38e8be>
80001d54:	01f48463          	beq	s1,t6,80001d5c <inst_195>
80001d58:	3510306f          	j	800058a8 <bad_trap>

80001d5c <inst_195>:
80001d5c:	aaaabf37          	lui	t5,0xaaaab
80001d60:	aaaf0f13          	addi	t5,t5,-1366 # aaaaaaaa <imm12+0xaaaaafda>
80001d64:	00600e93          	li	t4,6
80001d68:	03df0fb3          	mul	t6,t5,t4
80001d6c:	2bf42423          	sw	t6,680(s0)
80001d70:	ffc00493          	li	s1,-4
80001d74:	01f48463          	beq	s1,t6,80001d7c <inst_196>
80001d78:	3310306f          	j	800058a8 <bad_trap>

80001d7c <inst_196>:
80001d7c:	aaaabf37          	lui	t5,0xaaaab
80001d80:	aaaf0f13          	addi	t5,t5,-1366 # aaaaaaaa <imm12+0xaaaaafda>
80001d84:	33333eb7          	lui	t4,0x33333
80001d88:	334e8e93          	addi	t4,t4,820 # 33333334 <offset+0x33333200>
80001d8c:	03df0fb3          	mul	t6,t5,t4
80001d90:	2bf42623          	sw	t6,684(s0)
80001d94:	888894b7          	lui	s1,0x88889
80001d98:	88848493          	addi	s1,s1,-1912 # 88888888 <imm12+0x88888db8>
80001d9c:	01f48463          	beq	s1,t6,80001da4 <inst_197>
80001da0:	3090306f          	j	800058a8 <bad_trap>

80001da4 <inst_197>:
80001da4:	aaaabf37          	lui	t5,0xaaaab
80001da8:	aaaf0f13          	addi	t5,t5,-1366 # aaaaaaaa <imm12+0xaaaaafda>
80001dac:	66666eb7          	lui	t4,0x66666
80001db0:	667e8e93          	addi	t4,t4,1639 # 66666667 <absimm+0x21374138>
80001db4:	03df0fb3          	mul	t6,t5,t4
80001db8:	2bf42823          	sw	t6,688(s0)
80001dbc:	666664b7          	lui	s1,0x66666
80001dc0:	66648493          	addi	s1,s1,1638 # 66666666 <absimm+0x21374137>
80001dc4:	01f48463          	beq	s1,t6,80001dcc <inst_198>
80001dc8:	2e10306f          	j	800058a8 <bad_trap>

80001dcc <inst_198>:
80001dcc:	aaaabf37          	lui	t5,0xaaaab
80001dd0:	aaaf0f13          	addi	t5,t5,-1366 # aaaaaaaa <imm12+0xaaaaafda>
80001dd4:	ffff5eb7          	lui	t4,0xffff5
80001dd8:	afde8e93          	addi	t4,t4,-1283 # ffff4afd <imm12+0xffff502d>
80001ddc:	03df0fb3          	mul	t6,t5,t4
80001de0:	2bf42a23          	sw	t6,692(s0)
80001de4:	5555d4b7          	lui	s1,0x5555d
80001de8:	e0248493          	addi	s1,s1,-510 # 5555ce02 <absimm+0x1026a8d3>
80001dec:	01f48463          	beq	s1,t6,80001df4 <inst_199>
80001df0:	2b90306f          	j	800058a8 <bad_trap>

80001df4 <inst_199>:
80001df4:	00500f13          	li	t5,5
80001df8:	00300e93          	li	t4,3
80001dfc:	03df0fb3          	mul	t6,t5,t4
80001e00:	2bf42c23          	sw	t6,696(s0)
80001e04:	00f00493          	li	s1,15
80001e08:	01f48463          	beq	s1,t6,80001e10 <inst_200>
80001e0c:	29d0306f          	j	800058a8 <bad_trap>

80001e10 <inst_200>:
80001e10:	00500f13          	li	t5,5
80001e14:	55555eb7          	lui	t4,0x55555
80001e18:	555e8e93          	addi	t4,t4,1365 # 55555555 <absimm+0x10263026>
80001e1c:	03df0fb3          	mul	t6,t5,t4
80001e20:	2bf42e23          	sw	t6,700(s0)
80001e24:	aaaab4b7          	lui	s1,0xaaaab
80001e28:	aa948493          	addi	s1,s1,-1367 # aaaaaaa9 <imm12+0xaaaaafd9>
80001e2c:	01f48463          	beq	s1,t6,80001e34 <inst_201>
80001e30:	2790306f          	j	800058a8 <bad_trap>

80001e34 <inst_201>:
80001e34:	00500f13          	li	t5,5
80001e38:	aaaabeb7          	lui	t4,0xaaaab
80001e3c:	aaae8e93          	addi	t4,t4,-1366 # aaaaaaaa <imm12+0xaaaaafda>
80001e40:	03df0fb3          	mul	t6,t5,t4
80001e44:	2df42023          	sw	t6,704(s0)
80001e48:	555554b7          	lui	s1,0x55555
80001e4c:	55248493          	addi	s1,s1,1362 # 55555552 <absimm+0x10263023>
80001e50:	01f48463          	beq	s1,t6,80001e58 <inst_202>
80001e54:	2550306f          	j	800058a8 <bad_trap>

80001e58 <inst_202>:
80001e58:	00500f13          	li	t5,5
80001e5c:	00500e93          	li	t4,5
80001e60:	03df0fb3          	mul	t6,t5,t4
80001e64:	2df42223          	sw	t6,708(s0)
80001e68:	01900493          	li	s1,25
80001e6c:	01f48463          	beq	s1,t6,80001e74 <inst_203>
80001e70:	2390306f          	j	800058a8 <bad_trap>

80001e74 <inst_203>:
80001e74:	00500f13          	li	t5,5
80001e78:	33333eb7          	lui	t4,0x33333
80001e7c:	333e8e93          	addi	t4,t4,819 # 33333333 <offset+0x333331ff>
80001e80:	03df0fb3          	mul	t6,t5,t4
80001e84:	2df42423          	sw	t6,712(s0)
80001e88:	fff00493          	li	s1,-1
80001e8c:	01f48463          	beq	s1,t6,80001e94 <inst_204>
80001e90:	2190306f          	j	800058a8 <bad_trap>

80001e94 <inst_204>:
80001e94:	00500f13          	li	t5,5
80001e98:	66666eb7          	lui	t4,0x66666
80001e9c:	666e8e93          	addi	t4,t4,1638 # 66666666 <absimm+0x21374137>
80001ea0:	03df0fb3          	mul	t6,t5,t4
80001ea4:	2df42623          	sw	t6,716(s0)
80001ea8:	ffe00493          	li	s1,-2
80001eac:	01f48463          	beq	s1,t6,80001eb4 <inst_205>
80001eb0:	1f90306f          	j	800058a8 <bad_trap>

80001eb4 <inst_205>:
80001eb4:	00500f13          	li	t5,5
80001eb8:	ffff5eb7          	lui	t4,0xffff5
80001ebc:	afce8e93          	addi	t4,t4,-1284 # ffff4afc <imm12+0xffff502c>
80001ec0:	03df0fb3          	mul	t6,t5,t4
80001ec4:	2df42823          	sw	t6,720(s0)
80001ec8:	fffc74b7          	lui	s1,0xfffc7
80001ecc:	6ec48493          	addi	s1,s1,1772 # fffc76ec <imm12+0xfffc7c1c>
80001ed0:	01f48463          	beq	s1,t6,80001ed8 <inst_206>
80001ed4:	1d50306f          	j	800058a8 <bad_trap>

80001ed8 <inst_206>:
80001ed8:	00500f13          	li	t5,5
80001edc:	0000beb7          	lui	t4,0xb
80001ee0:	504e8e93          	addi	t4,t4,1284 # b504 <offset+0xb3d0>
80001ee4:	03df0fb3          	mul	t6,t5,t4
80001ee8:	2df42a23          	sw	t6,724(s0)
80001eec:	000394b7          	lui	s1,0x39
80001ef0:	91448493          	addi	s1,s1,-1772 # 38914 <offset+0x387e0>
80001ef4:	01f48463          	beq	s1,t6,80001efc <inst_207>
80001ef8:	1b10306f          	j	800058a8 <bad_trap>

80001efc <inst_207>:
80001efc:	00500f13          	li	t5,5
80001f00:	00200e93          	li	t4,2
80001f04:	03df0fb3          	mul	t6,t5,t4
80001f08:	2df42c23          	sw	t6,728(s0)
80001f0c:	00a00493          	li	s1,10
80001f10:	01f48463          	beq	s1,t6,80001f18 <inst_208>
80001f14:	1950306f          	j	800058a8 <bad_trap>

80001f18 <inst_208>:
80001f18:	00500f13          	li	t5,5
80001f1c:	55555eb7          	lui	t4,0x55555
80001f20:	554e8e93          	addi	t4,t4,1364 # 55555554 <absimm+0x10263025>
80001f24:	03df0fb3          	mul	t6,t5,t4
80001f28:	2df42e23          	sw	t6,732(s0)
80001f2c:	aaaab4b7          	lui	s1,0xaaaab
80001f30:	aa448493          	addi	s1,s1,-1372 # aaaaaaa4 <imm12+0xaaaaafd4>
80001f34:	01f48463          	beq	s1,t6,80001f3c <inst_209>
80001f38:	1710306f          	j	800058a8 <bad_trap>

80001f3c <inst_209>:
80001f3c:	00500f13          	li	t5,5
80001f40:	33333eb7          	lui	t4,0x33333
80001f44:	332e8e93          	addi	t4,t4,818 # 33333332 <offset+0x333331fe>
80001f48:	03df0fb3          	mul	t6,t5,t4
80001f4c:	2ff42023          	sw	t6,736(s0)
80001f50:	ffa00493          	li	s1,-6
80001f54:	01f48463          	beq	s1,t6,80001f5c <inst_210>
80001f58:	1510306f          	j	800058a8 <bad_trap>

80001f5c <inst_210>:
80001f5c:	00500f13          	li	t5,5
80001f60:	66666eb7          	lui	t4,0x66666
80001f64:	665e8e93          	addi	t4,t4,1637 # 66666665 <absimm+0x21374136>
80001f68:	03df0fb3          	mul	t6,t5,t4
80001f6c:	2ff42223          	sw	t6,740(s0)
80001f70:	ff900493          	li	s1,-7
80001f74:	01f48463          	beq	s1,t6,80001f7c <inst_211>
80001f78:	1310306f          	j	800058a8 <bad_trap>

80001f7c <inst_211>:
80001f7c:	00500f13          	li	t5,5
80001f80:	00000e93          	li	t4,0
80001f84:	03df0fb3          	mul	t6,t5,t4
80001f88:	2ff42423          	sw	t6,744(s0)
80001f8c:	00000493          	li	s1,0
80001f90:	01f48463          	beq	s1,t6,80001f98 <inst_212>
80001f94:	1150306f          	j	800058a8 <bad_trap>

80001f98 <inst_212>:
80001f98:	00500f13          	li	t5,5
80001f9c:	0000beb7          	lui	t4,0xb
80001fa0:	503e8e93          	addi	t4,t4,1283 # b503 <offset+0xb3cf>
80001fa4:	03df0fb3          	mul	t6,t5,t4
80001fa8:	2ff42623          	sw	t6,748(s0)
80001fac:	000394b7          	lui	s1,0x39
80001fb0:	90f48493          	addi	s1,s1,-1777 # 3890f <offset+0x387db>
80001fb4:	01f48463          	beq	s1,t6,80001fbc <inst_213>
80001fb8:	0f10306f          	j	800058a8 <bad_trap>

80001fbc <inst_213>:
80001fbc:	00500f13          	li	t5,5
80001fc0:	00400e93          	li	t4,4
80001fc4:	03df0fb3          	mul	t6,t5,t4
80001fc8:	2ff42823          	sw	t6,752(s0)
80001fcc:	01400493          	li	s1,20
80001fd0:	01f48463          	beq	s1,t6,80001fd8 <inst_214>
80001fd4:	0d50306f          	j	800058a8 <bad_trap>

80001fd8 <inst_214>:
80001fd8:	00500f13          	li	t5,5
80001fdc:	55555eb7          	lui	t4,0x55555
80001fe0:	556e8e93          	addi	t4,t4,1366 # 55555556 <absimm+0x10263027>
80001fe4:	03df0fb3          	mul	t6,t5,t4
80001fe8:	2ff42a23          	sw	t6,756(s0)
80001fec:	aaaab4b7          	lui	s1,0xaaaab
80001ff0:	aae48493          	addi	s1,s1,-1362 # aaaaaaae <imm12+0xaaaaafde>
80001ff4:	01f48463          	beq	s1,t6,80001ffc <inst_215>
80001ff8:	0b10306f          	j	800058a8 <bad_trap>

80001ffc <inst_215>:
80001ffc:	00500f13          	li	t5,5
80002000:	aaaabeb7          	lui	t4,0xaaaab
80002004:	aabe8e93          	addi	t4,t4,-1365 # aaaaaaab <imm12+0xaaaaafdb>
80002008:	03df0fb3          	mul	t6,t5,t4
8000200c:	2ff42c23          	sw	t6,760(s0)
80002010:	555554b7          	lui	s1,0x55555
80002014:	55748493          	addi	s1,s1,1367 # 55555557 <absimm+0x10263028>
80002018:	01f48463          	beq	s1,t6,80002020 <inst_216>
8000201c:	08d0306f          	j	800058a8 <bad_trap>

80002020 <inst_216>:
80002020:	00500f13          	li	t5,5
80002024:	00600e93          	li	t4,6
80002028:	03df0fb3          	mul	t6,t5,t4
8000202c:	2ff42e23          	sw	t6,764(s0)
80002030:	01e00493          	li	s1,30
80002034:	01f48463          	beq	s1,t6,8000203c <inst_217>
80002038:	0710306f          	j	800058a8 <bad_trap>

8000203c <inst_217>:
8000203c:	00500f13          	li	t5,5
80002040:	33333eb7          	lui	t4,0x33333
80002044:	334e8e93          	addi	t4,t4,820 # 33333334 <offset+0x33333200>
80002048:	03df0fb3          	mul	t6,t5,t4
8000204c:	31f42023          	sw	t6,768(s0)
80002050:	00400493          	li	s1,4
80002054:	01f48463          	beq	s1,t6,8000205c <inst_218>
80002058:	0510306f          	j	800058a8 <bad_trap>

8000205c <inst_218>:
8000205c:	00500f13          	li	t5,5
80002060:	66666eb7          	lui	t4,0x66666
80002064:	667e8e93          	addi	t4,t4,1639 # 66666667 <absimm+0x21374138>
80002068:	03df0fb3          	mul	t6,t5,t4
8000206c:	31f42223          	sw	t6,772(s0)
80002070:	00300493          	li	s1,3
80002074:	01f48463          	beq	s1,t6,8000207c <inst_219>
80002078:	0310306f          	j	800058a8 <bad_trap>

8000207c <inst_219>:
8000207c:	00500f13          	li	t5,5
80002080:	ffff5eb7          	lui	t4,0xffff5
80002084:	afde8e93          	addi	t4,t4,-1283 # ffff4afd <imm12+0xffff502d>
80002088:	03df0fb3          	mul	t6,t5,t4
8000208c:	31f42423          	sw	t6,776(s0)
80002090:	fffc74b7          	lui	s1,0xfffc7
80002094:	6f148493          	addi	s1,s1,1777 # fffc76f1 <imm12+0xfffc7c21>
80002098:	01f48463          	beq	s1,t6,800020a0 <inst_220>
8000209c:	00d0306f          	j	800058a8 <bad_trap>

800020a0 <inst_220>:
800020a0:	00500f13          	li	t5,5
800020a4:	0000beb7          	lui	t4,0xb
800020a8:	505e8e93          	addi	t4,t4,1285 # b505 <offset+0xb3d1>
800020ac:	03df0fb3          	mul	t6,t5,t4
800020b0:	31f42623          	sw	t6,780(s0)
800020b4:	000394b7          	lui	s1,0x39
800020b8:	91948493          	addi	s1,s1,-1767 # 38919 <offset+0x387e5>
800020bc:	01f48463          	beq	s1,t6,800020c4 <inst_221>
800020c0:	7e80306f          	j	800058a8 <bad_trap>

800020c4 <inst_221>:
800020c4:	33333f37          	lui	t5,0x33333
800020c8:	333f0f13          	addi	t5,t5,819 # 33333333 <offset+0x333331ff>
800020cc:	00300e93          	li	t4,3
800020d0:	03df0fb3          	mul	t6,t5,t4
800020d4:	31f42823          	sw	t6,784(s0)
800020d8:	9999a4b7          	lui	s1,0x9999a
800020dc:	99948493          	addi	s1,s1,-1639 # 99999999 <imm12+0x99999ec9>
800020e0:	01f48463          	beq	s1,t6,800020e8 <inst_222>
800020e4:	7c40306f          	j	800058a8 <bad_trap>

800020e8 <inst_222>:
800020e8:	33333f37          	lui	t5,0x33333
800020ec:	333f0f13          	addi	t5,t5,819 # 33333333 <offset+0x333331ff>
800020f0:	55555eb7          	lui	t4,0x55555
800020f4:	555e8e93          	addi	t4,t4,1365 # 55555555 <absimm+0x10263026>
800020f8:	03df0fb3          	mul	t6,t5,t4
800020fc:	31f42a23          	sw	t6,788(s0)
80002100:	eeeef4b7          	lui	s1,0xeeeef
80002104:	eef48493          	addi	s1,s1,-273 # eeeeeeef <imm12+0xeeeef41f>
80002108:	01f48463          	beq	s1,t6,80002110 <inst_223>
8000210c:	79c0306f          	j	800058a8 <bad_trap>

80002110 <inst_223>:
80002110:	33333f37          	lui	t5,0x33333
80002114:	333f0f13          	addi	t5,t5,819 # 33333333 <offset+0x333331ff>
80002118:	aaaabeb7          	lui	t4,0xaaaab
8000211c:	aaae8e93          	addi	t4,t4,-1366 # aaaaaaaa <imm12+0xaaaaafda>
80002120:	03df0fb3          	mul	t6,t5,t4
80002124:	31f42c23          	sw	t6,792(s0)
80002128:	dddde4b7          	lui	s1,0xdddde
8000212c:	dde48493          	addi	s1,s1,-546 # ddddddde <imm12+0xdddde30e>
80002130:	01f48463          	beq	s1,t6,80002138 <inst_224>
80002134:	7740306f          	j	800058a8 <bad_trap>

80002138 <inst_224>:
80002138:	33333f37          	lui	t5,0x33333
8000213c:	333f0f13          	addi	t5,t5,819 # 33333333 <offset+0x333331ff>
80002140:	00500e93          	li	t4,5
80002144:	03df0fb3          	mul	t6,t5,t4
80002148:	31f42e23          	sw	t6,796(s0)
8000214c:	fff00493          	li	s1,-1
80002150:	01f48463          	beq	s1,t6,80002158 <inst_225>
80002154:	7540306f          	j	800058a8 <bad_trap>

80002158 <inst_225>:
80002158:	33333f37          	lui	t5,0x33333
8000215c:	333f0f13          	addi	t5,t5,819 # 33333333 <offset+0x333331ff>
80002160:	33333eb7          	lui	t4,0x33333
80002164:	333e8e93          	addi	t4,t4,819 # 33333333 <offset+0x333331ff>
80002168:	03df0fb3          	mul	t6,t5,t4
8000216c:	33f42023          	sw	t6,800(s0)
80002170:	c28f64b7          	lui	s1,0xc28f6
80002174:	c2948493          	addi	s1,s1,-983 # c28f5c29 <imm12+0xc28f6159>
80002178:	01f48463          	beq	s1,t6,80002180 <inst_226>
8000217c:	72c0306f          	j	800058a8 <bad_trap>

80002180 <inst_226>:
80002180:	33333f37          	lui	t5,0x33333
80002184:	333f0f13          	addi	t5,t5,819 # 33333333 <offset+0x333331ff>
80002188:	66666eb7          	lui	t4,0x66666
8000218c:	666e8e93          	addi	t4,t4,1638 # 66666666 <absimm+0x21374137>
80002190:	03df0fb3          	mul	t6,t5,t4
80002194:	33f42223          	sw	t6,804(s0)
80002198:	851ec4b7          	lui	s1,0x851ec
8000219c:	85248493          	addi	s1,s1,-1966 # 851eb852 <imm12+0x851ebd82>
800021a0:	01f48463          	beq	s1,t6,800021a8 <inst_227>
800021a4:	7040306f          	j	800058a8 <bad_trap>

800021a8 <inst_227>:
800021a8:	33333f37          	lui	t5,0x33333
800021ac:	333f0f13          	addi	t5,t5,819 # 33333333 <offset+0x333331ff>
800021b0:	ffff5eb7          	lui	t4,0xffff5
800021b4:	afce8e93          	addi	t4,t4,-1284 # ffff4afc <imm12+0xffff502c>
800021b8:	03df0fb3          	mul	t6,t5,t4
800021bc:	33f42423          	sw	t6,808(s0)
800021c0:	000024b7          	lui	s1,0x2
800021c4:	43448493          	addi	s1,s1,1076 # 2434 <offset+0x2300>
800021c8:	01f48463          	beq	s1,t6,800021d0 <inst_228>
800021cc:	6dc0306f          	j	800058a8 <bad_trap>

800021d0 <inst_228>:
800021d0:	33333f37          	lui	t5,0x33333
800021d4:	333f0f13          	addi	t5,t5,819 # 33333333 <offset+0x333331ff>
800021d8:	0000beb7          	lui	t4,0xb
800021dc:	504e8e93          	addi	t4,t4,1284 # b504 <offset+0xb3d0>
800021e0:	03df0fb3          	mul	t6,t5,t4
800021e4:	33f42623          	sw	t6,812(s0)
800021e8:	ffffe4b7          	lui	s1,0xffffe
800021ec:	bcc48493          	addi	s1,s1,-1076 # ffffdbcc <imm12+0xffffe0fc>
800021f0:	01f48463          	beq	s1,t6,800021f8 <inst_229>
800021f4:	6b40306f          	j	800058a8 <bad_trap>

800021f8 <inst_229>:
800021f8:	33333f37          	lui	t5,0x33333
800021fc:	333f0f13          	addi	t5,t5,819 # 33333333 <offset+0x333331ff>
80002200:	00200e93          	li	t4,2
80002204:	03df0fb3          	mul	t6,t5,t4
80002208:	33f42823          	sw	t6,816(s0)
8000220c:	666664b7          	lui	s1,0x66666
80002210:	66648493          	addi	s1,s1,1638 # 66666666 <absimm+0x21374137>
80002214:	01f48463          	beq	s1,t6,8000221c <inst_230>
80002218:	6900306f          	j	800058a8 <bad_trap>

8000221c <inst_230>:
8000221c:	33333f37          	lui	t5,0x33333
80002220:	333f0f13          	addi	t5,t5,819 # 33333333 <offset+0x333331ff>
80002224:	55555eb7          	lui	t4,0x55555
80002228:	554e8e93          	addi	t4,t4,1364 # 55555554 <absimm+0x10263025>
8000222c:	03df0fb3          	mul	t6,t5,t4
80002230:	33f42a23          	sw	t6,820(s0)
80002234:	bbbbc4b7          	lui	s1,0xbbbbc
80002238:	bbc48493          	addi	s1,s1,-1092 # bbbbbbbc <imm12+0xbbbbc0ec>
8000223c:	01f48463          	beq	s1,t6,80002244 <inst_231>
80002240:	6680306f          	j	800058a8 <bad_trap>

80002244 <inst_231>:
80002244:	33333f37          	lui	t5,0x33333
80002248:	333f0f13          	addi	t5,t5,819 # 33333333 <offset+0x333331ff>
8000224c:	33333eb7          	lui	t4,0x33333
80002250:	332e8e93          	addi	t4,t4,818 # 33333332 <offset+0x333331fe>
80002254:	03df0fb3          	mul	t6,t5,t4
80002258:	33f42c23          	sw	t6,824(s0)
8000225c:	8f5c34b7          	lui	s1,0x8f5c3
80002260:	8f648493          	addi	s1,s1,-1802 # 8f5c28f6 <imm12+0x8f5c2e26>
80002264:	01f48463          	beq	s1,t6,8000226c <inst_232>
80002268:	6400306f          	j	800058a8 <bad_trap>

8000226c <inst_232>:
8000226c:	33333f37          	lui	t5,0x33333
80002270:	333f0f13          	addi	t5,t5,819 # 33333333 <offset+0x333331ff>
80002274:	66666eb7          	lui	t4,0x66666
80002278:	665e8e93          	addi	t4,t4,1637 # 66666665 <absimm+0x21374136>
8000227c:	03df0fb3          	mul	t6,t5,t4
80002280:	33f42e23          	sw	t6,828(s0)
80002284:	51eb84b7          	lui	s1,0x51eb8
80002288:	51f48493          	addi	s1,s1,1311 # 51eb851f <absimm+0xcbc5ff0>
8000228c:	01f48463          	beq	s1,t6,80002294 <inst_233>
80002290:	6180306f          	j	800058a8 <bad_trap>

80002294 <inst_233>:
80002294:	33333f37          	lui	t5,0x33333
80002298:	333f0f13          	addi	t5,t5,819 # 33333333 <offset+0x333331ff>
8000229c:	00000e93          	li	t4,0
800022a0:	03df0fb3          	mul	t6,t5,t4
800022a4:	35f42023          	sw	t6,832(s0)
800022a8:	00000493          	li	s1,0
800022ac:	01f48463          	beq	s1,t6,800022b4 <inst_234>
800022b0:	5f80306f          	j	800058a8 <bad_trap>

800022b4 <inst_234>:
800022b4:	33333f37          	lui	t5,0x33333
800022b8:	333f0f13          	addi	t5,t5,819 # 33333333 <offset+0x333331ff>
800022bc:	0000beb7          	lui	t4,0xb
800022c0:	503e8e93          	addi	t4,t4,1283 # b503 <offset+0xb3cf>
800022c4:	03df0fb3          	mul	t6,t5,t4
800022c8:	35f42223          	sw	t6,836(s0)
800022cc:	ccccb4b7          	lui	s1,0xccccb
800022d0:	89948493          	addi	s1,s1,-1895 # cccca899 <imm12+0xccccadc9>
800022d4:	01f48463          	beq	s1,t6,800022dc <inst_235>
800022d8:	5d00306f          	j	800058a8 <bad_trap>

800022dc <inst_235>:
800022dc:	33333f37          	lui	t5,0x33333
800022e0:	333f0f13          	addi	t5,t5,819 # 33333333 <offset+0x333331ff>
800022e4:	00400e93          	li	t4,4
800022e8:	03df0fb3          	mul	t6,t5,t4
800022ec:	35f42423          	sw	t6,840(s0)
800022f0:	ccccd4b7          	lui	s1,0xccccd
800022f4:	ccc48493          	addi	s1,s1,-820 # cccccccc <imm12+0xccccd1fc>
800022f8:	01f48463          	beq	s1,t6,80002300 <inst_236>
800022fc:	5ac0306f          	j	800058a8 <bad_trap>

80002300 <inst_236>:
80002300:	33333f37          	lui	t5,0x33333
80002304:	333f0f13          	addi	t5,t5,819 # 33333333 <offset+0x333331ff>
80002308:	55555eb7          	lui	t4,0x55555
8000230c:	556e8e93          	addi	t4,t4,1366 # 55555556 <absimm+0x10263027>
80002310:	03df0fb3          	mul	t6,t5,t4
80002314:	35f42623          	sw	t6,844(s0)
80002318:	222224b7          	lui	s1,0x22222
8000231c:	22248493          	addi	s1,s1,546 # 22222222 <offset+0x222220ee>
80002320:	01f48463          	beq	s1,t6,80002328 <inst_237>
80002324:	5840306f          	j	800058a8 <bad_trap>

80002328 <inst_237>:
80002328:	33333f37          	lui	t5,0x33333
8000232c:	333f0f13          	addi	t5,t5,819 # 33333333 <offset+0x333331ff>
80002330:	aaaabeb7          	lui	t4,0xaaaab
80002334:	aabe8e93          	addi	t4,t4,-1365 # aaaaaaab <imm12+0xaaaaafdb>
80002338:	03df0fb3          	mul	t6,t5,t4
8000233c:	35f42823          	sw	t6,848(s0)
80002340:	111114b7          	lui	s1,0x11111
80002344:	11148493          	addi	s1,s1,273 # 11111111 <offset+0x11110fdd>
80002348:	01f48463          	beq	s1,t6,80002350 <inst_238>
8000234c:	55c0306f          	j	800058a8 <bad_trap>

80002350 <inst_238>:
80002350:	33333f37          	lui	t5,0x33333
80002354:	333f0f13          	addi	t5,t5,819 # 33333333 <offset+0x333331ff>
80002358:	00600e93          	li	t4,6
8000235c:	03df0fb3          	mul	t6,t5,t4
80002360:	35f42a23          	sw	t6,852(s0)
80002364:	333334b7          	lui	s1,0x33333
80002368:	33248493          	addi	s1,s1,818 # 33333332 <offset+0x333331fe>
8000236c:	01f48463          	beq	s1,t6,80002374 <inst_239>
80002370:	5380306f          	j	800058a8 <bad_trap>

80002374 <inst_239>:
80002374:	33333f37          	lui	t5,0x33333
80002378:	333f0f13          	addi	t5,t5,819 # 33333333 <offset+0x333331ff>
8000237c:	33333eb7          	lui	t4,0x33333
80002380:	334e8e93          	addi	t4,t4,820 # 33333334 <offset+0x33333200>
80002384:	03df0fb3          	mul	t6,t5,t4
80002388:	35f42c23          	sw	t6,856(s0)
8000238c:	f5c294b7          	lui	s1,0xf5c29
80002390:	f5c48493          	addi	s1,s1,-164 # f5c28f5c <imm12+0xf5c2948c>
80002394:	01f48463          	beq	s1,t6,8000239c <inst_240>
80002398:	5100306f          	j	800058a8 <bad_trap>

8000239c <inst_240>:
8000239c:	33333f37          	lui	t5,0x33333
800023a0:	333f0f13          	addi	t5,t5,819 # 33333333 <offset+0x333331ff>
800023a4:	66666eb7          	lui	t4,0x66666
800023a8:	667e8e93          	addi	t4,t4,1639 # 66666667 <absimm+0x21374138>
800023ac:	03df0fb3          	mul	t6,t5,t4
800023b0:	35f42e23          	sw	t6,860(s0)
800023b4:	b851f4b7          	lui	s1,0xb851f
800023b8:	b8548493          	addi	s1,s1,-1147 # b851eb85 <imm12+0xb851f0b5>
800023bc:	01f48463          	beq	s1,t6,800023c4 <inst_241>
800023c0:	4e80306f          	j	800058a8 <bad_trap>

800023c4 <inst_241>:
800023c4:	33333f37          	lui	t5,0x33333
800023c8:	333f0f13          	addi	t5,t5,819 # 33333333 <offset+0x333331ff>
800023cc:	ffff5eb7          	lui	t4,0xffff5
800023d0:	afde8e93          	addi	t4,t4,-1283 # ffff4afd <imm12+0xffff502d>
800023d4:	03df0fb3          	mul	t6,t5,t4
800023d8:	37f42023          	sw	t6,864(s0)
800023dc:	333354b7          	lui	s1,0x33335
800023e0:	76748493          	addi	s1,s1,1895 # 33335767 <offset+0x33335633>
800023e4:	01f48463          	beq	s1,t6,800023ec <inst_242>
800023e8:	4c00306f          	j	800058a8 <bad_trap>

800023ec <inst_242>:
800023ec:	33333f37          	lui	t5,0x33333
800023f0:	333f0f13          	addi	t5,t5,819 # 33333333 <offset+0x333331ff>
800023f4:	0000beb7          	lui	t4,0xb
800023f8:	505e8e93          	addi	t4,t4,1285 # b505 <offset+0xb3d1>
800023fc:	03df0fb3          	mul	t6,t5,t4
80002400:	37f42223          	sw	t6,868(s0)
80002404:	333314b7          	lui	s1,0x33331
80002408:	eff48493          	addi	s1,s1,-257 # 33330eff <offset+0x33330dcb>
8000240c:	01f48463          	beq	s1,t6,80002414 <inst_243>
80002410:	4980306f          	j	800058a8 <bad_trap>

80002414 <inst_243>:
80002414:	66666f37          	lui	t5,0x66666
80002418:	666f0f13          	addi	t5,t5,1638 # 66666666 <absimm+0x21374137>
8000241c:	00300e93          	li	t4,3
80002420:	03df0fb3          	mul	t6,t5,t4
80002424:	37f42423          	sw	t6,872(s0)
80002428:	333334b7          	lui	s1,0x33333
8000242c:	33248493          	addi	s1,s1,818 # 33333332 <offset+0x333331fe>
80002430:	01f48463          	beq	s1,t6,80002438 <inst_244>
80002434:	4740306f          	j	800058a8 <bad_trap>

80002438 <inst_244>:
80002438:	66666f37          	lui	t5,0x66666
8000243c:	666f0f13          	addi	t5,t5,1638 # 66666666 <absimm+0x21374137>
80002440:	55555eb7          	lui	t4,0x55555
80002444:	555e8e93          	addi	t4,t4,1365 # 55555555 <absimm+0x10263026>
80002448:	03df0fb3          	mul	t6,t5,t4
8000244c:	37f42623          	sw	t6,876(s0)
80002450:	dddde4b7          	lui	s1,0xdddde
80002454:	dde48493          	addi	s1,s1,-546 # ddddddde <imm12+0xdddde30e>
80002458:	01f48463          	beq	s1,t6,80002460 <inst_245>
8000245c:	44c0306f          	j	800058a8 <bad_trap>

80002460 <inst_245>:
80002460:	66666f37          	lui	t5,0x66666
80002464:	666f0f13          	addi	t5,t5,1638 # 66666666 <absimm+0x21374137>
80002468:	aaaabeb7          	lui	t4,0xaaaab
8000246c:	aaae8e93          	addi	t4,t4,-1366 # aaaaaaaa <imm12+0xaaaaafda>
80002470:	03df0fb3          	mul	t6,t5,t4
80002474:	37f42823          	sw	t6,880(s0)
80002478:	bbbbc4b7          	lui	s1,0xbbbbc
8000247c:	bbc48493          	addi	s1,s1,-1092 # bbbbbbbc <imm12+0xbbbbc0ec>
80002480:	01f48463          	beq	s1,t6,80002488 <inst_246>
80002484:	4240306f          	j	800058a8 <bad_trap>

80002488 <inst_246>:
80002488:	66666f37          	lui	t5,0x66666
8000248c:	666f0f13          	addi	t5,t5,1638 # 66666666 <absimm+0x21374137>
80002490:	00500e93          	li	t4,5
80002494:	03df0fb3          	mul	t6,t5,t4
80002498:	37f42a23          	sw	t6,884(s0)
8000249c:	ffe00493          	li	s1,-2
800024a0:	01f48463          	beq	s1,t6,800024a8 <inst_247>
800024a4:	4040306f          	j	800058a8 <bad_trap>

800024a8 <inst_247>:
800024a8:	66666f37          	lui	t5,0x66666
800024ac:	666f0f13          	addi	t5,t5,1638 # 66666666 <absimm+0x21374137>
800024b0:	33333eb7          	lui	t4,0x33333
800024b4:	333e8e93          	addi	t4,t4,819 # 33333333 <offset+0x333331ff>
800024b8:	03df0fb3          	mul	t6,t5,t4
800024bc:	37f42c23          	sw	t6,888(s0)
800024c0:	851ec4b7          	lui	s1,0x851ec
800024c4:	85248493          	addi	s1,s1,-1966 # 851eb852 <imm12+0x851ebd82>
800024c8:	01f48463          	beq	s1,t6,800024d0 <inst_248>
800024cc:	3dc0306f          	j	800058a8 <bad_trap>

800024d0 <inst_248>:
800024d0:	66666f37          	lui	t5,0x66666
800024d4:	666f0f13          	addi	t5,t5,1638 # 66666666 <absimm+0x21374137>
800024d8:	66666eb7          	lui	t4,0x66666
800024dc:	666e8e93          	addi	t4,t4,1638 # 66666666 <absimm+0x21374137>
800024e0:	03df0fb3          	mul	t6,t5,t4
800024e4:	37f42e23          	sw	t6,892(s0)
800024e8:	0a3d74b7          	lui	s1,0xa3d7
800024ec:	0a448493          	addi	s1,s1,164 # a3d70a4 <offset+0xa3d6f70>
800024f0:	01f48463          	beq	s1,t6,800024f8 <inst_249>
800024f4:	3b40306f          	j	800058a8 <bad_trap>

800024f8 <inst_249>:
800024f8:	66666f37          	lui	t5,0x66666
800024fc:	666f0f13          	addi	t5,t5,1638 # 66666666 <absimm+0x21374137>
80002500:	ffff5eb7          	lui	t4,0xffff5
80002504:	afce8e93          	addi	t4,t4,-1284 # ffff4afc <imm12+0xffff502c>
80002508:	03df0fb3          	mul	t6,t5,t4
8000250c:	39f42023          	sw	t6,896(s0)
80002510:	000054b7          	lui	s1,0x5
80002514:	86848493          	addi	s1,s1,-1944 # 4868 <offset+0x4734>
80002518:	01f48463          	beq	s1,t6,80002520 <inst_250>
8000251c:	38c0306f          	j	800058a8 <bad_trap>

80002520 <inst_250>:
80002520:	66666f37          	lui	t5,0x66666
80002524:	666f0f13          	addi	t5,t5,1638 # 66666666 <absimm+0x21374137>
80002528:	0000beb7          	lui	t4,0xb
8000252c:	504e8e93          	addi	t4,t4,1284 # b504 <offset+0xb3d0>
80002530:	03df0fb3          	mul	t6,t5,t4
80002534:	39f42223          	sw	t6,900(s0)
80002538:	ffffb4b7          	lui	s1,0xffffb
8000253c:	79848493          	addi	s1,s1,1944 # ffffb798 <imm12+0xffffbcc8>
80002540:	01f48463          	beq	s1,t6,80002548 <inst_251>
80002544:	3640306f          	j	800058a8 <bad_trap>

80002548 <inst_251>:
80002548:	66666f37          	lui	t5,0x66666
8000254c:	666f0f13          	addi	t5,t5,1638 # 66666666 <absimm+0x21374137>
80002550:	00200e93          	li	t4,2
80002554:	03df0fb3          	mul	t6,t5,t4
80002558:	39f42423          	sw	t6,904(s0)
8000255c:	ccccd4b7          	lui	s1,0xccccd
80002560:	ccc48493          	addi	s1,s1,-820 # cccccccc <imm12+0xccccd1fc>
80002564:	01f48463          	beq	s1,t6,8000256c <inst_252>
80002568:	3400306f          	j	800058a8 <bad_trap>

8000256c <inst_252>:
8000256c:	66666f37          	lui	t5,0x66666
80002570:	666f0f13          	addi	t5,t5,1638 # 66666666 <absimm+0x21374137>
80002574:	55555eb7          	lui	t4,0x55555
80002578:	554e8e93          	addi	t4,t4,1364 # 55555554 <absimm+0x10263025>
8000257c:	03df0fb3          	mul	t6,t5,t4
80002580:	39f42623          	sw	t6,908(s0)
80002584:	777774b7          	lui	s1,0x77777
80002588:	77848493          	addi	s1,s1,1912 # 77777778 <absimm+0x32485249>
8000258c:	01f48463          	beq	s1,t6,80002594 <inst_253>
80002590:	3180306f          	j	800058a8 <bad_trap>

80002594 <inst_253>:
80002594:	66666f37          	lui	t5,0x66666
80002598:	666f0f13          	addi	t5,t5,1638 # 66666666 <absimm+0x21374137>
8000259c:	33333eb7          	lui	t4,0x33333
800025a0:	332e8e93          	addi	t4,t4,818 # 33333332 <offset+0x333331fe>
800025a4:	03df0fb3          	mul	t6,t5,t4
800025a8:	39f42823          	sw	t6,912(s0)
800025ac:	1eb854b7          	lui	s1,0x1eb85
800025b0:	1ec48493          	addi	s1,s1,492 # 1eb851ec <offset+0x1eb850b8>
800025b4:	01f48463          	beq	s1,t6,800025bc <inst_254>
800025b8:	2f00306f          	j	800058a8 <bad_trap>

800025bc <inst_254>:
800025bc:	66666f37          	lui	t5,0x66666
800025c0:	666f0f13          	addi	t5,t5,1638 # 66666666 <absimm+0x21374137>
800025c4:	66666eb7          	lui	t4,0x66666
800025c8:	665e8e93          	addi	t4,t4,1637 # 66666665 <absimm+0x21374136>
800025cc:	03df0fb3          	mul	t6,t5,t4
800025d0:	39f42a23          	sw	t6,916(s0)
800025d4:	a3d714b7          	lui	s1,0xa3d71
800025d8:	a3e48493          	addi	s1,s1,-1474 # a3d70a3e <imm12+0xa3d70f6e>
800025dc:	01f48463          	beq	s1,t6,800025e4 <inst_255>
800025e0:	2c80306f          	j	800058a8 <bad_trap>

800025e4 <inst_255>:
800025e4:	66666f37          	lui	t5,0x66666
800025e8:	666f0f13          	addi	t5,t5,1638 # 66666666 <absimm+0x21374137>
800025ec:	00000e93          	li	t4,0
800025f0:	03df0fb3          	mul	t6,t5,t4
800025f4:	39f42c23          	sw	t6,920(s0)
800025f8:	00000493          	li	s1,0
800025fc:	01f48463          	beq	s1,t6,80002604 <inst_256>
80002600:	2a80306f          	j	800058a8 <bad_trap>

80002604 <inst_256>:
80002604:	66666f37          	lui	t5,0x66666
80002608:	666f0f13          	addi	t5,t5,1638 # 66666666 <absimm+0x21374137>
8000260c:	0000beb7          	lui	t4,0xb
80002610:	503e8e93          	addi	t4,t4,1283 # b503 <offset+0xb3cf>
80002614:	03df0fb3          	mul	t6,t5,t4
80002618:	39f42e23          	sw	t6,924(s0)
8000261c:	999954b7          	lui	s1,0x99995
80002620:	13248493          	addi	s1,s1,306 # 99995132 <imm12+0x99995662>
80002624:	01f48463          	beq	s1,t6,8000262c <inst_257>
80002628:	2800306f          	j	800058a8 <bad_trap>

8000262c <inst_257>:
8000262c:	66666f37          	lui	t5,0x66666
80002630:	666f0f13          	addi	t5,t5,1638 # 66666666 <absimm+0x21374137>
80002634:	00400e93          	li	t4,4
80002638:	03df0fb3          	mul	t6,t5,t4
8000263c:	3bf42023          	sw	t6,928(s0)
80002640:	9999a4b7          	lui	s1,0x9999a
80002644:	99848493          	addi	s1,s1,-1640 # 99999998 <imm12+0x99999ec8>
80002648:	01f48463          	beq	s1,t6,80002650 <inst_258>
8000264c:	25c0306f          	j	800058a8 <bad_trap>

80002650 <inst_258>:
80002650:	66666f37          	lui	t5,0x66666
80002654:	666f0f13          	addi	t5,t5,1638 # 66666666 <absimm+0x21374137>
80002658:	55555eb7          	lui	t4,0x55555
8000265c:	556e8e93          	addi	t4,t4,1366 # 55555556 <absimm+0x10263027>
80002660:	03df0fb3          	mul	t6,t5,t4
80002664:	3bf42223          	sw	t6,932(s0)
80002668:	444444b7          	lui	s1,0x44444
8000266c:	44448493          	addi	s1,s1,1092 # 44444444 <offset+0x44444310>
80002670:	01f48463          	beq	s1,t6,80002678 <inst_259>
80002674:	2340306f          	j	800058a8 <bad_trap>

80002678 <inst_259>:
80002678:	66666f37          	lui	t5,0x66666
8000267c:	666f0f13          	addi	t5,t5,1638 # 66666666 <absimm+0x21374137>
80002680:	aaaabeb7          	lui	t4,0xaaaab
80002684:	aabe8e93          	addi	t4,t4,-1365 # aaaaaaab <imm12+0xaaaaafdb>
80002688:	03df0fb3          	mul	t6,t5,t4
8000268c:	3bf42423          	sw	t6,936(s0)
80002690:	222224b7          	lui	s1,0x22222
80002694:	22248493          	addi	s1,s1,546 # 22222222 <offset+0x222220ee>
80002698:	01f48463          	beq	s1,t6,800026a0 <inst_260>
8000269c:	20c0306f          	j	800058a8 <bad_trap>

800026a0 <inst_260>:
800026a0:	66666f37          	lui	t5,0x66666
800026a4:	666f0f13          	addi	t5,t5,1638 # 66666666 <absimm+0x21374137>
800026a8:	00600e93          	li	t4,6
800026ac:	03df0fb3          	mul	t6,t5,t4
800026b0:	3bf42623          	sw	t6,940(s0)
800026b4:	666664b7          	lui	s1,0x66666
800026b8:	66448493          	addi	s1,s1,1636 # 66666664 <absimm+0x21374135>
800026bc:	01f48463          	beq	s1,t6,800026c4 <inst_261>
800026c0:	1e80306f          	j	800058a8 <bad_trap>

800026c4 <inst_261>:
800026c4:	66666f37          	lui	t5,0x66666
800026c8:	666f0f13          	addi	t5,t5,1638 # 66666666 <absimm+0x21374137>
800026cc:	33333eb7          	lui	t4,0x33333
800026d0:	334e8e93          	addi	t4,t4,820 # 33333334 <offset+0x33333200>
800026d4:	03df0fb3          	mul	t6,t5,t4
800026d8:	3bf42823          	sw	t6,944(s0)
800026dc:	eb8524b7          	lui	s1,0xeb852
800026e0:	eb848493          	addi	s1,s1,-328 # eb851eb8 <imm12+0xeb8523e8>
800026e4:	01f48463          	beq	s1,t6,800026ec <inst_262>
800026e8:	1c00306f          	j	800058a8 <bad_trap>

800026ec <inst_262>:
800026ec:	66666f37          	lui	t5,0x66666
800026f0:	666f0f13          	addi	t5,t5,1638 # 66666666 <absimm+0x21374137>
800026f4:	66666eb7          	lui	t4,0x66666
800026f8:	667e8e93          	addi	t4,t4,1639 # 66666667 <absimm+0x21374138>
800026fc:	03df0fb3          	mul	t6,t5,t4
80002700:	3bf42a23          	sw	t6,948(s0)
80002704:	70a3d4b7          	lui	s1,0x70a3d
80002708:	70a48493          	addi	s1,s1,1802 # 70a3d70a <absimm+0x2b74b1db>
8000270c:	01f48463          	beq	s1,t6,80002714 <inst_263>
80002710:	1980306f          	j	800058a8 <bad_trap>

80002714 <inst_263>:
80002714:	66666f37          	lui	t5,0x66666
80002718:	666f0f13          	addi	t5,t5,1638 # 66666666 <absimm+0x21374137>
8000271c:	ffff5eb7          	lui	t4,0xffff5
80002720:	afde8e93          	addi	t4,t4,-1283 # ffff4afd <imm12+0xffff502d>
80002724:	03df0fb3          	mul	t6,t5,t4
80002728:	3bf42c23          	sw	t6,952(s0)
8000272c:	6666b4b7          	lui	s1,0x6666b
80002730:	ece48493          	addi	s1,s1,-306 # 6666aece <absimm+0x2137899f>
80002734:	01f48463          	beq	s1,t6,8000273c <inst_264>
80002738:	1700306f          	j	800058a8 <bad_trap>

8000273c <inst_264>:
8000273c:	66666f37          	lui	t5,0x66666
80002740:	666f0f13          	addi	t5,t5,1638 # 66666666 <absimm+0x21374137>
80002744:	0000beb7          	lui	t4,0xb
80002748:	505e8e93          	addi	t4,t4,1285 # b505 <offset+0xb3d1>
8000274c:	03df0fb3          	mul	t6,t5,t4
80002750:	3bf42e23          	sw	t6,956(s0)
80002754:	666624b7          	lui	s1,0x66662
80002758:	dfe48493          	addi	s1,s1,-514 # 66661dfe <absimm+0x2136f8cf>
8000275c:	01f48463          	beq	s1,t6,80002764 <inst_265>
80002760:	1480306f          	j	800058a8 <bad_trap>

80002764 <inst_265>:
80002764:	ffff5f37          	lui	t5,0xffff5
80002768:	afcf0f13          	addi	t5,t5,-1284 # ffff4afc <imm12+0xffff502c>
8000276c:	00300e93          	li	t4,3
80002770:	03df0fb3          	mul	t6,t5,t4
80002774:	3df42023          	sw	t6,960(s0)
80002778:	fffde4b7          	lui	s1,0xfffde
8000277c:	0f448493          	addi	s1,s1,244 # fffde0f4 <imm12+0xfffde624>
80002780:	01f48463          	beq	s1,t6,80002788 <inst_266>
80002784:	1240306f          	j	800058a8 <bad_trap>

80002788 <inst_266>:
80002788:	ffff5f37          	lui	t5,0xffff5
8000278c:	afcf0f13          	addi	t5,t5,-1284 # ffff4afc <imm12+0xffff502c>
80002790:	55555eb7          	lui	t4,0x55555
80002794:	555e8e93          	addi	t4,t4,1365 # 55555555 <absimm+0x10263026>
80002798:	03df0fb3          	mul	t6,t5,t4
8000279c:	3df42223          	sw	t6,964(s0)
800027a0:	555594b7          	lui	s1,0x55559
800027a4:	1ac48493          	addi	s1,s1,428 # 555591ac <absimm+0x10266c7d>
800027a8:	01f48463          	beq	s1,t6,800027b0 <inst_267>
800027ac:	0fc0306f          	j	800058a8 <bad_trap>

800027b0 <inst_267>:
800027b0:	ffff5f37          	lui	t5,0xffff5
800027b4:	afcf0f13          	addi	t5,t5,-1284 # ffff4afc <imm12+0xffff502c>
800027b8:	aaaabeb7          	lui	t4,0xaaaab
800027bc:	aaae8e93          	addi	t4,t4,-1366 # aaaaaaaa <imm12+0xaaaaafda>
800027c0:	03df0fb3          	mul	t6,t5,t4
800027c4:	3df42423          	sw	t6,968(s0)
800027c8:	aaab24b7          	lui	s1,0xaaab2
800027cc:	35848493          	addi	s1,s1,856 # aaab2358 <imm12+0xaaab2888>
800027d0:	01f48463          	beq	s1,t6,800027d8 <inst_268>
800027d4:	0d40306f          	j	800058a8 <bad_trap>

800027d8 <inst_268>:
800027d8:	ffff5f37          	lui	t5,0xffff5
800027dc:	afcf0f13          	addi	t5,t5,-1284 # ffff4afc <imm12+0xffff502c>
800027e0:	00500e93          	li	t4,5
800027e4:	03df0fb3          	mul	t6,t5,t4
800027e8:	3df42623          	sw	t6,972(s0)
800027ec:	fffc74b7          	lui	s1,0xfffc7
800027f0:	6ec48493          	addi	s1,s1,1772 # fffc76ec <imm12+0xfffc7c1c>
800027f4:	01f48463          	beq	s1,t6,800027fc <inst_269>
800027f8:	0b00306f          	j	800058a8 <bad_trap>

800027fc <inst_269>:
800027fc:	ffff5f37          	lui	t5,0xffff5
80002800:	afcf0f13          	addi	t5,t5,-1284 # ffff4afc <imm12+0xffff502c>
80002804:	33333eb7          	lui	t4,0x33333
80002808:	333e8e93          	addi	t4,t4,819 # 33333333 <offset+0x333331ff>
8000280c:	03df0fb3          	mul	t6,t5,t4
80002810:	3df42823          	sw	t6,976(s0)
80002814:	000024b7          	lui	s1,0x2
80002818:	43448493          	addi	s1,s1,1076 # 2434 <offset+0x2300>
8000281c:	01f48463          	beq	s1,t6,80002824 <inst_270>
80002820:	0880306f          	j	800058a8 <bad_trap>

80002824 <inst_270>:
80002824:	ffff5f37          	lui	t5,0xffff5
80002828:	afcf0f13          	addi	t5,t5,-1284 # ffff4afc <imm12+0xffff502c>
8000282c:	66666eb7          	lui	t4,0x66666
80002830:	666e8e93          	addi	t4,t4,1638 # 66666666 <absimm+0x21374137>
80002834:	03df0fb3          	mul	t6,t5,t4
80002838:	3df42a23          	sw	t6,980(s0)
8000283c:	000054b7          	lui	s1,0x5
80002840:	86848493          	addi	s1,s1,-1944 # 4868 <offset+0x4734>
80002844:	01f48463          	beq	s1,t6,8000284c <inst_271>
80002848:	0600306f          	j	800058a8 <bad_trap>

8000284c <inst_271>:
8000284c:	ffff5f37          	lui	t5,0xffff5
80002850:	afcf0f13          	addi	t5,t5,-1284 # ffff4afc <imm12+0xffff502c>
80002854:	ffff5eb7          	lui	t4,0xffff5
80002858:	afce8e93          	addi	t4,t4,-1284 # ffff4afc <imm12+0xffff502c>
8000285c:	03df0fb3          	mul	t6,t5,t4
80002860:	3df42c23          	sw	t6,984(s0)
80002864:	7ffeb4b7          	lui	s1,0x7ffeb
80002868:	81048493          	addi	s1,s1,-2032 # 7ffea810 <absimm+0x3acf82e1>
8000286c:	01f48463          	beq	s1,t6,80002874 <inst_272>
80002870:	0380306f          	j	800058a8 <bad_trap>

80002874 <inst_272>:
80002874:	ffff5f37          	lui	t5,0xffff5
80002878:	afcf0f13          	addi	t5,t5,-1284 # ffff4afc <imm12+0xffff502c>
8000287c:	0000beb7          	lui	t4,0xb
80002880:	504e8e93          	addi	t4,t4,1284 # b504 <offset+0xb3d0>
80002884:	03df0fb3          	mul	t6,t5,t4
80002888:	3df42e23          	sw	t6,988(s0)
8000288c:	800154b7          	lui	s1,0x80015
80002890:	7f048493          	addi	s1,s1,2032 # 800157f0 <imm12+0x80015d20>
80002894:	01f48463          	beq	s1,t6,8000289c <inst_273>
80002898:	0100306f          	j	800058a8 <bad_trap>

8000289c <inst_273>:
8000289c:	ffff5f37          	lui	t5,0xffff5
800028a0:	afcf0f13          	addi	t5,t5,-1284 # ffff4afc <imm12+0xffff502c>
800028a4:	00200e93          	li	t4,2
800028a8:	03df0fb3          	mul	t6,t5,t4
800028ac:	3ff42023          	sw	t6,992(s0)
800028b0:	fffe94b7          	lui	s1,0xfffe9
800028b4:	5f848493          	addi	s1,s1,1528 # fffe95f8 <imm12+0xfffe9b28>
800028b8:	01f48463          	beq	s1,t6,800028c0 <inst_274>
800028bc:	7ed0206f          	j	800058a8 <bad_trap>

800028c0 <inst_274>:
800028c0:	ffff5f37          	lui	t5,0xffff5
800028c4:	afcf0f13          	addi	t5,t5,-1284 # ffff4afc <imm12+0xffff502c>
800028c8:	55555eb7          	lui	t4,0x55555
800028cc:	554e8e93          	addi	t4,t4,1364 # 55555554 <absimm+0x10263025>
800028d0:	03df0fb3          	mul	t6,t5,t4
800028d4:	3ff42223          	sw	t6,996(s0)
800028d8:	555644b7          	lui	s1,0x55564
800028dc:	6b048493          	addi	s1,s1,1712 # 555646b0 <absimm+0x10272181>
800028e0:	01f48463          	beq	s1,t6,800028e8 <inst_275>
800028e4:	7c50206f          	j	800058a8 <bad_trap>

800028e8 <inst_275>:
800028e8:	ffff5f37          	lui	t5,0xffff5
800028ec:	afcf0f13          	addi	t5,t5,-1284 # ffff4afc <imm12+0xffff502c>
800028f0:	33333eb7          	lui	t4,0x33333
800028f4:	332e8e93          	addi	t4,t4,818 # 33333332 <offset+0x333331fe>
800028f8:	03df0fb3          	mul	t6,t5,t4
800028fc:	3ff42423          	sw	t6,1000(s0)
80002900:	0000e4b7          	lui	s1,0xe
80002904:	93848493          	addi	s1,s1,-1736 # d938 <offset+0xd804>
80002908:	01f48463          	beq	s1,t6,80002910 <inst_276>
8000290c:	79d0206f          	j	800058a8 <bad_trap>

80002910 <inst_276>:
80002910:	ffff5f37          	lui	t5,0xffff5
80002914:	afcf0f13          	addi	t5,t5,-1284 # ffff4afc <imm12+0xffff502c>
80002918:	66666eb7          	lui	t4,0x66666
8000291c:	665e8e93          	addi	t4,t4,1637 # 66666665 <absimm+0x21374136>
80002920:	03df0fb3          	mul	t6,t5,t4
80002924:	3ff42623          	sw	t6,1004(s0)
80002928:	000104b7          	lui	s1,0x10
8000292c:	d6c48493          	addi	s1,s1,-660 # fd6c <offset+0xfc38>
80002930:	01f48463          	beq	s1,t6,80002938 <inst_277>
80002934:	7750206f          	j	800058a8 <bad_trap>

80002938 <inst_277>:
80002938:	ffff5f37          	lui	t5,0xffff5
8000293c:	afcf0f13          	addi	t5,t5,-1284 # ffff4afc <imm12+0xffff502c>
80002940:	00000e93          	li	t4,0
80002944:	03df0fb3          	mul	t6,t5,t4
80002948:	3ff42823          	sw	t6,1008(s0)
8000294c:	00000493          	li	s1,0
80002950:	01f48463          	beq	s1,t6,80002958 <inst_278>
80002954:	7550206f          	j	800058a8 <bad_trap>

80002958 <inst_278>:
80002958:	ffff5f37          	lui	t5,0xffff5
8000295c:	afcf0f13          	addi	t5,t5,-1284 # ffff4afc <imm12+0xffff502c>
80002960:	0000beb7          	lui	t4,0xb
80002964:	503e8e93          	addi	t4,t4,1283 # b503 <offset+0xb3cf>
80002968:	03df0fb3          	mul	t6,t5,t4
8000296c:	3ff42a23          	sw	t6,1012(s0)
80002970:	800214b7          	lui	s1,0x80021
80002974:	cf448493          	addi	s1,s1,-780 # 80020cf4 <imm12+0x80021224>
80002978:	01f48463          	beq	s1,t6,80002980 <inst_279>
8000297c:	72d0206f          	j	800058a8 <bad_trap>

80002980 <inst_279>:
80002980:	ffff5f37          	lui	t5,0xffff5
80002984:	afcf0f13          	addi	t5,t5,-1284 # ffff4afc <imm12+0xffff502c>
80002988:	00400e93          	li	t4,4
8000298c:	03df0fb3          	mul	t6,t5,t4
80002990:	3ff42c23          	sw	t6,1016(s0)
80002994:	fffd34b7          	lui	s1,0xfffd3
80002998:	bf048493          	addi	s1,s1,-1040 # fffd2bf0 <imm12+0xfffd3120>
8000299c:	01f48463          	beq	s1,t6,800029a4 <inst_280>
800029a0:	7090206f          	j	800058a8 <bad_trap>

800029a4 <inst_280>:
800029a4:	ffff5f37          	lui	t5,0xffff5
800029a8:	afcf0f13          	addi	t5,t5,-1284 # ffff4afc <imm12+0xffff502c>
800029ac:	55555eb7          	lui	t4,0x55555
800029b0:	556e8e93          	addi	t4,t4,1366 # 55555556 <absimm+0x10263027>
800029b4:	03df0fb3          	mul	t6,t5,t4
800029b8:	3ff42e23          	sw	t6,1020(s0)
800029bc:	5554e4b7          	lui	s1,0x5554e
800029c0:	ca848493          	addi	s1,s1,-856 # 5554dca8 <absimm+0x1025b779>
800029c4:	01f48463          	beq	s1,t6,800029cc <inst_280+0x28>
800029c8:	6e10206f          	j	800058a8 <bad_trap>
800029cc:	00000013          	nop
800029d0:	00000013          	nop
800029d4:	00000013          	nop
800029d8:	00000013          	nop
800029dc:	00000013          	nop
800029e0:	00005417          	auipc	s0,0x5
800029e4:	a8840413          	addi	s0,s0,-1400 # 80007468 <signature_x8_1>
800029e8:	00000013          	nop
800029ec:	00000013          	nop
800029f0:	00000013          	nop
800029f4:	00000013          	nop
800029f8:	00000013          	nop
800029fc:	00000013          	nop

80002a00 <inst_281>:
80002a00:	ffff5f37          	lui	t5,0xffff5
80002a04:	afcf0f13          	addi	t5,t5,-1284 # ffff4afc <imm12+0xffff502c>
80002a08:	aaaabeb7          	lui	t4,0xaaaab
80002a0c:	aabe8e93          	addi	t4,t4,-1365 # aaaaaaab <imm12+0xaaaaafdb>
80002a10:	03df0fb3          	mul	t6,t5,t4
80002a14:	01f42023          	sw	t6,0(s0)
80002a18:	aaaa74b7          	lui	s1,0xaaaa7
80002a1c:	e5448493          	addi	s1,s1,-428 # aaaa6e54 <imm12+0xaaaa7384>
80002a20:	01f48463          	beq	s1,t6,80002a28 <inst_282>
80002a24:	6850206f          	j	800058a8 <bad_trap>

80002a28 <inst_282>:
80002a28:	ffff5f37          	lui	t5,0xffff5
80002a2c:	afcf0f13          	addi	t5,t5,-1284 # ffff4afc <imm12+0xffff502c>
80002a30:	00600e93          	li	t4,6
80002a34:	03df0fb3          	mul	t6,t5,t4
80002a38:	01f42223          	sw	t6,4(s0)
80002a3c:	fffbc4b7          	lui	s1,0xfffbc
80002a40:	1e848493          	addi	s1,s1,488 # fffbc1e8 <imm12+0xfffbc718>
80002a44:	01f48463          	beq	s1,t6,80002a4c <inst_283>
80002a48:	6610206f          	j	800058a8 <bad_trap>

80002a4c <inst_283>:
80002a4c:	ffff5f37          	lui	t5,0xffff5
80002a50:	afcf0f13          	addi	t5,t5,-1284 # ffff4afc <imm12+0xffff502c>
80002a54:	33333eb7          	lui	t4,0x33333
80002a58:	334e8e93          	addi	t4,t4,820 # 33333334 <offset+0x33333200>
80002a5c:	03df0fb3          	mul	t6,t5,t4
80002a60:	01f42423          	sw	t6,8(s0)
80002a64:	ffff74b7          	lui	s1,0xffff7
80002a68:	f3048493          	addi	s1,s1,-208 # ffff6f30 <imm12+0xffff7460>
80002a6c:	01f48463          	beq	s1,t6,80002a74 <inst_284>
80002a70:	6390206f          	j	800058a8 <bad_trap>

80002a74 <inst_284>:
80002a74:	ffff5f37          	lui	t5,0xffff5
80002a78:	afcf0f13          	addi	t5,t5,-1284 # ffff4afc <imm12+0xffff502c>
80002a7c:	66666eb7          	lui	t4,0x66666
80002a80:	667e8e93          	addi	t4,t4,1639 # 66666667 <absimm+0x21374138>
80002a84:	03df0fb3          	mul	t6,t5,t4
80002a88:	01f42623          	sw	t6,12(s0)
80002a8c:	ffff94b7          	lui	s1,0xffff9
80002a90:	36448493          	addi	s1,s1,868 # ffff9364 <imm12+0xffff9894>
80002a94:	01f48463          	beq	s1,t6,80002a9c <inst_285>
80002a98:	6110206f          	j	800058a8 <bad_trap>

80002a9c <inst_285>:
80002a9c:	ffff5f37          	lui	t5,0xffff5
80002aa0:	afcf0f13          	addi	t5,t5,-1284 # ffff4afc <imm12+0xffff502c>
80002aa4:	ffff5eb7          	lui	t4,0xffff5
80002aa8:	afde8e93          	addi	t4,t4,-1283 # ffff4afd <imm12+0xffff502d>
80002aac:	03df0fb3          	mul	t6,t5,t4
80002ab0:	01f42823          	sw	t6,16(s0)
80002ab4:	7ffdf4b7          	lui	s1,0x7ffdf
80002ab8:	30c48493          	addi	s1,s1,780 # 7ffdf30c <absimm+0x3acecddd>
80002abc:	01f48463          	beq	s1,t6,80002ac4 <inst_286>
80002ac0:	5e90206f          	j	800058a8 <bad_trap>

80002ac4 <inst_286>:
80002ac4:	ffff5f37          	lui	t5,0xffff5
80002ac8:	afcf0f13          	addi	t5,t5,-1284 # ffff4afc <imm12+0xffff502c>
80002acc:	0000beb7          	lui	t4,0xb
80002ad0:	505e8e93          	addi	t4,t4,1285 # b505 <offset+0xb3d1>
80002ad4:	03df0fb3          	mul	t6,t5,t4
80002ad8:	01f42a23          	sw	t6,20(s0)
80002adc:	8000a4b7          	lui	s1,0x8000a
80002ae0:	2ec48493          	addi	s1,s1,748 # 8000a2ec <imm12+0x8000a81c>
80002ae4:	01f48463          	beq	s1,t6,80002aec <inst_287>
80002ae8:	5c10206f          	j	800058a8 <bad_trap>

80002aec <inst_287>:
80002aec:	0000bf37          	lui	t5,0xb
80002af0:	504f0f13          	addi	t5,t5,1284 # b504 <offset+0xb3d0>
80002af4:	00300e93          	li	t4,3
80002af8:	03df0fb3          	mul	t6,t5,t4
80002afc:	01f42c23          	sw	t6,24(s0)
80002b00:	000224b7          	lui	s1,0x22
80002b04:	f0c48493          	addi	s1,s1,-244 # 21f0c <offset+0x21dd8>
80002b08:	01f48463          	beq	s1,t6,80002b10 <inst_288>
80002b0c:	59d0206f          	j	800058a8 <bad_trap>

80002b10 <inst_288>:
80002b10:	0000bf37          	lui	t5,0xb
80002b14:	504f0f13          	addi	t5,t5,1284 # b504 <offset+0xb3d0>
80002b18:	55555eb7          	lui	t4,0x55555
80002b1c:	555e8e93          	addi	t4,t4,1365 # 55555555 <absimm+0x10263026>
80002b20:	03df0fb3          	mul	t6,t5,t4
80002b24:	01f42e23          	sw	t6,28(s0)
80002b28:	aaaa74b7          	lui	s1,0xaaaa7
80002b2c:	e5448493          	addi	s1,s1,-428 # aaaa6e54 <imm12+0xaaaa7384>
80002b30:	01f48463          	beq	s1,t6,80002b38 <inst_289>
80002b34:	5750206f          	j	800058a8 <bad_trap>

80002b38 <inst_289>:
80002b38:	0000bf37          	lui	t5,0xb
80002b3c:	504f0f13          	addi	t5,t5,1284 # b504 <offset+0xb3d0>
80002b40:	aaaabeb7          	lui	t4,0xaaaab
80002b44:	aaae8e93          	addi	t4,t4,-1366 # aaaaaaaa <imm12+0xaaaaafda>
80002b48:	03df0fb3          	mul	t6,t5,t4
80002b4c:	03f42023          	sw	t6,32(s0)
80002b50:	5554e4b7          	lui	s1,0x5554e
80002b54:	ca848493          	addi	s1,s1,-856 # 5554dca8 <absimm+0x1025b779>
80002b58:	01f48463          	beq	s1,t6,80002b60 <inst_290>
80002b5c:	54d0206f          	j	800058a8 <bad_trap>

80002b60 <inst_290>:
80002b60:	0000bf37          	lui	t5,0xb
80002b64:	504f0f13          	addi	t5,t5,1284 # b504 <offset+0xb3d0>
80002b68:	00500e93          	li	t4,5
80002b6c:	03df0fb3          	mul	t6,t5,t4
80002b70:	03f42223          	sw	t6,36(s0)
80002b74:	000394b7          	lui	s1,0x39
80002b78:	91448493          	addi	s1,s1,-1772 # 38914 <offset+0x387e0>
80002b7c:	01f48463          	beq	s1,t6,80002b84 <inst_291>
80002b80:	5290206f          	j	800058a8 <bad_trap>

80002b84 <inst_291>:
80002b84:	0000bf37          	lui	t5,0xb
80002b88:	504f0f13          	addi	t5,t5,1284 # b504 <offset+0xb3d0>
80002b8c:	33333eb7          	lui	t4,0x33333
80002b90:	333e8e93          	addi	t4,t4,819 # 33333333 <offset+0x333331ff>
80002b94:	03df0fb3          	mul	t6,t5,t4
80002b98:	03f42423          	sw	t6,40(s0)
80002b9c:	ffffe4b7          	lui	s1,0xffffe
80002ba0:	bcc48493          	addi	s1,s1,-1076 # ffffdbcc <imm12+0xffffe0fc>
80002ba4:	01f48463          	beq	s1,t6,80002bac <inst_292>
80002ba8:	5010206f          	j	800058a8 <bad_trap>

80002bac <inst_292>:
80002bac:	0000bf37          	lui	t5,0xb
80002bb0:	504f0f13          	addi	t5,t5,1284 # b504 <offset+0xb3d0>
80002bb4:	66666eb7          	lui	t4,0x66666
80002bb8:	666e8e93          	addi	t4,t4,1638 # 66666666 <absimm+0x21374137>
80002bbc:	03df0fb3          	mul	t6,t5,t4
80002bc0:	03f42623          	sw	t6,44(s0)
80002bc4:	ffffb4b7          	lui	s1,0xffffb
80002bc8:	79848493          	addi	s1,s1,1944 # ffffb798 <imm12+0xffffbcc8>
80002bcc:	01f48463          	beq	s1,t6,80002bd4 <inst_293>
80002bd0:	4d90206f          	j	800058a8 <bad_trap>

80002bd4 <inst_293>:
80002bd4:	0000bf37          	lui	t5,0xb
80002bd8:	504f0f13          	addi	t5,t5,1284 # b504 <offset+0xb3d0>
80002bdc:	ffff5eb7          	lui	t4,0xffff5
80002be0:	afce8e93          	addi	t4,t4,-1284 # ffff4afc <imm12+0xffff502c>
80002be4:	03df0fb3          	mul	t6,t5,t4
80002be8:	03f42823          	sw	t6,48(s0)
80002bec:	800154b7          	lui	s1,0x80015
80002bf0:	7f048493          	addi	s1,s1,2032 # 800157f0 <imm12+0x80015d20>
80002bf4:	01f48463          	beq	s1,t6,80002bfc <inst_294>
80002bf8:	4b10206f          	j	800058a8 <bad_trap>

80002bfc <inst_294>:
80002bfc:	0000bf37          	lui	t5,0xb
80002c00:	504f0f13          	addi	t5,t5,1284 # b504 <offset+0xb3d0>
80002c04:	0000beb7          	lui	t4,0xb
80002c08:	504e8e93          	addi	t4,t4,1284 # b504 <offset+0xb3d0>
80002c0c:	03df0fb3          	mul	t6,t5,t4
80002c10:	03f42a23          	sw	t6,52(s0)
80002c14:	7ffeb4b7          	lui	s1,0x7ffeb
80002c18:	81048493          	addi	s1,s1,-2032 # 7ffea810 <absimm+0x3acf82e1>
80002c1c:	01f48463          	beq	s1,t6,80002c24 <inst_295>
80002c20:	4890206f          	j	800058a8 <bad_trap>

80002c24 <inst_295>:
80002c24:	0000bf37          	lui	t5,0xb
80002c28:	504f0f13          	addi	t5,t5,1284 # b504 <offset+0xb3d0>
80002c2c:	00200e93          	li	t4,2
80002c30:	03df0fb3          	mul	t6,t5,t4
80002c34:	03f42c23          	sw	t6,56(s0)
80002c38:	000174b7          	lui	s1,0x17
80002c3c:	a0848493          	addi	s1,s1,-1528 # 16a08 <offset+0x168d4>
80002c40:	01f48463          	beq	s1,t6,80002c48 <inst_296>
80002c44:	4650206f          	j	800058a8 <bad_trap>

80002c48 <inst_296>:
80002c48:	0000bf37          	lui	t5,0xb
80002c4c:	504f0f13          	addi	t5,t5,1284 # b504 <offset+0xb3d0>
80002c50:	55555eb7          	lui	t4,0x55555
80002c54:	554e8e93          	addi	t4,t4,1364 # 55555554 <absimm+0x10263025>
80002c58:	03df0fb3          	mul	t6,t5,t4
80002c5c:	03f42e23          	sw	t6,60(s0)
80002c60:	aaa9c4b7          	lui	s1,0xaaa9c
80002c64:	95048493          	addi	s1,s1,-1712 # aaa9b950 <imm12+0xaaa9be80>
80002c68:	01f48463          	beq	s1,t6,80002c70 <inst_297>
80002c6c:	43d0206f          	j	800058a8 <bad_trap>

80002c70 <inst_297>:
80002c70:	0000bf37          	lui	t5,0xb
80002c74:	504f0f13          	addi	t5,t5,1284 # b504 <offset+0xb3d0>
80002c78:	33333eb7          	lui	t4,0x33333
80002c7c:	332e8e93          	addi	t4,t4,818 # 33333332 <offset+0x333331fe>
80002c80:	03df0fb3          	mul	t6,t5,t4
80002c84:	05f42023          	sw	t6,64(s0)
80002c88:	ffff24b7          	lui	s1,0xffff2
80002c8c:	6c848493          	addi	s1,s1,1736 # ffff26c8 <imm12+0xffff2bf8>
80002c90:	01f48463          	beq	s1,t6,80002c98 <inst_298>
80002c94:	4150206f          	j	800058a8 <bad_trap>

80002c98 <inst_298>:
80002c98:	0000bf37          	lui	t5,0xb
80002c9c:	504f0f13          	addi	t5,t5,1284 # b504 <offset+0xb3d0>
80002ca0:	66666eb7          	lui	t4,0x66666
80002ca4:	665e8e93          	addi	t4,t4,1637 # 66666665 <absimm+0x21374136>
80002ca8:	03df0fb3          	mul	t6,t5,t4
80002cac:	05f42223          	sw	t6,68(s0)
80002cb0:	ffff04b7          	lui	s1,0xffff0
80002cb4:	29448493          	addi	s1,s1,660 # ffff0294 <imm12+0xffff07c4>
80002cb8:	01f48463          	beq	s1,t6,80002cc0 <inst_299>
80002cbc:	3ed0206f          	j	800058a8 <bad_trap>

80002cc0 <inst_299>:
80002cc0:	0000bf37          	lui	t5,0xb
80002cc4:	504f0f13          	addi	t5,t5,1284 # b504 <offset+0xb3d0>
80002cc8:	00000e93          	li	t4,0
80002ccc:	03df0fb3          	mul	t6,t5,t4
80002cd0:	05f42423          	sw	t6,72(s0)
80002cd4:	00000493          	li	s1,0
80002cd8:	01f48463          	beq	s1,t6,80002ce0 <inst_300>
80002cdc:	3cd0206f          	j	800058a8 <bad_trap>

80002ce0 <inst_300>:
80002ce0:	0000bf37          	lui	t5,0xb
80002ce4:	504f0f13          	addi	t5,t5,1284 # b504 <offset+0xb3d0>
80002ce8:	0000beb7          	lui	t4,0xb
80002cec:	503e8e93          	addi	t4,t4,1283 # b503 <offset+0xb3cf>
80002cf0:	03df0fb3          	mul	t6,t5,t4
80002cf4:	05f42623          	sw	t6,76(s0)
80002cf8:	7ffdf4b7          	lui	s1,0x7ffdf
80002cfc:	30c48493          	addi	s1,s1,780 # 7ffdf30c <absimm+0x3acecddd>
80002d00:	01f48463          	beq	s1,t6,80002d08 <inst_301>
80002d04:	3a50206f          	j	800058a8 <bad_trap>

80002d08 <inst_301>:
80002d08:	0000bf37          	lui	t5,0xb
80002d0c:	504f0f13          	addi	t5,t5,1284 # b504 <offset+0xb3d0>
80002d10:	00400e93          	li	t4,4
80002d14:	03df0fb3          	mul	t6,t5,t4
80002d18:	05f42823          	sw	t6,80(s0)
80002d1c:	0002d4b7          	lui	s1,0x2d
80002d20:	41048493          	addi	s1,s1,1040 # 2d410 <offset+0x2d2dc>
80002d24:	01f48463          	beq	s1,t6,80002d2c <inst_302>
80002d28:	3810206f          	j	800058a8 <bad_trap>

80002d2c <inst_302>:
80002d2c:	0000bf37          	lui	t5,0xb
80002d30:	504f0f13          	addi	t5,t5,1284 # b504 <offset+0xb3d0>
80002d34:	55555eb7          	lui	t4,0x55555
80002d38:	556e8e93          	addi	t4,t4,1366 # 55555556 <absimm+0x10263027>
80002d3c:	03df0fb3          	mul	t6,t5,t4
80002d40:	05f42a23          	sw	t6,84(s0)
80002d44:	aaab24b7          	lui	s1,0xaaab2
80002d48:	35848493          	addi	s1,s1,856 # aaab2358 <imm12+0xaaab2888>
80002d4c:	01f48463          	beq	s1,t6,80002d54 <inst_303>
80002d50:	3590206f          	j	800058a8 <bad_trap>

80002d54 <inst_303>:
80002d54:	0000bf37          	lui	t5,0xb
80002d58:	504f0f13          	addi	t5,t5,1284 # b504 <offset+0xb3d0>
80002d5c:	aaaabeb7          	lui	t4,0xaaaab
80002d60:	aabe8e93          	addi	t4,t4,-1365 # aaaaaaab <imm12+0xaaaaafdb>
80002d64:	03df0fb3          	mul	t6,t5,t4
80002d68:	05f42c23          	sw	t6,88(s0)
80002d6c:	555594b7          	lui	s1,0x55559
80002d70:	1ac48493          	addi	s1,s1,428 # 555591ac <absimm+0x10266c7d>
80002d74:	01f48463          	beq	s1,t6,80002d7c <inst_304>
80002d78:	3310206f          	j	800058a8 <bad_trap>

80002d7c <inst_304>:
80002d7c:	0000bf37          	lui	t5,0xb
80002d80:	504f0f13          	addi	t5,t5,1284 # b504 <offset+0xb3d0>
80002d84:	00600e93          	li	t4,6
80002d88:	03df0fb3          	mul	t6,t5,t4
80002d8c:	05f42e23          	sw	t6,92(s0)
80002d90:	000444b7          	lui	s1,0x44
80002d94:	e1848493          	addi	s1,s1,-488 # 43e18 <offset+0x43ce4>
80002d98:	01f48463          	beq	s1,t6,80002da0 <inst_305>
80002d9c:	30d0206f          	j	800058a8 <bad_trap>

80002da0 <inst_305>:
80002da0:	0000bf37          	lui	t5,0xb
80002da4:	504f0f13          	addi	t5,t5,1284 # b504 <offset+0xb3d0>
80002da8:	33333eb7          	lui	t4,0x33333
80002dac:	334e8e93          	addi	t4,t4,820 # 33333334 <offset+0x33333200>
80002db0:	03df0fb3          	mul	t6,t5,t4
80002db4:	07f42023          	sw	t6,96(s0)
80002db8:	000094b7          	lui	s1,0x9
80002dbc:	0d048493          	addi	s1,s1,208 # 90d0 <offset+0x8f9c>
80002dc0:	01f48463          	beq	s1,t6,80002dc8 <inst_306>
80002dc4:	2e50206f          	j	800058a8 <bad_trap>

80002dc8 <inst_306>:
80002dc8:	0000bf37          	lui	t5,0xb
80002dcc:	504f0f13          	addi	t5,t5,1284 # b504 <offset+0xb3d0>
80002dd0:	66666eb7          	lui	t4,0x66666
80002dd4:	667e8e93          	addi	t4,t4,1639 # 66666667 <absimm+0x21374138>
80002dd8:	03df0fb3          	mul	t6,t5,t4
80002ddc:	07f42223          	sw	t6,100(s0)
80002de0:	000074b7          	lui	s1,0x7
80002de4:	c9c48493          	addi	s1,s1,-868 # 6c9c <offset+0x6b68>
80002de8:	01f48463          	beq	s1,t6,80002df0 <inst_307>
80002dec:	2bd0206f          	j	800058a8 <bad_trap>

80002df0 <inst_307>:
80002df0:	0000bf37          	lui	t5,0xb
80002df4:	504f0f13          	addi	t5,t5,1284 # b504 <offset+0xb3d0>
80002df8:	ffff5eb7          	lui	t4,0xffff5
80002dfc:	afde8e93          	addi	t4,t4,-1283 # ffff4afd <imm12+0xffff502d>
80002e00:	03df0fb3          	mul	t6,t5,t4
80002e04:	07f42423          	sw	t6,104(s0)
80002e08:	800214b7          	lui	s1,0x80021
80002e0c:	cf448493          	addi	s1,s1,-780 # 80020cf4 <imm12+0x80021224>
80002e10:	01f48463          	beq	s1,t6,80002e18 <inst_308>
80002e14:	2950206f          	j	800058a8 <bad_trap>

80002e18 <inst_308>:
80002e18:	0000bf37          	lui	t5,0xb
80002e1c:	504f0f13          	addi	t5,t5,1284 # b504 <offset+0xb3d0>
80002e20:	0000beb7          	lui	t4,0xb
80002e24:	505e8e93          	addi	t4,t4,1285 # b505 <offset+0xb3d1>
80002e28:	03df0fb3          	mul	t6,t5,t4
80002e2c:	07f42623          	sw	t6,108(s0)
80002e30:	7fff64b7          	lui	s1,0x7fff6
80002e34:	d1448493          	addi	s1,s1,-748 # 7fff5d14 <absimm+0x3ad037e5>
80002e38:	01f48463          	beq	s1,t6,80002e40 <inst_309>
80002e3c:	26d0206f          	j	800058a8 <bad_trap>

80002e40 <inst_309>:
80002e40:	00200f13          	li	t5,2
80002e44:	00300e93          	li	t4,3
80002e48:	03df0fb3          	mul	t6,t5,t4
80002e4c:	07f42823          	sw	t6,112(s0)
80002e50:	00600493          	li	s1,6
80002e54:	01f48463          	beq	s1,t6,80002e5c <inst_310>
80002e58:	2510206f          	j	800058a8 <bad_trap>

80002e5c <inst_310>:
80002e5c:	00200f13          	li	t5,2
80002e60:	55555eb7          	lui	t4,0x55555
80002e64:	555e8e93          	addi	t4,t4,1365 # 55555555 <absimm+0x10263026>
80002e68:	03df0fb3          	mul	t6,t5,t4
80002e6c:	07f42a23          	sw	t6,116(s0)
80002e70:	aaaab4b7          	lui	s1,0xaaaab
80002e74:	aaa48493          	addi	s1,s1,-1366 # aaaaaaaa <imm12+0xaaaaafda>
80002e78:	01f48463          	beq	s1,t6,80002e80 <inst_311>
80002e7c:	22d0206f          	j	800058a8 <bad_trap>

80002e80 <inst_311>:
80002e80:	00200f13          	li	t5,2
80002e84:	aaaabeb7          	lui	t4,0xaaaab
80002e88:	aaae8e93          	addi	t4,t4,-1366 # aaaaaaaa <imm12+0xaaaaafda>
80002e8c:	03df0fb3          	mul	t6,t5,t4
80002e90:	07f42c23          	sw	t6,120(s0)
80002e94:	555554b7          	lui	s1,0x55555
80002e98:	55448493          	addi	s1,s1,1364 # 55555554 <absimm+0x10263025>
80002e9c:	01f48463          	beq	s1,t6,80002ea4 <inst_312>
80002ea0:	2090206f          	j	800058a8 <bad_trap>

80002ea4 <inst_312>:
80002ea4:	00200f13          	li	t5,2
80002ea8:	00500e93          	li	t4,5
80002eac:	03df0fb3          	mul	t6,t5,t4
80002eb0:	07f42e23          	sw	t6,124(s0)
80002eb4:	00a00493          	li	s1,10
80002eb8:	01f48463          	beq	s1,t6,80002ec0 <inst_313>
80002ebc:	1ed0206f          	j	800058a8 <bad_trap>

80002ec0 <inst_313>:
80002ec0:	00200f13          	li	t5,2
80002ec4:	33333eb7          	lui	t4,0x33333
80002ec8:	333e8e93          	addi	t4,t4,819 # 33333333 <offset+0x333331ff>
80002ecc:	03df0fb3          	mul	t6,t5,t4
80002ed0:	09f42023          	sw	t6,128(s0)
80002ed4:	666664b7          	lui	s1,0x66666
80002ed8:	66648493          	addi	s1,s1,1638 # 66666666 <absimm+0x21374137>
80002edc:	01f48463          	beq	s1,t6,80002ee4 <inst_314>
80002ee0:	1c90206f          	j	800058a8 <bad_trap>

80002ee4 <inst_314>:
80002ee4:	00200f13          	li	t5,2
80002ee8:	66666eb7          	lui	t4,0x66666
80002eec:	666e8e93          	addi	t4,t4,1638 # 66666666 <absimm+0x21374137>
80002ef0:	03df0fb3          	mul	t6,t5,t4
80002ef4:	09f42223          	sw	t6,132(s0)
80002ef8:	ccccd4b7          	lui	s1,0xccccd
80002efc:	ccc48493          	addi	s1,s1,-820 # cccccccc <imm12+0xccccd1fc>
80002f00:	01f48463          	beq	s1,t6,80002f08 <inst_315>
80002f04:	1a50206f          	j	800058a8 <bad_trap>

80002f08 <inst_315>:
80002f08:	00200f13          	li	t5,2
80002f0c:	ffff5eb7          	lui	t4,0xffff5
80002f10:	afce8e93          	addi	t4,t4,-1284 # ffff4afc <imm12+0xffff502c>
80002f14:	03df0fb3          	mul	t6,t5,t4
80002f18:	09f42423          	sw	t6,136(s0)
80002f1c:	fffe94b7          	lui	s1,0xfffe9
80002f20:	5f848493          	addi	s1,s1,1528 # fffe95f8 <imm12+0xfffe9b28>
80002f24:	01f48463          	beq	s1,t6,80002f2c <inst_316>
80002f28:	1810206f          	j	800058a8 <bad_trap>

80002f2c <inst_316>:
80002f2c:	00200f13          	li	t5,2
80002f30:	0000beb7          	lui	t4,0xb
80002f34:	504e8e93          	addi	t4,t4,1284 # b504 <offset+0xb3d0>
80002f38:	03df0fb3          	mul	t6,t5,t4
80002f3c:	09f42623          	sw	t6,140(s0)
80002f40:	000174b7          	lui	s1,0x17
80002f44:	a0848493          	addi	s1,s1,-1528 # 16a08 <offset+0x168d4>
80002f48:	01f48463          	beq	s1,t6,80002f50 <inst_317>
80002f4c:	15d0206f          	j	800058a8 <bad_trap>

80002f50 <inst_317>:
80002f50:	00200f13          	li	t5,2
80002f54:	00200e93          	li	t4,2
80002f58:	03df0fb3          	mul	t6,t5,t4
80002f5c:	09f42823          	sw	t6,144(s0)
80002f60:	00400493          	li	s1,4
80002f64:	01f48463          	beq	s1,t6,80002f6c <inst_318>
80002f68:	1410206f          	j	800058a8 <bad_trap>

80002f6c <inst_318>:
80002f6c:	00200f13          	li	t5,2
80002f70:	55555eb7          	lui	t4,0x55555
80002f74:	554e8e93          	addi	t4,t4,1364 # 55555554 <absimm+0x10263025>
80002f78:	03df0fb3          	mul	t6,t5,t4
80002f7c:	09f42a23          	sw	t6,148(s0)
80002f80:	aaaab4b7          	lui	s1,0xaaaab
80002f84:	aa848493          	addi	s1,s1,-1368 # aaaaaaa8 <imm12+0xaaaaafd8>
80002f88:	01f48463          	beq	s1,t6,80002f90 <inst_319>
80002f8c:	11d0206f          	j	800058a8 <bad_trap>

80002f90 <inst_319>:
80002f90:	00200f13          	li	t5,2
80002f94:	33333eb7          	lui	t4,0x33333
80002f98:	332e8e93          	addi	t4,t4,818 # 33333332 <offset+0x333331fe>
80002f9c:	03df0fb3          	mul	t6,t5,t4
80002fa0:	09f42c23          	sw	t6,152(s0)
80002fa4:	666664b7          	lui	s1,0x66666
80002fa8:	66448493          	addi	s1,s1,1636 # 66666664 <absimm+0x21374135>
80002fac:	01f48463          	beq	s1,t6,80002fb4 <inst_320>
80002fb0:	0f90206f          	j	800058a8 <bad_trap>

80002fb4 <inst_320>:
80002fb4:	00200f13          	li	t5,2
80002fb8:	66666eb7          	lui	t4,0x66666
80002fbc:	665e8e93          	addi	t4,t4,1637 # 66666665 <absimm+0x21374136>
80002fc0:	03df0fb3          	mul	t6,t5,t4
80002fc4:	09f42e23          	sw	t6,156(s0)
80002fc8:	ccccd4b7          	lui	s1,0xccccd
80002fcc:	cca48493          	addi	s1,s1,-822 # ccccccca <imm12+0xccccd1fa>
80002fd0:	01f48463          	beq	s1,t6,80002fd8 <inst_321>
80002fd4:	0d50206f          	j	800058a8 <bad_trap>

80002fd8 <inst_321>:
80002fd8:	00200f13          	li	t5,2
80002fdc:	00000e93          	li	t4,0
80002fe0:	03df0fb3          	mul	t6,t5,t4
80002fe4:	0bf42023          	sw	t6,160(s0)
80002fe8:	00000493          	li	s1,0
80002fec:	01f48463          	beq	s1,t6,80002ff4 <inst_322>
80002ff0:	0b90206f          	j	800058a8 <bad_trap>

80002ff4 <inst_322>:
80002ff4:	00200f13          	li	t5,2
80002ff8:	0000beb7          	lui	t4,0xb
80002ffc:	503e8e93          	addi	t4,t4,1283 # b503 <offset+0xb3cf>
80003000:	03df0fb3          	mul	t6,t5,t4
80003004:	0bf42223          	sw	t6,164(s0)
80003008:	000174b7          	lui	s1,0x17
8000300c:	a0648493          	addi	s1,s1,-1530 # 16a06 <offset+0x168d2>
80003010:	01f48463          	beq	s1,t6,80003018 <inst_323>
80003014:	0950206f          	j	800058a8 <bad_trap>

80003018 <inst_323>:
80003018:	00200f13          	li	t5,2
8000301c:	00400e93          	li	t4,4
80003020:	03df0fb3          	mul	t6,t5,t4
80003024:	0bf42423          	sw	t6,168(s0)
80003028:	00800493          	li	s1,8
8000302c:	01f48463          	beq	s1,t6,80003034 <inst_324>
80003030:	0790206f          	j	800058a8 <bad_trap>

80003034 <inst_324>:
80003034:	00200f13          	li	t5,2
80003038:	55555eb7          	lui	t4,0x55555
8000303c:	556e8e93          	addi	t4,t4,1366 # 55555556 <absimm+0x10263027>
80003040:	03df0fb3          	mul	t6,t5,t4
80003044:	0bf42623          	sw	t6,172(s0)
80003048:	aaaab4b7          	lui	s1,0xaaaab
8000304c:	aac48493          	addi	s1,s1,-1364 # aaaaaaac <imm12+0xaaaaafdc>
80003050:	01f48463          	beq	s1,t6,80003058 <inst_325>
80003054:	0550206f          	j	800058a8 <bad_trap>

80003058 <inst_325>:
80003058:	00200f13          	li	t5,2
8000305c:	aaaabeb7          	lui	t4,0xaaaab
80003060:	aabe8e93          	addi	t4,t4,-1365 # aaaaaaab <imm12+0xaaaaafdb>
80003064:	03df0fb3          	mul	t6,t5,t4
80003068:	0bf42823          	sw	t6,176(s0)
8000306c:	555554b7          	lui	s1,0x55555
80003070:	55648493          	addi	s1,s1,1366 # 55555556 <absimm+0x10263027>
80003074:	01f48463          	beq	s1,t6,8000307c <inst_326>
80003078:	0310206f          	j	800058a8 <bad_trap>

8000307c <inst_326>:
8000307c:	00200f13          	li	t5,2
80003080:	00600e93          	li	t4,6
80003084:	03df0fb3          	mul	t6,t5,t4
80003088:	0bf42a23          	sw	t6,180(s0)
8000308c:	00c00493          	li	s1,12
80003090:	01f48463          	beq	s1,t6,80003098 <inst_327>
80003094:	0150206f          	j	800058a8 <bad_trap>

80003098 <inst_327>:
80003098:	00200f13          	li	t5,2
8000309c:	33333eb7          	lui	t4,0x33333
800030a0:	334e8e93          	addi	t4,t4,820 # 33333334 <offset+0x33333200>
800030a4:	03df0fb3          	mul	t6,t5,t4
800030a8:	0bf42c23          	sw	t6,184(s0)
800030ac:	666664b7          	lui	s1,0x66666
800030b0:	66848493          	addi	s1,s1,1640 # 66666668 <absimm+0x21374139>
800030b4:	01f48463          	beq	s1,t6,800030bc <inst_328>
800030b8:	7f00206f          	j	800058a8 <bad_trap>

800030bc <inst_328>:
800030bc:	00200f13          	li	t5,2
800030c0:	66666eb7          	lui	t4,0x66666
800030c4:	667e8e93          	addi	t4,t4,1639 # 66666667 <absimm+0x21374138>
800030c8:	03df0fb3          	mul	t6,t5,t4
800030cc:	0bf42e23          	sw	t6,188(s0)
800030d0:	ccccd4b7          	lui	s1,0xccccd
800030d4:	cce48493          	addi	s1,s1,-818 # ccccccce <imm12+0xccccd1fe>
800030d8:	01f48463          	beq	s1,t6,800030e0 <inst_329>
800030dc:	7cc0206f          	j	800058a8 <bad_trap>

800030e0 <inst_329>:
800030e0:	00200f13          	li	t5,2
800030e4:	ffff5eb7          	lui	t4,0xffff5
800030e8:	afde8e93          	addi	t4,t4,-1283 # ffff4afd <imm12+0xffff502d>
800030ec:	03df0fb3          	mul	t6,t5,t4
800030f0:	0df42023          	sw	t6,192(s0)
800030f4:	fffe94b7          	lui	s1,0xfffe9
800030f8:	5fa48493          	addi	s1,s1,1530 # fffe95fa <imm12+0xfffe9b2a>
800030fc:	01f48463          	beq	s1,t6,80003104 <inst_330>
80003100:	7a80206f          	j	800058a8 <bad_trap>

80003104 <inst_330>:
80003104:	55555f37          	lui	t5,0x55555
80003108:	554f0f13          	addi	t5,t5,1364 # 55555554 <absimm+0x10263025>
8000310c:	00300e93          	li	t4,3
80003110:	03df0fb3          	mul	t6,t5,t4
80003114:	0df42223          	sw	t6,196(s0)
80003118:	ffc00493          	li	s1,-4
8000311c:	01f48463          	beq	s1,t6,80003124 <inst_331>
80003120:	7880206f          	j	800058a8 <bad_trap>

80003124 <inst_331>:
80003124:	55555f37          	lui	t5,0x55555
80003128:	554f0f13          	addi	t5,t5,1364 # 55555554 <absimm+0x10263025>
8000312c:	55555eb7          	lui	t4,0x55555
80003130:	555e8e93          	addi	t4,t4,1365 # 55555555 <absimm+0x10263026>
80003134:	03df0fb3          	mul	t6,t5,t4
80003138:	0df42423          	sw	t6,200(s0)
8000313c:	e38e44b7          	lui	s1,0xe38e4
80003140:	8e448493          	addi	s1,s1,-1820 # e38e38e4 <imm12+0xe38e3e14>
80003144:	01f48463          	beq	s1,t6,8000314c <inst_332>
80003148:	7600206f          	j	800058a8 <bad_trap>

8000314c <inst_332>:
8000314c:	55555f37          	lui	t5,0x55555
80003150:	554f0f13          	addi	t5,t5,1364 # 55555554 <absimm+0x10263025>
80003154:	aaaabeb7          	lui	t4,0xaaaab
80003158:	aaae8e93          	addi	t4,t4,-1366 # aaaaaaaa <imm12+0xaaaaafda>
8000315c:	03df0fb3          	mul	t6,t5,t4
80003160:	0df42623          	sw	t6,204(s0)
80003164:	c71c74b7          	lui	s1,0xc71c7
80003168:	1c848493          	addi	s1,s1,456 # c71c71c8 <imm12+0xc71c76f8>
8000316c:	01f48463          	beq	s1,t6,80003174 <inst_333>
80003170:	7380206f          	j	800058a8 <bad_trap>

80003174 <inst_333>:
80003174:	55555f37          	lui	t5,0x55555
80003178:	554f0f13          	addi	t5,t5,1364 # 55555554 <absimm+0x10263025>
8000317c:	00500e93          	li	t4,5
80003180:	03df0fb3          	mul	t6,t5,t4
80003184:	0df42823          	sw	t6,208(s0)
80003188:	aaaab4b7          	lui	s1,0xaaaab
8000318c:	aa448493          	addi	s1,s1,-1372 # aaaaaaa4 <imm12+0xaaaaafd4>
80003190:	01f48463          	beq	s1,t6,80003198 <inst_334>
80003194:	7140206f          	j	800058a8 <bad_trap>

80003198 <inst_334>:
80003198:	55555f37          	lui	t5,0x55555
8000319c:	554f0f13          	addi	t5,t5,1364 # 55555554 <absimm+0x10263025>
800031a0:	33333eb7          	lui	t4,0x33333
800031a4:	333e8e93          	addi	t4,t4,819 # 33333333 <offset+0x333331ff>
800031a8:	03df0fb3          	mul	t6,t5,t4
800031ac:	0df42a23          	sw	t6,212(s0)
800031b0:	bbbbc4b7          	lui	s1,0xbbbbc
800031b4:	bbc48493          	addi	s1,s1,-1092 # bbbbbbbc <imm12+0xbbbbc0ec>
800031b8:	01f48463          	beq	s1,t6,800031c0 <inst_335>
800031bc:	6ec0206f          	j	800058a8 <bad_trap>

800031c0 <inst_335>:
800031c0:	55555f37          	lui	t5,0x55555
800031c4:	554f0f13          	addi	t5,t5,1364 # 55555554 <absimm+0x10263025>
800031c8:	66666eb7          	lui	t4,0x66666
800031cc:	666e8e93          	addi	t4,t4,1638 # 66666666 <absimm+0x21374137>
800031d0:	03df0fb3          	mul	t6,t5,t4
800031d4:	0df42c23          	sw	t6,216(s0)
800031d8:	777774b7          	lui	s1,0x77777
800031dc:	77848493          	addi	s1,s1,1912 # 77777778 <absimm+0x32485249>
800031e0:	01f48463          	beq	s1,t6,800031e8 <inst_336>
800031e4:	6c40206f          	j	800058a8 <bad_trap>

800031e8 <inst_336>:
800031e8:	55555f37          	lui	t5,0x55555
800031ec:	554f0f13          	addi	t5,t5,1364 # 55555554 <absimm+0x10263025>
800031f0:	ffff5eb7          	lui	t4,0xffff5
800031f4:	afce8e93          	addi	t4,t4,-1284 # ffff4afc <imm12+0xffff502c>
800031f8:	03df0fb3          	mul	t6,t5,t4
800031fc:	0df42e23          	sw	t6,220(s0)
80003200:	555644b7          	lui	s1,0x55564
80003204:	6b048493          	addi	s1,s1,1712 # 555646b0 <absimm+0x10272181>
80003208:	01f48463          	beq	s1,t6,80003210 <inst_337>
8000320c:	69c0206f          	j	800058a8 <bad_trap>

80003210 <inst_337>:
80003210:	55555f37          	lui	t5,0x55555
80003214:	554f0f13          	addi	t5,t5,1364 # 55555554 <absimm+0x10263025>
80003218:	0000beb7          	lui	t4,0xb
8000321c:	504e8e93          	addi	t4,t4,1284 # b504 <offset+0xb3d0>
80003220:	03df0fb3          	mul	t6,t5,t4
80003224:	0ff42023          	sw	t6,224(s0)
80003228:	aaa9c4b7          	lui	s1,0xaaa9c
8000322c:	95048493          	addi	s1,s1,-1712 # aaa9b950 <imm12+0xaaa9be80>
80003230:	01f48463          	beq	s1,t6,80003238 <inst_338>
80003234:	6740206f          	j	800058a8 <bad_trap>

80003238 <inst_338>:
80003238:	55555f37          	lui	t5,0x55555
8000323c:	554f0f13          	addi	t5,t5,1364 # 55555554 <absimm+0x10263025>
80003240:	00200e93          	li	t4,2
80003244:	03df0fb3          	mul	t6,t5,t4
80003248:	0ff42223          	sw	t6,228(s0)
8000324c:	aaaab4b7          	lui	s1,0xaaaab
80003250:	aa848493          	addi	s1,s1,-1368 # aaaaaaa8 <imm12+0xaaaaafd8>
80003254:	01f48463          	beq	s1,t6,8000325c <inst_339>
80003258:	6500206f          	j	800058a8 <bad_trap>

8000325c <inst_339>:
8000325c:	55555f37          	lui	t5,0x55555
80003260:	554f0f13          	addi	t5,t5,1364 # 55555554 <absimm+0x10263025>
80003264:	55555eb7          	lui	t4,0x55555
80003268:	554e8e93          	addi	t4,t4,1364 # 55555554 <absimm+0x10263025>
8000326c:	03df0fb3          	mul	t6,t5,t4
80003270:	0ff42423          	sw	t6,232(s0)
80003274:	8e38e4b7          	lui	s1,0x8e38e
80003278:	39048493          	addi	s1,s1,912 # 8e38e390 <imm12+0x8e38e8c0>
8000327c:	01f48463          	beq	s1,t6,80003284 <inst_340>
80003280:	6280206f          	j	800058a8 <bad_trap>

80003284 <inst_340>:
80003284:	55555f37          	lui	t5,0x55555
80003288:	554f0f13          	addi	t5,t5,1364 # 55555554 <absimm+0x10263025>
8000328c:	33333eb7          	lui	t4,0x33333
80003290:	332e8e93          	addi	t4,t4,818 # 33333332 <offset+0x333331fe>
80003294:	03df0fb3          	mul	t6,t5,t4
80003298:	0ff42623          	sw	t6,236(s0)
8000329c:	666664b7          	lui	s1,0x66666
800032a0:	66848493          	addi	s1,s1,1640 # 66666668 <absimm+0x21374139>
800032a4:	01f48463          	beq	s1,t6,800032ac <inst_341>
800032a8:	6000206f          	j	800058a8 <bad_trap>

800032ac <inst_341>:
800032ac:	55555f37          	lui	t5,0x55555
800032b0:	554f0f13          	addi	t5,t5,1364 # 55555554 <absimm+0x10263025>
800032b4:	66666eb7          	lui	t4,0x66666
800032b8:	665e8e93          	addi	t4,t4,1637 # 66666665 <absimm+0x21374136>
800032bc:	03df0fb3          	mul	t6,t5,t4
800032c0:	0ff42823          	sw	t6,240(s0)
800032c4:	222224b7          	lui	s1,0x22222
800032c8:	22448493          	addi	s1,s1,548 # 22222224 <offset+0x222220f0>
800032cc:	01f48463          	beq	s1,t6,800032d4 <inst_342>
800032d0:	5d80206f          	j	800058a8 <bad_trap>

800032d4 <inst_342>:
800032d4:	55555f37          	lui	t5,0x55555
800032d8:	554f0f13          	addi	t5,t5,1364 # 55555554 <absimm+0x10263025>
800032dc:	00000e93          	li	t4,0
800032e0:	03df0fb3          	mul	t6,t5,t4
800032e4:	0ff42a23          	sw	t6,244(s0)
800032e8:	00000493          	li	s1,0
800032ec:	01f48463          	beq	s1,t6,800032f4 <inst_343>
800032f0:	5b80206f          	j	800058a8 <bad_trap>

800032f4 <inst_343>:
800032f4:	55555f37          	lui	t5,0x55555
800032f8:	554f0f13          	addi	t5,t5,1364 # 55555554 <absimm+0x10263025>
800032fc:	0000beb7          	lui	t4,0xb
80003300:	503e8e93          	addi	t4,t4,1283 # b503 <offset+0xb3cf>
80003304:	03df0fb3          	mul	t6,t5,t4
80003308:	0ff42c23          	sw	t6,248(s0)
8000330c:	555464b7          	lui	s1,0x55546
80003310:	3fc48493          	addi	s1,s1,1020 # 555463fc <absimm+0x10253ecd>
80003314:	01f48463          	beq	s1,t6,8000331c <inst_344>
80003318:	5900206f          	j	800058a8 <bad_trap>

8000331c <inst_344>:
8000331c:	55555f37          	lui	t5,0x55555
80003320:	554f0f13          	addi	t5,t5,1364 # 55555554 <absimm+0x10263025>
80003324:	00400e93          	li	t4,4
80003328:	03df0fb3          	mul	t6,t5,t4
8000332c:	0ff42e23          	sw	t6,252(s0)
80003330:	555554b7          	lui	s1,0x55555
80003334:	55048493          	addi	s1,s1,1360 # 55555550 <absimm+0x10263021>
80003338:	01f48463          	beq	s1,t6,80003340 <inst_345>
8000333c:	56c0206f          	j	800058a8 <bad_trap>

80003340 <inst_345>:
80003340:	55555f37          	lui	t5,0x55555
80003344:	554f0f13          	addi	t5,t5,1364 # 55555554 <absimm+0x10263025>
80003348:	55555eb7          	lui	t4,0x55555
8000334c:	556e8e93          	addi	t4,t4,1366 # 55555556 <absimm+0x10263027>
80003350:	03df0fb3          	mul	t6,t5,t4
80003354:	11f42023          	sw	t6,256(s0)
80003358:	38e394b7          	lui	s1,0x38e39
8000335c:	e3848493          	addi	s1,s1,-456 # 38e38e38 <offset+0x38e38d04>
80003360:	01f48463          	beq	s1,t6,80003368 <inst_346>
80003364:	5440206f          	j	800058a8 <bad_trap>

80003368 <inst_346>:
80003368:	55555f37          	lui	t5,0x55555
8000336c:	554f0f13          	addi	t5,t5,1364 # 55555554 <absimm+0x10263025>
80003370:	aaaabeb7          	lui	t4,0xaaaab
80003374:	aabe8e93          	addi	t4,t4,-1365 # aaaaaaab <imm12+0xaaaaafdb>
80003378:	03df0fb3          	mul	t6,t5,t4
8000337c:	11f42223          	sw	t6,260(s0)
80003380:	1c71c4b7          	lui	s1,0x1c71c
80003384:	71c48493          	addi	s1,s1,1820 # 1c71c71c <offset+0x1c71c5e8>
80003388:	01f48463          	beq	s1,t6,80003390 <inst_347>
8000338c:	51c0206f          	j	800058a8 <bad_trap>

80003390 <inst_347>:
80003390:	55555f37          	lui	t5,0x55555
80003394:	554f0f13          	addi	t5,t5,1364 # 55555554 <absimm+0x10263025>
80003398:	00600e93          	li	t4,6
8000339c:	03df0fb3          	mul	t6,t5,t4
800033a0:	11f42423          	sw	t6,264(s0)
800033a4:	ff800493          	li	s1,-8
800033a8:	01f48463          	beq	s1,t6,800033b0 <inst_348>
800033ac:	4fc0206f          	j	800058a8 <bad_trap>

800033b0 <inst_348>:
800033b0:	55555f37          	lui	t5,0x55555
800033b4:	554f0f13          	addi	t5,t5,1364 # 55555554 <absimm+0x10263025>
800033b8:	33333eb7          	lui	t4,0x33333
800033bc:	334e8e93          	addi	t4,t4,820 # 33333334 <offset+0x33333200>
800033c0:	03df0fb3          	mul	t6,t5,t4
800033c4:	11f42623          	sw	t6,268(s0)
800033c8:	111114b7          	lui	s1,0x11111
800033cc:	11048493          	addi	s1,s1,272 # 11111110 <offset+0x11110fdc>
800033d0:	01f48463          	beq	s1,t6,800033d8 <inst_349>
800033d4:	4d40206f          	j	800058a8 <bad_trap>

800033d8 <inst_349>:
800033d8:	55555f37          	lui	t5,0x55555
800033dc:	554f0f13          	addi	t5,t5,1364 # 55555554 <absimm+0x10263025>
800033e0:	66666eb7          	lui	t4,0x66666
800033e4:	667e8e93          	addi	t4,t4,1639 # 66666667 <absimm+0x21374138>
800033e8:	03df0fb3          	mul	t6,t5,t4
800033ec:	11f42823          	sw	t6,272(s0)
800033f0:	ccccd4b7          	lui	s1,0xccccd
800033f4:	ccc48493          	addi	s1,s1,-820 # cccccccc <imm12+0xccccd1fc>
800033f8:	01f48463          	beq	s1,t6,80003400 <inst_350>
800033fc:	4ac0206f          	j	800058a8 <bad_trap>

80003400 <inst_350>:
80003400:	55555f37          	lui	t5,0x55555
80003404:	554f0f13          	addi	t5,t5,1364 # 55555554 <absimm+0x10263025>
80003408:	ffff5eb7          	lui	t4,0xffff5
8000340c:	afde8e93          	addi	t4,t4,-1283 # ffff4afd <imm12+0xffff502d>
80003410:	03df0fb3          	mul	t6,t5,t4
80003414:	11f42a23          	sw	t6,276(s0)
80003418:	aaaba4b7          	lui	s1,0xaaaba
8000341c:	c0448493          	addi	s1,s1,-1020 # aaab9c04 <imm12+0xaaaba134>
80003420:	01f48463          	beq	s1,t6,80003428 <inst_351>
80003424:	4840206f          	j	800058a8 <bad_trap>

80003428 <inst_351>:
80003428:	55555f37          	lui	t5,0x55555
8000342c:	554f0f13          	addi	t5,t5,1364 # 55555554 <absimm+0x10263025>
80003430:	0000beb7          	lui	t4,0xb
80003434:	505e8e93          	addi	t4,t4,1285 # b505 <offset+0xb3d1>
80003438:	03df0fb3          	mul	t6,t5,t4
8000343c:	11f42c23          	sw	t6,280(s0)
80003440:	ffff14b7          	lui	s1,0xffff1
80003444:	ea448493          	addi	s1,s1,-348 # ffff0ea4 <imm12+0xffff13d4>
80003448:	01f48463          	beq	s1,t6,80003450 <inst_352>
8000344c:	45c0206f          	j	800058a8 <bad_trap>

80003450 <inst_352>:
80003450:	33333f37          	lui	t5,0x33333
80003454:	332f0f13          	addi	t5,t5,818 # 33333332 <offset+0x333331fe>
80003458:	00300e93          	li	t4,3
8000345c:	03df0fb3          	mul	t6,t5,t4
80003460:	11f42e23          	sw	t6,284(s0)
80003464:	9999a4b7          	lui	s1,0x9999a
80003468:	99648493          	addi	s1,s1,-1642 # 99999996 <imm12+0x99999ec6>
8000346c:	01f48463          	beq	s1,t6,80003474 <inst_353>
80003470:	4380206f          	j	800058a8 <bad_trap>

80003474 <inst_353>:
80003474:	33333f37          	lui	t5,0x33333
80003478:	332f0f13          	addi	t5,t5,818 # 33333332 <offset+0x333331fe>
8000347c:	55555eb7          	lui	t4,0x55555
80003480:	555e8e93          	addi	t4,t4,1365 # 55555555 <absimm+0x10263026>
80003484:	03df0fb3          	mul	t6,t5,t4
80003488:	13f42023          	sw	t6,288(s0)
8000348c:	9999a4b7          	lui	s1,0x9999a
80003490:	99a48493          	addi	s1,s1,-1638 # 9999999a <imm12+0x99999eca>
80003494:	01f48463          	beq	s1,t6,8000349c <inst_354>
80003498:	4100206f          	j	800058a8 <bad_trap>

8000349c <inst_354>:
8000349c:	aaaabf37          	lui	t5,0xaaaab
800034a0:	aabf0f13          	addi	t5,t5,-1365 # aaaaaaab <imm12+0xaaaaafdb>
800034a4:	00400e93          	li	t4,4
800034a8:	03df0fb3          	mul	t6,t5,t4
800034ac:	13f42223          	sw	t6,292(s0)
800034b0:	aaaab4b7          	lui	s1,0xaaaab
800034b4:	aac48493          	addi	s1,s1,-1364 # aaaaaaac <imm12+0xaaaaafdc>
800034b8:	01f48463          	beq	s1,t6,800034c0 <inst_355>
800034bc:	3ec0206f          	j	800058a8 <bad_trap>

800034c0 <inst_355>:
800034c0:	aaaabf37          	lui	t5,0xaaaab
800034c4:	aabf0f13          	addi	t5,t5,-1365 # aaaaaaab <imm12+0xaaaaafdb>
800034c8:	55555eb7          	lui	t4,0x55555
800034cc:	556e8e93          	addi	t4,t4,1366 # 55555556 <absimm+0x10263027>
800034d0:	03df0fb3          	mul	t6,t5,t4
800034d4:	13f42423          	sw	t6,296(s0)
800034d8:	71c724b7          	lui	s1,0x71c72
800034dc:	c7248493          	addi	s1,s1,-910 # 71c71c72 <absimm+0x2c97f743>
800034e0:	01f48463          	beq	s1,t6,800034e8 <inst_356>
800034e4:	3c40206f          	j	800058a8 <bad_trap>

800034e8 <inst_356>:
800034e8:	aaaabf37          	lui	t5,0xaaaab
800034ec:	aabf0f13          	addi	t5,t5,-1365 # aaaaaaab <imm12+0xaaaaafdb>
800034f0:	aaaabeb7          	lui	t4,0xaaaab
800034f4:	aabe8e93          	addi	t4,t4,-1365 # aaaaaaab <imm12+0xaaaaafdb>
800034f8:	03df0fb3          	mul	t6,t5,t4
800034fc:	13f42623          	sw	t6,300(s0)
80003500:	38e394b7          	lui	s1,0x38e39
80003504:	e3948493          	addi	s1,s1,-455 # 38e38e39 <offset+0x38e38d05>
80003508:	01f48463          	beq	s1,t6,80003510 <inst_357>
8000350c:	39c0206f          	j	800058a8 <bad_trap>

80003510 <inst_357>:
80003510:	aaaabf37          	lui	t5,0xaaaab
80003514:	aabf0f13          	addi	t5,t5,-1365 # aaaaaaab <imm12+0xaaaaafdb>
80003518:	00600e93          	li	t4,6
8000351c:	03df0fb3          	mul	t6,t5,t4
80003520:	13f42823          	sw	t6,304(s0)
80003524:	00200493          	li	s1,2
80003528:	01f48463          	beq	s1,t6,80003530 <inst_358>
8000352c:	37c0206f          	j	800058a8 <bad_trap>

80003530 <inst_358>:
80003530:	aaaabf37          	lui	t5,0xaaaab
80003534:	aabf0f13          	addi	t5,t5,-1365 # aaaaaaab <imm12+0xaaaaafdb>
80003538:	33333eb7          	lui	t4,0x33333
8000353c:	334e8e93          	addi	t4,t4,820 # 33333334 <offset+0x33333200>
80003540:	03df0fb3          	mul	t6,t5,t4
80003544:	13f42a23          	sw	t6,308(s0)
80003548:	bbbbc4b7          	lui	s1,0xbbbbc
8000354c:	bbc48493          	addi	s1,s1,-1092 # bbbbbbbc <imm12+0xbbbbc0ec>
80003550:	01f48463          	beq	s1,t6,80003558 <inst_359>
80003554:	3540206f          	j	800058a8 <bad_trap>

80003558 <inst_359>:
80003558:	aaaabf37          	lui	t5,0xaaaab
8000355c:	aabf0f13          	addi	t5,t5,-1365 # aaaaaaab <imm12+0xaaaaafdb>
80003560:	66666eb7          	lui	t4,0x66666
80003564:	667e8e93          	addi	t4,t4,1639 # 66666667 <absimm+0x21374138>
80003568:	03df0fb3          	mul	t6,t5,t4
8000356c:	13f42c23          	sw	t6,312(s0)
80003570:	ccccd4b7          	lui	s1,0xccccd
80003574:	ccd48493          	addi	s1,s1,-819 # cccccccd <imm12+0xccccd1fd>
80003578:	01f48463          	beq	s1,t6,80003580 <inst_360>
8000357c:	32c0206f          	j	800058a8 <bad_trap>

80003580 <inst_360>:
80003580:	aaaabf37          	lui	t5,0xaaaab
80003584:	aabf0f13          	addi	t5,t5,-1365 # aaaaaaab <imm12+0xaaaaafdb>
80003588:	ffff5eb7          	lui	t4,0xffff5
8000358c:	afde8e93          	addi	t4,t4,-1283 # ffff4afd <imm12+0xffff502d>
80003590:	03df0fb3          	mul	t6,t5,t4
80003594:	13f42e23          	sw	t6,316(s0)
80003598:	555524b7          	lui	s1,0x55552
8000359c:	8ff48493          	addi	s1,s1,-1793 # 555518ff <absimm+0x1025f3d0>
800035a0:	01f48463          	beq	s1,t6,800035a8 <inst_361>
800035a4:	3040206f          	j	800058a8 <bad_trap>

800035a8 <inst_361>:
800035a8:	aaaabf37          	lui	t5,0xaaaab
800035ac:	aabf0f13          	addi	t5,t5,-1365 # aaaaaaab <imm12+0xaaaaafdb>
800035b0:	0000beb7          	lui	t4,0xb
800035b4:	505e8e93          	addi	t4,t4,1285 # b505 <offset+0xb3d1>
800035b8:	03df0fb3          	mul	t6,t5,t4
800035bc:	15f42023          	sw	t6,320(s0)
800035c0:	000044b7          	lui	s1,0x4
800035c4:	c5748493          	addi	s1,s1,-937 # 3c57 <offset+0x3b23>
800035c8:	01f48463          	beq	s1,t6,800035d0 <inst_362>
800035cc:	2dc0206f          	j	800058a8 <bad_trap>

800035d0 <inst_362>:
800035d0:	00600f13          	li	t5,6
800035d4:	00300e93          	li	t4,3
800035d8:	03df0fb3          	mul	t6,t5,t4
800035dc:	15f42223          	sw	t6,324(s0)
800035e0:	01200493          	li	s1,18
800035e4:	01f48463          	beq	s1,t6,800035ec <inst_363>
800035e8:	2c00206f          	j	800058a8 <bad_trap>

800035ec <inst_363>:
800035ec:	00600f13          	li	t5,6
800035f0:	55555eb7          	lui	t4,0x55555
800035f4:	555e8e93          	addi	t4,t4,1365 # 55555555 <absimm+0x10263026>
800035f8:	03df0fb3          	mul	t6,t5,t4
800035fc:	15f42423          	sw	t6,328(s0)
80003600:	ffe00493          	li	s1,-2
80003604:	01f48463          	beq	s1,t6,8000360c <inst_364>
80003608:	2a00206f          	j	800058a8 <bad_trap>

8000360c <inst_364>:
8000360c:	00600f13          	li	t5,6
80003610:	aaaabeb7          	lui	t4,0xaaaab
80003614:	aaae8e93          	addi	t4,t4,-1366 # aaaaaaaa <imm12+0xaaaaafda>
80003618:	03df0fb3          	mul	t6,t5,t4
8000361c:	15f42623          	sw	t6,332(s0)
80003620:	ffc00493          	li	s1,-4
80003624:	01f48463          	beq	s1,t6,8000362c <inst_365>
80003628:	2800206f          	j	800058a8 <bad_trap>

8000362c <inst_365>:
8000362c:	00600f13          	li	t5,6
80003630:	00500e93          	li	t4,5
80003634:	03df0fb3          	mul	t6,t5,t4
80003638:	15f42823          	sw	t6,336(s0)
8000363c:	01e00493          	li	s1,30
80003640:	01f48463          	beq	s1,t6,80003648 <inst_366>
80003644:	2640206f          	j	800058a8 <bad_trap>

80003648 <inst_366>:
80003648:	00600f13          	li	t5,6
8000364c:	33333eb7          	lui	t4,0x33333
80003650:	333e8e93          	addi	t4,t4,819 # 33333333 <offset+0x333331ff>
80003654:	03df0fb3          	mul	t6,t5,t4
80003658:	15f42a23          	sw	t6,340(s0)
8000365c:	333334b7          	lui	s1,0x33333
80003660:	33248493          	addi	s1,s1,818 # 33333332 <offset+0x333331fe>
80003664:	01f48463          	beq	s1,t6,8000366c <inst_367>
80003668:	2400206f          	j	800058a8 <bad_trap>

8000366c <inst_367>:
8000366c:	00600f13          	li	t5,6
80003670:	66666eb7          	lui	t4,0x66666
80003674:	666e8e93          	addi	t4,t4,1638 # 66666666 <absimm+0x21374137>
80003678:	03df0fb3          	mul	t6,t5,t4
8000367c:	15f42c23          	sw	t6,344(s0)
80003680:	666664b7          	lui	s1,0x66666
80003684:	66448493          	addi	s1,s1,1636 # 66666664 <absimm+0x21374135>
80003688:	01f48463          	beq	s1,t6,80003690 <inst_368>
8000368c:	21c0206f          	j	800058a8 <bad_trap>

80003690 <inst_368>:
80003690:	00600f13          	li	t5,6
80003694:	ffff5eb7          	lui	t4,0xffff5
80003698:	afce8e93          	addi	t4,t4,-1284 # ffff4afc <imm12+0xffff502c>
8000369c:	03df0fb3          	mul	t6,t5,t4
800036a0:	15f42e23          	sw	t6,348(s0)
800036a4:	fffbc4b7          	lui	s1,0xfffbc
800036a8:	1e848493          	addi	s1,s1,488 # fffbc1e8 <imm12+0xfffbc718>
800036ac:	01f48463          	beq	s1,t6,800036b4 <inst_369>
800036b0:	1f80206f          	j	800058a8 <bad_trap>

800036b4 <inst_369>:
800036b4:	00600f13          	li	t5,6
800036b8:	0000beb7          	lui	t4,0xb
800036bc:	504e8e93          	addi	t4,t4,1284 # b504 <offset+0xb3d0>
800036c0:	03df0fb3          	mul	t6,t5,t4
800036c4:	17f42023          	sw	t6,352(s0)
800036c8:	000444b7          	lui	s1,0x44
800036cc:	e1848493          	addi	s1,s1,-488 # 43e18 <offset+0x43ce4>
800036d0:	01f48463          	beq	s1,t6,800036d8 <inst_370>
800036d4:	1d40206f          	j	800058a8 <bad_trap>

800036d8 <inst_370>:
800036d8:	00600f13          	li	t5,6
800036dc:	00200e93          	li	t4,2
800036e0:	03df0fb3          	mul	t6,t5,t4
800036e4:	17f42223          	sw	t6,356(s0)
800036e8:	00c00493          	li	s1,12
800036ec:	01f48463          	beq	s1,t6,800036f4 <inst_371>
800036f0:	1b80206f          	j	800058a8 <bad_trap>

800036f4 <inst_371>:
800036f4:	00600f13          	li	t5,6
800036f8:	55555eb7          	lui	t4,0x55555
800036fc:	554e8e93          	addi	t4,t4,1364 # 55555554 <absimm+0x10263025>
80003700:	03df0fb3          	mul	t6,t5,t4
80003704:	17f42423          	sw	t6,360(s0)
80003708:	ff800493          	li	s1,-8
8000370c:	01f48463          	beq	s1,t6,80003714 <inst_372>
80003710:	1980206f          	j	800058a8 <bad_trap>

80003714 <inst_372>:
80003714:	00600f13          	li	t5,6
80003718:	33333eb7          	lui	t4,0x33333
8000371c:	332e8e93          	addi	t4,t4,818 # 33333332 <offset+0x333331fe>
80003720:	03df0fb3          	mul	t6,t5,t4
80003724:	17f42623          	sw	t6,364(s0)
80003728:	333334b7          	lui	s1,0x33333
8000372c:	32c48493          	addi	s1,s1,812 # 3333332c <offset+0x333331f8>
80003730:	01f48463          	beq	s1,t6,80003738 <inst_373>
80003734:	1740206f          	j	800058a8 <bad_trap>

80003738 <inst_373>:
80003738:	00600f13          	li	t5,6
8000373c:	66666eb7          	lui	t4,0x66666
80003740:	665e8e93          	addi	t4,t4,1637 # 66666665 <absimm+0x21374136>
80003744:	03df0fb3          	mul	t6,t5,t4
80003748:	17f42823          	sw	t6,368(s0)
8000374c:	666664b7          	lui	s1,0x66666
80003750:	65e48493          	addi	s1,s1,1630 # 6666665e <absimm+0x2137412f>
80003754:	01f48463          	beq	s1,t6,8000375c <inst_374>
80003758:	1500206f          	j	800058a8 <bad_trap>

8000375c <inst_374>:
8000375c:	00600f13          	li	t5,6
80003760:	00000e93          	li	t4,0
80003764:	03df0fb3          	mul	t6,t5,t4
80003768:	17f42a23          	sw	t6,372(s0)
8000376c:	00000493          	li	s1,0
80003770:	01f48463          	beq	s1,t6,80003778 <inst_375>
80003774:	1340206f          	j	800058a8 <bad_trap>

80003778 <inst_375>:
80003778:	00600f13          	li	t5,6
8000377c:	0000beb7          	lui	t4,0xb
80003780:	503e8e93          	addi	t4,t4,1283 # b503 <offset+0xb3cf>
80003784:	03df0fb3          	mul	t6,t5,t4
80003788:	17f42c23          	sw	t6,376(s0)
8000378c:	000444b7          	lui	s1,0x44
80003790:	e1248493          	addi	s1,s1,-494 # 43e12 <offset+0x43cde>
80003794:	01f48463          	beq	s1,t6,8000379c <inst_376>
80003798:	1100206f          	j	800058a8 <bad_trap>

8000379c <inst_376>:
8000379c:	00600f13          	li	t5,6
800037a0:	00400e93          	li	t4,4
800037a4:	03df0fb3          	mul	t6,t5,t4
800037a8:	17f42e23          	sw	t6,380(s0)
800037ac:	01800493          	li	s1,24
800037b0:	01f48463          	beq	s1,t6,800037b8 <inst_377>
800037b4:	0f40206f          	j	800058a8 <bad_trap>

800037b8 <inst_377>:
800037b8:	00600f13          	li	t5,6
800037bc:	55555eb7          	lui	t4,0x55555
800037c0:	556e8e93          	addi	t4,t4,1366 # 55555556 <absimm+0x10263027>
800037c4:	03df0fb3          	mul	t6,t5,t4
800037c8:	19f42023          	sw	t6,384(s0)
800037cc:	00400493          	li	s1,4
800037d0:	01f48463          	beq	s1,t6,800037d8 <inst_378>
800037d4:	0d40206f          	j	800058a8 <bad_trap>

800037d8 <inst_378>:
800037d8:	00600f13          	li	t5,6
800037dc:	aaaabeb7          	lui	t4,0xaaaab
800037e0:	aabe8e93          	addi	t4,t4,-1365 # aaaaaaab <imm12+0xaaaaafdb>
800037e4:	03df0fb3          	mul	t6,t5,t4
800037e8:	19f42223          	sw	t6,388(s0)
800037ec:	00200493          	li	s1,2
800037f0:	01f48463          	beq	s1,t6,800037f8 <inst_379>
800037f4:	0b40206f          	j	800058a8 <bad_trap>

800037f8 <inst_379>:
800037f8:	00600f13          	li	t5,6
800037fc:	00600e93          	li	t4,6
80003800:	03df0fb3          	mul	t6,t5,t4
80003804:	19f42423          	sw	t6,392(s0)
80003808:	02400493          	li	s1,36
8000380c:	01f48463          	beq	s1,t6,80003814 <inst_380>
80003810:	0980206f          	j	800058a8 <bad_trap>

80003814 <inst_380>:
80003814:	00600f13          	li	t5,6
80003818:	33333eb7          	lui	t4,0x33333
8000381c:	334e8e93          	addi	t4,t4,820 # 33333334 <offset+0x33333200>
80003820:	03df0fb3          	mul	t6,t5,t4
80003824:	19f42623          	sw	t6,396(s0)
80003828:	333334b7          	lui	s1,0x33333
8000382c:	33848493          	addi	s1,s1,824 # 33333338 <offset+0x33333204>
80003830:	01f48463          	beq	s1,t6,80003838 <inst_381>
80003834:	0740206f          	j	800058a8 <bad_trap>

80003838 <inst_381>:
80003838:	00600f13          	li	t5,6
8000383c:	66666eb7          	lui	t4,0x66666
80003840:	667e8e93          	addi	t4,t4,1639 # 66666667 <absimm+0x21374138>
80003844:	03df0fb3          	mul	t6,t5,t4
80003848:	19f42823          	sw	t6,400(s0)
8000384c:	666664b7          	lui	s1,0x66666
80003850:	66a48493          	addi	s1,s1,1642 # 6666666a <absimm+0x2137413b>
80003854:	01f48463          	beq	s1,t6,8000385c <inst_382>
80003858:	0500206f          	j	800058a8 <bad_trap>

8000385c <inst_382>:
8000385c:	00600f13          	li	t5,6
80003860:	ffff5eb7          	lui	t4,0xffff5
80003864:	afde8e93          	addi	t4,t4,-1283 # ffff4afd <imm12+0xffff502d>
80003868:	03df0fb3          	mul	t6,t5,t4
8000386c:	19f42a23          	sw	t6,404(s0)
80003870:	fffbc4b7          	lui	s1,0xfffbc
80003874:	1ee48493          	addi	s1,s1,494 # fffbc1ee <imm12+0xfffbc71e>
80003878:	01f48463          	beq	s1,t6,80003880 <inst_383>
8000387c:	02c0206f          	j	800058a8 <bad_trap>

80003880 <inst_383>:
80003880:	00600f13          	li	t5,6
80003884:	0000beb7          	lui	t4,0xb
80003888:	505e8e93          	addi	t4,t4,1285 # b505 <offset+0xb3d1>
8000388c:	03df0fb3          	mul	t6,t5,t4
80003890:	19f42c23          	sw	t6,408(s0)
80003894:	000444b7          	lui	s1,0x44
80003898:	e1e48493          	addi	s1,s1,-482 # 43e1e <offset+0x43cea>
8000389c:	01f48463          	beq	s1,t6,800038a4 <inst_384>
800038a0:	0080206f          	j	800058a8 <bad_trap>

800038a4 <inst_384>:
800038a4:	33333f37          	lui	t5,0x33333
800038a8:	334f0f13          	addi	t5,t5,820 # 33333334 <offset+0x33333200>
800038ac:	00300e93          	li	t4,3
800038b0:	03df0fb3          	mul	t6,t5,t4
800038b4:	19f42e23          	sw	t6,412(s0)
800038b8:	9999a4b7          	lui	s1,0x9999a
800038bc:	99c48493          	addi	s1,s1,-1636 # 9999999c <imm12+0x99999ecc>
800038c0:	01f48463          	beq	s1,t6,800038c8 <inst_385>
800038c4:	7e50106f          	j	800058a8 <bad_trap>

800038c8 <inst_385>:
800038c8:	33333f37          	lui	t5,0x33333
800038cc:	334f0f13          	addi	t5,t5,820 # 33333334 <offset+0x33333200>
800038d0:	55555eb7          	lui	t4,0x55555
800038d4:	555e8e93          	addi	t4,t4,1365 # 55555555 <absimm+0x10263026>
800038d8:	03df0fb3          	mul	t6,t5,t4
800038dc:	1bf42023          	sw	t6,416(s0)
800038e0:	444444b7          	lui	s1,0x44444
800038e4:	44448493          	addi	s1,s1,1092 # 44444444 <offset+0x44444310>
800038e8:	01f48463          	beq	s1,t6,800038f0 <inst_386>
800038ec:	7bd0106f          	j	800058a8 <bad_trap>

800038f0 <inst_386>:
800038f0:	33333f37          	lui	t5,0x33333
800038f4:	334f0f13          	addi	t5,t5,820 # 33333334 <offset+0x33333200>
800038f8:	aaaabeb7          	lui	t4,0xaaaab
800038fc:	aaae8e93          	addi	t4,t4,-1366 # aaaaaaaa <imm12+0xaaaaafda>
80003900:	03df0fb3          	mul	t6,t5,t4
80003904:	1bf42223          	sw	t6,420(s0)
80003908:	888894b7          	lui	s1,0x88889
8000390c:	88848493          	addi	s1,s1,-1912 # 88888888 <imm12+0x88888db8>
80003910:	01f48463          	beq	s1,t6,80003918 <inst_387>
80003914:	7950106f          	j	800058a8 <bad_trap>

80003918 <inst_387>:
80003918:	33333f37          	lui	t5,0x33333
8000391c:	334f0f13          	addi	t5,t5,820 # 33333334 <offset+0x33333200>
80003920:	00500e93          	li	t4,5
80003924:	03df0fb3          	mul	t6,t5,t4
80003928:	1bf42423          	sw	t6,424(s0)
8000392c:	00400493          	li	s1,4
80003930:	01f48463          	beq	s1,t6,80003938 <inst_388>
80003934:	7750106f          	j	800058a8 <bad_trap>

80003938 <inst_388>:
80003938:	33333f37          	lui	t5,0x33333
8000393c:	334f0f13          	addi	t5,t5,820 # 33333334 <offset+0x33333200>
80003940:	33333eb7          	lui	t4,0x33333
80003944:	333e8e93          	addi	t4,t4,819 # 33333333 <offset+0x333331ff>
80003948:	03df0fb3          	mul	t6,t5,t4
8000394c:	1bf42623          	sw	t6,428(s0)
80003950:	f5c294b7          	lui	s1,0xf5c29
80003954:	f5c48493          	addi	s1,s1,-164 # f5c28f5c <imm12+0xf5c2948c>
80003958:	01f48463          	beq	s1,t6,80003960 <inst_389>
8000395c:	74d0106f          	j	800058a8 <bad_trap>

80003960 <inst_389>:
80003960:	33333f37          	lui	t5,0x33333
80003964:	334f0f13          	addi	t5,t5,820 # 33333334 <offset+0x33333200>
80003968:	66666eb7          	lui	t4,0x66666
8000396c:	666e8e93          	addi	t4,t4,1638 # 66666666 <absimm+0x21374137>
80003970:	03df0fb3          	mul	t6,t5,t4
80003974:	1bf42823          	sw	t6,432(s0)
80003978:	eb8524b7          	lui	s1,0xeb852
8000397c:	eb848493          	addi	s1,s1,-328 # eb851eb8 <imm12+0xeb8523e8>
80003980:	01f48463          	beq	s1,t6,80003988 <inst_390>
80003984:	7250106f          	j	800058a8 <bad_trap>

80003988 <inst_390>:
80003988:	33333f37          	lui	t5,0x33333
8000398c:	334f0f13          	addi	t5,t5,820 # 33333334 <offset+0x33333200>
80003990:	ffff5eb7          	lui	t4,0xffff5
80003994:	afce8e93          	addi	t4,t4,-1284 # ffff4afc <imm12+0xffff502c>
80003998:	03df0fb3          	mul	t6,t5,t4
8000399c:	1bf42a23          	sw	t6,436(s0)
800039a0:	ffff74b7          	lui	s1,0xffff7
800039a4:	f3048493          	addi	s1,s1,-208 # ffff6f30 <imm12+0xffff7460>
800039a8:	01f48463          	beq	s1,t6,800039b0 <inst_391>
800039ac:	6fd0106f          	j	800058a8 <bad_trap>

800039b0 <inst_391>:
800039b0:	33333f37          	lui	t5,0x33333
800039b4:	334f0f13          	addi	t5,t5,820 # 33333334 <offset+0x33333200>
800039b8:	0000beb7          	lui	t4,0xb
800039bc:	504e8e93          	addi	t4,t4,1284 # b504 <offset+0xb3d0>
800039c0:	03df0fb3          	mul	t6,t5,t4
800039c4:	1bf42c23          	sw	t6,440(s0)
800039c8:	000094b7          	lui	s1,0x9
800039cc:	0d048493          	addi	s1,s1,208 # 90d0 <offset+0x8f9c>
800039d0:	01f48463          	beq	s1,t6,800039d8 <inst_392>
800039d4:	6d50106f          	j	800058a8 <bad_trap>

800039d8 <inst_392>:
800039d8:	33333f37          	lui	t5,0x33333
800039dc:	334f0f13          	addi	t5,t5,820 # 33333334 <offset+0x33333200>
800039e0:	00200e93          	li	t4,2
800039e4:	03df0fb3          	mul	t6,t5,t4
800039e8:	1bf42e23          	sw	t6,444(s0)
800039ec:	666664b7          	lui	s1,0x66666
800039f0:	66848493          	addi	s1,s1,1640 # 66666668 <absimm+0x21374139>
800039f4:	01f48463          	beq	s1,t6,800039fc <inst_393>
800039f8:	6b10106f          	j	800058a8 <bad_trap>

800039fc <inst_393>:
800039fc:	33333f37          	lui	t5,0x33333
80003a00:	334f0f13          	addi	t5,t5,820 # 33333334 <offset+0x33333200>
80003a04:	55555eb7          	lui	t4,0x55555
80003a08:	554e8e93          	addi	t4,t4,1364 # 55555554 <absimm+0x10263025>
80003a0c:	03df0fb3          	mul	t6,t5,t4
80003a10:	1df42023          	sw	t6,448(s0)
80003a14:	111114b7          	lui	s1,0x11111
80003a18:	11048493          	addi	s1,s1,272 # 11111110 <offset+0x11110fdc>
80003a1c:	01f48463          	beq	s1,t6,80003a24 <inst_394>
80003a20:	6890106f          	j	800058a8 <bad_trap>

80003a24 <inst_394>:
80003a24:	33333f37          	lui	t5,0x33333
80003a28:	334f0f13          	addi	t5,t5,820 # 33333334 <offset+0x33333200>
80003a2c:	33333eb7          	lui	t4,0x33333
80003a30:	332e8e93          	addi	t4,t4,818 # 33333332 <offset+0x333331fe>
80003a34:	03df0fb3          	mul	t6,t5,t4
80003a38:	1df42223          	sw	t6,452(s0)
80003a3c:	c28f64b7          	lui	s1,0xc28f6
80003a40:	c2848493          	addi	s1,s1,-984 # c28f5c28 <imm12+0xc28f6158>
80003a44:	01f48463          	beq	s1,t6,80003a4c <inst_395>
80003a48:	6610106f          	j	800058a8 <bad_trap>

80003a4c <inst_395>:
80003a4c:	33333f37          	lui	t5,0x33333
80003a50:	334f0f13          	addi	t5,t5,820 # 33333334 <offset+0x33333200>
80003a54:	66666eb7          	lui	t4,0x66666
80003a58:	665e8e93          	addi	t4,t4,1637 # 66666665 <absimm+0x21374136>
80003a5c:	03df0fb3          	mul	t6,t5,t4
80003a60:	1df42423          	sw	t6,456(s0)
80003a64:	b851f4b7          	lui	s1,0xb851f
80003a68:	b8448493          	addi	s1,s1,-1148 # b851eb84 <imm12+0xb851f0b4>
80003a6c:	01f48463          	beq	s1,t6,80003a74 <inst_396>
80003a70:	6390106f          	j	800058a8 <bad_trap>

80003a74 <inst_396>:
80003a74:	33333f37          	lui	t5,0x33333
80003a78:	334f0f13          	addi	t5,t5,820 # 33333334 <offset+0x33333200>
80003a7c:	00000e93          	li	t4,0
80003a80:	03df0fb3          	mul	t6,t5,t4
80003a84:	1df42623          	sw	t6,460(s0)
80003a88:	00000493          	li	s1,0
80003a8c:	01f48463          	beq	s1,t6,80003a94 <inst_397>
80003a90:	6190106f          	j	800058a8 <bad_trap>

80003a94 <inst_397>:
80003a94:	33333f37          	lui	t5,0x33333
80003a98:	334f0f13          	addi	t5,t5,820 # 33333334 <offset+0x33333200>
80003a9c:	0000beb7          	lui	t4,0xb
80003aa0:	503e8e93          	addi	t4,t4,1283 # b503 <offset+0xb3cf>
80003aa4:	03df0fb3          	mul	t6,t5,t4
80003aa8:	1df42823          	sw	t6,464(s0)
80003aac:	cccd64b7          	lui	s1,0xcccd6
80003ab0:	d9c48493          	addi	s1,s1,-612 # cccd5d9c <imm12+0xcccd62cc>
80003ab4:	01f48463          	beq	s1,t6,80003abc <inst_398>
80003ab8:	5f10106f          	j	800058a8 <bad_trap>

80003abc <inst_398>:
80003abc:	33333f37          	lui	t5,0x33333
80003ac0:	334f0f13          	addi	t5,t5,820 # 33333334 <offset+0x33333200>
80003ac4:	00400e93          	li	t4,4
80003ac8:	03df0fb3          	mul	t6,t5,t4
80003acc:	1df42a23          	sw	t6,468(s0)
80003ad0:	ccccd4b7          	lui	s1,0xccccd
80003ad4:	cd048493          	addi	s1,s1,-816 # ccccccd0 <imm12+0xccccd200>
80003ad8:	01f48463          	beq	s1,t6,80003ae0 <inst_399>
80003adc:	5cd0106f          	j	800058a8 <bad_trap>

80003ae0 <inst_399>:
80003ae0:	33333f37          	lui	t5,0x33333
80003ae4:	334f0f13          	addi	t5,t5,820 # 33333334 <offset+0x33333200>
80003ae8:	55555eb7          	lui	t4,0x55555
80003aec:	556e8e93          	addi	t4,t4,1366 # 55555556 <absimm+0x10263027>
80003af0:	03df0fb3          	mul	t6,t5,t4
80003af4:	1df42c23          	sw	t6,472(s0)
80003af8:	777774b7          	lui	s1,0x77777
80003afc:	77848493          	addi	s1,s1,1912 # 77777778 <absimm+0x32485249>
80003b00:	01f48463          	beq	s1,t6,80003b08 <inst_400>
80003b04:	5a50106f          	j	800058a8 <bad_trap>

80003b08 <inst_400>:
80003b08:	33333f37          	lui	t5,0x33333
80003b0c:	334f0f13          	addi	t5,t5,820 # 33333334 <offset+0x33333200>
80003b10:	aaaabeb7          	lui	t4,0xaaaab
80003b14:	aabe8e93          	addi	t4,t4,-1365 # aaaaaaab <imm12+0xaaaaafdb>
80003b18:	03df0fb3          	mul	t6,t5,t4
80003b1c:	1df42e23          	sw	t6,476(s0)
80003b20:	bbbbc4b7          	lui	s1,0xbbbbc
80003b24:	bbc48493          	addi	s1,s1,-1092 # bbbbbbbc <imm12+0xbbbbc0ec>
80003b28:	01f48463          	beq	s1,t6,80003b30 <inst_401>
80003b2c:	57d0106f          	j	800058a8 <bad_trap>

80003b30 <inst_401>:
80003b30:	33333f37          	lui	t5,0x33333
80003b34:	334f0f13          	addi	t5,t5,820 # 33333334 <offset+0x33333200>
80003b38:	00600e93          	li	t4,6
80003b3c:	03df0fb3          	mul	t6,t5,t4
80003b40:	1ff42023          	sw	t6,480(s0)
80003b44:	333334b7          	lui	s1,0x33333
80003b48:	33848493          	addi	s1,s1,824 # 33333338 <offset+0x33333204>
80003b4c:	01f48463          	beq	s1,t6,80003b54 <inst_402>
80003b50:	5590106f          	j	800058a8 <bad_trap>

80003b54 <inst_402>:
80003b54:	33333f37          	lui	t5,0x33333
80003b58:	334f0f13          	addi	t5,t5,820 # 33333334 <offset+0x33333200>
80003b5c:	33333eb7          	lui	t4,0x33333
80003b60:	334e8e93          	addi	t4,t4,820 # 33333334 <offset+0x33333200>
80003b64:	03df0fb3          	mul	t6,t5,t4
80003b68:	1ff42223          	sw	t6,484(s0)
80003b6c:	28f5c4b7          	lui	s1,0x28f5c
80003b70:	29048493          	addi	s1,s1,656 # 28f5c290 <offset+0x28f5c15c>
80003b74:	01f48463          	beq	s1,t6,80003b7c <inst_403>
80003b78:	5310106f          	j	800058a8 <bad_trap>

80003b7c <inst_403>:
80003b7c:	33333f37          	lui	t5,0x33333
80003b80:	334f0f13          	addi	t5,t5,820 # 33333334 <offset+0x33333200>
80003b84:	66666eb7          	lui	t4,0x66666
80003b88:	667e8e93          	addi	t4,t4,1639 # 66666667 <absimm+0x21374138>
80003b8c:	03df0fb3          	mul	t6,t5,t4
80003b90:	1ff42423          	sw	t6,488(s0)
80003b94:	1eb854b7          	lui	s1,0x1eb85
80003b98:	1ec48493          	addi	s1,s1,492 # 1eb851ec <offset+0x1eb850b8>
80003b9c:	01f48463          	beq	s1,t6,80003ba4 <inst_404>
80003ba0:	5090106f          	j	800058a8 <bad_trap>

80003ba4 <inst_404>:
80003ba4:	33333f37          	lui	t5,0x33333
80003ba8:	334f0f13          	addi	t5,t5,820 # 33333334 <offset+0x33333200>
80003bac:	ffff5eb7          	lui	t4,0xffff5
80003bb0:	afde8e93          	addi	t4,t4,-1283 # ffff4afd <imm12+0xffff502d>
80003bb4:	03df0fb3          	mul	t6,t5,t4
80003bb8:	1ff42623          	sw	t6,492(s0)
80003bbc:	3332a4b7          	lui	s1,0x3332a
80003bc0:	26448493          	addi	s1,s1,612 # 3332a264 <offset+0x3332a130>
80003bc4:	01f48463          	beq	s1,t6,80003bcc <inst_405>
80003bc8:	4e10106f          	j	800058a8 <bad_trap>

80003bcc <inst_405>:
80003bcc:	33333f37          	lui	t5,0x33333
80003bd0:	334f0f13          	addi	t5,t5,820 # 33333334 <offset+0x33333200>
80003bd4:	0000beb7          	lui	t4,0xb
80003bd8:	505e8e93          	addi	t4,t4,1285 # b505 <offset+0xb3d1>
80003bdc:	03df0fb3          	mul	t6,t5,t4
80003be0:	1ff42823          	sw	t6,496(s0)
80003be4:	3333c4b7          	lui	s1,0x3333c
80003be8:	40448493          	addi	s1,s1,1028 # 3333c404 <offset+0x3333c2d0>
80003bec:	01f48463          	beq	s1,t6,80003bf4 <inst_406>
80003bf0:	4b90106f          	j	800058a8 <bad_trap>

80003bf4 <inst_406>:
80003bf4:	66666f37          	lui	t5,0x66666
80003bf8:	667f0f13          	addi	t5,t5,1639 # 66666667 <absimm+0x21374138>
80003bfc:	00300e93          	li	t4,3
80003c00:	03df0fb3          	mul	t6,t5,t4
80003c04:	1ff42a23          	sw	t6,500(s0)
80003c08:	333334b7          	lui	s1,0x33333
80003c0c:	33548493          	addi	s1,s1,821 # 33333335 <offset+0x33333201>
80003c10:	01f48463          	beq	s1,t6,80003c18 <inst_407>
80003c14:	4950106f          	j	800058a8 <bad_trap>

80003c18 <inst_407>:
80003c18:	66666f37          	lui	t5,0x66666
80003c1c:	667f0f13          	addi	t5,t5,1639 # 66666667 <absimm+0x21374138>
80003c20:	55555eb7          	lui	t4,0x55555
80003c24:	555e8e93          	addi	t4,t4,1365 # 55555555 <absimm+0x10263026>
80003c28:	03df0fb3          	mul	t6,t5,t4
80003c2c:	1ff42c23          	sw	t6,504(s0)
80003c30:	333334b7          	lui	s1,0x33333
80003c34:	33348493          	addi	s1,s1,819 # 33333333 <offset+0x333331ff>
80003c38:	01f48463          	beq	s1,t6,80003c40 <inst_408>
80003c3c:	46d0106f          	j	800058a8 <bad_trap>

80003c40 <inst_408>:
80003c40:	66666f37          	lui	t5,0x66666
80003c44:	667f0f13          	addi	t5,t5,1639 # 66666667 <absimm+0x21374138>
80003c48:	aaaabeb7          	lui	t4,0xaaaab
80003c4c:	aaae8e93          	addi	t4,t4,-1366 # aaaaaaaa <imm12+0xaaaaafda>
80003c50:	03df0fb3          	mul	t6,t5,t4
80003c54:	1ff42e23          	sw	t6,508(s0)
80003c58:	666664b7          	lui	s1,0x66666
80003c5c:	66648493          	addi	s1,s1,1638 # 66666666 <absimm+0x21374137>
80003c60:	01f48463          	beq	s1,t6,80003c68 <inst_409>
80003c64:	4450106f          	j	800058a8 <bad_trap>

80003c68 <inst_409>:
80003c68:	66666f37          	lui	t5,0x66666
80003c6c:	667f0f13          	addi	t5,t5,1639 # 66666667 <absimm+0x21374138>
80003c70:	00500e93          	li	t4,5
80003c74:	03df0fb3          	mul	t6,t5,t4
80003c78:	21f42023          	sw	t6,512(s0)
80003c7c:	00300493          	li	s1,3
80003c80:	01f48463          	beq	s1,t6,80003c88 <inst_410>
80003c84:	4250106f          	j	800058a8 <bad_trap>

80003c88 <inst_410>:
80003c88:	66666f37          	lui	t5,0x66666
80003c8c:	667f0f13          	addi	t5,t5,1639 # 66666667 <absimm+0x21374138>
80003c90:	33333eb7          	lui	t4,0x33333
80003c94:	333e8e93          	addi	t4,t4,819 # 33333333 <offset+0x333331ff>
80003c98:	03df0fb3          	mul	t6,t5,t4
80003c9c:	21f42223          	sw	t6,516(s0)
80003ca0:	b851f4b7          	lui	s1,0xb851f
80003ca4:	b8548493          	addi	s1,s1,-1147 # b851eb85 <imm12+0xb851f0b5>
80003ca8:	01f48463          	beq	s1,t6,80003cb0 <inst_411>
80003cac:	3fd0106f          	j	800058a8 <bad_trap>

80003cb0 <inst_411>:
80003cb0:	66666f37          	lui	t5,0x66666
80003cb4:	667f0f13          	addi	t5,t5,1639 # 66666667 <absimm+0x21374138>
80003cb8:	66666eb7          	lui	t4,0x66666
80003cbc:	666e8e93          	addi	t4,t4,1638 # 66666666 <absimm+0x21374137>
80003cc0:	03df0fb3          	mul	t6,t5,t4
80003cc4:	21f42423          	sw	t6,520(s0)
80003cc8:	70a3d4b7          	lui	s1,0x70a3d
80003ccc:	70a48493          	addi	s1,s1,1802 # 70a3d70a <absimm+0x2b74b1db>
80003cd0:	01f48463          	beq	s1,t6,80003cd8 <inst_412>
80003cd4:	3d50106f          	j	800058a8 <bad_trap>

80003cd8 <inst_412>:
80003cd8:	66666f37          	lui	t5,0x66666
80003cdc:	667f0f13          	addi	t5,t5,1639 # 66666667 <absimm+0x21374138>
80003ce0:	ffff5eb7          	lui	t4,0xffff5
80003ce4:	afce8e93          	addi	t4,t4,-1284 # ffff4afc <imm12+0xffff502c>
80003ce8:	03df0fb3          	mul	t6,t5,t4
80003cec:	21f42623          	sw	t6,524(s0)
80003cf0:	ffff94b7          	lui	s1,0xffff9
80003cf4:	36448493          	addi	s1,s1,868 # ffff9364 <imm12+0xffff9894>
80003cf8:	01f48463          	beq	s1,t6,80003d00 <inst_413>
80003cfc:	3ad0106f          	j	800058a8 <bad_trap>

80003d00 <inst_413>:
80003d00:	66666f37          	lui	t5,0x66666
80003d04:	667f0f13          	addi	t5,t5,1639 # 66666667 <absimm+0x21374138>
80003d08:	0000beb7          	lui	t4,0xb
80003d0c:	504e8e93          	addi	t4,t4,1284 # b504 <offset+0xb3d0>
80003d10:	03df0fb3          	mul	t6,t5,t4
80003d14:	21f42823          	sw	t6,528(s0)
80003d18:	000074b7          	lui	s1,0x7
80003d1c:	c9c48493          	addi	s1,s1,-868 # 6c9c <offset+0x6b68>
80003d20:	01f48463          	beq	s1,t6,80003d28 <inst_414>
80003d24:	3850106f          	j	800058a8 <bad_trap>

80003d28 <inst_414>:
80003d28:	66666f37          	lui	t5,0x66666
80003d2c:	667f0f13          	addi	t5,t5,1639 # 66666667 <absimm+0x21374138>
80003d30:	00200e93          	li	t4,2
80003d34:	03df0fb3          	mul	t6,t5,t4
80003d38:	21f42a23          	sw	t6,532(s0)
80003d3c:	ccccd4b7          	lui	s1,0xccccd
80003d40:	cce48493          	addi	s1,s1,-818 # ccccccce <imm12+0xccccd1fe>
80003d44:	01f48463          	beq	s1,t6,80003d4c <inst_415>
80003d48:	3610106f          	j	800058a8 <bad_trap>

80003d4c <inst_415>:
80003d4c:	66666f37          	lui	t5,0x66666
80003d50:	667f0f13          	addi	t5,t5,1639 # 66666667 <absimm+0x21374138>
80003d54:	55555eb7          	lui	t4,0x55555
80003d58:	554e8e93          	addi	t4,t4,1364 # 55555554 <absimm+0x10263025>
80003d5c:	03df0fb3          	mul	t6,t5,t4
80003d60:	21f42c23          	sw	t6,536(s0)
80003d64:	ccccd4b7          	lui	s1,0xccccd
80003d68:	ccc48493          	addi	s1,s1,-820 # cccccccc <imm12+0xccccd1fc>
80003d6c:	01f48463          	beq	s1,t6,80003d74 <inst_416>
80003d70:	3390106f          	j	800058a8 <bad_trap>

80003d74 <inst_416>:
80003d74:	66666f37          	lui	t5,0x66666
80003d78:	667f0f13          	addi	t5,t5,1639 # 66666667 <absimm+0x21374138>
80003d7c:	33333eb7          	lui	t4,0x33333
80003d80:	332e8e93          	addi	t4,t4,818 # 33333332 <offset+0x333331fe>
80003d84:	03df0fb3          	mul	t6,t5,t4
80003d88:	21f42e23          	sw	t6,540(s0)
80003d8c:	51eb84b7          	lui	s1,0x51eb8
80003d90:	51e48493          	addi	s1,s1,1310 # 51eb851e <absimm+0xcbc5fef>
80003d94:	01f48463          	beq	s1,t6,80003d9c <inst_417>
80003d98:	3110106f          	j	800058a8 <bad_trap>

80003d9c <inst_417>:
80003d9c:	66666f37          	lui	t5,0x66666
80003da0:	667f0f13          	addi	t5,t5,1639 # 66666667 <absimm+0x21374138>
80003da4:	66666eb7          	lui	t4,0x66666
80003da8:	665e8e93          	addi	t4,t4,1637 # 66666665 <absimm+0x21374136>
80003dac:	03df0fb3          	mul	t6,t5,t4
80003db0:	23f42023          	sw	t6,544(s0)
80003db4:	0a3d74b7          	lui	s1,0xa3d7
80003db8:	0a348493          	addi	s1,s1,163 # a3d70a3 <offset+0xa3d6f6f>
80003dbc:	01f48463          	beq	s1,t6,80003dc4 <inst_418>
80003dc0:	2e90106f          	j	800058a8 <bad_trap>

80003dc4 <inst_418>:
80003dc4:	66666f37          	lui	t5,0x66666
80003dc8:	667f0f13          	addi	t5,t5,1639 # 66666667 <absimm+0x21374138>
80003dcc:	00000e93          	li	t4,0
80003dd0:	03df0fb3          	mul	t6,t5,t4
80003dd4:	23f42223          	sw	t6,548(s0)
80003dd8:	00000493          	li	s1,0
80003ddc:	01f48463          	beq	s1,t6,80003de4 <inst_419>
80003de0:	2c90106f          	j	800058a8 <bad_trap>

80003de4 <inst_419>:
80003de4:	66666f37          	lui	t5,0x66666
80003de8:	667f0f13          	addi	t5,t5,1639 # 66666667 <absimm+0x21374138>
80003dec:	0000beb7          	lui	t4,0xb
80003df0:	503e8e93          	addi	t4,t4,1283 # b503 <offset+0xb3cf>
80003df4:	03df0fb3          	mul	t6,t5,t4
80003df8:	23f42423          	sw	t6,552(s0)
80003dfc:	999a04b7          	lui	s1,0x999a0
80003e00:	63548493          	addi	s1,s1,1589 # 999a0635 <imm12+0x999a0b65>
80003e04:	01f48463          	beq	s1,t6,80003e0c <inst_420>
80003e08:	2a10106f          	j	800058a8 <bad_trap>

80003e0c <inst_420>:
80003e0c:	66666f37          	lui	t5,0x66666
80003e10:	667f0f13          	addi	t5,t5,1639 # 66666667 <absimm+0x21374138>
80003e14:	00400e93          	li	t4,4
80003e18:	03df0fb3          	mul	t6,t5,t4
80003e1c:	23f42623          	sw	t6,556(s0)
80003e20:	9999a4b7          	lui	s1,0x9999a
80003e24:	99c48493          	addi	s1,s1,-1636 # 9999999c <imm12+0x99999ecc>
80003e28:	01f48463          	beq	s1,t6,80003e30 <inst_421>
80003e2c:	27d0106f          	j	800058a8 <bad_trap>

80003e30 <inst_421>:
80003e30:	66666f37          	lui	t5,0x66666
80003e34:	667f0f13          	addi	t5,t5,1639 # 66666667 <absimm+0x21374138>
80003e38:	55555eb7          	lui	t4,0x55555
80003e3c:	556e8e93          	addi	t4,t4,1366 # 55555556 <absimm+0x10263027>
80003e40:	03df0fb3          	mul	t6,t5,t4
80003e44:	23f42823          	sw	t6,560(s0)
80003e48:	9999a4b7          	lui	s1,0x9999a
80003e4c:	99a48493          	addi	s1,s1,-1638 # 9999999a <imm12+0x99999eca>
80003e50:	01f48463          	beq	s1,t6,80003e58 <inst_422>
80003e54:	2550106f          	j	800058a8 <bad_trap>

80003e58 <inst_422>:
80003e58:	66666f37          	lui	t5,0x66666
80003e5c:	667f0f13          	addi	t5,t5,1639 # 66666667 <absimm+0x21374138>
80003e60:	aaaabeb7          	lui	t4,0xaaaab
80003e64:	aabe8e93          	addi	t4,t4,-1365 # aaaaaaab <imm12+0xaaaaafdb>
80003e68:	03df0fb3          	mul	t6,t5,t4
80003e6c:	23f42a23          	sw	t6,564(s0)
80003e70:	ccccd4b7          	lui	s1,0xccccd
80003e74:	ccd48493          	addi	s1,s1,-819 # cccccccd <imm12+0xccccd1fd>
80003e78:	01f48463          	beq	s1,t6,80003e80 <inst_423>
80003e7c:	22d0106f          	j	800058a8 <bad_trap>

80003e80 <inst_423>:
80003e80:	66666f37          	lui	t5,0x66666
80003e84:	667f0f13          	addi	t5,t5,1639 # 66666667 <absimm+0x21374138>
80003e88:	00600e93          	li	t4,6
80003e8c:	03df0fb3          	mul	t6,t5,t4
80003e90:	23f42c23          	sw	t6,568(s0)
80003e94:	666664b7          	lui	s1,0x66666
80003e98:	66a48493          	addi	s1,s1,1642 # 6666666a <absimm+0x2137413b>
80003e9c:	01f48463          	beq	s1,t6,80003ea4 <inst_424>
80003ea0:	2090106f          	j	800058a8 <bad_trap>

80003ea4 <inst_424>:
80003ea4:	66666f37          	lui	t5,0x66666
80003ea8:	667f0f13          	addi	t5,t5,1639 # 66666667 <absimm+0x21374138>
80003eac:	33333eb7          	lui	t4,0x33333
80003eb0:	334e8e93          	addi	t4,t4,820 # 33333334 <offset+0x33333200>
80003eb4:	03df0fb3          	mul	t6,t5,t4
80003eb8:	23f42e23          	sw	t6,572(s0)
80003ebc:	1eb854b7          	lui	s1,0x1eb85
80003ec0:	1ec48493          	addi	s1,s1,492 # 1eb851ec <offset+0x1eb850b8>
80003ec4:	01f48463          	beq	s1,t6,80003ecc <inst_425>
80003ec8:	1e10106f          	j	800058a8 <bad_trap>

80003ecc <inst_425>:
80003ecc:	66666f37          	lui	t5,0x66666
80003ed0:	667f0f13          	addi	t5,t5,1639 # 66666667 <absimm+0x21374138>
80003ed4:	66666eb7          	lui	t4,0x66666
80003ed8:	667e8e93          	addi	t4,t4,1639 # 66666667 <absimm+0x21374138>
80003edc:	03df0fb3          	mul	t6,t5,t4
80003ee0:	25f42023          	sw	t6,576(s0)
80003ee4:	d70a44b7          	lui	s1,0xd70a4
80003ee8:	d7148493          	addi	s1,s1,-655 # d70a3d71 <imm12+0xd70a42a1>
80003eec:	01f48463          	beq	s1,t6,80003ef4 <inst_426>
80003ef0:	1b90106f          	j	800058a8 <bad_trap>

80003ef4 <inst_426>:
80003ef4:	66666f37          	lui	t5,0x66666
80003ef8:	667f0f13          	addi	t5,t5,1639 # 66666667 <absimm+0x21374138>
80003efc:	ffff5eb7          	lui	t4,0xffff5
80003f00:	afde8e93          	addi	t4,t4,-1283 # ffff4afd <imm12+0xffff502d>
80003f04:	03df0fb3          	mul	t6,t5,t4
80003f08:	25f42223          	sw	t6,580(s0)
80003f0c:	666604b7          	lui	s1,0x66660
80003f10:	9cb48493          	addi	s1,s1,-1589 # 6665f9cb <absimm+0x2136d49c>
80003f14:	01f48463          	beq	s1,t6,80003f1c <inst_427>
80003f18:	1910106f          	j	800058a8 <bad_trap>

80003f1c <inst_427>:
80003f1c:	66666f37          	lui	t5,0x66666
80003f20:	667f0f13          	addi	t5,t5,1639 # 66666667 <absimm+0x21374138>
80003f24:	0000beb7          	lui	t4,0xb
80003f28:	505e8e93          	addi	t4,t4,1285 # b505 <offset+0xb3d1>
80003f2c:	03df0fb3          	mul	t6,t5,t4
80003f30:	25f42423          	sw	t6,584(s0)
80003f34:	6666d4b7          	lui	s1,0x6666d
80003f38:	30348493          	addi	s1,s1,771 # 6666d303 <absimm+0x2137add4>
80003f3c:	01f48463          	beq	s1,t6,80003f44 <inst_428>
80003f40:	1690106f          	j	800058a8 <bad_trap>

80003f44 <inst_428>:
80003f44:	ffff5f37          	lui	t5,0xffff5
80003f48:	afdf0f13          	addi	t5,t5,-1283 # ffff4afd <imm12+0xffff502d>
80003f4c:	00300e93          	li	t4,3
80003f50:	03df0fb3          	mul	t6,t5,t4
80003f54:	25f42623          	sw	t6,588(s0)
80003f58:	fffde4b7          	lui	s1,0xfffde
80003f5c:	0f748493          	addi	s1,s1,247 # fffde0f7 <imm12+0xfffde627>
80003f60:	01f48463          	beq	s1,t6,80003f68 <inst_429>
80003f64:	1450106f          	j	800058a8 <bad_trap>

80003f68 <inst_429>:
80003f68:	ffff5f37          	lui	t5,0xffff5
80003f6c:	afdf0f13          	addi	t5,t5,-1283 # ffff4afd <imm12+0xffff502d>
80003f70:	55555eb7          	lui	t4,0x55555
80003f74:	555e8e93          	addi	t4,t4,1365 # 55555555 <absimm+0x10263026>
80003f78:	03df0fb3          	mul	t6,t5,t4
80003f7c:	25f42823          	sw	t6,592(s0)
80003f80:	aaaae4b7          	lui	s1,0xaaaae
80003f84:	70148493          	addi	s1,s1,1793 # aaaae701 <imm12+0xaaaaec31>
80003f88:	01f48463          	beq	s1,t6,80003f90 <inst_430>
80003f8c:	11d0106f          	j	800058a8 <bad_trap>

80003f90 <inst_430>:
80003f90:	ffff5f37          	lui	t5,0xffff5
80003f94:	afdf0f13          	addi	t5,t5,-1283 # ffff4afd <imm12+0xffff502d>
80003f98:	aaaabeb7          	lui	t4,0xaaaab
80003f9c:	aaae8e93          	addi	t4,t4,-1366 # aaaaaaaa <imm12+0xaaaaafda>
80003fa0:	03df0fb3          	mul	t6,t5,t4
80003fa4:	25f42a23          	sw	t6,596(s0)
80003fa8:	5555d4b7          	lui	s1,0x5555d
80003fac:	e0248493          	addi	s1,s1,-510 # 5555ce02 <absimm+0x1026a8d3>
80003fb0:	01f48463          	beq	s1,t6,80003fb8 <inst_431>
80003fb4:	0f50106f          	j	800058a8 <bad_trap>

80003fb8 <inst_431>:
80003fb8:	ffff5f37          	lui	t5,0xffff5
80003fbc:	afdf0f13          	addi	t5,t5,-1283 # ffff4afd <imm12+0xffff502d>
80003fc0:	00500e93          	li	t4,5
80003fc4:	03df0fb3          	mul	t6,t5,t4
80003fc8:	25f42c23          	sw	t6,600(s0)
80003fcc:	fffc74b7          	lui	s1,0xfffc7
80003fd0:	6f148493          	addi	s1,s1,1777 # fffc76f1 <imm12+0xfffc7c21>
80003fd4:	01f48463          	beq	s1,t6,80003fdc <inst_432>
80003fd8:	0d10106f          	j	800058a8 <bad_trap>

80003fdc <inst_432>:
80003fdc:	ffff5f37          	lui	t5,0xffff5
80003fe0:	afdf0f13          	addi	t5,t5,-1283 # ffff4afd <imm12+0xffff502d>
80003fe4:	33333eb7          	lui	t4,0x33333
80003fe8:	333e8e93          	addi	t4,t4,819 # 33333333 <offset+0x333331ff>
80003fec:	03df0fb3          	mul	t6,t5,t4
80003ff0:	25f42e23          	sw	t6,604(s0)
80003ff4:	333354b7          	lui	s1,0x33335
80003ff8:	76748493          	addi	s1,s1,1895 # 33335767 <offset+0x33335633>
80003ffc:	01f48463          	beq	s1,t6,80004004 <inst_433>
80004000:	0a90106f          	j	800058a8 <bad_trap>

80004004 <inst_433>:
80004004:	ffff5f37          	lui	t5,0xffff5
80004008:	afdf0f13          	addi	t5,t5,-1283 # ffff4afd <imm12+0xffff502d>
8000400c:	66666eb7          	lui	t4,0x66666
80004010:	666e8e93          	addi	t4,t4,1638 # 66666666 <absimm+0x21374137>
80004014:	03df0fb3          	mul	t6,t5,t4
80004018:	27f42023          	sw	t6,608(s0)
8000401c:	6666b4b7          	lui	s1,0x6666b
80004020:	ece48493          	addi	s1,s1,-306 # 6666aece <absimm+0x2137899f>
80004024:	01f48463          	beq	s1,t6,8000402c <inst_434>
80004028:	0810106f          	j	800058a8 <bad_trap>

8000402c <inst_434>:
8000402c:	ffff5f37          	lui	t5,0xffff5
80004030:	afdf0f13          	addi	t5,t5,-1283 # ffff4afd <imm12+0xffff502d>
80004034:	ffff5eb7          	lui	t4,0xffff5
80004038:	afce8e93          	addi	t4,t4,-1284 # ffff4afc <imm12+0xffff502c>
8000403c:	03df0fb3          	mul	t6,t5,t4
80004040:	27f42223          	sw	t6,612(s0)
80004044:	7ffdf4b7          	lui	s1,0x7ffdf
80004048:	30c48493          	addi	s1,s1,780 # 7ffdf30c <absimm+0x3acecddd>
8000404c:	01f48463          	beq	s1,t6,80004054 <inst_435>
80004050:	0590106f          	j	800058a8 <bad_trap>

80004054 <inst_435>:
80004054:	ffff5f37          	lui	t5,0xffff5
80004058:	afdf0f13          	addi	t5,t5,-1283 # ffff4afd <imm12+0xffff502d>
8000405c:	0000beb7          	lui	t4,0xb
80004060:	504e8e93          	addi	t4,t4,1284 # b504 <offset+0xb3d0>
80004064:	03df0fb3          	mul	t6,t5,t4
80004068:	27f42423          	sw	t6,616(s0)
8000406c:	800214b7          	lui	s1,0x80021
80004070:	cf448493          	addi	s1,s1,-780 # 80020cf4 <imm12+0x80021224>
80004074:	01f48463          	beq	s1,t6,8000407c <inst_436>
80004078:	0310106f          	j	800058a8 <bad_trap>

8000407c <inst_436>:
8000407c:	ffff5f37          	lui	t5,0xffff5
80004080:	afdf0f13          	addi	t5,t5,-1283 # ffff4afd <imm12+0xffff502d>
80004084:	00200e93          	li	t4,2
80004088:	03df0fb3          	mul	t6,t5,t4
8000408c:	27f42623          	sw	t6,620(s0)
80004090:	fffe94b7          	lui	s1,0xfffe9
80004094:	5fa48493          	addi	s1,s1,1530 # fffe95fa <imm12+0xfffe9b2a>
80004098:	01f48463          	beq	s1,t6,800040a0 <inst_437>
8000409c:	00d0106f          	j	800058a8 <bad_trap>

800040a0 <inst_437>:
800040a0:	ffff5f37          	lui	t5,0xffff5
800040a4:	afdf0f13          	addi	t5,t5,-1283 # ffff4afd <imm12+0xffff502d>
800040a8:	55555eb7          	lui	t4,0x55555
800040ac:	554e8e93          	addi	t4,t4,1364 # 55555554 <absimm+0x10263025>
800040b0:	03df0fb3          	mul	t6,t5,t4
800040b4:	27f42823          	sw	t6,624(s0)
800040b8:	aaaba4b7          	lui	s1,0xaaaba
800040bc:	c0448493          	addi	s1,s1,-1020 # aaab9c04 <imm12+0xaaaba134>
800040c0:	01f48463          	beq	s1,t6,800040c8 <inst_438>
800040c4:	7e40106f          	j	800058a8 <bad_trap>

800040c8 <inst_438>:
800040c8:	ffff5f37          	lui	t5,0xffff5
800040cc:	afdf0f13          	addi	t5,t5,-1283 # ffff4afd <imm12+0xffff502d>
800040d0:	33333eb7          	lui	t4,0x33333
800040d4:	332e8e93          	addi	t4,t4,818 # 33333332 <offset+0x333331fe>
800040d8:	03df0fb3          	mul	t6,t5,t4
800040dc:	27f42a23          	sw	t6,628(s0)
800040e0:	333414b7          	lui	s1,0x33341
800040e4:	c6a48493          	addi	s1,s1,-918 # 33340c6a <offset+0x33340b36>
800040e8:	01f48463          	beq	s1,t6,800040f0 <inst_439>
800040ec:	7bc0106f          	j	800058a8 <bad_trap>

800040f0 <inst_439>:
800040f0:	ffff5f37          	lui	t5,0xffff5
800040f4:	afdf0f13          	addi	t5,t5,-1283 # ffff4afd <imm12+0xffff502d>
800040f8:	66666eb7          	lui	t4,0x66666
800040fc:	665e8e93          	addi	t4,t4,1637 # 66666665 <absimm+0x21374136>
80004100:	03df0fb3          	mul	t6,t5,t4
80004104:	27f42c23          	sw	t6,632(s0)
80004108:	666764b7          	lui	s1,0x66676
8000410c:	3d148493          	addi	s1,s1,977 # 666763d1 <absimm+0x21383ea2>
80004110:	01f48463          	beq	s1,t6,80004118 <inst_440>
80004114:	7940106f          	j	800058a8 <bad_trap>

80004118 <inst_440>:
80004118:	ffff5f37          	lui	t5,0xffff5
8000411c:	afdf0f13          	addi	t5,t5,-1283 # ffff4afd <imm12+0xffff502d>
80004120:	00000e93          	li	t4,0
80004124:	03df0fb3          	mul	t6,t5,t4
80004128:	27f42e23          	sw	t6,636(s0)
8000412c:	00000493          	li	s1,0
80004130:	01f48463          	beq	s1,t6,80004138 <inst_441>
80004134:	7740106f          	j	800058a8 <bad_trap>

80004138 <inst_441>:
80004138:	ffff5f37          	lui	t5,0xffff5
8000413c:	afdf0f13          	addi	t5,t5,-1283 # ffff4afd <imm12+0xffff502d>
80004140:	0000beb7          	lui	t4,0xb
80004144:	503e8e93          	addi	t4,t4,1283 # b503 <offset+0xb3cf>
80004148:	03df0fb3          	mul	t6,t5,t4
8000414c:	29f42023          	sw	t6,640(s0)
80004150:	8002c4b7          	lui	s1,0x8002c
80004154:	1f748493          	addi	s1,s1,503 # 8002c1f7 <imm12+0x8002c727>
80004158:	01f48463          	beq	s1,t6,80004160 <inst_442>
8000415c:	74c0106f          	j	800058a8 <bad_trap>

80004160 <inst_442>:
80004160:	ffff5f37          	lui	t5,0xffff5
80004164:	afdf0f13          	addi	t5,t5,-1283 # ffff4afd <imm12+0xffff502d>
80004168:	00400e93          	li	t4,4
8000416c:	03df0fb3          	mul	t6,t5,t4
80004170:	29f42223          	sw	t6,644(s0)
80004174:	fffd34b7          	lui	s1,0xfffd3
80004178:	bf448493          	addi	s1,s1,-1036 # fffd2bf4 <imm12+0xfffd3124>
8000417c:	01f48463          	beq	s1,t6,80004184 <inst_443>
80004180:	7280106f          	j	800058a8 <bad_trap>

80004184 <inst_443>:
80004184:	ffff5f37          	lui	t5,0xffff5
80004188:	afdf0f13          	addi	t5,t5,-1283 # ffff4afd <imm12+0xffff502d>
8000418c:	55555eb7          	lui	t4,0x55555
80004190:	556e8e93          	addi	t4,t4,1366 # 55555556 <absimm+0x10263027>
80004194:	03df0fb3          	mul	t6,t5,t4
80004198:	29f42423          	sw	t6,648(s0)
8000419c:	aaaa34b7          	lui	s1,0xaaaa3
800041a0:	1fe48493          	addi	s1,s1,510 # aaaa31fe <imm12+0xaaaa372e>
800041a4:	01f48463          	beq	s1,t6,800041ac <inst_444>
800041a8:	7000106f          	j	800058a8 <bad_trap>

800041ac <inst_444>:
800041ac:	ffff5f37          	lui	t5,0xffff5
800041b0:	afdf0f13          	addi	t5,t5,-1283 # ffff4afd <imm12+0xffff502d>
800041b4:	aaaabeb7          	lui	t4,0xaaaab
800041b8:	aabe8e93          	addi	t4,t4,-1365 # aaaaaaab <imm12+0xaaaaafdb>
800041bc:	03df0fb3          	mul	t6,t5,t4
800041c0:	29f42623          	sw	t6,652(s0)
800041c4:	555524b7          	lui	s1,0x55552
800041c8:	8ff48493          	addi	s1,s1,-1793 # 555518ff <absimm+0x1025f3d0>
800041cc:	01f48463          	beq	s1,t6,800041d4 <inst_445>
800041d0:	6d80106f          	j	800058a8 <bad_trap>

800041d4 <inst_445>:
800041d4:	ffff5f37          	lui	t5,0xffff5
800041d8:	afdf0f13          	addi	t5,t5,-1283 # ffff4afd <imm12+0xffff502d>
800041dc:	00600e93          	li	t4,6
800041e0:	03df0fb3          	mul	t6,t5,t4
800041e4:	29f42823          	sw	t6,656(s0)
800041e8:	fffbc4b7          	lui	s1,0xfffbc
800041ec:	1ee48493          	addi	s1,s1,494 # fffbc1ee <imm12+0xfffbc71e>
800041f0:	01f48463          	beq	s1,t6,800041f8 <inst_446>
800041f4:	6b40106f          	j	800058a8 <bad_trap>

800041f8 <inst_446>:
800041f8:	ffff5f37          	lui	t5,0xffff5
800041fc:	afdf0f13          	addi	t5,t5,-1283 # ffff4afd <imm12+0xffff502d>
80004200:	33333eb7          	lui	t4,0x33333
80004204:	334e8e93          	addi	t4,t4,820 # 33333334 <offset+0x33333200>
80004208:	03df0fb3          	mul	t6,t5,t4
8000420c:	29f42a23          	sw	t6,660(s0)
80004210:	3332a4b7          	lui	s1,0x3332a
80004214:	26448493          	addi	s1,s1,612 # 3332a264 <offset+0x3332a130>
80004218:	01f48463          	beq	s1,t6,80004220 <inst_447>
8000421c:	68c0106f          	j	800058a8 <bad_trap>

80004220 <inst_447>:
80004220:	ffff5f37          	lui	t5,0xffff5
80004224:	afdf0f13          	addi	t5,t5,-1283 # ffff4afd <imm12+0xffff502d>
80004228:	66666eb7          	lui	t4,0x66666
8000422c:	667e8e93          	addi	t4,t4,1639 # 66666667 <absimm+0x21374138>
80004230:	03df0fb3          	mul	t6,t5,t4
80004234:	29f42c23          	sw	t6,664(s0)
80004238:	666604b7          	lui	s1,0x66660
8000423c:	9cb48493          	addi	s1,s1,-1589 # 6665f9cb <absimm+0x2136d49c>
80004240:	01f48463          	beq	s1,t6,80004248 <inst_448>
80004244:	6640106f          	j	800058a8 <bad_trap>

80004248 <inst_448>:
80004248:	0000bf37          	lui	t5,0xb
8000424c:	505f0f13          	addi	t5,t5,1285 # b505 <offset+0xb3d1>
80004250:	00300e93          	li	t4,3
80004254:	03df0fb3          	mul	t6,t5,t4
80004258:	29f42e23          	sw	t6,668(s0)
8000425c:	000224b7          	lui	s1,0x22
80004260:	f0f48493          	addi	s1,s1,-241 # 21f0f <offset+0x21ddb>
80004264:	01f48463          	beq	s1,t6,8000426c <inst_449>
80004268:	6400106f          	j	800058a8 <bad_trap>

8000426c <inst_449>:
8000426c:	0000bf37          	lui	t5,0xb
80004270:	505f0f13          	addi	t5,t5,1285 # b505 <offset+0xb3d1>
80004274:	55555eb7          	lui	t4,0x55555
80004278:	555e8e93          	addi	t4,t4,1365 # 55555555 <absimm+0x10263026>
8000427c:	03df0fb3          	mul	t6,t5,t4
80004280:	2bf42023          	sw	t6,672(s0)
80004284:	ffffc4b7          	lui	s1,0xffffc
80004288:	3a948493          	addi	s1,s1,937 # ffffc3a9 <imm12+0xffffc8d9>
8000428c:	01f48463          	beq	s1,t6,80004294 <inst_450>
80004290:	6180106f          	j	800058a8 <bad_trap>

80004294 <inst_450>:
80004294:	0000bf37          	lui	t5,0xb
80004298:	505f0f13          	addi	t5,t5,1285 # b505 <offset+0xb3d1>
8000429c:	aaaabeb7          	lui	t4,0xaaaab
800042a0:	aaae8e93          	addi	t4,t4,-1366 # aaaaaaaa <imm12+0xaaaaafda>
800042a4:	03df0fb3          	mul	t6,t5,t4
800042a8:	2bf42223          	sw	t6,676(s0)
800042ac:	ffff84b7          	lui	s1,0xffff8
800042b0:	75248493          	addi	s1,s1,1874 # ffff8752 <imm12+0xffff8c82>
800042b4:	01f48463          	beq	s1,t6,800042bc <inst_451>
800042b8:	5f00106f          	j	800058a8 <bad_trap>

800042bc <inst_451>:
800042bc:	0000bf37          	lui	t5,0xb
800042c0:	505f0f13          	addi	t5,t5,1285 # b505 <offset+0xb3d1>
800042c4:	00500e93          	li	t4,5
800042c8:	03df0fb3          	mul	t6,t5,t4
800042cc:	2bf42423          	sw	t6,680(s0)
800042d0:	000394b7          	lui	s1,0x39
800042d4:	91948493          	addi	s1,s1,-1767 # 38919 <offset+0x387e5>
800042d8:	01f48463          	beq	s1,t6,800042e0 <inst_452>
800042dc:	5cc0106f          	j	800058a8 <bad_trap>

800042e0 <inst_452>:
800042e0:	0000bf37          	lui	t5,0xb
800042e4:	505f0f13          	addi	t5,t5,1285 # b505 <offset+0xb3d1>
800042e8:	33333eb7          	lui	t4,0x33333
800042ec:	333e8e93          	addi	t4,t4,819 # 33333333 <offset+0x333331ff>
800042f0:	03df0fb3          	mul	t6,t5,t4
800042f4:	2bf42623          	sw	t6,684(s0)
800042f8:	333314b7          	lui	s1,0x33331
800042fc:	eff48493          	addi	s1,s1,-257 # 33330eff <offset+0x33330dcb>
80004300:	01f48463          	beq	s1,t6,80004308 <inst_453>
80004304:	5a40106f          	j	800058a8 <bad_trap>

80004308 <inst_453>:
80004308:	0000bf37          	lui	t5,0xb
8000430c:	505f0f13          	addi	t5,t5,1285 # b505 <offset+0xb3d1>
80004310:	66666eb7          	lui	t4,0x66666
80004314:	666e8e93          	addi	t4,t4,1638 # 66666666 <absimm+0x21374137>
80004318:	03df0fb3          	mul	t6,t5,t4
8000431c:	2bf42823          	sw	t6,688(s0)
80004320:	666624b7          	lui	s1,0x66662
80004324:	dfe48493          	addi	s1,s1,-514 # 66661dfe <absimm+0x2136f8cf>
80004328:	01f48463          	beq	s1,t6,80004330 <inst_454>
8000432c:	57c0106f          	j	800058a8 <bad_trap>

80004330 <inst_454>:
80004330:	0000bf37          	lui	t5,0xb
80004334:	505f0f13          	addi	t5,t5,1285 # b505 <offset+0xb3d1>
80004338:	ffff5eb7          	lui	t4,0xffff5
8000433c:	afce8e93          	addi	t4,t4,-1284 # ffff4afc <imm12+0xffff502c>
80004340:	03df0fb3          	mul	t6,t5,t4
80004344:	2bf42a23          	sw	t6,692(s0)
80004348:	8000a4b7          	lui	s1,0x8000a
8000434c:	2ec48493          	addi	s1,s1,748 # 8000a2ec <imm12+0x8000a81c>
80004350:	01f48463          	beq	s1,t6,80004358 <inst_455>
80004354:	5540106f          	j	800058a8 <bad_trap>

80004358 <inst_455>:
80004358:	0000bf37          	lui	t5,0xb
8000435c:	505f0f13          	addi	t5,t5,1285 # b505 <offset+0xb3d1>
80004360:	0000beb7          	lui	t4,0xb
80004364:	504e8e93          	addi	t4,t4,1284 # b504 <offset+0xb3d0>
80004368:	03df0fb3          	mul	t6,t5,t4
8000436c:	2bf42c23          	sw	t6,696(s0)
80004370:	7fff64b7          	lui	s1,0x7fff6
80004374:	d1448493          	addi	s1,s1,-748 # 7fff5d14 <absimm+0x3ad037e5>
80004378:	01f48463          	beq	s1,t6,80004380 <inst_456>
8000437c:	52c0106f          	j	800058a8 <bad_trap>

80004380 <inst_456>:
80004380:	0000bf37          	lui	t5,0xb
80004384:	505f0f13          	addi	t5,t5,1285 # b505 <offset+0xb3d1>
80004388:	55555eb7          	lui	t4,0x55555
8000438c:	554e8e93          	addi	t4,t4,1364 # 55555554 <absimm+0x10263025>
80004390:	03df0fb3          	mul	t6,t5,t4
80004394:	2bf42e23          	sw	t6,700(s0)
80004398:	ffff14b7          	lui	s1,0xffff1
8000439c:	ea448493          	addi	s1,s1,-348 # ffff0ea4 <imm12+0xffff13d4>
800043a0:	01f48463          	beq	s1,t6,800043a8 <inst_457>
800043a4:	5040106f          	j	800058a8 <bad_trap>

800043a8 <inst_457>:
800043a8:	0000bf37          	lui	t5,0xb
800043ac:	505f0f13          	addi	t5,t5,1285 # b505 <offset+0xb3d1>
800043b0:	33333eb7          	lui	t4,0x33333
800043b4:	332e8e93          	addi	t4,t4,818 # 33333332 <offset+0x333331fe>
800043b8:	03df0fb3          	mul	t6,t5,t4
800043bc:	2df42023          	sw	t6,704(s0)
800043c0:	333264b7          	lui	s1,0x33326
800043c4:	9fa48493          	addi	s1,s1,-1542 # 333259fa <offset+0x333258c6>
800043c8:	01f48463          	beq	s1,t6,800043d0 <inst_458>
800043cc:	4dc0106f          	j	800058a8 <bad_trap>

800043d0 <inst_458>:
800043d0:	0000bf37          	lui	t5,0xb
800043d4:	505f0f13          	addi	t5,t5,1285 # b505 <offset+0xb3d1>
800043d8:	66666eb7          	lui	t4,0x66666
800043dc:	665e8e93          	addi	t4,t4,1637 # 66666665 <absimm+0x21374136>
800043e0:	03df0fb3          	mul	t6,t5,t4
800043e4:	2df42223          	sw	t6,708(s0)
800043e8:	666574b7          	lui	s1,0x66657
800043ec:	8f948493          	addi	s1,s1,-1799 # 666568f9 <absimm+0x213643ca>
800043f0:	01f48463          	beq	s1,t6,800043f8 <inst_459>
800043f4:	4b40106f          	j	800058a8 <bad_trap>

800043f8 <inst_459>:
800043f8:	0000bf37          	lui	t5,0xb
800043fc:	505f0f13          	addi	t5,t5,1285 # b505 <offset+0xb3d1>
80004400:	00000e93          	li	t4,0
80004404:	03df0fb3          	mul	t6,t5,t4
80004408:	2df42423          	sw	t6,712(s0)
8000440c:	00000493          	li	s1,0
80004410:	01f48463          	beq	s1,t6,80004418 <inst_460>
80004414:	4940106f          	j	800058a8 <bad_trap>

80004418 <inst_460>:
80004418:	0000bf37          	lui	t5,0xb
8000441c:	505f0f13          	addi	t5,t5,1285 # b505 <offset+0xb3d1>
80004420:	0000beb7          	lui	t4,0xb
80004424:	503e8e93          	addi	t4,t4,1283 # b503 <offset+0xb3cf>
80004428:	03df0fb3          	mul	t6,t5,t4
8000442c:	2df42623          	sw	t6,716(s0)
80004430:	7ffeb4b7          	lui	s1,0x7ffeb
80004434:	80f48493          	addi	s1,s1,-2033 # 7ffea80f <absimm+0x3acf82e0>
80004438:	01f48463          	beq	s1,t6,80004440 <inst_461>
8000443c:	46c0106f          	j	800058a8 <bad_trap>

80004440 <inst_461>:
80004440:	0000bf37          	lui	t5,0xb
80004444:	505f0f13          	addi	t5,t5,1285 # b505 <offset+0xb3d1>
80004448:	55555eb7          	lui	t4,0x55555
8000444c:	556e8e93          	addi	t4,t4,1366 # 55555556 <absimm+0x10263027>
80004450:	03df0fb3          	mul	t6,t5,t4
80004454:	2df42823          	sw	t6,720(s0)
80004458:	000084b7          	lui	s1,0x8
8000445c:	8ae48493          	addi	s1,s1,-1874 # 78ae <offset+0x777a>
80004460:	01f48463          	beq	s1,t6,80004468 <inst_462>
80004464:	4440106f          	j	800058a8 <bad_trap>

80004468 <inst_462>:
80004468:	0000bf37          	lui	t5,0xb
8000446c:	505f0f13          	addi	t5,t5,1285 # b505 <offset+0xb3d1>
80004470:	aaaabeb7          	lui	t4,0xaaaab
80004474:	aabe8e93          	addi	t4,t4,-1365 # aaaaaaab <imm12+0xaaaaafdb>
80004478:	03df0fb3          	mul	t6,t5,t4
8000447c:	2df42a23          	sw	t6,724(s0)
80004480:	000044b7          	lui	s1,0x4
80004484:	c5748493          	addi	s1,s1,-937 # 3c57 <offset+0x3b23>
80004488:	01f48463          	beq	s1,t6,80004490 <inst_463>
8000448c:	41c0106f          	j	800058a8 <bad_trap>

80004490 <inst_463>:
80004490:	0000bf37          	lui	t5,0xb
80004494:	505f0f13          	addi	t5,t5,1285 # b505 <offset+0xb3d1>
80004498:	00600e93          	li	t4,6
8000449c:	03df0fb3          	mul	t6,t5,t4
800044a0:	2df42c23          	sw	t6,728(s0)
800044a4:	000444b7          	lui	s1,0x44
800044a8:	e1e48493          	addi	s1,s1,-482 # 43e1e <offset+0x43cea>
800044ac:	01f48463          	beq	s1,t6,800044b4 <inst_464>
800044b0:	3f80106f          	j	800058a8 <bad_trap>

800044b4 <inst_464>:
800044b4:	0000bf37          	lui	t5,0xb
800044b8:	505f0f13          	addi	t5,t5,1285 # b505 <offset+0xb3d1>
800044bc:	33333eb7          	lui	t4,0x33333
800044c0:	334e8e93          	addi	t4,t4,820 # 33333334 <offset+0x33333200>
800044c4:	03df0fb3          	mul	t6,t5,t4
800044c8:	2df42e23          	sw	t6,732(s0)
800044cc:	3333c4b7          	lui	s1,0x3333c
800044d0:	40448493          	addi	s1,s1,1028 # 3333c404 <offset+0x3333c2d0>
800044d4:	01f48463          	beq	s1,t6,800044dc <inst_465>
800044d8:	3d00106f          	j	800058a8 <bad_trap>

800044dc <inst_465>:
800044dc:	0000bf37          	lui	t5,0xb
800044e0:	505f0f13          	addi	t5,t5,1285 # b505 <offset+0xb3d1>
800044e4:	66666eb7          	lui	t4,0x66666
800044e8:	667e8e93          	addi	t4,t4,1639 # 66666667 <absimm+0x21374138>
800044ec:	03df0fb3          	mul	t6,t5,t4
800044f0:	2ff42023          	sw	t6,736(s0)
800044f4:	6666d4b7          	lui	s1,0x6666d
800044f8:	30348493          	addi	s1,s1,771 # 6666d303 <absimm+0x2137add4>
800044fc:	01f48463          	beq	s1,t6,80004504 <inst_466>
80004500:	3a80106f          	j	800058a8 <bad_trap>

80004504 <inst_466>:
80004504:	0000bf37          	lui	t5,0xb
80004508:	505f0f13          	addi	t5,t5,1285 # b505 <offset+0xb3d1>
8000450c:	0000beb7          	lui	t4,0xb
80004510:	505e8e93          	addi	t4,t4,1285 # b505 <offset+0xb3d1>
80004514:	03df0fb3          	mul	t6,t5,t4
80004518:	2ff42223          	sw	t6,740(s0)
8000451c:	800014b7          	lui	s1,0x80001
80004520:	21948493          	addi	s1,s1,537 # 80001219 <imm12+0x80001749>
80004524:	01f48463          	beq	s1,t6,8000452c <inst_467>
80004528:	3800106f          	j	800058a8 <bad_trap>

8000452c <inst_467>:
8000452c:	33333f37          	lui	t5,0x33333
80004530:	332f0f13          	addi	t5,t5,818 # 33333332 <offset+0x333331fe>
80004534:	aaaabeb7          	lui	t4,0xaaaab
80004538:	aaae8e93          	addi	t4,t4,-1366 # aaaaaaaa <imm12+0xaaaaafda>
8000453c:	03df0fb3          	mul	t6,t5,t4
80004540:	2ff42423          	sw	t6,744(s0)
80004544:	333334b7          	lui	s1,0x33333
80004548:	33448493          	addi	s1,s1,820 # 33333334 <offset+0x33333200>
8000454c:	01f48463          	beq	s1,t6,80004554 <inst_468>
80004550:	3580106f          	j	800058a8 <bad_trap>

80004554 <inst_468>:
80004554:	33333f37          	lui	t5,0x33333
80004558:	332f0f13          	addi	t5,t5,818 # 33333332 <offset+0x333331fe>
8000455c:	00500e93          	li	t4,5
80004560:	03df0fb3          	mul	t6,t5,t4
80004564:	2ff42623          	sw	t6,748(s0)
80004568:	ffa00493          	li	s1,-6
8000456c:	01f48463          	beq	s1,t6,80004574 <inst_469>
80004570:	3380106f          	j	800058a8 <bad_trap>

80004574 <inst_469>:
80004574:	33333f37          	lui	t5,0x33333
80004578:	332f0f13          	addi	t5,t5,818 # 33333332 <offset+0x333331fe>
8000457c:	33333eb7          	lui	t4,0x33333
80004580:	333e8e93          	addi	t4,t4,819 # 33333333 <offset+0x333331ff>
80004584:	03df0fb3          	mul	t6,t5,t4
80004588:	2ff42823          	sw	t6,752(s0)
8000458c:	8f5c34b7          	lui	s1,0x8f5c3
80004590:	8f648493          	addi	s1,s1,-1802 # 8f5c28f6 <imm12+0x8f5c2e26>
80004594:	01f48463          	beq	s1,t6,8000459c <inst_470>
80004598:	3100106f          	j	800058a8 <bad_trap>

8000459c <inst_470>:
8000459c:	33333f37          	lui	t5,0x33333
800045a0:	332f0f13          	addi	t5,t5,818 # 33333332 <offset+0x333331fe>
800045a4:	66666eb7          	lui	t4,0x66666
800045a8:	666e8e93          	addi	t4,t4,1638 # 66666666 <absimm+0x21374137>
800045ac:	03df0fb3          	mul	t6,t5,t4
800045b0:	2ff42a23          	sw	t6,756(s0)
800045b4:	1eb854b7          	lui	s1,0x1eb85
800045b8:	1ec48493          	addi	s1,s1,492 # 1eb851ec <offset+0x1eb850b8>
800045bc:	01f48463          	beq	s1,t6,800045c4 <inst_471>
800045c0:	2e80106f          	j	800058a8 <bad_trap>

800045c4 <inst_471>:
800045c4:	33333f37          	lui	t5,0x33333
800045c8:	332f0f13          	addi	t5,t5,818 # 33333332 <offset+0x333331fe>
800045cc:	ffff5eb7          	lui	t4,0xffff5
800045d0:	afce8e93          	addi	t4,t4,-1284 # ffff4afc <imm12+0xffff502c>
800045d4:	03df0fb3          	mul	t6,t5,t4
800045d8:	2ff42c23          	sw	t6,760(s0)
800045dc:	0000e4b7          	lui	s1,0xe
800045e0:	93848493          	addi	s1,s1,-1736 # d938 <offset+0xd804>
800045e4:	01f48463          	beq	s1,t6,800045ec <inst_472>
800045e8:	2c00106f          	j	800058a8 <bad_trap>

800045ec <inst_472>:
800045ec:	33333f37          	lui	t5,0x33333
800045f0:	332f0f13          	addi	t5,t5,818 # 33333332 <offset+0x333331fe>
800045f4:	0000beb7          	lui	t4,0xb
800045f8:	504e8e93          	addi	t4,t4,1284 # b504 <offset+0xb3d0>
800045fc:	03df0fb3          	mul	t6,t5,t4
80004600:	2ff42e23          	sw	t6,764(s0)
80004604:	ffff24b7          	lui	s1,0xffff2
80004608:	6c848493          	addi	s1,s1,1736 # ffff26c8 <imm12+0xffff2bf8>
8000460c:	01f48463          	beq	s1,t6,80004614 <inst_473>
80004610:	2980106f          	j	800058a8 <bad_trap>

80004614 <inst_473>:
80004614:	33333f37          	lui	t5,0x33333
80004618:	332f0f13          	addi	t5,t5,818 # 33333332 <offset+0x333331fe>
8000461c:	00200e93          	li	t4,2
80004620:	03df0fb3          	mul	t6,t5,t4
80004624:	31f42023          	sw	t6,768(s0)
80004628:	666664b7          	lui	s1,0x66666
8000462c:	66448493          	addi	s1,s1,1636 # 66666664 <absimm+0x21374135>
80004630:	01f48463          	beq	s1,t6,80004638 <inst_474>
80004634:	2740106f          	j	800058a8 <bad_trap>

80004638 <inst_474>:
80004638:	33333f37          	lui	t5,0x33333
8000463c:	332f0f13          	addi	t5,t5,818 # 33333332 <offset+0x333331fe>
80004640:	55555eb7          	lui	t4,0x55555
80004644:	554e8e93          	addi	t4,t4,1364 # 55555554 <absimm+0x10263025>
80004648:	03df0fb3          	mul	t6,t5,t4
8000464c:	31f42223          	sw	t6,772(s0)
80004650:	666664b7          	lui	s1,0x66666
80004654:	66848493          	addi	s1,s1,1640 # 66666668 <absimm+0x21374139>
80004658:	01f48463          	beq	s1,t6,80004660 <inst_475>
8000465c:	24c0106f          	j	800058a8 <bad_trap>

80004660 <inst_475>:
80004660:	33333f37          	lui	t5,0x33333
80004664:	332f0f13          	addi	t5,t5,818 # 33333332 <offset+0x333331fe>
80004668:	33333eb7          	lui	t4,0x33333
8000466c:	332e8e93          	addi	t4,t4,818 # 33333332 <offset+0x333331fe>
80004670:	03df0fb3          	mul	t6,t5,t4
80004674:	31f42423          	sw	t6,776(s0)
80004678:	5c28f4b7          	lui	s1,0x5c28f
8000467c:	5c448493          	addi	s1,s1,1476 # 5c28f5c4 <absimm+0x16f9d095>
80004680:	01f48463          	beq	s1,t6,80004688 <inst_476>
80004684:	2240106f          	j	800058a8 <bad_trap>

80004688 <inst_476>:
80004688:	33333f37          	lui	t5,0x33333
8000468c:	332f0f13          	addi	t5,t5,818 # 33333332 <offset+0x333331fe>
80004690:	66666eb7          	lui	t4,0x66666
80004694:	665e8e93          	addi	t4,t4,1637 # 66666665 <absimm+0x21374136>
80004698:	03df0fb3          	mul	t6,t5,t4
8000469c:	31f42623          	sw	t6,780(s0)
800046a0:	eb8524b7          	lui	s1,0xeb852
800046a4:	eba48493          	addi	s1,s1,-326 # eb851eba <imm12+0xeb8523ea>
800046a8:	01f48463          	beq	s1,t6,800046b0 <inst_477>
800046ac:	1fc0106f          	j	800058a8 <bad_trap>

800046b0 <inst_477>:
800046b0:	33333f37          	lui	t5,0x33333
800046b4:	332f0f13          	addi	t5,t5,818 # 33333332 <offset+0x333331fe>
800046b8:	00000e93          	li	t4,0
800046bc:	03df0fb3          	mul	t6,t5,t4
800046c0:	31f42823          	sw	t6,784(s0)
800046c4:	00000493          	li	s1,0
800046c8:	01f48463          	beq	s1,t6,800046d0 <inst_478>
800046cc:	1dc0106f          	j	800058a8 <bad_trap>

800046d0 <inst_478>:
800046d0:	33333f37          	lui	t5,0x33333
800046d4:	332f0f13          	addi	t5,t5,818 # 33333332 <offset+0x333331fe>
800046d8:	0000beb7          	lui	t4,0xb
800046dc:	503e8e93          	addi	t4,t4,1283 # b503 <offset+0xb3cf>
800046e0:	03df0fb3          	mul	t6,t5,t4
800046e4:	31f42a23          	sw	t6,788(s0)
800046e8:	cccbf4b7          	lui	s1,0xcccbf
800046ec:	39648493          	addi	s1,s1,918 # cccbf396 <imm12+0xcccbf8c6>
800046f0:	01f48463          	beq	s1,t6,800046f8 <inst_479>
800046f4:	1b40106f          	j	800058a8 <bad_trap>

800046f8 <inst_479>:
800046f8:	33333f37          	lui	t5,0x33333
800046fc:	332f0f13          	addi	t5,t5,818 # 33333332 <offset+0x333331fe>
80004700:	00400e93          	li	t4,4
80004704:	03df0fb3          	mul	t6,t5,t4
80004708:	31f42c23          	sw	t6,792(s0)
8000470c:	ccccd4b7          	lui	s1,0xccccd
80004710:	cc848493          	addi	s1,s1,-824 # ccccccc8 <imm12+0xccccd1f8>
80004714:	01f48463          	beq	s1,t6,8000471c <inst_480>
80004718:	1900106f          	j	800058a8 <bad_trap>

8000471c <inst_480>:
8000471c:	33333f37          	lui	t5,0x33333
80004720:	332f0f13          	addi	t5,t5,818 # 33333332 <offset+0x333331fe>
80004724:	55555eb7          	lui	t4,0x55555
80004728:	556e8e93          	addi	t4,t4,1366 # 55555556 <absimm+0x10263027>
8000472c:	03df0fb3          	mul	t6,t5,t4
80004730:	31f42e23          	sw	t6,796(s0)
80004734:	ccccd4b7          	lui	s1,0xccccd
80004738:	ccc48493          	addi	s1,s1,-820 # cccccccc <imm12+0xccccd1fc>
8000473c:	01f48463          	beq	s1,t6,80004744 <inst_481>
80004740:	1680106f          	j	800058a8 <bad_trap>

80004744 <inst_481>:
80004744:	33333f37          	lui	t5,0x33333
80004748:	332f0f13          	addi	t5,t5,818 # 33333332 <offset+0x333331fe>
8000474c:	aaaabeb7          	lui	t4,0xaaaab
80004750:	aabe8e93          	addi	t4,t4,-1365 # aaaaaaab <imm12+0xaaaaafdb>
80004754:	03df0fb3          	mul	t6,t5,t4
80004758:	33f42023          	sw	t6,800(s0)
8000475c:	666664b7          	lui	s1,0x66666
80004760:	66648493          	addi	s1,s1,1638 # 66666666 <absimm+0x21374137>
80004764:	01f48463          	beq	s1,t6,8000476c <inst_482>
80004768:	1400106f          	j	800058a8 <bad_trap>

8000476c <inst_482>:
8000476c:	33333f37          	lui	t5,0x33333
80004770:	332f0f13          	addi	t5,t5,818 # 33333332 <offset+0x333331fe>
80004774:	00600e93          	li	t4,6
80004778:	03df0fb3          	mul	t6,t5,t4
8000477c:	33f42223          	sw	t6,804(s0)
80004780:	333334b7          	lui	s1,0x33333
80004784:	32c48493          	addi	s1,s1,812 # 3333332c <offset+0x333331f8>
80004788:	01f48463          	beq	s1,t6,80004790 <inst_483>
8000478c:	11c0106f          	j	800058a8 <bad_trap>

80004790 <inst_483>:
80004790:	33333f37          	lui	t5,0x33333
80004794:	332f0f13          	addi	t5,t5,818 # 33333332 <offset+0x333331fe>
80004798:	33333eb7          	lui	t4,0x33333
8000479c:	334e8e93          	addi	t4,t4,820 # 33333334 <offset+0x33333200>
800047a0:	03df0fb3          	mul	t6,t5,t4
800047a4:	33f42423          	sw	t6,808(s0)
800047a8:	c28f64b7          	lui	s1,0xc28f6
800047ac:	c2848493          	addi	s1,s1,-984 # c28f5c28 <imm12+0xc28f6158>
800047b0:	01f48463          	beq	s1,t6,800047b8 <inst_484>
800047b4:	0f40106f          	j	800058a8 <bad_trap>

800047b8 <inst_484>:
800047b8:	33333f37          	lui	t5,0x33333
800047bc:	332f0f13          	addi	t5,t5,818 # 33333332 <offset+0x333331fe>
800047c0:	66666eb7          	lui	t4,0x66666
800047c4:	667e8e93          	addi	t4,t4,1639 # 66666667 <absimm+0x21374138>
800047c8:	03df0fb3          	mul	t6,t5,t4
800047cc:	33f42623          	sw	t6,812(s0)
800047d0:	51eb84b7          	lui	s1,0x51eb8
800047d4:	51e48493          	addi	s1,s1,1310 # 51eb851e <absimm+0xcbc5fef>
800047d8:	01f48463          	beq	s1,t6,800047e0 <inst_485>
800047dc:	0cc0106f          	j	800058a8 <bad_trap>

800047e0 <inst_485>:
800047e0:	33333f37          	lui	t5,0x33333
800047e4:	332f0f13          	addi	t5,t5,818 # 33333332 <offset+0x333331fe>
800047e8:	ffff5eb7          	lui	t4,0xffff5
800047ec:	afde8e93          	addi	t4,t4,-1283 # ffff4afd <imm12+0xffff502d>
800047f0:	03df0fb3          	mul	t6,t5,t4
800047f4:	33f42823          	sw	t6,816(s0)
800047f8:	333414b7          	lui	s1,0x33341
800047fc:	c6a48493          	addi	s1,s1,-918 # 33340c6a <offset+0x33340b36>
80004800:	01f48463          	beq	s1,t6,80004808 <inst_486>
80004804:	0a40106f          	j	800058a8 <bad_trap>

80004808 <inst_486>:
80004808:	33333f37          	lui	t5,0x33333
8000480c:	332f0f13          	addi	t5,t5,818 # 33333332 <offset+0x333331fe>
80004810:	0000beb7          	lui	t4,0xb
80004814:	505e8e93          	addi	t4,t4,1285 # b505 <offset+0xb3d1>
80004818:	03df0fb3          	mul	t6,t5,t4
8000481c:	33f42a23          	sw	t6,820(s0)
80004820:	333264b7          	lui	s1,0x33326
80004824:	9fa48493          	addi	s1,s1,-1542 # 333259fa <offset+0x333258c6>
80004828:	01f48463          	beq	s1,t6,80004830 <inst_487>
8000482c:	07c0106f          	j	800058a8 <bad_trap>

80004830 <inst_487>:
80004830:	66666f37          	lui	t5,0x66666
80004834:	665f0f13          	addi	t5,t5,1637 # 66666665 <absimm+0x21374136>
80004838:	00300e93          	li	t4,3
8000483c:	03df0fb3          	mul	t6,t5,t4
80004840:	33f42c23          	sw	t6,824(s0)
80004844:	333334b7          	lui	s1,0x33333
80004848:	32f48493          	addi	s1,s1,815 # 3333332f <offset+0x333331fb>
8000484c:	01f48463          	beq	s1,t6,80004854 <inst_488>
80004850:	0580106f          	j	800058a8 <bad_trap>

80004854 <inst_488>:
80004854:	66666f37          	lui	t5,0x66666
80004858:	665f0f13          	addi	t5,t5,1637 # 66666665 <absimm+0x21374136>
8000485c:	55555eb7          	lui	t4,0x55555
80004860:	555e8e93          	addi	t4,t4,1365 # 55555555 <absimm+0x10263026>
80004864:	03df0fb3          	mul	t6,t5,t4
80004868:	33f42e23          	sw	t6,828(s0)
8000486c:	888894b7          	lui	s1,0x88889
80004870:	88948493          	addi	s1,s1,-1911 # 88888889 <imm12+0x88888db9>
80004874:	01f48463          	beq	s1,t6,8000487c <inst_489>
80004878:	0300106f          	j	800058a8 <bad_trap>

8000487c <inst_489>:
8000487c:	66666f37          	lui	t5,0x66666
80004880:	665f0f13          	addi	t5,t5,1637 # 66666665 <absimm+0x21374136>
80004884:	aaaabeb7          	lui	t4,0xaaaab
80004888:	aaae8e93          	addi	t4,t4,-1366 # aaaaaaaa <imm12+0xaaaaafda>
8000488c:	03df0fb3          	mul	t6,t5,t4
80004890:	35f42023          	sw	t6,832(s0)
80004894:	111114b7          	lui	s1,0x11111
80004898:	11248493          	addi	s1,s1,274 # 11111112 <offset+0x11110fde>
8000489c:	01f48463          	beq	s1,t6,800048a4 <inst_490>
800048a0:	0080106f          	j	800058a8 <bad_trap>

800048a4 <inst_490>:
800048a4:	66666f37          	lui	t5,0x66666
800048a8:	665f0f13          	addi	t5,t5,1637 # 66666665 <absimm+0x21374136>
800048ac:	00500e93          	li	t4,5
800048b0:	03df0fb3          	mul	t6,t5,t4
800048b4:	35f42223          	sw	t6,836(s0)
800048b8:	ff900493          	li	s1,-7
800048bc:	01f48463          	beq	s1,t6,800048c4 <inst_491>
800048c0:	7e90006f          	j	800058a8 <bad_trap>

800048c4 <inst_491>:
800048c4:	66666f37          	lui	t5,0x66666
800048c8:	665f0f13          	addi	t5,t5,1637 # 66666665 <absimm+0x21374136>
800048cc:	33333eb7          	lui	t4,0x33333
800048d0:	333e8e93          	addi	t4,t4,819 # 33333333 <offset+0x333331ff>
800048d4:	03df0fb3          	mul	t6,t5,t4
800048d8:	35f42423          	sw	t6,840(s0)
800048dc:	51eb84b7          	lui	s1,0x51eb8
800048e0:	51f48493          	addi	s1,s1,1311 # 51eb851f <absimm+0xcbc5ff0>
800048e4:	7df492e3          	bne	s1,t6,800058a8 <bad_trap>

800048e8 <inst_492>:
800048e8:	66666f37          	lui	t5,0x66666
800048ec:	665f0f13          	addi	t5,t5,1637 # 66666665 <absimm+0x21374136>
800048f0:	66666eb7          	lui	t4,0x66666
800048f4:	666e8e93          	addi	t4,t4,1638 # 66666666 <absimm+0x21374137>
800048f8:	03df0fb3          	mul	t6,t5,t4
800048fc:	35f42623          	sw	t6,844(s0)
80004900:	a3d714b7          	lui	s1,0xa3d71
80004904:	a3e48493          	addi	s1,s1,-1474 # a3d70a3e <imm12+0xa3d70f6e>
80004908:	7bf490e3          	bne	s1,t6,800058a8 <bad_trap>

8000490c <inst_493>:
8000490c:	66666f37          	lui	t5,0x66666
80004910:	665f0f13          	addi	t5,t5,1637 # 66666665 <absimm+0x21374136>
80004914:	ffff5eb7          	lui	t4,0xffff5
80004918:	afce8e93          	addi	t4,t4,-1284 # ffff4afc <imm12+0xffff502c>
8000491c:	03df0fb3          	mul	t6,t5,t4
80004920:	35f42823          	sw	t6,848(s0)
80004924:	000104b7          	lui	s1,0x10
80004928:	d6c48493          	addi	s1,s1,-660 # fd6c <offset+0xfc38>
8000492c:	77f49ee3          	bne	s1,t6,800058a8 <bad_trap>

80004930 <inst_494>:
80004930:	66666f37          	lui	t5,0x66666
80004934:	665f0f13          	addi	t5,t5,1637 # 66666665 <absimm+0x21374136>
80004938:	0000beb7          	lui	t4,0xb
8000493c:	504e8e93          	addi	t4,t4,1284 # b504 <offset+0xb3d0>
80004940:	03df0fb3          	mul	t6,t5,t4
80004944:	35f42a23          	sw	t6,852(s0)
80004948:	ffff04b7          	lui	s1,0xffff0
8000494c:	29448493          	addi	s1,s1,660 # ffff0294 <imm12+0xffff07c4>
80004950:	75f49ce3          	bne	s1,t6,800058a8 <bad_trap>

80004954 <inst_495>:
80004954:	66666f37          	lui	t5,0x66666
80004958:	665f0f13          	addi	t5,t5,1637 # 66666665 <absimm+0x21374136>
8000495c:	00200e93          	li	t4,2
80004960:	03df0fb3          	mul	t6,t5,t4
80004964:	35f42c23          	sw	t6,856(s0)
80004968:	ccccd4b7          	lui	s1,0xccccd
8000496c:	cca48493          	addi	s1,s1,-822 # ccccccca <imm12+0xccccd1fa>
80004970:	73f49ce3          	bne	s1,t6,800058a8 <bad_trap>

80004974 <inst_496>:
80004974:	66666f37          	lui	t5,0x66666
80004978:	665f0f13          	addi	t5,t5,1637 # 66666665 <absimm+0x21374136>
8000497c:	55555eb7          	lui	t4,0x55555
80004980:	554e8e93          	addi	t4,t4,1364 # 55555554 <absimm+0x10263025>
80004984:	03df0fb3          	mul	t6,t5,t4
80004988:	35f42e23          	sw	t6,860(s0)
8000498c:	222224b7          	lui	s1,0x22222
80004990:	22448493          	addi	s1,s1,548 # 22222224 <offset+0x222220f0>
80004994:	71f49ae3          	bne	s1,t6,800058a8 <bad_trap>

80004998 <inst_497>:
80004998:	66666f37          	lui	t5,0x66666
8000499c:	665f0f13          	addi	t5,t5,1637 # 66666665 <absimm+0x21374136>
800049a0:	33333eb7          	lui	t4,0x33333
800049a4:	332e8e93          	addi	t4,t4,818 # 33333332 <offset+0x333331fe>
800049a8:	03df0fb3          	mul	t6,t5,t4
800049ac:	37f42023          	sw	t6,864(s0)
800049b0:	eb8524b7          	lui	s1,0xeb852
800049b4:	eba48493          	addi	s1,s1,-326 # eb851eba <imm12+0xeb8523ea>
800049b8:	6ff498e3          	bne	s1,t6,800058a8 <bad_trap>

800049bc <inst_498>:
800049bc:	66666f37          	lui	t5,0x66666
800049c0:	665f0f13          	addi	t5,t5,1637 # 66666665 <absimm+0x21374136>
800049c4:	66666eb7          	lui	t4,0x66666
800049c8:	665e8e93          	addi	t4,t4,1637 # 66666665 <absimm+0x21374136>
800049cc:	03df0fb3          	mul	t6,t5,t4
800049d0:	37f42223          	sw	t6,868(s0)
800049d4:	3d70a4b7          	lui	s1,0x3d70a
800049d8:	3d948493          	addi	s1,s1,985 # 3d70a3d9 <offset+0x3d70a2a5>
800049dc:	6df496e3          	bne	s1,t6,800058a8 <bad_trap>

800049e0 <inst_499>:
800049e0:	66666f37          	lui	t5,0x66666
800049e4:	665f0f13          	addi	t5,t5,1637 # 66666665 <absimm+0x21374136>
800049e8:	00000e93          	li	t4,0
800049ec:	03df0fb3          	mul	t6,t5,t4
800049f0:	37f42423          	sw	t6,872(s0)
800049f4:	00000493          	li	s1,0
800049f8:	6bf498e3          	bne	s1,t6,800058a8 <bad_trap>

800049fc <inst_500>:
800049fc:	66666f37          	lui	t5,0x66666
80004a00:	665f0f13          	addi	t5,t5,1637 # 66666665 <absimm+0x21374136>
80004a04:	0000beb7          	lui	t4,0xb
80004a08:	503e8e93          	addi	t4,t4,1283 # b503 <offset+0xb3cf>
80004a0c:	03df0fb3          	mul	t6,t5,t4
80004a10:	37f42623          	sw	t6,876(s0)
80004a14:	9998a4b7          	lui	s1,0x9998a
80004a18:	c2f48493          	addi	s1,s1,-977 # 99989c2f <imm12+0x9998a15f>
80004a1c:	69f496e3          	bne	s1,t6,800058a8 <bad_trap>

80004a20 <inst_501>:
80004a20:	66666f37          	lui	t5,0x66666
80004a24:	665f0f13          	addi	t5,t5,1637 # 66666665 <absimm+0x21374136>
80004a28:	00400e93          	li	t4,4
80004a2c:	03df0fb3          	mul	t6,t5,t4
80004a30:	37f42823          	sw	t6,880(s0)
80004a34:	9999a4b7          	lui	s1,0x9999a
80004a38:	99448493          	addi	s1,s1,-1644 # 99999994 <imm12+0x99999ec4>
80004a3c:	67f496e3          	bne	s1,t6,800058a8 <bad_trap>

80004a40 <inst_502>:
80004a40:	66666f37          	lui	t5,0x66666
80004a44:	665f0f13          	addi	t5,t5,1637 # 66666665 <absimm+0x21374136>
80004a48:	55555eb7          	lui	t4,0x55555
80004a4c:	556e8e93          	addi	t4,t4,1366 # 55555556 <absimm+0x10263027>
80004a50:	03df0fb3          	mul	t6,t5,t4
80004a54:	37f42a23          	sw	t6,884(s0)
80004a58:	eeeef4b7          	lui	s1,0xeeeef
80004a5c:	eee48493          	addi	s1,s1,-274 # eeeeeeee <imm12+0xeeeef41e>
80004a60:	65f494e3          	bne	s1,t6,800058a8 <bad_trap>

80004a64 <inst_503>:
80004a64:	66666f37          	lui	t5,0x66666
80004a68:	665f0f13          	addi	t5,t5,1637 # 66666665 <absimm+0x21374136>
80004a6c:	aaaabeb7          	lui	t4,0xaaaab
80004a70:	aabe8e93          	addi	t4,t4,-1365 # aaaaaaab <imm12+0xaaaaafdb>
80004a74:	03df0fb3          	mul	t6,t5,t4
80004a78:	37f42c23          	sw	t6,888(s0)
80004a7c:	777774b7          	lui	s1,0x77777
80004a80:	77748493          	addi	s1,s1,1911 # 77777777 <absimm+0x32485248>
80004a84:	63f492e3          	bne	s1,t6,800058a8 <bad_trap>

80004a88 <inst_504>:
80004a88:	66666f37          	lui	t5,0x66666
80004a8c:	665f0f13          	addi	t5,t5,1637 # 66666665 <absimm+0x21374136>
80004a90:	00600e93          	li	t4,6
80004a94:	03df0fb3          	mul	t6,t5,t4
80004a98:	37f42e23          	sw	t6,892(s0)
80004a9c:	666664b7          	lui	s1,0x66666
80004aa0:	65e48493          	addi	s1,s1,1630 # 6666665e <absimm+0x2137412f>
80004aa4:	61f492e3          	bne	s1,t6,800058a8 <bad_trap>

80004aa8 <inst_505>:
80004aa8:	66666f37          	lui	t5,0x66666
80004aac:	665f0f13          	addi	t5,t5,1637 # 66666665 <absimm+0x21374136>
80004ab0:	33333eb7          	lui	t4,0x33333
80004ab4:	334e8e93          	addi	t4,t4,820 # 33333334 <offset+0x33333200>
80004ab8:	03df0fb3          	mul	t6,t5,t4
80004abc:	39f42023          	sw	t6,896(s0)
80004ac0:	b851f4b7          	lui	s1,0xb851f
80004ac4:	b8448493          	addi	s1,s1,-1148 # b851eb84 <imm12+0xb851f0b4>
80004ac8:	5ff490e3          	bne	s1,t6,800058a8 <bad_trap>

80004acc <inst_506>:
80004acc:	66666f37          	lui	t5,0x66666
80004ad0:	665f0f13          	addi	t5,t5,1637 # 66666665 <absimm+0x21374136>
80004ad4:	66666eb7          	lui	t4,0x66666
80004ad8:	667e8e93          	addi	t4,t4,1639 # 66666667 <absimm+0x21374138>
80004adc:	03df0fb3          	mul	t6,t5,t4
80004ae0:	39f42223          	sw	t6,900(s0)
80004ae4:	0a3d74b7          	lui	s1,0xa3d7
80004ae8:	0a348493          	addi	s1,s1,163 # a3d70a3 <offset+0xa3d6f6f>
80004aec:	5bf49ee3          	bne	s1,t6,800058a8 <bad_trap>

80004af0 <inst_507>:
80004af0:	66666f37          	lui	t5,0x66666
80004af4:	665f0f13          	addi	t5,t5,1637 # 66666665 <absimm+0x21374136>
80004af8:	ffff5eb7          	lui	t4,0xffff5
80004afc:	afde8e93          	addi	t4,t4,-1283 # ffff4afd <imm12+0xffff502d>
80004b00:	03df0fb3          	mul	t6,t5,t4
80004b04:	39f42423          	sw	t6,904(s0)
80004b08:	666764b7          	lui	s1,0x66676
80004b0c:	3d148493          	addi	s1,s1,977 # 666763d1 <absimm+0x21383ea2>
80004b10:	59f49ce3          	bne	s1,t6,800058a8 <bad_trap>

80004b14 <inst_508>:
80004b14:	66666f37          	lui	t5,0x66666
80004b18:	665f0f13          	addi	t5,t5,1637 # 66666665 <absimm+0x21374136>
80004b1c:	0000beb7          	lui	t4,0xb
80004b20:	505e8e93          	addi	t4,t4,1285 # b505 <offset+0xb3d1>
80004b24:	03df0fb3          	mul	t6,t5,t4
80004b28:	39f42623          	sw	t6,908(s0)
80004b2c:	666574b7          	lui	s1,0x66657
80004b30:	8f948493          	addi	s1,s1,-1799 # 666568f9 <absimm+0x213643ca>
80004b34:	57f49ae3          	bne	s1,t6,800058a8 <bad_trap>

80004b38 <inst_509>:
80004b38:	00000f13          	li	t5,0
80004b3c:	00300e93          	li	t4,3
80004b40:	03df0fb3          	mul	t6,t5,t4
80004b44:	39f42823          	sw	t6,912(s0)
80004b48:	00000493          	li	s1,0
80004b4c:	55f49ee3          	bne	s1,t6,800058a8 <bad_trap>

80004b50 <inst_510>:
80004b50:	00000f13          	li	t5,0
80004b54:	55555eb7          	lui	t4,0x55555
80004b58:	555e8e93          	addi	t4,t4,1365 # 55555555 <absimm+0x10263026>
80004b5c:	03df0fb3          	mul	t6,t5,t4
80004b60:	39f42a23          	sw	t6,916(s0)
80004b64:	00000493          	li	s1,0
80004b68:	55f490e3          	bne	s1,t6,800058a8 <bad_trap>

80004b6c <inst_511>:
80004b6c:	00000f13          	li	t5,0
80004b70:	aaaabeb7          	lui	t4,0xaaaab
80004b74:	aaae8e93          	addi	t4,t4,-1366 # aaaaaaaa <imm12+0xaaaaafda>
80004b78:	03df0fb3          	mul	t6,t5,t4
80004b7c:	39f42c23          	sw	t6,920(s0)
80004b80:	00000493          	li	s1,0
80004b84:	53f492e3          	bne	s1,t6,800058a8 <bad_trap>

80004b88 <inst_512>:
80004b88:	00000f13          	li	t5,0
80004b8c:	00500e93          	li	t4,5
80004b90:	03df0fb3          	mul	t6,t5,t4
80004b94:	39f42e23          	sw	t6,924(s0)
80004b98:	00000493          	li	s1,0
80004b9c:	51f496e3          	bne	s1,t6,800058a8 <bad_trap>

80004ba0 <inst_513>:
80004ba0:	00000f13          	li	t5,0
80004ba4:	33333eb7          	lui	t4,0x33333
80004ba8:	333e8e93          	addi	t4,t4,819 # 33333333 <offset+0x333331ff>
80004bac:	03df0fb3          	mul	t6,t5,t4
80004bb0:	3bf42023          	sw	t6,928(s0)
80004bb4:	00000493          	li	s1,0
80004bb8:	4ff498e3          	bne	s1,t6,800058a8 <bad_trap>

80004bbc <inst_514>:
80004bbc:	00000f13          	li	t5,0
80004bc0:	66666eb7          	lui	t4,0x66666
80004bc4:	666e8e93          	addi	t4,t4,1638 # 66666666 <absimm+0x21374137>
80004bc8:	03df0fb3          	mul	t6,t5,t4
80004bcc:	3bf42223          	sw	t6,932(s0)
80004bd0:	00000493          	li	s1,0
80004bd4:	4df49ae3          	bne	s1,t6,800058a8 <bad_trap>

80004bd8 <inst_515>:
80004bd8:	00000f13          	li	t5,0
80004bdc:	ffff5eb7          	lui	t4,0xffff5
80004be0:	afce8e93          	addi	t4,t4,-1284 # ffff4afc <imm12+0xffff502c>
80004be4:	03df0fb3          	mul	t6,t5,t4
80004be8:	3bf42423          	sw	t6,936(s0)
80004bec:	00000493          	li	s1,0
80004bf0:	4bf49ce3          	bne	s1,t6,800058a8 <bad_trap>

80004bf4 <inst_516>:
80004bf4:	00000f13          	li	t5,0
80004bf8:	0000beb7          	lui	t4,0xb
80004bfc:	504e8e93          	addi	t4,t4,1284 # b504 <offset+0xb3d0>
80004c00:	03df0fb3          	mul	t6,t5,t4
80004c04:	3bf42623          	sw	t6,940(s0)
80004c08:	00000493          	li	s1,0
80004c0c:	49f49ee3          	bne	s1,t6,800058a8 <bad_trap>

80004c10 <inst_517>:
80004c10:	00000f13          	li	t5,0
80004c14:	00200e93          	li	t4,2
80004c18:	03df0fb3          	mul	t6,t5,t4
80004c1c:	3bf42823          	sw	t6,944(s0)
80004c20:	00000493          	li	s1,0
80004c24:	49f492e3          	bne	s1,t6,800058a8 <bad_trap>

80004c28 <inst_518>:
80004c28:	00000f13          	li	t5,0
80004c2c:	55555eb7          	lui	t4,0x55555
80004c30:	554e8e93          	addi	t4,t4,1364 # 55555554 <absimm+0x10263025>
80004c34:	03df0fb3          	mul	t6,t5,t4
80004c38:	3bf42a23          	sw	t6,948(s0)
80004c3c:	00000493          	li	s1,0
80004c40:	47f494e3          	bne	s1,t6,800058a8 <bad_trap>

80004c44 <inst_519>:
80004c44:	00000f13          	li	t5,0
80004c48:	33333eb7          	lui	t4,0x33333
80004c4c:	332e8e93          	addi	t4,t4,818 # 33333332 <offset+0x333331fe>
80004c50:	03df0fb3          	mul	t6,t5,t4
80004c54:	3bf42c23          	sw	t6,952(s0)
80004c58:	00000493          	li	s1,0
80004c5c:	45f496e3          	bne	s1,t6,800058a8 <bad_trap>

80004c60 <inst_520>:
80004c60:	00000f13          	li	t5,0
80004c64:	66666eb7          	lui	t4,0x66666
80004c68:	665e8e93          	addi	t4,t4,1637 # 66666665 <absimm+0x21374136>
80004c6c:	03df0fb3          	mul	t6,t5,t4
80004c70:	3bf42e23          	sw	t6,956(s0)
80004c74:	00000493          	li	s1,0
80004c78:	43f498e3          	bne	s1,t6,800058a8 <bad_trap>

80004c7c <inst_521>:
80004c7c:	00000f13          	li	t5,0
80004c80:	00000e93          	li	t4,0
80004c84:	03df0fb3          	mul	t6,t5,t4
80004c88:	3df42023          	sw	t6,960(s0)
80004c8c:	00000493          	li	s1,0
80004c90:	41f49ce3          	bne	s1,t6,800058a8 <bad_trap>

80004c94 <inst_522>:
80004c94:	00000f13          	li	t5,0
80004c98:	0000beb7          	lui	t4,0xb
80004c9c:	503e8e93          	addi	t4,t4,1283 # b503 <offset+0xb3cf>
80004ca0:	03df0fb3          	mul	t6,t5,t4
80004ca4:	3df42223          	sw	t6,964(s0)
80004ca8:	00000493          	li	s1,0
80004cac:	3ff49ee3          	bne	s1,t6,800058a8 <bad_trap>

80004cb0 <inst_523>:
80004cb0:	00000f13          	li	t5,0
80004cb4:	00400e93          	li	t4,4
80004cb8:	03df0fb3          	mul	t6,t5,t4
80004cbc:	3df42423          	sw	t6,968(s0)
80004cc0:	00000493          	li	s1,0
80004cc4:	3ff492e3          	bne	s1,t6,800058a8 <bad_trap>

80004cc8 <inst_524>:
80004cc8:	00000f13          	li	t5,0
80004ccc:	55555eb7          	lui	t4,0x55555
80004cd0:	556e8e93          	addi	t4,t4,1366 # 55555556 <absimm+0x10263027>
80004cd4:	03df0fb3          	mul	t6,t5,t4
80004cd8:	3df42623          	sw	t6,972(s0)
80004cdc:	00000493          	li	s1,0
80004ce0:	3df494e3          	bne	s1,t6,800058a8 <bad_trap>

80004ce4 <inst_525>:
80004ce4:	00000f13          	li	t5,0
80004ce8:	aaaabeb7          	lui	t4,0xaaaab
80004cec:	aabe8e93          	addi	t4,t4,-1365 # aaaaaaab <imm12+0xaaaaafdb>
80004cf0:	03df0fb3          	mul	t6,t5,t4
80004cf4:	3df42823          	sw	t6,976(s0)
80004cf8:	00000493          	li	s1,0
80004cfc:	3bf496e3          	bne	s1,t6,800058a8 <bad_trap>

80004d00 <inst_526>:
80004d00:	00000f13          	li	t5,0
80004d04:	00600e93          	li	t4,6
80004d08:	03df0fb3          	mul	t6,t5,t4
80004d0c:	3df42a23          	sw	t6,980(s0)
80004d10:	00000493          	li	s1,0
80004d14:	39f49ae3          	bne	s1,t6,800058a8 <bad_trap>

80004d18 <inst_527>:
80004d18:	00000f13          	li	t5,0
80004d1c:	33333eb7          	lui	t4,0x33333
80004d20:	334e8e93          	addi	t4,t4,820 # 33333334 <offset+0x33333200>
80004d24:	03df0fb3          	mul	t6,t5,t4
80004d28:	3df42c23          	sw	t6,984(s0)
80004d2c:	00000493          	li	s1,0
80004d30:	37f49ce3          	bne	s1,t6,800058a8 <bad_trap>

80004d34 <inst_528>:
80004d34:	00000f13          	li	t5,0
80004d38:	66666eb7          	lui	t4,0x66666
80004d3c:	667e8e93          	addi	t4,t4,1639 # 66666667 <absimm+0x21374138>
80004d40:	03df0fb3          	mul	t6,t5,t4
80004d44:	3df42e23          	sw	t6,988(s0)
80004d48:	00000493          	li	s1,0
80004d4c:	35f49ee3          	bne	s1,t6,800058a8 <bad_trap>

80004d50 <inst_529>:
80004d50:	00000f13          	li	t5,0
80004d54:	ffff5eb7          	lui	t4,0xffff5
80004d58:	afde8e93          	addi	t4,t4,-1283 # ffff4afd <imm12+0xffff502d>
80004d5c:	03df0fb3          	mul	t6,t5,t4
80004d60:	3ff42023          	sw	t6,992(s0)
80004d64:	00000493          	li	s1,0
80004d68:	35f490e3          	bne	s1,t6,800058a8 <bad_trap>

80004d6c <inst_530>:
80004d6c:	0000bf37          	lui	t5,0xb
80004d70:	503f0f13          	addi	t5,t5,1283 # b503 <offset+0xb3cf>
80004d74:	00300e93          	li	t4,3
80004d78:	03df0fb3          	mul	t6,t5,t4
80004d7c:	3ff42223          	sw	t6,996(s0)
80004d80:	000224b7          	lui	s1,0x22
80004d84:	f0948493          	addi	s1,s1,-247 # 21f09 <offset+0x21dd5>
80004d88:	33f490e3          	bne	s1,t6,800058a8 <bad_trap>

80004d8c <inst_531>:
80004d8c:	0000bf37          	lui	t5,0xb
80004d90:	503f0f13          	addi	t5,t5,1283 # b503 <offset+0xb3cf>
80004d94:	55555eb7          	lui	t4,0x55555
80004d98:	555e8e93          	addi	t4,t4,1365 # 55555555 <absimm+0x10263026>
80004d9c:	03df0fb3          	mul	t6,t5,t4
80004da0:	3ff42423          	sw	t6,1000(s0)
80004da4:	555524b7          	lui	s1,0x55552
80004da8:	8ff48493          	addi	s1,s1,-1793 # 555518ff <absimm+0x1025f3d0>
80004dac:	2ff49ee3          	bne	s1,t6,800058a8 <bad_trap>

80004db0 <inst_532>:
80004db0:	0000bf37          	lui	t5,0xb
80004db4:	503f0f13          	addi	t5,t5,1283 # b503 <offset+0xb3cf>
80004db8:	aaaabeb7          	lui	t4,0xaaaab
80004dbc:	aaae8e93          	addi	t4,t4,-1366 # aaaaaaaa <imm12+0xaaaaafda>
80004dc0:	03df0fb3          	mul	t6,t5,t4
80004dc4:	3ff42623          	sw	t6,1004(s0)
80004dc8:	aaaa34b7          	lui	s1,0xaaaa3
80004dcc:	1fe48493          	addi	s1,s1,510 # aaaa31fe <imm12+0xaaaa372e>
80004dd0:	2df49ce3          	bne	s1,t6,800058a8 <bad_trap>

80004dd4 <inst_533>:
80004dd4:	0000bf37          	lui	t5,0xb
80004dd8:	503f0f13          	addi	t5,t5,1283 # b503 <offset+0xb3cf>
80004ddc:	00500e93          	li	t4,5
80004de0:	03df0fb3          	mul	t6,t5,t4
80004de4:	3ff42823          	sw	t6,1008(s0)
80004de8:	000394b7          	lui	s1,0x39
80004dec:	90f48493          	addi	s1,s1,-1777 # 3890f <offset+0x387db>
80004df0:	2bf49ce3          	bne	s1,t6,800058a8 <bad_trap>

80004df4 <inst_534>:
80004df4:	0000bf37          	lui	t5,0xb
80004df8:	503f0f13          	addi	t5,t5,1283 # b503 <offset+0xb3cf>
80004dfc:	33333eb7          	lui	t4,0x33333
80004e00:	333e8e93          	addi	t4,t4,819 # 33333333 <offset+0x333331ff>
80004e04:	03df0fb3          	mul	t6,t5,t4
80004e08:	3ff42a23          	sw	t6,1012(s0)
80004e0c:	ccccb4b7          	lui	s1,0xccccb
80004e10:	89948493          	addi	s1,s1,-1895 # cccca899 <imm12+0xccccadc9>
80004e14:	29f49ae3          	bne	s1,t6,800058a8 <bad_trap>

80004e18 <inst_535>:
80004e18:	0000bf37          	lui	t5,0xb
80004e1c:	503f0f13          	addi	t5,t5,1283 # b503 <offset+0xb3cf>
80004e20:	66666eb7          	lui	t4,0x66666
80004e24:	666e8e93          	addi	t4,t4,1638 # 66666666 <absimm+0x21374137>
80004e28:	03df0fb3          	mul	t6,t5,t4
80004e2c:	3ff42c23          	sw	t6,1016(s0)
80004e30:	999954b7          	lui	s1,0x99995
80004e34:	13248493          	addi	s1,s1,306 # 99995132 <imm12+0x99995662>
80004e38:	27f498e3          	bne	s1,t6,800058a8 <bad_trap>

80004e3c <inst_536>:
80004e3c:	0000bf37          	lui	t5,0xb
80004e40:	503f0f13          	addi	t5,t5,1283 # b503 <offset+0xb3cf>
80004e44:	ffff5eb7          	lui	t4,0xffff5
80004e48:	afce8e93          	addi	t4,t4,-1284 # ffff4afc <imm12+0xffff502c>
80004e4c:	03df0fb3          	mul	t6,t5,t4
80004e50:	3ff42e23          	sw	t6,1020(s0)
80004e54:	800214b7          	lui	s1,0x80021
80004e58:	cf448493          	addi	s1,s1,-780 # 80020cf4 <imm12+0x80021224>
80004e5c:	25f496e3          	bne	s1,t6,800058a8 <bad_trap>
80004e60:	00003417          	auipc	s0,0x3
80004e64:	a0840413          	addi	s0,s0,-1528 # 80007868 <signature_x8_2>
80004e68:	00000013          	nop
80004e6c:	00000013          	nop
80004e70:	00000013          	nop
80004e74:	00000013          	nop
80004e78:	00000013          	nop
80004e7c:	00000013          	nop

80004e80 <inst_537>:
80004e80:	0000bf37          	lui	t5,0xb
80004e84:	503f0f13          	addi	t5,t5,1283 # b503 <offset+0xb3cf>
80004e88:	0000beb7          	lui	t4,0xb
80004e8c:	504e8e93          	addi	t4,t4,1284 # b504 <offset+0xb3d0>
80004e90:	03df0fb3          	mul	t6,t5,t4
80004e94:	01f42023          	sw	t6,0(s0)
80004e98:	7ffdf4b7          	lui	s1,0x7ffdf
80004e9c:	30c48493          	addi	s1,s1,780 # 7ffdf30c <absimm+0x3acecddd>
80004ea0:	21f494e3          	bne	s1,t6,800058a8 <bad_trap>

80004ea4 <inst_538>:
80004ea4:	0000bf37          	lui	t5,0xb
80004ea8:	503f0f13          	addi	t5,t5,1283 # b503 <offset+0xb3cf>
80004eac:	00200e93          	li	t4,2
80004eb0:	03df0fb3          	mul	t6,t5,t4
80004eb4:	01f42223          	sw	t6,4(s0)
80004eb8:	000174b7          	lui	s1,0x17
80004ebc:	a0648493          	addi	s1,s1,-1530 # 16a06 <offset+0x168d2>
80004ec0:	1ff494e3          	bne	s1,t6,800058a8 <bad_trap>

80004ec4 <inst_539>:
80004ec4:	0000bf37          	lui	t5,0xb
80004ec8:	503f0f13          	addi	t5,t5,1283 # b503 <offset+0xb3cf>
80004ecc:	55555eb7          	lui	t4,0x55555
80004ed0:	554e8e93          	addi	t4,t4,1364 # 55555554 <absimm+0x10263025>
80004ed4:	03df0fb3          	mul	t6,t5,t4
80004ed8:	01f42423          	sw	t6,8(s0)
80004edc:	555464b7          	lui	s1,0x55546
80004ee0:	3fc48493          	addi	s1,s1,1020 # 555463fc <absimm+0x10253ecd>
80004ee4:	1df492e3          	bne	s1,t6,800058a8 <bad_trap>

80004ee8 <inst_540>:
80004ee8:	0000bf37          	lui	t5,0xb
80004eec:	503f0f13          	addi	t5,t5,1283 # b503 <offset+0xb3cf>
80004ef0:	33333eb7          	lui	t4,0x33333
80004ef4:	332e8e93          	addi	t4,t4,818 # 33333332 <offset+0x333331fe>
80004ef8:	03df0fb3          	mul	t6,t5,t4
80004efc:	01f42623          	sw	t6,12(s0)
80004f00:	cccbf4b7          	lui	s1,0xcccbf
80004f04:	39648493          	addi	s1,s1,918 # cccbf396 <imm12+0xcccbf8c6>
80004f08:	1bf490e3          	bne	s1,t6,800058a8 <bad_trap>

80004f0c <inst_541>:
80004f0c:	0000bf37          	lui	t5,0xb
80004f10:	503f0f13          	addi	t5,t5,1283 # b503 <offset+0xb3cf>
80004f14:	66666eb7          	lui	t4,0x66666
80004f18:	665e8e93          	addi	t4,t4,1637 # 66666665 <absimm+0x21374136>
80004f1c:	03df0fb3          	mul	t6,t5,t4
80004f20:	01f42823          	sw	t6,16(s0)
80004f24:	9998a4b7          	lui	s1,0x9998a
80004f28:	c2f48493          	addi	s1,s1,-977 # 99989c2f <imm12+0x9998a15f>
80004f2c:	17f49ee3          	bne	s1,t6,800058a8 <bad_trap>

80004f30 <inst_542>:
80004f30:	0000bf37          	lui	t5,0xb
80004f34:	503f0f13          	addi	t5,t5,1283 # b503 <offset+0xb3cf>
80004f38:	00000e93          	li	t4,0
80004f3c:	03df0fb3          	mul	t6,t5,t4
80004f40:	01f42a23          	sw	t6,20(s0)
80004f44:	00000493          	li	s1,0
80004f48:	17f490e3          	bne	s1,t6,800058a8 <bad_trap>

80004f4c <inst_543>:
80004f4c:	0000bf37          	lui	t5,0xb
80004f50:	503f0f13          	addi	t5,t5,1283 # b503 <offset+0xb3cf>
80004f54:	0000beb7          	lui	t4,0xb
80004f58:	503e8e93          	addi	t4,t4,1283 # b503 <offset+0xb3cf>
80004f5c:	03df0fb3          	mul	t6,t5,t4
80004f60:	01f42c23          	sw	t6,24(s0)
80004f64:	7ffd44b7          	lui	s1,0x7ffd4
80004f68:	e0948493          	addi	s1,s1,-503 # 7ffd3e09 <absimm+0x3ace18da>
80004f6c:	13f49ee3          	bne	s1,t6,800058a8 <bad_trap>

80004f70 <inst_544>:
80004f70:	0000bf37          	lui	t5,0xb
80004f74:	503f0f13          	addi	t5,t5,1283 # b503 <offset+0xb3cf>
80004f78:	00400e93          	li	t4,4
80004f7c:	03df0fb3          	mul	t6,t5,t4
80004f80:	01f42e23          	sw	t6,28(s0)
80004f84:	0002d4b7          	lui	s1,0x2d
80004f88:	40c48493          	addi	s1,s1,1036 # 2d40c <offset+0x2d2d8>
80004f8c:	11f49ee3          	bne	s1,t6,800058a8 <bad_trap>

80004f90 <inst_545>:
80004f90:	0000bf37          	lui	t5,0xb
80004f94:	503f0f13          	addi	t5,t5,1283 # b503 <offset+0xb3cf>
80004f98:	55555eb7          	lui	t4,0x55555
80004f9c:	556e8e93          	addi	t4,t4,1366 # 55555556 <absimm+0x10263027>
80004fa0:	03df0fb3          	mul	t6,t5,t4
80004fa4:	03f42023          	sw	t6,32(s0)
80004fa8:	5555d4b7          	lui	s1,0x5555d
80004fac:	e0248493          	addi	s1,s1,-510 # 5555ce02 <absimm+0x1026a8d3>
80004fb0:	0ff49ce3          	bne	s1,t6,800058a8 <bad_trap>

80004fb4 <inst_546>:
80004fb4:	0000bf37          	lui	t5,0xb
80004fb8:	503f0f13          	addi	t5,t5,1283 # b503 <offset+0xb3cf>
80004fbc:	aaaabeb7          	lui	t4,0xaaaab
80004fc0:	aabe8e93          	addi	t4,t4,-1365 # aaaaaaab <imm12+0xaaaaafdb>
80004fc4:	03df0fb3          	mul	t6,t5,t4
80004fc8:	03f42223          	sw	t6,36(s0)
80004fcc:	aaaae4b7          	lui	s1,0xaaaae
80004fd0:	70148493          	addi	s1,s1,1793 # aaaae701 <imm12+0xaaaaec31>
80004fd4:	0df49ae3          	bne	s1,t6,800058a8 <bad_trap>

80004fd8 <inst_547>:
80004fd8:	0000bf37          	lui	t5,0xb
80004fdc:	503f0f13          	addi	t5,t5,1283 # b503 <offset+0xb3cf>
80004fe0:	00600e93          	li	t4,6
80004fe4:	03df0fb3          	mul	t6,t5,t4
80004fe8:	03f42423          	sw	t6,40(s0)
80004fec:	000444b7          	lui	s1,0x44
80004ff0:	e1248493          	addi	s1,s1,-494 # 43e12 <offset+0x43cde>
80004ff4:	0bf49ae3          	bne	s1,t6,800058a8 <bad_trap>

80004ff8 <inst_548>:
80004ff8:	0000bf37          	lui	t5,0xb
80004ffc:	503f0f13          	addi	t5,t5,1283 # b503 <offset+0xb3cf>
80005000:	33333eb7          	lui	t4,0x33333
80005004:	334e8e93          	addi	t4,t4,820 # 33333334 <offset+0x33333200>
80005008:	03df0fb3          	mul	t6,t5,t4
8000500c:	03f42623          	sw	t6,44(s0)
80005010:	cccd64b7          	lui	s1,0xcccd6
80005014:	d9c48493          	addi	s1,s1,-612 # cccd5d9c <imm12+0xcccd62cc>
80005018:	09f498e3          	bne	s1,t6,800058a8 <bad_trap>

8000501c <inst_549>:
8000501c:	0000bf37          	lui	t5,0xb
80005020:	503f0f13          	addi	t5,t5,1283 # b503 <offset+0xb3cf>
80005024:	66666eb7          	lui	t4,0x66666
80005028:	667e8e93          	addi	t4,t4,1639 # 66666667 <absimm+0x21374138>
8000502c:	03df0fb3          	mul	t6,t5,t4
80005030:	03f42823          	sw	t6,48(s0)
80005034:	999a04b7          	lui	s1,0x999a0
80005038:	63548493          	addi	s1,s1,1589 # 999a0635 <imm12+0x999a0b65>
8000503c:	07f496e3          	bne	s1,t6,800058a8 <bad_trap>

80005040 <inst_550>:
80005040:	0000bf37          	lui	t5,0xb
80005044:	503f0f13          	addi	t5,t5,1283 # b503 <offset+0xb3cf>
80005048:	ffff5eb7          	lui	t4,0xffff5
8000504c:	afde8e93          	addi	t4,t4,-1283 # ffff4afd <imm12+0xffff502d>
80005050:	03df0fb3          	mul	t6,t5,t4
80005054:	03f42a23          	sw	t6,52(s0)
80005058:	8002c4b7          	lui	s1,0x8002c
8000505c:	1f748493          	addi	s1,s1,503 # 8002c1f7 <imm12+0x8002c727>
80005060:	05f494e3          	bne	s1,t6,800058a8 <bad_trap>

80005064 <inst_551>:
80005064:	0000bf37          	lui	t5,0xb
80005068:	503f0f13          	addi	t5,t5,1283 # b503 <offset+0xb3cf>
8000506c:	0000beb7          	lui	t4,0xb
80005070:	505e8e93          	addi	t4,t4,1285 # b505 <offset+0xb3d1>
80005074:	03df0fb3          	mul	t6,t5,t4
80005078:	03f42c23          	sw	t6,56(s0)
8000507c:	7ffeb4b7          	lui	s1,0x7ffeb
80005080:	80f48493          	addi	s1,s1,-2033 # 7ffea80f <absimm+0x3acf82e0>
80005084:	03f492e3          	bne	s1,t6,800058a8 <bad_trap>

80005088 <inst_552>:
80005088:	00400f13          	li	t5,4
8000508c:	00300e93          	li	t4,3
80005090:	03df0fb3          	mul	t6,t5,t4
80005094:	03f42e23          	sw	t6,60(s0)
80005098:	00c00493          	li	s1,12
8000509c:	01f496e3          	bne	s1,t6,800058a8 <bad_trap>

800050a0 <inst_553>:
800050a0:	00400f13          	li	t5,4
800050a4:	55555eb7          	lui	t4,0x55555
800050a8:	555e8e93          	addi	t4,t4,1365 # 55555555 <absimm+0x10263026>
800050ac:	03df0fb3          	mul	t6,t5,t4
800050b0:	05f42023          	sw	t6,64(s0)
800050b4:	555554b7          	lui	s1,0x55555
800050b8:	55448493          	addi	s1,s1,1364 # 55555554 <absimm+0x10263025>
800050bc:	7ff49663          	bne	s1,t6,800058a8 <bad_trap>

800050c0 <inst_554>:
800050c0:	00400f13          	li	t5,4
800050c4:	aaaabeb7          	lui	t4,0xaaaab
800050c8:	aaae8e93          	addi	t4,t4,-1366 # aaaaaaaa <imm12+0xaaaaafda>
800050cc:	03df0fb3          	mul	t6,t5,t4
800050d0:	05f42223          	sw	t6,68(s0)
800050d4:	aaaab4b7          	lui	s1,0xaaaab
800050d8:	aa848493          	addi	s1,s1,-1368 # aaaaaaa8 <imm12+0xaaaaafd8>
800050dc:	7df49663          	bne	s1,t6,800058a8 <bad_trap>

800050e0 <inst_555>:
800050e0:	00400f13          	li	t5,4
800050e4:	00500e93          	li	t4,5
800050e8:	03df0fb3          	mul	t6,t5,t4
800050ec:	05f42423          	sw	t6,72(s0)
800050f0:	01400493          	li	s1,20
800050f4:	7bf49a63          	bne	s1,t6,800058a8 <bad_trap>

800050f8 <inst_556>:
800050f8:	00400f13          	li	t5,4
800050fc:	33333eb7          	lui	t4,0x33333
80005100:	333e8e93          	addi	t4,t4,819 # 33333333 <offset+0x333331ff>
80005104:	03df0fb3          	mul	t6,t5,t4
80005108:	05f42623          	sw	t6,76(s0)
8000510c:	ccccd4b7          	lui	s1,0xccccd
80005110:	ccc48493          	addi	s1,s1,-820 # cccccccc <imm12+0xccccd1fc>
80005114:	79f49a63          	bne	s1,t6,800058a8 <bad_trap>

80005118 <inst_557>:
80005118:	00400f13          	li	t5,4
8000511c:	66666eb7          	lui	t4,0x66666
80005120:	666e8e93          	addi	t4,t4,1638 # 66666666 <absimm+0x21374137>
80005124:	03df0fb3          	mul	t6,t5,t4
80005128:	05f42823          	sw	t6,80(s0)
8000512c:	9999a4b7          	lui	s1,0x9999a
80005130:	99848493          	addi	s1,s1,-1640 # 99999998 <imm12+0x99999ec8>
80005134:	77f49a63          	bne	s1,t6,800058a8 <bad_trap>

80005138 <inst_558>:
80005138:	00400f13          	li	t5,4
8000513c:	ffff5eb7          	lui	t4,0xffff5
80005140:	afce8e93          	addi	t4,t4,-1284 # ffff4afc <imm12+0xffff502c>
80005144:	03df0fb3          	mul	t6,t5,t4
80005148:	05f42a23          	sw	t6,84(s0)
8000514c:	fffd34b7          	lui	s1,0xfffd3
80005150:	bf048493          	addi	s1,s1,-1040 # fffd2bf0 <imm12+0xfffd3120>
80005154:	75f49a63          	bne	s1,t6,800058a8 <bad_trap>

80005158 <inst_559>:
80005158:	00400f13          	li	t5,4
8000515c:	0000beb7          	lui	t4,0xb
80005160:	504e8e93          	addi	t4,t4,1284 # b504 <offset+0xb3d0>
80005164:	03df0fb3          	mul	t6,t5,t4
80005168:	05f42c23          	sw	t6,88(s0)
8000516c:	0002d4b7          	lui	s1,0x2d
80005170:	41048493          	addi	s1,s1,1040 # 2d410 <offset+0x2d2dc>
80005174:	73f49a63          	bne	s1,t6,800058a8 <bad_trap>

80005178 <inst_560>:
80005178:	00400f13          	li	t5,4
8000517c:	00200e93          	li	t4,2
80005180:	03df0fb3          	mul	t6,t5,t4
80005184:	05f42e23          	sw	t6,92(s0)
80005188:	00800493          	li	s1,8
8000518c:	71f49e63          	bne	s1,t6,800058a8 <bad_trap>

80005190 <inst_561>:
80005190:	00400f13          	li	t5,4
80005194:	55555eb7          	lui	t4,0x55555
80005198:	554e8e93          	addi	t4,t4,1364 # 55555554 <absimm+0x10263025>
8000519c:	03df0fb3          	mul	t6,t5,t4
800051a0:	07f42023          	sw	t6,96(s0)
800051a4:	555554b7          	lui	s1,0x55555
800051a8:	55048493          	addi	s1,s1,1360 # 55555550 <absimm+0x10263021>
800051ac:	6ff49e63          	bne	s1,t6,800058a8 <bad_trap>

800051b0 <inst_562>:
800051b0:	00400f13          	li	t5,4
800051b4:	33333eb7          	lui	t4,0x33333
800051b8:	332e8e93          	addi	t4,t4,818 # 33333332 <offset+0x333331fe>
800051bc:	03df0fb3          	mul	t6,t5,t4
800051c0:	07f42223          	sw	t6,100(s0)
800051c4:	ccccd4b7          	lui	s1,0xccccd
800051c8:	cc848493          	addi	s1,s1,-824 # ccccccc8 <imm12+0xccccd1f8>
800051cc:	6df49e63          	bne	s1,t6,800058a8 <bad_trap>

800051d0 <inst_563>:
800051d0:	00400f13          	li	t5,4
800051d4:	66666eb7          	lui	t4,0x66666
800051d8:	665e8e93          	addi	t4,t4,1637 # 66666665 <absimm+0x21374136>
800051dc:	03df0fb3          	mul	t6,t5,t4
800051e0:	07f42423          	sw	t6,104(s0)
800051e4:	9999a4b7          	lui	s1,0x9999a
800051e8:	99448493          	addi	s1,s1,-1644 # 99999994 <imm12+0x99999ec4>
800051ec:	6bf49e63          	bne	s1,t6,800058a8 <bad_trap>

800051f0 <inst_564>:
800051f0:	00400f13          	li	t5,4
800051f4:	00000e93          	li	t4,0
800051f8:	03df0fb3          	mul	t6,t5,t4
800051fc:	07f42623          	sw	t6,108(s0)
80005200:	00000493          	li	s1,0
80005204:	6bf49263          	bne	s1,t6,800058a8 <bad_trap>

80005208 <inst_565>:
80005208:	00400f13          	li	t5,4
8000520c:	0000beb7          	lui	t4,0xb
80005210:	503e8e93          	addi	t4,t4,1283 # b503 <offset+0xb3cf>
80005214:	03df0fb3          	mul	t6,t5,t4
80005218:	07f42823          	sw	t6,112(s0)
8000521c:	0002d4b7          	lui	s1,0x2d
80005220:	40c48493          	addi	s1,s1,1036 # 2d40c <offset+0x2d2d8>
80005224:	69f49263          	bne	s1,t6,800058a8 <bad_trap>

80005228 <inst_566>:
80005228:	00400f13          	li	t5,4
8000522c:	00400e93          	li	t4,4
80005230:	03df0fb3          	mul	t6,t5,t4
80005234:	07f42a23          	sw	t6,116(s0)
80005238:	01000493          	li	s1,16
8000523c:	67f49663          	bne	s1,t6,800058a8 <bad_trap>

80005240 <inst_567>:
80005240:	00400f13          	li	t5,4
80005244:	55555eb7          	lui	t4,0x55555
80005248:	556e8e93          	addi	t4,t4,1366 # 55555556 <absimm+0x10263027>
8000524c:	03df0fb3          	mul	t6,t5,t4
80005250:	07f42c23          	sw	t6,120(s0)
80005254:	555554b7          	lui	s1,0x55555
80005258:	55848493          	addi	s1,s1,1368 # 55555558 <absimm+0x10263029>
8000525c:	65f49663          	bne	s1,t6,800058a8 <bad_trap>

80005260 <inst_568>:
80005260:	00400f13          	li	t5,4
80005264:	aaaabeb7          	lui	t4,0xaaaab
80005268:	aabe8e93          	addi	t4,t4,-1365 # aaaaaaab <imm12+0xaaaaafdb>
8000526c:	03df0fb3          	mul	t6,t5,t4
80005270:	07f42e23          	sw	t6,124(s0)
80005274:	aaaab4b7          	lui	s1,0xaaaab
80005278:	aac48493          	addi	s1,s1,-1364 # aaaaaaac <imm12+0xaaaaafdc>
8000527c:	63f49663          	bne	s1,t6,800058a8 <bad_trap>

80005280 <inst_569>:
80005280:	00400f13          	li	t5,4
80005284:	00600e93          	li	t4,6
80005288:	03df0fb3          	mul	t6,t5,t4
8000528c:	09f42023          	sw	t6,128(s0)
80005290:	01800493          	li	s1,24
80005294:	61f49a63          	bne	s1,t6,800058a8 <bad_trap>

80005298 <inst_570>:
80005298:	00400f13          	li	t5,4
8000529c:	33333eb7          	lui	t4,0x33333
800052a0:	334e8e93          	addi	t4,t4,820 # 33333334 <offset+0x33333200>
800052a4:	03df0fb3          	mul	t6,t5,t4
800052a8:	09f42223          	sw	t6,132(s0)
800052ac:	ccccd4b7          	lui	s1,0xccccd
800052b0:	cd048493          	addi	s1,s1,-816 # ccccccd0 <imm12+0xccccd200>
800052b4:	5ff49a63          	bne	s1,t6,800058a8 <bad_trap>

800052b8 <inst_571>:
800052b8:	00400f13          	li	t5,4
800052bc:	66666eb7          	lui	t4,0x66666
800052c0:	667e8e93          	addi	t4,t4,1639 # 66666667 <absimm+0x21374138>
800052c4:	03df0fb3          	mul	t6,t5,t4
800052c8:	09f42423          	sw	t6,136(s0)
800052cc:	9999a4b7          	lui	s1,0x9999a
800052d0:	99c48493          	addi	s1,s1,-1636 # 9999999c <imm12+0x99999ecc>
800052d4:	5df49a63          	bne	s1,t6,800058a8 <bad_trap>

800052d8 <inst_572>:
800052d8:	00400f13          	li	t5,4
800052dc:	ffff5eb7          	lui	t4,0xffff5
800052e0:	afde8e93          	addi	t4,t4,-1283 # ffff4afd <imm12+0xffff502d>
800052e4:	03df0fb3          	mul	t6,t5,t4
800052e8:	09f42623          	sw	t6,140(s0)
800052ec:	fffd34b7          	lui	s1,0xfffd3
800052f0:	bf448493          	addi	s1,s1,-1036 # fffd2bf4 <imm12+0xfffd3124>
800052f4:	5bf49a63          	bne	s1,t6,800058a8 <bad_trap>

800052f8 <inst_573>:
800052f8:	55555f37          	lui	t5,0x55555
800052fc:	556f0f13          	addi	t5,t5,1366 # 55555556 <absimm+0x10263027>
80005300:	00300e93          	li	t4,3
80005304:	03df0fb3          	mul	t6,t5,t4
80005308:	09f42823          	sw	t6,144(s0)
8000530c:	00200493          	li	s1,2
80005310:	59f49c63          	bne	s1,t6,800058a8 <bad_trap>

80005314 <inst_574>:
80005314:	55555f37          	lui	t5,0x55555
80005318:	556f0f13          	addi	t5,t5,1366 # 55555556 <absimm+0x10263027>
8000531c:	55555eb7          	lui	t4,0x55555
80005320:	555e8e93          	addi	t4,t4,1365 # 55555555 <absimm+0x10263026>
80005324:	03df0fb3          	mul	t6,t5,t4
80005328:	09f42a23          	sw	t6,148(s0)
8000532c:	8e38e4b7          	lui	s1,0x8e38e
80005330:	38e48493          	addi	s1,s1,910 # 8e38e38e <imm12+0x8e38e8be>
80005334:	57f49a63          	bne	s1,t6,800058a8 <bad_trap>

80005338 <inst_575>:
80005338:	55555f37          	lui	t5,0x55555
8000533c:	556f0f13          	addi	t5,t5,1366 # 55555556 <absimm+0x10263027>
80005340:	aaaabeb7          	lui	t4,0xaaaab
80005344:	aaae8e93          	addi	t4,t4,-1366 # aaaaaaaa <imm12+0xaaaaafda>
80005348:	03df0fb3          	mul	t6,t5,t4
8000534c:	09f42c23          	sw	t6,152(s0)
80005350:	1c71c4b7          	lui	s1,0x1c71c
80005354:	71c48493          	addi	s1,s1,1820 # 1c71c71c <offset+0x1c71c5e8>
80005358:	55f49863          	bne	s1,t6,800058a8 <bad_trap>

8000535c <inst_576>:
8000535c:	55555f37          	lui	t5,0x55555
80005360:	556f0f13          	addi	t5,t5,1366 # 55555556 <absimm+0x10263027>
80005364:	00500e93          	li	t4,5
80005368:	03df0fb3          	mul	t6,t5,t4
8000536c:	09f42e23          	sw	t6,156(s0)
80005370:	aaaab4b7          	lui	s1,0xaaaab
80005374:	aae48493          	addi	s1,s1,-1362 # aaaaaaae <imm12+0xaaaaafde>
80005378:	53f49863          	bne	s1,t6,800058a8 <bad_trap>

8000537c <inst_577>:
8000537c:	55555f37          	lui	t5,0x55555
80005380:	556f0f13          	addi	t5,t5,1366 # 55555556 <absimm+0x10263027>
80005384:	33333eb7          	lui	t4,0x33333
80005388:	333e8e93          	addi	t4,t4,819 # 33333333 <offset+0x333331ff>
8000538c:	03df0fb3          	mul	t6,t5,t4
80005390:	0bf42023          	sw	t6,160(s0)
80005394:	222224b7          	lui	s1,0x22222
80005398:	22248493          	addi	s1,s1,546 # 22222222 <offset+0x222220ee>
8000539c:	51f49663          	bne	s1,t6,800058a8 <bad_trap>

800053a0 <inst_578>:
800053a0:	55555f37          	lui	t5,0x55555
800053a4:	556f0f13          	addi	t5,t5,1366 # 55555556 <absimm+0x10263027>
800053a8:	66666eb7          	lui	t4,0x66666
800053ac:	666e8e93          	addi	t4,t4,1638 # 66666666 <absimm+0x21374137>
800053b0:	03df0fb3          	mul	t6,t5,t4
800053b4:	0bf42223          	sw	t6,164(s0)
800053b8:	444444b7          	lui	s1,0x44444
800053bc:	44448493          	addi	s1,s1,1092 # 44444444 <offset+0x44444310>
800053c0:	4ff49463          	bne	s1,t6,800058a8 <bad_trap>

800053c4 <inst_579>:
800053c4:	55555f37          	lui	t5,0x55555
800053c8:	556f0f13          	addi	t5,t5,1366 # 55555556 <absimm+0x10263027>
800053cc:	ffff5eb7          	lui	t4,0xffff5
800053d0:	afce8e93          	addi	t4,t4,-1284 # ffff4afc <imm12+0xffff502c>
800053d4:	03df0fb3          	mul	t6,t5,t4
800053d8:	0bf42423          	sw	t6,168(s0)
800053dc:	5554e4b7          	lui	s1,0x5554e
800053e0:	ca848493          	addi	s1,s1,-856 # 5554dca8 <absimm+0x1025b779>
800053e4:	4df49263          	bne	s1,t6,800058a8 <bad_trap>

800053e8 <inst_580>:
800053e8:	55555f37          	lui	t5,0x55555
800053ec:	556f0f13          	addi	t5,t5,1366 # 55555556 <absimm+0x10263027>
800053f0:	0000beb7          	lui	t4,0xb
800053f4:	504e8e93          	addi	t4,t4,1284 # b504 <offset+0xb3d0>
800053f8:	03df0fb3          	mul	t6,t5,t4
800053fc:	0bf42623          	sw	t6,172(s0)
80005400:	aaab24b7          	lui	s1,0xaaab2
80005404:	35848493          	addi	s1,s1,856 # aaab2358 <imm12+0xaaab2888>
80005408:	4bf49063          	bne	s1,t6,800058a8 <bad_trap>

8000540c <inst_581>:
8000540c:	55555f37          	lui	t5,0x55555
80005410:	556f0f13          	addi	t5,t5,1366 # 55555556 <absimm+0x10263027>
80005414:	00200e93          	li	t4,2
80005418:	03df0fb3          	mul	t6,t5,t4
8000541c:	0bf42823          	sw	t6,176(s0)
80005420:	aaaab4b7          	lui	s1,0xaaaab
80005424:	aac48493          	addi	s1,s1,-1364 # aaaaaaac <imm12+0xaaaaafdc>
80005428:	49f49063          	bne	s1,t6,800058a8 <bad_trap>

8000542c <inst_582>:
8000542c:	55555f37          	lui	t5,0x55555
80005430:	556f0f13          	addi	t5,t5,1366 # 55555556 <absimm+0x10263027>
80005434:	55555eb7          	lui	t4,0x55555
80005438:	554e8e93          	addi	t4,t4,1364 # 55555554 <absimm+0x10263025>
8000543c:	03df0fb3          	mul	t6,t5,t4
80005440:	0bf42a23          	sw	t6,180(s0)
80005444:	38e394b7          	lui	s1,0x38e39
80005448:	e3848493          	addi	s1,s1,-456 # 38e38e38 <offset+0x38e38d04>
8000544c:	45f49e63          	bne	s1,t6,800058a8 <bad_trap>

80005450 <inst_583>:
80005450:	55555f37          	lui	t5,0x55555
80005454:	556f0f13          	addi	t5,t5,1366 # 55555556 <absimm+0x10263027>
80005458:	33333eb7          	lui	t4,0x33333
8000545c:	332e8e93          	addi	t4,t4,818 # 33333332 <offset+0x333331fe>
80005460:	03df0fb3          	mul	t6,t5,t4
80005464:	0bf42c23          	sw	t6,184(s0)
80005468:	ccccd4b7          	lui	s1,0xccccd
8000546c:	ccc48493          	addi	s1,s1,-820 # cccccccc <imm12+0xccccd1fc>
80005470:	43f49c63          	bne	s1,t6,800058a8 <bad_trap>

80005474 <inst_584>:
80005474:	55555f37          	lui	t5,0x55555
80005478:	556f0f13          	addi	t5,t5,1366 # 55555556 <absimm+0x10263027>
8000547c:	66666eb7          	lui	t4,0x66666
80005480:	665e8e93          	addi	t4,t4,1637 # 66666665 <absimm+0x21374136>
80005484:	03df0fb3          	mul	t6,t5,t4
80005488:	0bf42e23          	sw	t6,188(s0)
8000548c:	eeeef4b7          	lui	s1,0xeeeef
80005490:	eee48493          	addi	s1,s1,-274 # eeeeeeee <imm12+0xeeeef41e>
80005494:	41f49a63          	bne	s1,t6,800058a8 <bad_trap>

80005498 <inst_585>:
80005498:	55555f37          	lui	t5,0x55555
8000549c:	556f0f13          	addi	t5,t5,1366 # 55555556 <absimm+0x10263027>
800054a0:	00000e93          	li	t4,0
800054a4:	03df0fb3          	mul	t6,t5,t4
800054a8:	0df42023          	sw	t6,192(s0)
800054ac:	00000493          	li	s1,0
800054b0:	3ff49c63          	bne	s1,t6,800058a8 <bad_trap>

800054b4 <inst_586>:
800054b4:	55555f37          	lui	t5,0x55555
800054b8:	556f0f13          	addi	t5,t5,1366 # 55555556 <absimm+0x10263027>
800054bc:	0000beb7          	lui	t4,0xb
800054c0:	503e8e93          	addi	t4,t4,1283 # b503 <offset+0xb3cf>
800054c4:	03df0fb3          	mul	t6,t5,t4
800054c8:	0df42223          	sw	t6,196(s0)
800054cc:	5555d4b7          	lui	s1,0x5555d
800054d0:	e0248493          	addi	s1,s1,-510 # 5555ce02 <absimm+0x1026a8d3>
800054d4:	3df49a63          	bne	s1,t6,800058a8 <bad_trap>

800054d8 <inst_587>:
800054d8:	55555f37          	lui	t5,0x55555
800054dc:	556f0f13          	addi	t5,t5,1366 # 55555556 <absimm+0x10263027>
800054e0:	00400e93          	li	t4,4
800054e4:	03df0fb3          	mul	t6,t5,t4
800054e8:	0df42423          	sw	t6,200(s0)
800054ec:	555554b7          	lui	s1,0x55555
800054f0:	55848493          	addi	s1,s1,1368 # 55555558 <absimm+0x10263029>
800054f4:	3bf49a63          	bne	s1,t6,800058a8 <bad_trap>

800054f8 <inst_588>:
800054f8:	55555f37          	lui	t5,0x55555
800054fc:	556f0f13          	addi	t5,t5,1366 # 55555556 <absimm+0x10263027>
80005500:	55555eb7          	lui	t4,0x55555
80005504:	556e8e93          	addi	t4,t4,1366 # 55555556 <absimm+0x10263027>
80005508:	03df0fb3          	mul	t6,t5,t4
8000550c:	0df42623          	sw	t6,204(s0)
80005510:	e38e44b7          	lui	s1,0xe38e4
80005514:	8e448493          	addi	s1,s1,-1820 # e38e38e4 <imm12+0xe38e3e14>
80005518:	39f49863          	bne	s1,t6,800058a8 <bad_trap>

8000551c <inst_589>:
8000551c:	55555f37          	lui	t5,0x55555
80005520:	556f0f13          	addi	t5,t5,1366 # 55555556 <absimm+0x10263027>
80005524:	aaaabeb7          	lui	t4,0xaaaab
80005528:	aabe8e93          	addi	t4,t4,-1365 # aaaaaaab <imm12+0xaaaaafdb>
8000552c:	03df0fb3          	mul	t6,t5,t4
80005530:	0df42823          	sw	t6,208(s0)
80005534:	71c724b7          	lui	s1,0x71c72
80005538:	c7248493          	addi	s1,s1,-910 # 71c71c72 <absimm+0x2c97f743>
8000553c:	37f49663          	bne	s1,t6,800058a8 <bad_trap>

80005540 <inst_590>:
80005540:	55555f37          	lui	t5,0x55555
80005544:	556f0f13          	addi	t5,t5,1366 # 55555556 <absimm+0x10263027>
80005548:	00600e93          	li	t4,6
8000554c:	03df0fb3          	mul	t6,t5,t4
80005550:	0df42a23          	sw	t6,212(s0)
80005554:	00400493          	li	s1,4
80005558:	35f49863          	bne	s1,t6,800058a8 <bad_trap>

8000555c <inst_591>:
8000555c:	55555f37          	lui	t5,0x55555
80005560:	556f0f13          	addi	t5,t5,1366 # 55555556 <absimm+0x10263027>
80005564:	33333eb7          	lui	t4,0x33333
80005568:	334e8e93          	addi	t4,t4,820 # 33333334 <offset+0x33333200>
8000556c:	03df0fb3          	mul	t6,t5,t4
80005570:	0df42c23          	sw	t6,216(s0)
80005574:	777774b7          	lui	s1,0x77777
80005578:	77848493          	addi	s1,s1,1912 # 77777778 <absimm+0x32485249>
8000557c:	33f49663          	bne	s1,t6,800058a8 <bad_trap>

80005580 <inst_592>:
80005580:	55555f37          	lui	t5,0x55555
80005584:	556f0f13          	addi	t5,t5,1366 # 55555556 <absimm+0x10263027>
80005588:	66666eb7          	lui	t4,0x66666
8000558c:	667e8e93          	addi	t4,t4,1639 # 66666667 <absimm+0x21374138>
80005590:	03df0fb3          	mul	t6,t5,t4
80005594:	0df42e23          	sw	t6,220(s0)
80005598:	9999a4b7          	lui	s1,0x9999a
8000559c:	99a48493          	addi	s1,s1,-1638 # 9999999a <imm12+0x99999eca>
800055a0:	31f49463          	bne	s1,t6,800058a8 <bad_trap>

800055a4 <inst_593>:
800055a4:	55555f37          	lui	t5,0x55555
800055a8:	556f0f13          	addi	t5,t5,1366 # 55555556 <absimm+0x10263027>
800055ac:	ffff5eb7          	lui	t4,0xffff5
800055b0:	afde8e93          	addi	t4,t4,-1283 # ffff4afd <imm12+0xffff502d>
800055b4:	03df0fb3          	mul	t6,t5,t4
800055b8:	0ff42023          	sw	t6,224(s0)
800055bc:	aaaa34b7          	lui	s1,0xaaaa3
800055c0:	1fe48493          	addi	s1,s1,510 # aaaa31fe <imm12+0xaaaa372e>
800055c4:	2ff49263          	bne	s1,t6,800058a8 <bad_trap>

800055c8 <inst_594>:
800055c8:	55555f37          	lui	t5,0x55555
800055cc:	556f0f13          	addi	t5,t5,1366 # 55555556 <absimm+0x10263027>
800055d0:	0000beb7          	lui	t4,0xb
800055d4:	505e8e93          	addi	t4,t4,1285 # b505 <offset+0xb3d1>
800055d8:	03df0fb3          	mul	t6,t5,t4
800055dc:	0ff42223          	sw	t6,228(s0)
800055e0:	000084b7          	lui	s1,0x8
800055e4:	8ae48493          	addi	s1,s1,-1874 # 78ae <offset+0x777a>
800055e8:	2df49063          	bne	s1,t6,800058a8 <bad_trap>

800055ec <inst_595>:
800055ec:	aaaabf37          	lui	t5,0xaaaab
800055f0:	aabf0f13          	addi	t5,t5,-1365 # aaaaaaab <imm12+0xaaaaafdb>
800055f4:	00300e93          	li	t4,3
800055f8:	03df0fb3          	mul	t6,t5,t4
800055fc:	0ff42423          	sw	t6,232(s0)
80005600:	00100493          	li	s1,1
80005604:	2bf49263          	bne	s1,t6,800058a8 <bad_trap>

80005608 <inst_596>:
80005608:	aaaabf37          	lui	t5,0xaaaab
8000560c:	aabf0f13          	addi	t5,t5,-1365 # aaaaaaab <imm12+0xaaaaafdb>
80005610:	55555eb7          	lui	t4,0x55555
80005614:	555e8e93          	addi	t4,t4,1365 # 55555555 <absimm+0x10263026>
80005618:	03df0fb3          	mul	t6,t5,t4
8000561c:	0ff42623          	sw	t6,236(s0)
80005620:	c71c74b7          	lui	s1,0xc71c7
80005624:	1c748493          	addi	s1,s1,455 # c71c71c7 <imm12+0xc71c76f7>
80005628:	29f49063          	bne	s1,t6,800058a8 <bad_trap>

8000562c <inst_597>:
8000562c:	aaaabf37          	lui	t5,0xaaaab
80005630:	aabf0f13          	addi	t5,t5,-1365 # aaaaaaab <imm12+0xaaaaafdb>
80005634:	aaaabeb7          	lui	t4,0xaaaab
80005638:	aaae8e93          	addi	t4,t4,-1366 # aaaaaaaa <imm12+0xaaaaafda>
8000563c:	03df0fb3          	mul	t6,t5,t4
80005640:	0ff42823          	sw	t6,240(s0)
80005644:	8e38e4b7          	lui	s1,0x8e38e
80005648:	38e48493          	addi	s1,s1,910 # 8e38e38e <imm12+0x8e38e8be>
8000564c:	25f49e63          	bne	s1,t6,800058a8 <bad_trap>

80005650 <inst_598>:
80005650:	aaaabf37          	lui	t5,0xaaaab
80005654:	aabf0f13          	addi	t5,t5,-1365 # aaaaaaab <imm12+0xaaaaafdb>
80005658:	00500e93          	li	t4,5
8000565c:	03df0fb3          	mul	t6,t5,t4
80005660:	0ff42a23          	sw	t6,244(s0)
80005664:	555554b7          	lui	s1,0x55555
80005668:	55748493          	addi	s1,s1,1367 # 55555557 <absimm+0x10263028>
8000566c:	23f49e63          	bne	s1,t6,800058a8 <bad_trap>

80005670 <inst_599>:
80005670:	aaaabf37          	lui	t5,0xaaaab
80005674:	aabf0f13          	addi	t5,t5,-1365 # aaaaaaab <imm12+0xaaaaafdb>
80005678:	33333eb7          	lui	t4,0x33333
8000567c:	333e8e93          	addi	t4,t4,819 # 33333333 <offset+0x333331ff>
80005680:	03df0fb3          	mul	t6,t5,t4
80005684:	0ff42c23          	sw	t6,248(s0)
80005688:	111114b7          	lui	s1,0x11111
8000568c:	11148493          	addi	s1,s1,273 # 11111111 <offset+0x11110fdd>
80005690:	21f49c63          	bne	s1,t6,800058a8 <bad_trap>

80005694 <inst_600>:
80005694:	aaaabf37          	lui	t5,0xaaaab
80005698:	aabf0f13          	addi	t5,t5,-1365 # aaaaaaab <imm12+0xaaaaafdb>
8000569c:	66666eb7          	lui	t4,0x66666
800056a0:	666e8e93          	addi	t4,t4,1638 # 66666666 <absimm+0x21374137>
800056a4:	03df0fb3          	mul	t6,t5,t4
800056a8:	0ff42e23          	sw	t6,252(s0)
800056ac:	222224b7          	lui	s1,0x22222
800056b0:	22248493          	addi	s1,s1,546 # 22222222 <offset+0x222220ee>
800056b4:	1ff49a63          	bne	s1,t6,800058a8 <bad_trap>

800056b8 <inst_601>:
800056b8:	aaaabf37          	lui	t5,0xaaaab
800056bc:	aabf0f13          	addi	t5,t5,-1365 # aaaaaaab <imm12+0xaaaaafdb>
800056c0:	ffff5eb7          	lui	t4,0xffff5
800056c4:	afce8e93          	addi	t4,t4,-1284 # ffff4afc <imm12+0xffff502c>
800056c8:	03df0fb3          	mul	t6,t5,t4
800056cc:	11f42023          	sw	t6,256(s0)
800056d0:	aaaa74b7          	lui	s1,0xaaaa7
800056d4:	e5448493          	addi	s1,s1,-428 # aaaa6e54 <imm12+0xaaaa7384>
800056d8:	1df49863          	bne	s1,t6,800058a8 <bad_trap>

800056dc <inst_602>:
800056dc:	aaaabf37          	lui	t5,0xaaaab
800056e0:	aabf0f13          	addi	t5,t5,-1365 # aaaaaaab <imm12+0xaaaaafdb>
800056e4:	0000beb7          	lui	t4,0xb
800056e8:	504e8e93          	addi	t4,t4,1284 # b504 <offset+0xb3d0>
800056ec:	03df0fb3          	mul	t6,t5,t4
800056f0:	11f42223          	sw	t6,260(s0)
800056f4:	555594b7          	lui	s1,0x55559
800056f8:	1ac48493          	addi	s1,s1,428 # 555591ac <absimm+0x10266c7d>
800056fc:	1bf49663          	bne	s1,t6,800058a8 <bad_trap>

80005700 <inst_603>:
80005700:	aaaabf37          	lui	t5,0xaaaab
80005704:	aabf0f13          	addi	t5,t5,-1365 # aaaaaaab <imm12+0xaaaaafdb>
80005708:	00200e93          	li	t4,2
8000570c:	03df0fb3          	mul	t6,t5,t4
80005710:	11f42423          	sw	t6,264(s0)
80005714:	555554b7          	lui	s1,0x55555
80005718:	55648493          	addi	s1,s1,1366 # 55555556 <absimm+0x10263027>
8000571c:	19f49663          	bne	s1,t6,800058a8 <bad_trap>

80005720 <inst_604>:
80005720:	aaaabf37          	lui	t5,0xaaaab
80005724:	aabf0f13          	addi	t5,t5,-1365 # aaaaaaab <imm12+0xaaaaafdb>
80005728:	55555eb7          	lui	t4,0x55555
8000572c:	554e8e93          	addi	t4,t4,1364 # 55555554 <absimm+0x10263025>
80005730:	03df0fb3          	mul	t6,t5,t4
80005734:	11f42623          	sw	t6,268(s0)
80005738:	1c71c4b7          	lui	s1,0x1c71c
8000573c:	71c48493          	addi	s1,s1,1820 # 1c71c71c <offset+0x1c71c5e8>
80005740:	17f49463          	bne	s1,t6,800058a8 <bad_trap>

80005744 <inst_605>:
80005744:	aaaabf37          	lui	t5,0xaaaab
80005748:	aabf0f13          	addi	t5,t5,-1365 # aaaaaaab <imm12+0xaaaaafdb>
8000574c:	33333eb7          	lui	t4,0x33333
80005750:	332e8e93          	addi	t4,t4,818 # 33333332 <offset+0x333331fe>
80005754:	03df0fb3          	mul	t6,t5,t4
80005758:	11f42823          	sw	t6,272(s0)
8000575c:	666664b7          	lui	s1,0x66666
80005760:	66648493          	addi	s1,s1,1638 # 66666666 <absimm+0x21374137>
80005764:	15f49263          	bne	s1,t6,800058a8 <bad_trap>

80005768 <inst_606>:
80005768:	aaaabf37          	lui	t5,0xaaaab
8000576c:	aabf0f13          	addi	t5,t5,-1365 # aaaaaaab <imm12+0xaaaaafdb>
80005770:	66666eb7          	lui	t4,0x66666
80005774:	665e8e93          	addi	t4,t4,1637 # 66666665 <absimm+0x21374136>
80005778:	03df0fb3          	mul	t6,t5,t4
8000577c:	11f42a23          	sw	t6,276(s0)
80005780:	777774b7          	lui	s1,0x77777
80005784:	77748493          	addi	s1,s1,1911 # 77777777 <absimm+0x32485248>
80005788:	13f49063          	bne	s1,t6,800058a8 <bad_trap>

8000578c <inst_607>:
8000578c:	aaaabf37          	lui	t5,0xaaaab
80005790:	aabf0f13          	addi	t5,t5,-1365 # aaaaaaab <imm12+0xaaaaafdb>
80005794:	00000e93          	li	t4,0
80005798:	03df0fb3          	mul	t6,t5,t4
8000579c:	11f42c23          	sw	t6,280(s0)
800057a0:	00000493          	li	s1,0
800057a4:	11f49263          	bne	s1,t6,800058a8 <bad_trap>

800057a8 <inst_608>:
800057a8:	aaaabf37          	lui	t5,0xaaaab
800057ac:	aabf0f13          	addi	t5,t5,-1365 # aaaaaaab <imm12+0xaaaaafdb>
800057b0:	0000beb7          	lui	t4,0xb
800057b4:	503e8e93          	addi	t4,t4,1283 # b503 <offset+0xb3cf>
800057b8:	03df0fb3          	mul	t6,t5,t4
800057bc:	11f42e23          	sw	t6,284(s0)
800057c0:	aaaae4b7          	lui	s1,0xaaaae
800057c4:	70148493          	addi	s1,s1,1793 # aaaae701 <imm12+0xaaaaec31>
800057c8:	0ff49063          	bne	s1,t6,800058a8 <bad_trap>

800057cc <inst_609>:
800057cc:	0000bf37          	lui	t5,0xb
800057d0:	505f0f13          	addi	t5,t5,1285 # b505 <offset+0xb3d1>
800057d4:	ffff5eb7          	lui	t4,0xffff5
800057d8:	afde8e93          	addi	t4,t4,-1283 # ffff4afd <imm12+0xffff502d>
800057dc:	03df0fb3          	mul	t6,t5,t4
800057e0:	13f42023          	sw	t6,288(s0)
800057e4:	800154b7          	lui	s1,0x80015
800057e8:	7f148493          	addi	s1,s1,2033 # 800157f1 <imm12+0x80015d21>
800057ec:	0bf49e63          	bne	s1,t6,800058a8 <bad_trap>

800057f0 <inst_610>:
800057f0:	80000f37          	lui	t5,0x80000
800057f4:	ffff0f13          	addi	t5,t5,-1 # 7fffffff <imm12+0x8000052f>
800057f8:	0000beb7          	lui	t4,0xb
800057fc:	505e8e93          	addi	t4,t4,1285 # b505 <offset+0xb3d1>
80005800:	03df0fb3          	mul	t6,t5,t4
80005804:	13f42223          	sw	t6,292(s0)
80005808:	7fff54b7          	lui	s1,0x7fff5
8000580c:	afb48493          	addi	s1,s1,-1285 # 7fff4afb <absimm+0x3ad025cc>
80005810:	09f49c63          	bne	s1,t6,800058a8 <bad_trap>

80005814 <inst_611>:
80005814:	0000bf37          	lui	t5,0xb
80005818:	505f0f13          	addi	t5,t5,1285 # b505 <offset+0xb3d1>
8000581c:	ff000eb7          	lui	t4,0xff000
80005820:	fffe8e93          	addi	t4,t4,-1 # feffffff <imm12+0xff00052f>
80005824:	03df0fb3          	mul	t6,t5,t4
80005828:	13f42423          	sw	t6,296(s0)
8000582c:	faff54b7          	lui	s1,0xfaff5
80005830:	afb48493          	addi	s1,s1,-1285 # faff4afb <imm12+0xfaff502b>
80005834:	07f49a63          	bne	s1,t6,800058a8 <bad_trap>

80005838 <inst_612>:
80005838:	0000bf37          	lui	t5,0xb
8000583c:	505f0f13          	addi	t5,t5,1285 # b505 <offset+0xb3d1>
80005840:	fc000eb7          	lui	t4,0xfc000
80005844:	fffe8e93          	addi	t4,t4,-1 # fbffffff <imm12+0xfc00052f>
80005848:	03df0fb3          	mul	t6,t5,t4
8000584c:	13f42623          	sw	t6,300(s0)
80005850:	ebff54b7          	lui	s1,0xebff5
80005854:	afb48493          	addi	s1,s1,-1285 # ebff4afb <imm12+0xebff502b>
80005858:	05f49863          	bne	s1,t6,800058a8 <bad_trap>

8000585c <inst_613>:
8000585c:	0000bf37          	lui	t5,0xb
80005860:	505f0f13          	addi	t5,t5,1285 # b505 <offset+0xb3d1>
80005864:	f8000eb7          	lui	t4,0xf8000
80005868:	fffe8e93          	addi	t4,t4,-1 # f7ffffff <imm12+0xf800052f>
8000586c:	03df0fb3          	mul	t6,t5,t4
80005870:	13f42823          	sw	t6,304(s0)
80005874:	d7ff54b7          	lui	s1,0xd7ff5
80005878:	afb48493          	addi	s1,s1,-1285 # d7ff4afb <imm12+0xd7ff502b>
8000587c:	03f49663          	bne	s1,t6,800058a8 <bad_trap>

80005880 <cleanup_epilogs>:
80005880:	0200006f          	j	800058a0 <exit_cleanup>

80005884 <abort_tests>:
80005884:	17812483          	lw	s1,376(sp)
80005888:	18012303          	lw	t1,384(sp)
8000588c:	00930333          	add	t1,t1,s1
80005890:	bad0e337          	lui	t1,0xbad0e
80005894:	ad030313          	addi	t1,t1,-1328 # bad0dad0 <imm12+0xbad0e000>
80005898:	fe64ae23          	sw	t1,-4(s1)
8000589c:	0040006f          	j	800058a0 <exit_cleanup>

800058a0 <exit_cleanup>:
800058a0:	00000513          	li	a0,0
800058a4:	020000ef          	jal	ra,800058c4 <halt>

800058a8 <bad_trap>:
800058a8:	00100513          	li	a0,1
800058ac:	018000ef          	jal	ra,800058c4 <halt>
	...

800058c4 <halt>:
800058c4:	0000006f          	j	800058c4 <halt>

800058c8 <_trm_init>:
800058c8:	ff010113          	addi	sp,sp,-16
800058cc:	00000517          	auipc	a0,0x0
800058d0:	01450513          	addi	a0,a0,20 # 800058e0 <_etext>
800058d4:	00112623          	sw	ra,12(sp)
800058d8:	f38fa0ef          	jal	ra,80000010 <main>
800058dc:	0000006f          	j	800058dc <_trm_init+0x14>
