
test/mulhsu-riscv32-ni.elf:     file format elf32-littleriscv


Disassembly of section .text:

80000000 <_start>:
80000000:	00000413          	li	s0,0
80000004:	00018117          	auipc	sp,0x18
80000008:	ffc10113          	addi	sp,sp,-4 # 80018000 <_end>
8000000c:	51d050ef          	jal	ra,80005d28 <_trm_init>

80000010 <main>:
80000010:	010000ef          	jal	ra,80000020 <rvtest_entry_point>
80000014:	00000513          	li	a0,0
80000018:	00008067          	ret
8000001c:	0000                	unimp
	...

80000020 <rvtest_entry_point>:
80000020:	7d5c0837          	lui	a6,0x7d5c0
80000024:	ddb80813          	addi	a6,a6,-549 # 7d5bfddb <absimm+0x382cd8ac>
80000028:	00785893          	srli	a7,a6,0x7
8000002c:	01985793          	srli	a5,a6,0x19
80000030:	00f8e8b3          	or	a7,a7,a5
80000034:	0078d913          	srli	s2,a7,0x7
80000038:	0198d793          	srli	a5,a7,0x19
8000003c:	00f96933          	or	s2,s2,a5
80000040:	00795993          	srli	s3,s2,0x7
80000044:	01995793          	srli	a5,s2,0x19
80000048:	00f9e9b3          	or	s3,s3,a5
8000004c:	0079da13          	srli	s4,s3,0x7
80000050:	0199d793          	srli	a5,s3,0x19
80000054:	00fa6a33          	or	s4,s4,a5
80000058:	007a5a93          	srli	s5,s4,0x7
8000005c:	019a5793          	srli	a5,s4,0x19
80000060:	00faeab3          	or	s5,s5,a5
80000064:	007adb13          	srli	s6,s5,0x7
80000068:	019ad793          	srli	a5,s5,0x19
8000006c:	00fb6b33          	or	s6,s6,a5
80000070:	007b5b93          	srli	s7,s6,0x7
80000074:	019b5793          	srli	a5,s6,0x19
80000078:	00fbebb3          	or	s7,s7,a5
8000007c:	007bdc13          	srli	s8,s7,0x7
80000080:	019bd793          	srli	a5,s7,0x19
80000084:	00fc6c33          	or	s8,s8,a5
80000088:	007c5c93          	srli	s9,s8,0x7
8000008c:	019c5793          	srli	a5,s8,0x19
80000090:	00fcecb3          	or	s9,s9,a5
80000094:	007cdd13          	srli	s10,s9,0x7
80000098:	019cd793          	srli	a5,s9,0x19
8000009c:	00fd6d33          	or	s10,s10,a5
800000a0:	007d5d93          	srli	s11,s10,0x7
800000a4:	019d5793          	srli	a5,s10,0x19
800000a8:	00fdedb3          	or	s11,s11,a5
800000ac:	007dde13          	srli	t3,s11,0x7
800000b0:	019dd793          	srli	a5,s11,0x19
800000b4:	00fe6e33          	or	t3,t3,a5
800000b8:	007e5e93          	srli	t4,t3,0x7
800000bc:	019e5793          	srli	a5,t3,0x19
800000c0:	00feeeb3          	or	t4,t4,a5
800000c4:	007edf13          	srli	t5,t4,0x7
800000c8:	019ed793          	srli	a5,t4,0x19
800000cc:	00ff6f33          	or	t5,t5,a5
800000d0:	feedc0b7          	lui	ra,0xfeedc
800000d4:	ead08093          	addi	ra,ra,-339 # feedbead <imm12+0xfeedc3dd>
800000d8:	0070d113          	srli	sp,ra,0x7
800000dc:	0190d793          	srli	a5,ra,0x19
800000e0:	00f16133          	or	sp,sp,a5
800000e4:	00715193          	srli	gp,sp,0x7
800000e8:	01915793          	srli	a5,sp,0x19
800000ec:	00f1e1b3          	or	gp,gp,a5
800000f0:	0071d213          	srli	tp,gp,0x7
800000f4:	0191d793          	srli	a5,gp,0x19
800000f8:	00f26233          	or	tp,tp,a5
800000fc:	00725293          	srli	t0,tp,0x7
80000100:	01925793          	srli	a5,tp,0x19
80000104:	00f2e2b3          	or	t0,t0,a5
80000108:	0072d313          	srli	t1,t0,0x7
8000010c:	0192d793          	srli	a5,t0,0x19
80000110:	00f36333          	or	t1,t1,a5
80000114:	00735393          	srli	t2,t1,0x7
80000118:	01935793          	srli	a5,t1,0x19
8000011c:	00f3e3b3          	or	t2,t2,a5
80000120:	0073d413          	srli	s0,t2,0x7
80000124:	0193d793          	srli	a5,t2,0x19
80000128:	00f46433          	or	s0,s0,a5
8000012c:	00745493          	srli	s1,s0,0x7
80000130:	01945793          	srli	a5,s0,0x19
80000134:	00f4e4b3          	or	s1,s1,a5
80000138:	0074d513          	srli	a0,s1,0x7
8000013c:	0194d793          	srli	a5,s1,0x19
80000140:	00f56533          	or	a0,a0,a5
80000144:	00755593          	srli	a1,a0,0x7
80000148:	01955793          	srli	a5,a0,0x19
8000014c:	00f5e5b3          	or	a1,a1,a5
80000150:	0075d613          	srli	a2,a1,0x7
80000154:	0195d793          	srli	a5,a1,0x19
80000158:	00f66633          	or	a2,a2,a5
8000015c:	00765693          	srli	a3,a2,0x7
80000160:	01965793          	srli	a5,a2,0x19
80000164:	00f6e6b3          	or	a3,a3,a5

80000168 <rvtest_code_begin>:
80000168:	00000013          	nop
8000016c:	00000013          	nop
80000170:	00000013          	nop
80000174:	00000013          	nop
80000178:	00000013          	nop
8000017c:	00000013          	nop
80000180:	00007097          	auipc	ra,0x7
80000184:	e8408093          	addi	ra,ra,-380 # 80007004 <signature_x1_0>
80000188:	00000013          	nop
8000018c:	00000013          	nop
80000190:	00000013          	nop
80000194:	00000013          	nop
80000198:	00000013          	nop
8000019c:	00000013          	nop

800001a0 <inst_0>:
800001a0:	0000bfb7          	lui	t6,0xb
800001a4:	505f8f93          	addi	t6,t6,1285 # b505 <offset+0xb2d1>
800001a8:	0000bfb7          	lui	t6,0xb
800001ac:	505f8f93          	addi	t6,t6,1285 # b505 <offset+0xb2d1>
800001b0:	03ffafb3          	mulhsu	t6,t6,t6
800001b4:	01f0a023          	sw	t6,0(ra)
800001b8:	00000113          	li	sp,0
800001bc:	01f10463          	beq	sp,t6,800001c4 <inst_1>
800001c0:	3450506f          	j	80005d04 <bad_trap>

800001c4 <inst_1>:
800001c4:	80000f37          	lui	t5,0x80000
800001c8:	00010eb7          	lui	t4,0x10
800001cc:	03df2f33          	mulhsu	t5,t5,t4
800001d0:	01e0a223          	sw	t5,4(ra)
800001d4:	ffff8137          	lui	sp,0xffff8
800001d8:	01e10463          	beq	sp,t5,800001e0 <inst_2>
800001dc:	3290506f          	j	80005d04 <bad_trap>

800001e0 <inst_2>:
800001e0:	80000eb7          	lui	t4,0x80000
800001e4:	fffe8e93          	addi	t4,t4,-1 # 7fffffff <imm12+0x8000052f>
800001e8:	00010e37          	lui	t3,0x10
800001ec:	03ceae33          	mulhsu	t3,t4,t3
800001f0:	01c0a423          	sw	t3,8(ra)
800001f4:	00008137          	lui	sp,0x8
800001f8:	fff10113          	addi	sp,sp,-1 # 7fff <offset+0x7dcb>
800001fc:	01c10463          	beq	sp,t3,80000204 <inst_3>
80000200:	3050506f          	j	80005d04 <bad_trap>

80000204 <inst_3>:
80000204:	00000e13          	li	t3,0
80000208:	00010f37          	lui	t5,0x10
8000020c:	03ee2eb3          	mulhsu	t4,t3,t5
80000210:	01d0a623          	sw	t4,12(ra)
80000214:	00000113          	li	sp,0
80000218:	01d10463          	beq	sp,t4,80000220 <inst_4>
8000021c:	2e90506f          	j	80005d04 <bad_trap>

80000220 <inst_4>:
80000220:	0000bd37          	lui	s10,0xb
80000224:	505d0d13          	addi	s10,s10,1285 # b505 <offset+0xb2d1>
80000228:	0000bd37          	lui	s10,0xb
8000022c:	505d0d13          	addi	s10,s10,1285 # b505 <offset+0xb2d1>
80000230:	03ad2db3          	mulhsu	s11,s10,s10
80000234:	01b0a823          	sw	s11,16(ra)
80000238:	00000113          	li	sp,0
8000023c:	01b10463          	beq	sp,s11,80000244 <inst_5>
80000240:	2c50506f          	j	80005d04 <bad_trap>

80000244 <inst_5>:
80000244:	00300d93          	li	s11,3
80000248:	00300c93          	li	s9,3
8000024c:	039dad33          	mulhsu	s10,s11,s9
80000250:	01a0aa23          	sw	s10,20(ra)
80000254:	00000113          	li	sp,0
80000258:	01a10463          	beq	sp,s10,80000260 <inst_6>
8000025c:	2a90506f          	j	80005d04 <bad_trap>

80000260 <inst_6>:
80000260:	0000bc37          	lui	s8,0xb
80000264:	505c0c13          	addi	s8,s8,1285 # b505 <offset+0xb2d1>
80000268:	ffe00d93          	li	s11,-2
8000026c:	03bc2cb3          	mulhsu	s9,s8,s11
80000270:	0190ac23          	sw	s9,24(ra)
80000274:	0000b137          	lui	sp,0xb
80000278:	50410113          	addi	sp,sp,1284 # b504 <offset+0xb2d0>
8000027c:	01910463          	beq	sp,s9,80000284 <inst_7>
80000280:	2850506f          	j	80005d04 <bad_trap>

80000284 <inst_7>:
80000284:	0000bcb7          	lui	s9,0xb
80000288:	505c8c93          	addi	s9,s9,1285 # b505 <offset+0xb2d1>
8000028c:	ffd00b93          	li	s7,-3
80000290:	037cac33          	mulhsu	s8,s9,s7
80000294:	0180ae23          	sw	s8,28(ra)
80000298:	0000b137          	lui	sp,0xb
8000029c:	50410113          	addi	sp,sp,1284 # b504 <offset+0xb2d0>
800002a0:	01810463          	beq	sp,s8,800002a8 <inst_8>
800002a4:	2610506f          	j	80005d04 <bad_trap>

800002a8 <inst_8>:
800002a8:	0000bb37          	lui	s6,0xb
800002ac:	505b0b13          	addi	s6,s6,1285 # b505 <offset+0xb2d1>
800002b0:	ffb00c13          	li	s8,-5
800002b4:	038b2bb3          	mulhsu	s7,s6,s8
800002b8:	0370a023          	sw	s7,32(ra)
800002bc:	0000b137          	lui	sp,0xb
800002c0:	50410113          	addi	sp,sp,1284 # b504 <offset+0xb2d0>
800002c4:	01710463          	beq	sp,s7,800002cc <inst_9>
800002c8:	23d0506f          	j	80005d04 <bad_trap>

800002cc <inst_9>:
800002cc:	0000bbb7          	lui	s7,0xb
800002d0:	505b8b93          	addi	s7,s7,1285 # b505 <offset+0xb2d1>
800002d4:	ff700a93          	li	s5,-9
800002d8:	035bab33          	mulhsu	s6,s7,s5
800002dc:	0360a223          	sw	s6,36(ra)
800002e0:	0000b137          	lui	sp,0xb
800002e4:	50410113          	addi	sp,sp,1284 # b504 <offset+0xb2d0>
800002e8:	01610463          	beq	sp,s6,800002f0 <inst_10>
800002ec:	2190506f          	j	80005d04 <bad_trap>

800002f0 <inst_10>:
800002f0:	0000ba37          	lui	s4,0xb
800002f4:	505a0a13          	addi	s4,s4,1285 # b505 <offset+0xb2d1>
800002f8:	fef00b13          	li	s6,-17
800002fc:	036a2ab3          	mulhsu	s5,s4,s6
80000300:	0350a423          	sw	s5,40(ra)
80000304:	0000b137          	lui	sp,0xb
80000308:	50410113          	addi	sp,sp,1284 # b504 <offset+0xb2d0>
8000030c:	01510463          	beq	sp,s5,80000314 <inst_11>
80000310:	1f50506f          	j	80005d04 <bad_trap>

80000314 <inst_11>:
80000314:	0000bab7          	lui	s5,0xb
80000318:	505a8a93          	addi	s5,s5,1285 # b505 <offset+0xb2d1>
8000031c:	fdf00993          	li	s3,-33
80000320:	033aaa33          	mulhsu	s4,s5,s3
80000324:	0340a623          	sw	s4,44(ra)
80000328:	0000b137          	lui	sp,0xb
8000032c:	50410113          	addi	sp,sp,1284 # b504 <offset+0xb2d0>
80000330:	01410463          	beq	sp,s4,80000338 <inst_12>
80000334:	1d10506f          	j	80005d04 <bad_trap>

80000338 <inst_12>:
80000338:	0000b937          	lui	s2,0xb
8000033c:	50590913          	addi	s2,s2,1285 # b505 <offset+0xb2d1>
80000340:	fbf00a13          	li	s4,-65
80000344:	034929b3          	mulhsu	s3,s2,s4
80000348:	0330a823          	sw	s3,48(ra)
8000034c:	0000b137          	lui	sp,0xb
80000350:	50410113          	addi	sp,sp,1284 # b504 <offset+0xb2d0>
80000354:	01310463          	beq	sp,s3,8000035c <inst_13>
80000358:	1ad0506f          	j	80005d04 <bad_trap>

8000035c <inst_13>:
8000035c:	0000b9b7          	lui	s3,0xb
80000360:	50598993          	addi	s3,s3,1285 # b505 <offset+0xb2d1>
80000364:	f7f00893          	li	a7,-129
80000368:	0319a933          	mulhsu	s2,s3,a7
8000036c:	0320aa23          	sw	s2,52(ra)
80000370:	0000b137          	lui	sp,0xb
80000374:	50410113          	addi	sp,sp,1284 # b504 <offset+0xb2d0>
80000378:	01210463          	beq	sp,s2,80000380 <inst_14>
8000037c:	1890506f          	j	80005d04 <bad_trap>

80000380 <inst_14>:
80000380:	0000b837          	lui	a6,0xb
80000384:	50580813          	addi	a6,a6,1285 # b505 <offset+0xb2d1>
80000388:	eff00913          	li	s2,-257
8000038c:	032828b3          	mulhsu	a7,a6,s2
80000390:	0310ac23          	sw	a7,56(ra)
80000394:	0000b137          	lui	sp,0xb
80000398:	50410113          	addi	sp,sp,1284 # b504 <offset+0xb2d0>
8000039c:	01110463          	beq	sp,a7,800003a4 <inst_15>
800003a0:	1650506f          	j	80005d04 <bad_trap>

800003a4 <inst_15>:
800003a4:	0000b8b7          	lui	a7,0xb
800003a8:	50588893          	addi	a7,a7,1285 # b505 <offset+0xb2d1>
800003ac:	dff00793          	li	a5,-513
800003b0:	02f8a833          	mulhsu	a6,a7,a5
800003b4:	0300ae23          	sw	a6,60(ra)
800003b8:	0000b137          	lui	sp,0xb
800003bc:	50410113          	addi	sp,sp,1284 # b504 <offset+0xb2d0>
800003c0:	01010463          	beq	sp,a6,800003c8 <inst_16>
800003c4:	1410506f          	j	80005d04 <bad_trap>

800003c8 <inst_16>:
800003c8:	0000b737          	lui	a4,0xb
800003cc:	50570713          	addi	a4,a4,1285 # b505 <offset+0xb2d1>
800003d0:	bff00813          	li	a6,-1025
800003d4:	030727b3          	mulhsu	a5,a4,a6
800003d8:	04f0a023          	sw	a5,64(ra)
800003dc:	0000b137          	lui	sp,0xb
800003e0:	50410113          	addi	sp,sp,1284 # b504 <offset+0xb2d0>
800003e4:	00f10463          	beq	sp,a5,800003ec <inst_17>
800003e8:	11d0506f          	j	80005d04 <bad_trap>

800003ec <inst_17>:
800003ec:	0000b7b7          	lui	a5,0xb
800003f0:	50578793          	addi	a5,a5,1285 # b505 <offset+0xb2d1>
800003f4:	fffff6b7          	lui	a3,0xfffff
800003f8:	7ff68693          	addi	a3,a3,2047 # fffff7ff <imm12+0xfffffd2f>
800003fc:	02d7a733          	mulhsu	a4,a5,a3
80000400:	04e0a223          	sw	a4,68(ra)
80000404:	0000b137          	lui	sp,0xb
80000408:	50410113          	addi	sp,sp,1284 # b504 <offset+0xb2d0>
8000040c:	00e10463          	beq	sp,a4,80000414 <inst_18>
80000410:	0f50506f          	j	80005d04 <bad_trap>

80000414 <inst_18>:
80000414:	0000b637          	lui	a2,0xb
80000418:	50560613          	addi	a2,a2,1285 # b505 <offset+0xb2d1>
8000041c:	fffff737          	lui	a4,0xfffff
80000420:	fff70713          	addi	a4,a4,-1 # ffffefff <imm12+0xfffff52f>
80000424:	02e626b3          	mulhsu	a3,a2,a4
80000428:	04d0a423          	sw	a3,72(ra)
8000042c:	0000b137          	lui	sp,0xb
80000430:	50410113          	addi	sp,sp,1284 # b504 <offset+0xb2d0>
80000434:	00d10463          	beq	sp,a3,8000043c <inst_19>
80000438:	0cd0506f          	j	80005d04 <bad_trap>

8000043c <inst_19>:
8000043c:	0000b6b7          	lui	a3,0xb
80000440:	50568693          	addi	a3,a3,1285 # b505 <offset+0xb2d1>
80000444:	ffffe5b7          	lui	a1,0xffffe
80000448:	fff58593          	addi	a1,a1,-1 # ffffdfff <imm12+0xffffe52f>
8000044c:	02b6a633          	mulhsu	a2,a3,a1
80000450:	04c0a623          	sw	a2,76(ra)
80000454:	0000b137          	lui	sp,0xb
80000458:	50410113          	addi	sp,sp,1284 # b504 <offset+0xb2d0>
8000045c:	00c10463          	beq	sp,a2,80000464 <inst_20>
80000460:	0a50506f          	j	80005d04 <bad_trap>

80000464 <inst_20>:
80000464:	0000b537          	lui	a0,0xb
80000468:	50550513          	addi	a0,a0,1285 # b505 <offset+0xb2d1>
8000046c:	ffffc637          	lui	a2,0xffffc
80000470:	fff60613          	addi	a2,a2,-1 # ffffbfff <imm12+0xffffc52f>
80000474:	02c525b3          	mulhsu	a1,a0,a2
80000478:	04b0a823          	sw	a1,80(ra)
8000047c:	0000b137          	lui	sp,0xb
80000480:	50410113          	addi	sp,sp,1284 # b504 <offset+0xb2d0>
80000484:	00b10463          	beq	sp,a1,8000048c <inst_21>
80000488:	07d0506f          	j	80005d04 <bad_trap>

8000048c <inst_21>:
8000048c:	0000b5b7          	lui	a1,0xb
80000490:	50558593          	addi	a1,a1,1285 # b505 <offset+0xb2d1>
80000494:	ffff84b7          	lui	s1,0xffff8
80000498:	fff48493          	addi	s1,s1,-1 # ffff7fff <imm12+0xffff852f>
8000049c:	0295a533          	mulhsu	a0,a1,s1
800004a0:	04a0aa23          	sw	a0,84(ra)
800004a4:	0000b137          	lui	sp,0xb
800004a8:	50410113          	addi	sp,sp,1284 # b504 <offset+0xb2d0>
800004ac:	00a10463          	beq	sp,a0,800004b4 <inst_22>
800004b0:	0550506f          	j	80005d04 <bad_trap>

800004b4 <inst_22>:
800004b4:	0000b437          	lui	s0,0xb
800004b8:	50540413          	addi	s0,s0,1285 # b505 <offset+0xb2d1>
800004bc:	ffff0537          	lui	a0,0xffff0
800004c0:	fff50513          	addi	a0,a0,-1 # fffeffff <imm12+0xffff052f>
800004c4:	02a424b3          	mulhsu	s1,s0,a0
800004c8:	0490ac23          	sw	s1,88(ra)
800004cc:	0000b137          	lui	sp,0xb
800004d0:	50410113          	addi	sp,sp,1284 # b504 <offset+0xb2d0>
800004d4:	00910463          	beq	sp,s1,800004dc <inst_23>
800004d8:	02d0506f          	j	80005d04 <bad_trap>

800004dc <inst_23>:
800004dc:	0000b4b7          	lui	s1,0xb
800004e0:	50548493          	addi	s1,s1,1285 # b505 <offset+0xb2d1>
800004e4:	fffe03b7          	lui	t2,0xfffe0
800004e8:	fff38393          	addi	t2,t2,-1 # fffdffff <imm12+0xfffe052f>
800004ec:	0274a433          	mulhsu	s0,s1,t2
800004f0:	0480ae23          	sw	s0,92(ra)
800004f4:	0000b137          	lui	sp,0xb
800004f8:	50310113          	addi	sp,sp,1283 # b503 <offset+0xb2cf>
800004fc:	00810463          	beq	sp,s0,80000504 <inst_24>
80000500:	0050506f          	j	80005d04 <bad_trap>

80000504 <inst_24>:
80000504:	0000b337          	lui	t1,0xb
80000508:	50530313          	addi	t1,t1,1285 # b505 <offset+0xb2d1>
8000050c:	fffc0437          	lui	s0,0xfffc0
80000510:	fff40413          	addi	s0,s0,-1 # fffbffff <imm12+0xfffc052f>
80000514:	028323b3          	mulhsu	t2,t1,s0
80000518:	0670a023          	sw	t2,96(ra)
8000051c:	0000b4b7          	lui	s1,0xb
80000520:	50248493          	addi	s1,s1,1282 # b502 <offset+0xb2ce>
80000524:	00748463          	beq	s1,t2,8000052c <inst_24+0x28>
80000528:	7dc0506f          	j	80005d04 <bad_trap>
8000052c:	00000013          	nop
80000530:	00000013          	nop
80000534:	00000013          	nop
80000538:	00000013          	nop
8000053c:	00000013          	nop
80000540:	00007417          	auipc	s0,0x7
80000544:	b2840413          	addi	s0,s0,-1240 # 80007068 <signature_x8_0>
80000548:	00000013          	nop
8000054c:	00000013          	nop
80000550:	00000013          	nop
80000554:	00000013          	nop
80000558:	00000013          	nop
8000055c:	00000013          	nop

80000560 <inst_25>:
80000560:	0000b3b7          	lui	t2,0xb
80000564:	50538393          	addi	t2,t2,1285 # b505 <offset+0xb2d1>
80000568:	fff802b7          	lui	t0,0xfff80
8000056c:	fff28293          	addi	t0,t0,-1 # fff7ffff <imm12+0xfff8052f>
80000570:	0253a333          	mulhsu	t1,t2,t0
80000574:	00642023          	sw	t1,0(s0)
80000578:	0000b4b7          	lui	s1,0xb
8000057c:	4ff48493          	addi	s1,s1,1279 # b4ff <offset+0xb2cb>
80000580:	00648463          	beq	s1,t1,80000588 <inst_26>
80000584:	7800506f          	j	80005d04 <bad_trap>

80000588 <inst_26>:
80000588:	0000b237          	lui	tp,0xb
8000058c:	50520213          	addi	tp,tp,1285 # b505 <offset+0xb2d1>
80000590:	fff00337          	lui	t1,0xfff00
80000594:	fff30313          	addi	t1,t1,-1 # ffefffff <imm12+0xfff0052f>
80000598:	026222b3          	mulhsu	t0,tp,t1
8000059c:	00542223          	sw	t0,4(s0)
800005a0:	0000b4b7          	lui	s1,0xb
800005a4:	4f948493          	addi	s1,s1,1273 # b4f9 <offset+0xb2c5>
800005a8:	00548463          	beq	s1,t0,800005b0 <inst_27>
800005ac:	7580506f          	j	80005d04 <bad_trap>

800005b0 <inst_27>:
800005b0:	0000b2b7          	lui	t0,0xb
800005b4:	50528293          	addi	t0,t0,1285 # b505 <offset+0xb2d1>
800005b8:	ffe001b7          	lui	gp,0xffe00
800005bc:	fff18193          	addi	gp,gp,-1 # ffdfffff <imm12+0xffe0052f>
800005c0:	0232a233          	mulhsu	tp,t0,gp
800005c4:	00442423          	sw	tp,8(s0)
800005c8:	0000b4b7          	lui	s1,0xb
800005cc:	4ee48493          	addi	s1,s1,1262 # b4ee <offset+0xb2ba>
800005d0:	00448463          	beq	s1,tp,800005d8 <inst_28>
800005d4:	7300506f          	j	80005d04 <bad_trap>

800005d8 <inst_28>:
800005d8:	0000b137          	lui	sp,0xb
800005dc:	50510113          	addi	sp,sp,1285 # b505 <offset+0xb2d1>
800005e0:	ffc00237          	lui	tp,0xffc00
800005e4:	fff20213          	addi	tp,tp,-1 # ffbfffff <imm12+0xffc0052f>
800005e8:	024121b3          	mulhsu	gp,sp,tp
800005ec:	00342623          	sw	gp,12(s0)
800005f0:	0000b4b7          	lui	s1,0xb
800005f4:	4d748493          	addi	s1,s1,1239 # b4d7 <offset+0xb2a3>
800005f8:	00348463          	beq	s1,gp,80000600 <inst_29>
800005fc:	7080506f          	j	80005d04 <bad_trap>

80000600 <inst_29>:
80000600:	0000b1b7          	lui	gp,0xb
80000604:	50518193          	addi	gp,gp,1285 # b505 <offset+0xb2d1>
80000608:	ff8000b7          	lui	ra,0xff800
8000060c:	fff08093          	addi	ra,ra,-1 # ff7fffff <imm12+0xff80052f>
80000610:	0211a133          	mulhsu	sp,gp,ra
80000614:	00242823          	sw	sp,16(s0)
80000618:	0000b4b7          	lui	s1,0xb
8000061c:	4aa48493          	addi	s1,s1,1194 # b4aa <offset+0xb276>
80000620:	00248463          	beq	s1,sp,80000628 <inst_30>
80000624:	6e00506f          	j	80005d04 <bad_trap>

80000628 <inst_30>:
80000628:	00000013          	nop
8000062c:	ff000137          	lui	sp,0xff000
80000630:	fff10113          	addi	sp,sp,-1 # feffffff <imm12+0xff00052f>
80000634:	022020b3          	mulhsu	ra,zero,sp
80000638:	00142a23          	sw	ra,20(s0)
8000063c:	00000493          	li	s1,0
80000640:	00148463          	beq	s1,ra,80000648 <inst_31>
80000644:	6c00506f          	j	80005d04 <bad_trap>

80000648 <inst_31>:
80000648:	0000b0b7          	lui	ra,0xb
8000064c:	50508093          	addi	ra,ra,1285 # b505 <offset+0xb2d1>
80000650:	fe000f37          	lui	t5,0xfe000
80000654:	ffff0f13          	addi	t5,t5,-1 # fdffffff <imm12+0xfe00052f>
80000658:	03e0afb3          	mulhsu	t6,ra,t5
8000065c:	01f42c23          	sw	t6,24(s0)
80000660:	0000b4b7          	lui	s1,0xb
80000664:	39a48493          	addi	s1,s1,922 # b39a <offset+0xb166>
80000668:	01f48463          	beq	s1,t6,80000670 <inst_32>
8000066c:	6980506f          	j	80005d04 <bad_trap>

80000670 <inst_32>:
80000670:	0000bf37          	lui	t5,0xb
80000674:	505f0f13          	addi	t5,t5,1285 # b505 <offset+0xb2d1>
80000678:	00000013          	nop
8000067c:	020f2fb3          	mulhsu	t6,t5,zero
80000680:	01f42e23          	sw	t6,28(s0)
80000684:	00000493          	li	s1,0
80000688:	01f48463          	beq	s1,t6,80000690 <inst_33>
8000068c:	6780506f          	j	80005d04 <bad_trap>

80000690 <inst_33>:
80000690:	0000bfb7          	lui	t6,0xb
80000694:	505f8f93          	addi	t6,t6,1285 # b505 <offset+0xb2d1>
80000698:	f8000f37          	lui	t5,0xf8000
8000069c:	ffff0f13          	addi	t5,t5,-1 # f7ffffff <imm12+0xf800052f>
800006a0:	03efa033          	mulhsu	zero,t6,t5
800006a4:	02042023          	sw	zero,32(s0)
800006a8:	00000493          	li	s1,0
800006ac:	00048463          	beqz	s1,800006b4 <inst_34>
800006b0:	6540506f          	j	80005d04 <bad_trap>

800006b4 <inst_34>:
800006b4:	0000bf37          	lui	t5,0xb
800006b8:	505f0f13          	addi	t5,t5,1285 # b505 <offset+0xb2d1>
800006bc:	f0000eb7          	lui	t4,0xf0000
800006c0:	fffe8e93          	addi	t4,t4,-1 # efffffff <imm12+0xf000052f>
800006c4:	03df2fb3          	mulhsu	t6,t5,t4
800006c8:	03f42223          	sw	t6,36(s0)
800006cc:	0000b4b7          	lui	s1,0xb
800006d0:	9b448493          	addi	s1,s1,-1612 # a9b4 <offset+0xa780>
800006d4:	01f48463          	beq	s1,t6,800006dc <inst_35>
800006d8:	62c0506f          	j	80005d04 <bad_trap>

800006dc <inst_35>:
800006dc:	0000bf37          	lui	t5,0xb
800006e0:	505f0f13          	addi	t5,t5,1285 # b505 <offset+0xb2d1>
800006e4:	e0000eb7          	lui	t4,0xe0000
800006e8:	fffe8e93          	addi	t4,t4,-1 # dfffffff <imm12+0xe000052f>
800006ec:	03df2fb3          	mulhsu	t6,t5,t4
800006f0:	03f42423          	sw	t6,40(s0)
800006f4:	0000a4b7          	lui	s1,0xa
800006f8:	e6448493          	addi	s1,s1,-412 # 9e64 <offset+0x9c30>
800006fc:	01f48463          	beq	s1,t6,80000704 <inst_36>
80000700:	6040506f          	j	80005d04 <bad_trap>

80000704 <inst_36>:
80000704:	0000bf37          	lui	t5,0xb
80000708:	505f0f13          	addi	t5,t5,1285 # b505 <offset+0xb2d1>
8000070c:	c0000eb7          	lui	t4,0xc0000
80000710:	fffe8e93          	addi	t4,t4,-1 # bfffffff <imm12+0xc000052f>
80000714:	03df2fb3          	mulhsu	t6,t5,t4
80000718:	03f42623          	sw	t6,44(s0)
8000071c:	000084b7          	lui	s1,0x8
80000720:	7c348493          	addi	s1,s1,1987 # 87c3 <offset+0x858f>
80000724:	01f48463          	beq	s1,t6,8000072c <inst_37>
80000728:	5dc0506f          	j	80005d04 <bad_trap>

8000072c <inst_37>:
8000072c:	0000bf37          	lui	t5,0xb
80000730:	505f0f13          	addi	t5,t5,1285 # b505 <offset+0xb2d1>
80000734:	80000eb7          	lui	t4,0x80000
80000738:	fffe8e93          	addi	t4,t4,-1 # 7fffffff <imm12+0x8000052f>
8000073c:	03df2fb3          	mulhsu	t6,t5,t4
80000740:	03f42823          	sw	t6,48(s0)
80000744:	000064b7          	lui	s1,0x6
80000748:	a8248493          	addi	s1,s1,-1406 # 5a82 <offset+0x584e>
8000074c:	01f48463          	beq	s1,t6,80000754 <inst_38>
80000750:	5b40506f          	j	80005d04 <bad_trap>

80000754 <inst_38>:
80000754:	ffe00f13          	li	t5,-2
80000758:	00010eb7          	lui	t4,0x10
8000075c:	03df2fb3          	mulhsu	t6,t5,t4
80000760:	03f42a23          	sw	t6,52(s0)
80000764:	fff00493          	li	s1,-1
80000768:	01f48463          	beq	s1,t6,80000770 <inst_39>
8000076c:	5980506f          	j	80005d04 <bad_trap>

80000770 <inst_39>:
80000770:	ffd00f13          	li	t5,-3
80000774:	00010eb7          	lui	t4,0x10
80000778:	03df2fb3          	mulhsu	t6,t5,t4
8000077c:	03f42c23          	sw	t6,56(s0)
80000780:	fff00493          	li	s1,-1
80000784:	01f48463          	beq	s1,t6,8000078c <inst_40>
80000788:	57c0506f          	j	80005d04 <bad_trap>

8000078c <inst_40>:
8000078c:	ffb00f13          	li	t5,-5
80000790:	00010eb7          	lui	t4,0x10
80000794:	03df2fb3          	mulhsu	t6,t5,t4
80000798:	03f42e23          	sw	t6,60(s0)
8000079c:	fff00493          	li	s1,-1
800007a0:	01f48463          	beq	s1,t6,800007a8 <inst_41>
800007a4:	5600506f          	j	80005d04 <bad_trap>

800007a8 <inst_41>:
800007a8:	ff700f13          	li	t5,-9
800007ac:	00010eb7          	lui	t4,0x10
800007b0:	03df2fb3          	mulhsu	t6,t5,t4
800007b4:	05f42023          	sw	t6,64(s0)
800007b8:	fff00493          	li	s1,-1
800007bc:	01f48463          	beq	s1,t6,800007c4 <inst_42>
800007c0:	5440506f          	j	80005d04 <bad_trap>

800007c4 <inst_42>:
800007c4:	fef00f13          	li	t5,-17
800007c8:	00010eb7          	lui	t4,0x10
800007cc:	03df2fb3          	mulhsu	t6,t5,t4
800007d0:	05f42223          	sw	t6,68(s0)
800007d4:	fff00493          	li	s1,-1
800007d8:	01f48463          	beq	s1,t6,800007e0 <inst_43>
800007dc:	5280506f          	j	80005d04 <bad_trap>

800007e0 <inst_43>:
800007e0:	fdf00f13          	li	t5,-33
800007e4:	00010eb7          	lui	t4,0x10
800007e8:	03df2fb3          	mulhsu	t6,t5,t4
800007ec:	05f42423          	sw	t6,72(s0)
800007f0:	fff00493          	li	s1,-1
800007f4:	01f48463          	beq	s1,t6,800007fc <inst_44>
800007f8:	50c0506f          	j	80005d04 <bad_trap>

800007fc <inst_44>:
800007fc:	fbf00f13          	li	t5,-65
80000800:	00010eb7          	lui	t4,0x10
80000804:	03df2fb3          	mulhsu	t6,t5,t4
80000808:	05f42623          	sw	t6,76(s0)
8000080c:	fff00493          	li	s1,-1
80000810:	01f48463          	beq	s1,t6,80000818 <inst_45>
80000814:	4f00506f          	j	80005d04 <bad_trap>

80000818 <inst_45>:
80000818:	f7f00f13          	li	t5,-129
8000081c:	00010eb7          	lui	t4,0x10
80000820:	03df2fb3          	mulhsu	t6,t5,t4
80000824:	05f42823          	sw	t6,80(s0)
80000828:	fff00493          	li	s1,-1
8000082c:	01f48463          	beq	s1,t6,80000834 <inst_46>
80000830:	4d40506f          	j	80005d04 <bad_trap>

80000834 <inst_46>:
80000834:	eff00f13          	li	t5,-257
80000838:	00010eb7          	lui	t4,0x10
8000083c:	03df2fb3          	mulhsu	t6,t5,t4
80000840:	05f42a23          	sw	t6,84(s0)
80000844:	fff00493          	li	s1,-1
80000848:	01f48463          	beq	s1,t6,80000850 <inst_47>
8000084c:	4b80506f          	j	80005d04 <bad_trap>

80000850 <inst_47>:
80000850:	dff00f13          	li	t5,-513
80000854:	00010eb7          	lui	t4,0x10
80000858:	03df2fb3          	mulhsu	t6,t5,t4
8000085c:	05f42c23          	sw	t6,88(s0)
80000860:	fff00493          	li	s1,-1
80000864:	01f48463          	beq	s1,t6,8000086c <inst_48>
80000868:	49c0506f          	j	80005d04 <bad_trap>

8000086c <inst_48>:
8000086c:	bff00f13          	li	t5,-1025
80000870:	00010eb7          	lui	t4,0x10
80000874:	03df2fb3          	mulhsu	t6,t5,t4
80000878:	05f42e23          	sw	t6,92(s0)
8000087c:	fff00493          	li	s1,-1
80000880:	01f48463          	beq	s1,t6,80000888 <inst_49>
80000884:	4800506f          	j	80005d04 <bad_trap>

80000888 <inst_49>:
80000888:	ffffff37          	lui	t5,0xfffff
8000088c:	7fff0f13          	addi	t5,t5,2047 # fffff7ff <imm12+0xfffffd2f>
80000890:	00010eb7          	lui	t4,0x10
80000894:	03df2fb3          	mulhsu	t6,t5,t4
80000898:	07f42023          	sw	t6,96(s0)
8000089c:	fff00493          	li	s1,-1
800008a0:	01f48463          	beq	s1,t6,800008a8 <inst_50>
800008a4:	4600506f          	j	80005d04 <bad_trap>

800008a8 <inst_50>:
800008a8:	ffffff37          	lui	t5,0xfffff
800008ac:	ffff0f13          	addi	t5,t5,-1 # ffffefff <imm12+0xfffff52f>
800008b0:	00010eb7          	lui	t4,0x10
800008b4:	03df2fb3          	mulhsu	t6,t5,t4
800008b8:	07f42223          	sw	t6,100(s0)
800008bc:	fff00493          	li	s1,-1
800008c0:	01f48463          	beq	s1,t6,800008c8 <inst_51>
800008c4:	4400506f          	j	80005d04 <bad_trap>

800008c8 <inst_51>:
800008c8:	ffffef37          	lui	t5,0xffffe
800008cc:	ffff0f13          	addi	t5,t5,-1 # ffffdfff <imm12+0xffffe52f>
800008d0:	00010eb7          	lui	t4,0x10
800008d4:	03df2fb3          	mulhsu	t6,t5,t4
800008d8:	07f42423          	sw	t6,104(s0)
800008dc:	fff00493          	li	s1,-1
800008e0:	01f48463          	beq	s1,t6,800008e8 <inst_52>
800008e4:	4200506f          	j	80005d04 <bad_trap>

800008e8 <inst_52>:
800008e8:	ffffcf37          	lui	t5,0xffffc
800008ec:	ffff0f13          	addi	t5,t5,-1 # ffffbfff <imm12+0xffffc52f>
800008f0:	00010eb7          	lui	t4,0x10
800008f4:	03df2fb3          	mulhsu	t6,t5,t4
800008f8:	07f42623          	sw	t6,108(s0)
800008fc:	fff00493          	li	s1,-1
80000900:	01f48463          	beq	s1,t6,80000908 <inst_53>
80000904:	4000506f          	j	80005d04 <bad_trap>

80000908 <inst_53>:
80000908:	ffff8f37          	lui	t5,0xffff8
8000090c:	ffff0f13          	addi	t5,t5,-1 # ffff7fff <imm12+0xffff852f>
80000910:	00010eb7          	lui	t4,0x10
80000914:	03df2fb3          	mulhsu	t6,t5,t4
80000918:	07f42823          	sw	t6,112(s0)
8000091c:	fff00493          	li	s1,-1
80000920:	01f48463          	beq	s1,t6,80000928 <inst_54>
80000924:	3e00506f          	j	80005d04 <bad_trap>

80000928 <inst_54>:
80000928:	ffff0f37          	lui	t5,0xffff0
8000092c:	ffff0f13          	addi	t5,t5,-1 # fffeffff <imm12+0xffff052f>
80000930:	00010eb7          	lui	t4,0x10
80000934:	03df2fb3          	mulhsu	t6,t5,t4
80000938:	07f42a23          	sw	t6,116(s0)
8000093c:	ffe00493          	li	s1,-2
80000940:	01f48463          	beq	s1,t6,80000948 <inst_55>
80000944:	3c00506f          	j	80005d04 <bad_trap>

80000948 <inst_55>:
80000948:	fffe0f37          	lui	t5,0xfffe0
8000094c:	ffff0f13          	addi	t5,t5,-1 # fffdffff <imm12+0xfffe052f>
80000950:	00010eb7          	lui	t4,0x10
80000954:	03df2fb3          	mulhsu	t6,t5,t4
80000958:	07f42c23          	sw	t6,120(s0)
8000095c:	ffd00493          	li	s1,-3
80000960:	01f48463          	beq	s1,t6,80000968 <inst_56>
80000964:	3a00506f          	j	80005d04 <bad_trap>

80000968 <inst_56>:
80000968:	fffc0f37          	lui	t5,0xfffc0
8000096c:	ffff0f13          	addi	t5,t5,-1 # fffbffff <imm12+0xfffc052f>
80000970:	00010eb7          	lui	t4,0x10
80000974:	03df2fb3          	mulhsu	t6,t5,t4
80000978:	07f42e23          	sw	t6,124(s0)
8000097c:	ffb00493          	li	s1,-5
80000980:	01f48463          	beq	s1,t6,80000988 <inst_57>
80000984:	3800506f          	j	80005d04 <bad_trap>

80000988 <inst_57>:
80000988:	fff80f37          	lui	t5,0xfff80
8000098c:	ffff0f13          	addi	t5,t5,-1 # fff7ffff <imm12+0xfff8052f>
80000990:	00010eb7          	lui	t4,0x10
80000994:	03df2fb3          	mulhsu	t6,t5,t4
80000998:	09f42023          	sw	t6,128(s0)
8000099c:	ff700493          	li	s1,-9
800009a0:	01f48463          	beq	s1,t6,800009a8 <inst_58>
800009a4:	3600506f          	j	80005d04 <bad_trap>

800009a8 <inst_58>:
800009a8:	fff00f37          	lui	t5,0xfff00
800009ac:	ffff0f13          	addi	t5,t5,-1 # ffefffff <imm12+0xfff0052f>
800009b0:	00010eb7          	lui	t4,0x10
800009b4:	03df2fb3          	mulhsu	t6,t5,t4
800009b8:	09f42223          	sw	t6,132(s0)
800009bc:	fef00493          	li	s1,-17
800009c0:	01f48463          	beq	s1,t6,800009c8 <inst_59>
800009c4:	3400506f          	j	80005d04 <bad_trap>

800009c8 <inst_59>:
800009c8:	ffe00f37          	lui	t5,0xffe00
800009cc:	ffff0f13          	addi	t5,t5,-1 # ffdfffff <imm12+0xffe0052f>
800009d0:	00010eb7          	lui	t4,0x10
800009d4:	03df2fb3          	mulhsu	t6,t5,t4
800009d8:	09f42423          	sw	t6,136(s0)
800009dc:	fdf00493          	li	s1,-33
800009e0:	01f48463          	beq	s1,t6,800009e8 <inst_60>
800009e4:	3200506f          	j	80005d04 <bad_trap>

800009e8 <inst_60>:
800009e8:	ffc00f37          	lui	t5,0xffc00
800009ec:	ffff0f13          	addi	t5,t5,-1 # ffbfffff <imm12+0xffc0052f>
800009f0:	00010eb7          	lui	t4,0x10
800009f4:	03df2fb3          	mulhsu	t6,t5,t4
800009f8:	09f42623          	sw	t6,140(s0)
800009fc:	fbf00493          	li	s1,-65
80000a00:	01f48463          	beq	s1,t6,80000a08 <inst_61>
80000a04:	3000506f          	j	80005d04 <bad_trap>

80000a08 <inst_61>:
80000a08:	ff800f37          	lui	t5,0xff800
80000a0c:	ffff0f13          	addi	t5,t5,-1 # ff7fffff <imm12+0xff80052f>
80000a10:	00010eb7          	lui	t4,0x10
80000a14:	03df2fb3          	mulhsu	t6,t5,t4
80000a18:	09f42823          	sw	t6,144(s0)
80000a1c:	f7f00493          	li	s1,-129
80000a20:	01f48463          	beq	s1,t6,80000a28 <inst_62>
80000a24:	2e00506f          	j	80005d04 <bad_trap>

80000a28 <inst_62>:
80000a28:	ff000f37          	lui	t5,0xff000
80000a2c:	ffff0f13          	addi	t5,t5,-1 # feffffff <imm12+0xff00052f>
80000a30:	00010eb7          	lui	t4,0x10
80000a34:	03df2fb3          	mulhsu	t6,t5,t4
80000a38:	09f42a23          	sw	t6,148(s0)
80000a3c:	eff00493          	li	s1,-257
80000a40:	01f48463          	beq	s1,t6,80000a48 <inst_63>
80000a44:	2c00506f          	j	80005d04 <bad_trap>

80000a48 <inst_63>:
80000a48:	fe000f37          	lui	t5,0xfe000
80000a4c:	ffff0f13          	addi	t5,t5,-1 # fdffffff <imm12+0xfe00052f>
80000a50:	00010eb7          	lui	t4,0x10
80000a54:	03df2fb3          	mulhsu	t6,t5,t4
80000a58:	09f42c23          	sw	t6,152(s0)
80000a5c:	dff00493          	li	s1,-513
80000a60:	01f48463          	beq	s1,t6,80000a68 <inst_64>
80000a64:	2a00506f          	j	80005d04 <bad_trap>

80000a68 <inst_64>:
80000a68:	fc000f37          	lui	t5,0xfc000
80000a6c:	ffff0f13          	addi	t5,t5,-1 # fbffffff <imm12+0xfc00052f>
80000a70:	00010eb7          	lui	t4,0x10
80000a74:	03df2fb3          	mulhsu	t6,t5,t4
80000a78:	09f42e23          	sw	t6,156(s0)
80000a7c:	bff00493          	li	s1,-1025
80000a80:	01f48463          	beq	s1,t6,80000a88 <inst_65>
80000a84:	2800506f          	j	80005d04 <bad_trap>

80000a88 <inst_65>:
80000a88:	f8000f37          	lui	t5,0xf8000
80000a8c:	ffff0f13          	addi	t5,t5,-1 # f7ffffff <imm12+0xf800052f>
80000a90:	00010eb7          	lui	t4,0x10
80000a94:	03df2fb3          	mulhsu	t6,t5,t4
80000a98:	0bf42023          	sw	t6,160(s0)
80000a9c:	fffff4b7          	lui	s1,0xfffff
80000aa0:	7ff48493          	addi	s1,s1,2047 # fffff7ff <imm12+0xfffffd2f>
80000aa4:	01f48463          	beq	s1,t6,80000aac <inst_66>
80000aa8:	25c0506f          	j	80005d04 <bad_trap>

80000aac <inst_66>:
80000aac:	f0000f37          	lui	t5,0xf0000
80000ab0:	ffff0f13          	addi	t5,t5,-1 # efffffff <imm12+0xf000052f>
80000ab4:	00010eb7          	lui	t4,0x10
80000ab8:	03df2fb3          	mulhsu	t6,t5,t4
80000abc:	0bf42223          	sw	t6,164(s0)
80000ac0:	fffff4b7          	lui	s1,0xfffff
80000ac4:	fff48493          	addi	s1,s1,-1 # ffffefff <imm12+0xfffff52f>
80000ac8:	01f48463          	beq	s1,t6,80000ad0 <inst_67>
80000acc:	2380506f          	j	80005d04 <bad_trap>

80000ad0 <inst_67>:
80000ad0:	e0000f37          	lui	t5,0xe0000
80000ad4:	ffff0f13          	addi	t5,t5,-1 # dfffffff <imm12+0xe000052f>
80000ad8:	00010eb7          	lui	t4,0x10
80000adc:	03df2fb3          	mulhsu	t6,t5,t4
80000ae0:	0bf42423          	sw	t6,168(s0)
80000ae4:	ffffe4b7          	lui	s1,0xffffe
80000ae8:	fff48493          	addi	s1,s1,-1 # ffffdfff <imm12+0xffffe52f>
80000aec:	01f48463          	beq	s1,t6,80000af4 <inst_68>
80000af0:	2140506f          	j	80005d04 <bad_trap>

80000af4 <inst_68>:
80000af4:	c0000f37          	lui	t5,0xc0000
80000af8:	ffff0f13          	addi	t5,t5,-1 # bfffffff <imm12+0xc000052f>
80000afc:	00010eb7          	lui	t4,0x10
80000b00:	03df2fb3          	mulhsu	t6,t5,t4
80000b04:	0bf42623          	sw	t6,172(s0)
80000b08:	ffffc4b7          	lui	s1,0xffffc
80000b0c:	fff48493          	addi	s1,s1,-1 # ffffbfff <imm12+0xffffc52f>
80000b10:	01f48463          	beq	s1,t6,80000b18 <inst_69>
80000b14:	1f00506f          	j	80005d04 <bad_trap>

80000b18 <inst_69>:
80000b18:	0000bf37          	lui	t5,0xb
80000b1c:	505f0f13          	addi	t5,t5,1285 # b505 <offset+0xb2d1>
80000b20:	00100e93          	li	t4,1
80000b24:	03df2fb3          	mulhsu	t6,t5,t4
80000b28:	0bf42823          	sw	t6,176(s0)
80000b2c:	00000493          	li	s1,0
80000b30:	01f48463          	beq	s1,t6,80000b38 <inst_70>
80000b34:	1d00506f          	j	80005d04 <bad_trap>

80000b38 <inst_70>:
80000b38:	0000bf37          	lui	t5,0xb
80000b3c:	505f0f13          	addi	t5,t5,1285 # b505 <offset+0xb2d1>
80000b40:	00200e93          	li	t4,2
80000b44:	03df2fb3          	mulhsu	t6,t5,t4
80000b48:	0bf42a23          	sw	t6,180(s0)
80000b4c:	00000493          	li	s1,0
80000b50:	01f48463          	beq	s1,t6,80000b58 <inst_71>
80000b54:	1b00506f          	j	80005d04 <bad_trap>

80000b58 <inst_71>:
80000b58:	0000bf37          	lui	t5,0xb
80000b5c:	505f0f13          	addi	t5,t5,1285 # b505 <offset+0xb2d1>
80000b60:	00400e93          	li	t4,4
80000b64:	03df2fb3          	mulhsu	t6,t5,t4
80000b68:	0bf42c23          	sw	t6,184(s0)
80000b6c:	00000493          	li	s1,0
80000b70:	01f48463          	beq	s1,t6,80000b78 <inst_72>
80000b74:	1900506f          	j	80005d04 <bad_trap>

80000b78 <inst_72>:
80000b78:	0000bf37          	lui	t5,0xb
80000b7c:	505f0f13          	addi	t5,t5,1285 # b505 <offset+0xb2d1>
80000b80:	00800e93          	li	t4,8
80000b84:	03df2fb3          	mulhsu	t6,t5,t4
80000b88:	0bf42e23          	sw	t6,188(s0)
80000b8c:	00000493          	li	s1,0
80000b90:	01f48463          	beq	s1,t6,80000b98 <inst_73>
80000b94:	1700506f          	j	80005d04 <bad_trap>

80000b98 <inst_73>:
80000b98:	0000bf37          	lui	t5,0xb
80000b9c:	505f0f13          	addi	t5,t5,1285 # b505 <offset+0xb2d1>
80000ba0:	01000e93          	li	t4,16
80000ba4:	03df2fb3          	mulhsu	t6,t5,t4
80000ba8:	0df42023          	sw	t6,192(s0)
80000bac:	00000493          	li	s1,0
80000bb0:	01f48463          	beq	s1,t6,80000bb8 <inst_74>
80000bb4:	1500506f          	j	80005d04 <bad_trap>

80000bb8 <inst_74>:
80000bb8:	0000bf37          	lui	t5,0xb
80000bbc:	505f0f13          	addi	t5,t5,1285 # b505 <offset+0xb2d1>
80000bc0:	02000e93          	li	t4,32
80000bc4:	03df2fb3          	mulhsu	t6,t5,t4
80000bc8:	0df42223          	sw	t6,196(s0)
80000bcc:	00000493          	li	s1,0
80000bd0:	01f48463          	beq	s1,t6,80000bd8 <inst_75>
80000bd4:	1300506f          	j	80005d04 <bad_trap>

80000bd8 <inst_75>:
80000bd8:	0000bf37          	lui	t5,0xb
80000bdc:	505f0f13          	addi	t5,t5,1285 # b505 <offset+0xb2d1>
80000be0:	04000e93          	li	t4,64
80000be4:	03df2fb3          	mulhsu	t6,t5,t4
80000be8:	0df42423          	sw	t6,200(s0)
80000bec:	00000493          	li	s1,0
80000bf0:	01f48463          	beq	s1,t6,80000bf8 <inst_76>
80000bf4:	1100506f          	j	80005d04 <bad_trap>

80000bf8 <inst_76>:
80000bf8:	0000bf37          	lui	t5,0xb
80000bfc:	505f0f13          	addi	t5,t5,1285 # b505 <offset+0xb2d1>
80000c00:	08000e93          	li	t4,128
80000c04:	03df2fb3          	mulhsu	t6,t5,t4
80000c08:	0df42623          	sw	t6,204(s0)
80000c0c:	00000493          	li	s1,0
80000c10:	01f48463          	beq	s1,t6,80000c18 <inst_77>
80000c14:	0f00506f          	j	80005d04 <bad_trap>

80000c18 <inst_77>:
80000c18:	0000bf37          	lui	t5,0xb
80000c1c:	505f0f13          	addi	t5,t5,1285 # b505 <offset+0xb2d1>
80000c20:	10000e93          	li	t4,256
80000c24:	03df2fb3          	mulhsu	t6,t5,t4
80000c28:	0df42823          	sw	t6,208(s0)
80000c2c:	00000493          	li	s1,0
80000c30:	01f48463          	beq	s1,t6,80000c38 <inst_78>
80000c34:	0d00506f          	j	80005d04 <bad_trap>

80000c38 <inst_78>:
80000c38:	0000bf37          	lui	t5,0xb
80000c3c:	505f0f13          	addi	t5,t5,1285 # b505 <offset+0xb2d1>
80000c40:	20000e93          	li	t4,512
80000c44:	03df2fb3          	mulhsu	t6,t5,t4
80000c48:	0df42a23          	sw	t6,212(s0)
80000c4c:	00000493          	li	s1,0
80000c50:	01f48463          	beq	s1,t6,80000c58 <inst_79>
80000c54:	0b00506f          	j	80005d04 <bad_trap>

80000c58 <inst_79>:
80000c58:	0000bf37          	lui	t5,0xb
80000c5c:	505f0f13          	addi	t5,t5,1285 # b505 <offset+0xb2d1>
80000c60:	40000e93          	li	t4,1024
80000c64:	03df2fb3          	mulhsu	t6,t5,t4
80000c68:	0df42c23          	sw	t6,216(s0)
80000c6c:	00000493          	li	s1,0
80000c70:	01f48463          	beq	s1,t6,80000c78 <inst_80>
80000c74:	0900506f          	j	80005d04 <bad_trap>

80000c78 <inst_80>:
80000c78:	0000bf37          	lui	t5,0xb
80000c7c:	505f0f13          	addi	t5,t5,1285 # b505 <offset+0xb2d1>
80000c80:	00001eb7          	lui	t4,0x1
80000c84:	800e8e93          	addi	t4,t4,-2048 # 800 <offset+0x5cc>
80000c88:	03df2fb3          	mulhsu	t6,t5,t4
80000c8c:	0df42e23          	sw	t6,220(s0)
80000c90:	00000493          	li	s1,0
80000c94:	01f48463          	beq	s1,t6,80000c9c <inst_81>
80000c98:	06c0506f          	j	80005d04 <bad_trap>

80000c9c <inst_81>:
80000c9c:	0000bf37          	lui	t5,0xb
80000ca0:	505f0f13          	addi	t5,t5,1285 # b505 <offset+0xb2d1>
80000ca4:	00001eb7          	lui	t4,0x1
80000ca8:	03df2fb3          	mulhsu	t6,t5,t4
80000cac:	0ff42023          	sw	t6,224(s0)
80000cb0:	00000493          	li	s1,0
80000cb4:	01f48463          	beq	s1,t6,80000cbc <inst_82>
80000cb8:	04c0506f          	j	80005d04 <bad_trap>

80000cbc <inst_82>:
80000cbc:	0000bf37          	lui	t5,0xb
80000cc0:	505f0f13          	addi	t5,t5,1285 # b505 <offset+0xb2d1>
80000cc4:	00002eb7          	lui	t4,0x2
80000cc8:	03df2fb3          	mulhsu	t6,t5,t4
80000ccc:	0ff42223          	sw	t6,228(s0)
80000cd0:	00000493          	li	s1,0
80000cd4:	01f48463          	beq	s1,t6,80000cdc <inst_83>
80000cd8:	02c0506f          	j	80005d04 <bad_trap>

80000cdc <inst_83>:
80000cdc:	0000bf37          	lui	t5,0xb
80000ce0:	505f0f13          	addi	t5,t5,1285 # b505 <offset+0xb2d1>
80000ce4:	00004eb7          	lui	t4,0x4
80000ce8:	03df2fb3          	mulhsu	t6,t5,t4
80000cec:	0ff42423          	sw	t6,232(s0)
80000cf0:	00000493          	li	s1,0
80000cf4:	01f48463          	beq	s1,t6,80000cfc <inst_84>
80000cf8:	00c0506f          	j	80005d04 <bad_trap>

80000cfc <inst_84>:
80000cfc:	0000bf37          	lui	t5,0xb
80000d00:	505f0f13          	addi	t5,t5,1285 # b505 <offset+0xb2d1>
80000d04:	00008eb7          	lui	t4,0x8
80000d08:	03df2fb3          	mulhsu	t6,t5,t4
80000d0c:	0ff42623          	sw	t6,236(s0)
80000d10:	00000493          	li	s1,0
80000d14:	01f48463          	beq	s1,t6,80000d1c <inst_85>
80000d18:	7ed0406f          	j	80005d04 <bad_trap>

80000d1c <inst_85>:
80000d1c:	0000bf37          	lui	t5,0xb
80000d20:	505f0f13          	addi	t5,t5,1285 # b505 <offset+0xb2d1>
80000d24:	00020eb7          	lui	t4,0x20
80000d28:	03df2fb3          	mulhsu	t6,t5,t4
80000d2c:	0ff42823          	sw	t6,240(s0)
80000d30:	00100493          	li	s1,1
80000d34:	01f48463          	beq	s1,t6,80000d3c <inst_86>
80000d38:	7cd0406f          	j	80005d04 <bad_trap>

80000d3c <inst_86>:
80000d3c:	0000bf37          	lui	t5,0xb
80000d40:	505f0f13          	addi	t5,t5,1285 # b505 <offset+0xb2d1>
80000d44:	00040eb7          	lui	t4,0x40
80000d48:	03df2fb3          	mulhsu	t6,t5,t4
80000d4c:	0ff42a23          	sw	t6,244(s0)
80000d50:	00200493          	li	s1,2
80000d54:	01f48463          	beq	s1,t6,80000d5c <inst_87>
80000d58:	7ad0406f          	j	80005d04 <bad_trap>

80000d5c <inst_87>:
80000d5c:	0000bf37          	lui	t5,0xb
80000d60:	505f0f13          	addi	t5,t5,1285 # b505 <offset+0xb2d1>
80000d64:	00080eb7          	lui	t4,0x80
80000d68:	03df2fb3          	mulhsu	t6,t5,t4
80000d6c:	0ff42c23          	sw	t6,248(s0)
80000d70:	00500493          	li	s1,5
80000d74:	01f48463          	beq	s1,t6,80000d7c <inst_88>
80000d78:	78d0406f          	j	80005d04 <bad_trap>

80000d7c <inst_88>:
80000d7c:	0000bf37          	lui	t5,0xb
80000d80:	505f0f13          	addi	t5,t5,1285 # b505 <offset+0xb2d1>
80000d84:	00100eb7          	lui	t4,0x100
80000d88:	03df2fb3          	mulhsu	t6,t5,t4
80000d8c:	0ff42e23          	sw	t6,252(s0)
80000d90:	00b00493          	li	s1,11
80000d94:	01f48463          	beq	s1,t6,80000d9c <inst_89>
80000d98:	76d0406f          	j	80005d04 <bad_trap>

80000d9c <inst_89>:
80000d9c:	0000bf37          	lui	t5,0xb
80000da0:	505f0f13          	addi	t5,t5,1285 # b505 <offset+0xb2d1>
80000da4:	00200eb7          	lui	t4,0x200
80000da8:	03df2fb3          	mulhsu	t6,t5,t4
80000dac:	11f42023          	sw	t6,256(s0)
80000db0:	01600493          	li	s1,22
80000db4:	01f48463          	beq	s1,t6,80000dbc <inst_90>
80000db8:	74d0406f          	j	80005d04 <bad_trap>

80000dbc <inst_90>:
80000dbc:	0000bf37          	lui	t5,0xb
80000dc0:	505f0f13          	addi	t5,t5,1285 # b505 <offset+0xb2d1>
80000dc4:	00400eb7          	lui	t4,0x400
80000dc8:	03df2fb3          	mulhsu	t6,t5,t4
80000dcc:	11f42223          	sw	t6,260(s0)
80000dd0:	02d00493          	li	s1,45
80000dd4:	01f48463          	beq	s1,t6,80000ddc <inst_91>
80000dd8:	72d0406f          	j	80005d04 <bad_trap>

80000ddc <inst_91>:
80000ddc:	0000bf37          	lui	t5,0xb
80000de0:	505f0f13          	addi	t5,t5,1285 # b505 <offset+0xb2d1>
80000de4:	00800eb7          	lui	t4,0x800
80000de8:	03df2fb3          	mulhsu	t6,t5,t4
80000dec:	11f42423          	sw	t6,264(s0)
80000df0:	05a00493          	li	s1,90
80000df4:	01f48463          	beq	s1,t6,80000dfc <inst_92>
80000df8:	70d0406f          	j	80005d04 <bad_trap>

80000dfc <inst_92>:
80000dfc:	0000bf37          	lui	t5,0xb
80000e00:	505f0f13          	addi	t5,t5,1285 # b505 <offset+0xb2d1>
80000e04:	01000eb7          	lui	t4,0x1000
80000e08:	03df2fb3          	mulhsu	t6,t5,t4
80000e0c:	11f42623          	sw	t6,268(s0)
80000e10:	0b500493          	li	s1,181
80000e14:	01f48463          	beq	s1,t6,80000e1c <inst_93>
80000e18:	6ed0406f          	j	80005d04 <bad_trap>

80000e1c <inst_93>:
80000e1c:	0000bf37          	lui	t5,0xb
80000e20:	505f0f13          	addi	t5,t5,1285 # b505 <offset+0xb2d1>
80000e24:	02000eb7          	lui	t4,0x2000
80000e28:	03df2fb3          	mulhsu	t6,t5,t4
80000e2c:	11f42823          	sw	t6,272(s0)
80000e30:	16a00493          	li	s1,362
80000e34:	01f48463          	beq	s1,t6,80000e3c <inst_94>
80000e38:	6cd0406f          	j	80005d04 <bad_trap>

80000e3c <inst_94>:
80000e3c:	0000bf37          	lui	t5,0xb
80000e40:	505f0f13          	addi	t5,t5,1285 # b505 <offset+0xb2d1>
80000e44:	04000eb7          	lui	t4,0x4000
80000e48:	03df2fb3          	mulhsu	t6,t5,t4
80000e4c:	11f42a23          	sw	t6,276(s0)
80000e50:	2d400493          	li	s1,724
80000e54:	01f48463          	beq	s1,t6,80000e5c <inst_95>
80000e58:	6ad0406f          	j	80005d04 <bad_trap>

80000e5c <inst_95>:
80000e5c:	0000bf37          	lui	t5,0xb
80000e60:	505f0f13          	addi	t5,t5,1285 # b505 <offset+0xb2d1>
80000e64:	08000eb7          	lui	t4,0x8000
80000e68:	03df2fb3          	mulhsu	t6,t5,t4
80000e6c:	11f42c23          	sw	t6,280(s0)
80000e70:	5a800493          	li	s1,1448
80000e74:	01f48463          	beq	s1,t6,80000e7c <inst_96>
80000e78:	68d0406f          	j	80005d04 <bad_trap>

80000e7c <inst_96>:
80000e7c:	0000bf37          	lui	t5,0xb
80000e80:	505f0f13          	addi	t5,t5,1285 # b505 <offset+0xb2d1>
80000e84:	10000eb7          	lui	t4,0x10000
80000e88:	03df2fb3          	mulhsu	t6,t5,t4
80000e8c:	11f42e23          	sw	t6,284(s0)
80000e90:	000014b7          	lui	s1,0x1
80000e94:	b5048493          	addi	s1,s1,-1200 # b50 <offset+0x91c>
80000e98:	01f48463          	beq	s1,t6,80000ea0 <inst_97>
80000e9c:	6690406f          	j	80005d04 <bad_trap>

80000ea0 <inst_97>:
80000ea0:	0000bf37          	lui	t5,0xb
80000ea4:	505f0f13          	addi	t5,t5,1285 # b505 <offset+0xb2d1>
80000ea8:	20000eb7          	lui	t4,0x20000
80000eac:	03df2fb3          	mulhsu	t6,t5,t4
80000eb0:	13f42023          	sw	t6,288(s0)
80000eb4:	000014b7          	lui	s1,0x1
80000eb8:	6a048493          	addi	s1,s1,1696 # 16a0 <offset+0x146c>
80000ebc:	01f48463          	beq	s1,t6,80000ec4 <inst_98>
80000ec0:	6450406f          	j	80005d04 <bad_trap>

80000ec4 <inst_98>:
80000ec4:	0000bf37          	lui	t5,0xb
80000ec8:	505f0f13          	addi	t5,t5,1285 # b505 <offset+0xb2d1>
80000ecc:	40000eb7          	lui	t4,0x40000
80000ed0:	03df2fb3          	mulhsu	t6,t5,t4
80000ed4:	13f42223          	sw	t6,292(s0)
80000ed8:	000034b7          	lui	s1,0x3
80000edc:	d4148493          	addi	s1,s1,-703 # 2d41 <offset+0x2b0d>
80000ee0:	01f48463          	beq	s1,t6,80000ee8 <inst_99>
80000ee4:	6210406f          	j	80005d04 <bad_trap>

80000ee8 <inst_99>:
80000ee8:	0000bf37          	lui	t5,0xb
80000eec:	505f0f13          	addi	t5,t5,1285 # b505 <offset+0xb2d1>
80000ef0:	80000eb7          	lui	t4,0x80000
80000ef4:	03df2fb3          	mulhsu	t6,t5,t4
80000ef8:	13f42423          	sw	t6,296(s0)
80000efc:	000064b7          	lui	s1,0x6
80000f00:	a8248493          	addi	s1,s1,-1406 # 5a82 <offset+0x584e>
80000f04:	01f48463          	beq	s1,t6,80000f0c <inst_100>
80000f08:	5fd0406f          	j	80005d04 <bad_trap>

80000f0c <inst_100>:
80000f0c:	00100f13          	li	t5,1
80000f10:	00010eb7          	lui	t4,0x10
80000f14:	03df2fb3          	mulhsu	t6,t5,t4
80000f18:	13f42623          	sw	t6,300(s0)
80000f1c:	00000493          	li	s1,0
80000f20:	01f48463          	beq	s1,t6,80000f28 <inst_101>
80000f24:	5e10406f          	j	80005d04 <bad_trap>

80000f28 <inst_101>:
80000f28:	00200f13          	li	t5,2
80000f2c:	00010eb7          	lui	t4,0x10
80000f30:	03df2fb3          	mulhsu	t6,t5,t4
80000f34:	13f42823          	sw	t6,304(s0)
80000f38:	00000493          	li	s1,0
80000f3c:	01f48463          	beq	s1,t6,80000f44 <inst_102>
80000f40:	5c50406f          	j	80005d04 <bad_trap>

80000f44 <inst_102>:
80000f44:	00400f13          	li	t5,4
80000f48:	00010eb7          	lui	t4,0x10
80000f4c:	03df2fb3          	mulhsu	t6,t5,t4
80000f50:	13f42a23          	sw	t6,308(s0)
80000f54:	00000493          	li	s1,0
80000f58:	01f48463          	beq	s1,t6,80000f60 <inst_103>
80000f5c:	5a90406f          	j	80005d04 <bad_trap>

80000f60 <inst_103>:
80000f60:	00800f13          	li	t5,8
80000f64:	00010eb7          	lui	t4,0x10
80000f68:	03df2fb3          	mulhsu	t6,t5,t4
80000f6c:	13f42c23          	sw	t6,312(s0)
80000f70:	00000493          	li	s1,0
80000f74:	01f48463          	beq	s1,t6,80000f7c <inst_104>
80000f78:	58d0406f          	j	80005d04 <bad_trap>

80000f7c <inst_104>:
80000f7c:	01000f13          	li	t5,16
80000f80:	00010eb7          	lui	t4,0x10
80000f84:	03df2fb3          	mulhsu	t6,t5,t4
80000f88:	13f42e23          	sw	t6,316(s0)
80000f8c:	00000493          	li	s1,0
80000f90:	01f48463          	beq	s1,t6,80000f98 <inst_105>
80000f94:	5710406f          	j	80005d04 <bad_trap>

80000f98 <inst_105>:
80000f98:	02000f13          	li	t5,32
80000f9c:	00010eb7          	lui	t4,0x10
80000fa0:	03df2fb3          	mulhsu	t6,t5,t4
80000fa4:	15f42023          	sw	t6,320(s0)
80000fa8:	00000493          	li	s1,0
80000fac:	01f48463          	beq	s1,t6,80000fb4 <inst_106>
80000fb0:	5550406f          	j	80005d04 <bad_trap>

80000fb4 <inst_106>:
80000fb4:	04000f13          	li	t5,64
80000fb8:	00010eb7          	lui	t4,0x10
80000fbc:	03df2fb3          	mulhsu	t6,t5,t4
80000fc0:	15f42223          	sw	t6,324(s0)
80000fc4:	00000493          	li	s1,0
80000fc8:	01f48463          	beq	s1,t6,80000fd0 <inst_107>
80000fcc:	5390406f          	j	80005d04 <bad_trap>

80000fd0 <inst_107>:
80000fd0:	08000f13          	li	t5,128
80000fd4:	00010eb7          	lui	t4,0x10
80000fd8:	03df2fb3          	mulhsu	t6,t5,t4
80000fdc:	15f42423          	sw	t6,328(s0)
80000fe0:	00000493          	li	s1,0
80000fe4:	01f48463          	beq	s1,t6,80000fec <inst_108>
80000fe8:	51d0406f          	j	80005d04 <bad_trap>

80000fec <inst_108>:
80000fec:	10000f13          	li	t5,256
80000ff0:	00010eb7          	lui	t4,0x10
80000ff4:	03df2fb3          	mulhsu	t6,t5,t4
80000ff8:	15f42623          	sw	t6,332(s0)
80000ffc:	00000493          	li	s1,0
80001000:	01f48463          	beq	s1,t6,80001008 <inst_109>
80001004:	5010406f          	j	80005d04 <bad_trap>

80001008 <inst_109>:
80001008:	20000f13          	li	t5,512
8000100c:	00010eb7          	lui	t4,0x10
80001010:	03df2fb3          	mulhsu	t6,t5,t4
80001014:	15f42823          	sw	t6,336(s0)
80001018:	00000493          	li	s1,0
8000101c:	01f48463          	beq	s1,t6,80001024 <inst_110>
80001020:	4e50406f          	j	80005d04 <bad_trap>

80001024 <inst_110>:
80001024:	40000f13          	li	t5,1024
80001028:	00010eb7          	lui	t4,0x10
8000102c:	03df2fb3          	mulhsu	t6,t5,t4
80001030:	15f42a23          	sw	t6,340(s0)
80001034:	00000493          	li	s1,0
80001038:	01f48463          	beq	s1,t6,80001040 <inst_111>
8000103c:	4c90406f          	j	80005d04 <bad_trap>

80001040 <inst_111>:
80001040:	00001f37          	lui	t5,0x1
80001044:	800f0f13          	addi	t5,t5,-2048 # 800 <offset+0x5cc>
80001048:	00010eb7          	lui	t4,0x10
8000104c:	03df2fb3          	mulhsu	t6,t5,t4
80001050:	15f42c23          	sw	t6,344(s0)
80001054:	00000493          	li	s1,0
80001058:	01f48463          	beq	s1,t6,80001060 <inst_112>
8000105c:	4a90406f          	j	80005d04 <bad_trap>

80001060 <inst_112>:
80001060:	00001f37          	lui	t5,0x1
80001064:	00010eb7          	lui	t4,0x10
80001068:	03df2fb3          	mulhsu	t6,t5,t4
8000106c:	15f42e23          	sw	t6,348(s0)
80001070:	00000493          	li	s1,0
80001074:	01f48463          	beq	s1,t6,8000107c <inst_113>
80001078:	48d0406f          	j	80005d04 <bad_trap>

8000107c <inst_113>:
8000107c:	00002f37          	lui	t5,0x2
80001080:	00010eb7          	lui	t4,0x10
80001084:	03df2fb3          	mulhsu	t6,t5,t4
80001088:	17f42023          	sw	t6,352(s0)
8000108c:	00000493          	li	s1,0
80001090:	01f48463          	beq	s1,t6,80001098 <inst_114>
80001094:	4710406f          	j	80005d04 <bad_trap>

80001098 <inst_114>:
80001098:	00004f37          	lui	t5,0x4
8000109c:	00010eb7          	lui	t4,0x10
800010a0:	03df2fb3          	mulhsu	t6,t5,t4
800010a4:	17f42223          	sw	t6,356(s0)
800010a8:	00000493          	li	s1,0
800010ac:	01f48463          	beq	s1,t6,800010b4 <inst_115>
800010b0:	4550406f          	j	80005d04 <bad_trap>

800010b4 <inst_115>:
800010b4:	00008f37          	lui	t5,0x8
800010b8:	00010eb7          	lui	t4,0x10
800010bc:	03df2fb3          	mulhsu	t6,t5,t4
800010c0:	17f42423          	sw	t6,360(s0)
800010c4:	00000493          	li	s1,0
800010c8:	01f48463          	beq	s1,t6,800010d0 <inst_116>
800010cc:	4390406f          	j	80005d04 <bad_trap>

800010d0 <inst_116>:
800010d0:	00010f37          	lui	t5,0x10
800010d4:	00010eb7          	lui	t4,0x10
800010d8:	03df2fb3          	mulhsu	t6,t5,t4
800010dc:	17f42623          	sw	t6,364(s0)
800010e0:	00100493          	li	s1,1
800010e4:	01f48463          	beq	s1,t6,800010ec <inst_117>
800010e8:	41d0406f          	j	80005d04 <bad_trap>

800010ec <inst_117>:
800010ec:	00020f37          	lui	t5,0x20
800010f0:	00010eb7          	lui	t4,0x10
800010f4:	03df2fb3          	mulhsu	t6,t5,t4
800010f8:	17f42823          	sw	t6,368(s0)
800010fc:	00200493          	li	s1,2
80001100:	01f48463          	beq	s1,t6,80001108 <inst_118>
80001104:	4010406f          	j	80005d04 <bad_trap>

80001108 <inst_118>:
80001108:	00040f37          	lui	t5,0x40
8000110c:	00010eb7          	lui	t4,0x10
80001110:	03df2fb3          	mulhsu	t6,t5,t4
80001114:	17f42a23          	sw	t6,372(s0)
80001118:	00400493          	li	s1,4
8000111c:	01f48463          	beq	s1,t6,80001124 <inst_119>
80001120:	3e50406f          	j	80005d04 <bad_trap>

80001124 <inst_119>:
80001124:	00080f37          	lui	t5,0x80
80001128:	00010eb7          	lui	t4,0x10
8000112c:	03df2fb3          	mulhsu	t6,t5,t4
80001130:	17f42c23          	sw	t6,376(s0)
80001134:	00800493          	li	s1,8
80001138:	01f48463          	beq	s1,t6,80001140 <inst_120>
8000113c:	3c90406f          	j	80005d04 <bad_trap>

80001140 <inst_120>:
80001140:	00100f37          	lui	t5,0x100
80001144:	00010eb7          	lui	t4,0x10
80001148:	03df2fb3          	mulhsu	t6,t5,t4
8000114c:	17f42e23          	sw	t6,380(s0)
80001150:	01000493          	li	s1,16
80001154:	01f48463          	beq	s1,t6,8000115c <inst_121>
80001158:	3ad0406f          	j	80005d04 <bad_trap>

8000115c <inst_121>:
8000115c:	00200f37          	lui	t5,0x200
80001160:	00010eb7          	lui	t4,0x10
80001164:	03df2fb3          	mulhsu	t6,t5,t4
80001168:	19f42023          	sw	t6,384(s0)
8000116c:	02000493          	li	s1,32
80001170:	01f48463          	beq	s1,t6,80001178 <inst_122>
80001174:	3910406f          	j	80005d04 <bad_trap>

80001178 <inst_122>:
80001178:	00400f37          	lui	t5,0x400
8000117c:	00010eb7          	lui	t4,0x10
80001180:	03df2fb3          	mulhsu	t6,t5,t4
80001184:	19f42223          	sw	t6,388(s0)
80001188:	04000493          	li	s1,64
8000118c:	01f48463          	beq	s1,t6,80001194 <inst_123>
80001190:	3750406f          	j	80005d04 <bad_trap>

80001194 <inst_123>:
80001194:	00800f37          	lui	t5,0x800
80001198:	00010eb7          	lui	t4,0x10
8000119c:	03df2fb3          	mulhsu	t6,t5,t4
800011a0:	19f42423          	sw	t6,392(s0)
800011a4:	08000493          	li	s1,128
800011a8:	01f48463          	beq	s1,t6,800011b0 <inst_124>
800011ac:	3590406f          	j	80005d04 <bad_trap>

800011b0 <inst_124>:
800011b0:	01000f37          	lui	t5,0x1000
800011b4:	00010eb7          	lui	t4,0x10
800011b8:	03df2fb3          	mulhsu	t6,t5,t4
800011bc:	19f42623          	sw	t6,396(s0)
800011c0:	10000493          	li	s1,256
800011c4:	01f48463          	beq	s1,t6,800011cc <inst_125>
800011c8:	33d0406f          	j	80005d04 <bad_trap>

800011cc <inst_125>:
800011cc:	02000f37          	lui	t5,0x2000
800011d0:	00010eb7          	lui	t4,0x10
800011d4:	03df2fb3          	mulhsu	t6,t5,t4
800011d8:	19f42823          	sw	t6,400(s0)
800011dc:	20000493          	li	s1,512
800011e0:	01f48463          	beq	s1,t6,800011e8 <inst_126>
800011e4:	3210406f          	j	80005d04 <bad_trap>

800011e8 <inst_126>:
800011e8:	04000f37          	lui	t5,0x4000
800011ec:	00010eb7          	lui	t4,0x10
800011f0:	03df2fb3          	mulhsu	t6,t5,t4
800011f4:	19f42a23          	sw	t6,404(s0)
800011f8:	40000493          	li	s1,1024
800011fc:	01f48463          	beq	s1,t6,80001204 <inst_127>
80001200:	3050406f          	j	80005d04 <bad_trap>

80001204 <inst_127>:
80001204:	08000f37          	lui	t5,0x8000
80001208:	00010eb7          	lui	t4,0x10
8000120c:	03df2fb3          	mulhsu	t6,t5,t4
80001210:	19f42c23          	sw	t6,408(s0)
80001214:	000014b7          	lui	s1,0x1
80001218:	80048493          	addi	s1,s1,-2048 # 800 <offset+0x5cc>
8000121c:	01f48463          	beq	s1,t6,80001224 <inst_128>
80001220:	2e50406f          	j	80005d04 <bad_trap>

80001224 <inst_128>:
80001224:	10000f37          	lui	t5,0x10000
80001228:	00010eb7          	lui	t4,0x10
8000122c:	03df2fb3          	mulhsu	t6,t5,t4
80001230:	19f42e23          	sw	t6,412(s0)
80001234:	000014b7          	lui	s1,0x1
80001238:	01f48463          	beq	s1,t6,80001240 <inst_129>
8000123c:	2c90406f          	j	80005d04 <bad_trap>

80001240 <inst_129>:
80001240:	20000f37          	lui	t5,0x20000
80001244:	00010eb7          	lui	t4,0x10
80001248:	03df2fb3          	mulhsu	t6,t5,t4
8000124c:	1bf42023          	sw	t6,416(s0)
80001250:	000024b7          	lui	s1,0x2
80001254:	01f48463          	beq	s1,t6,8000125c <inst_130>
80001258:	2ad0406f          	j	80005d04 <bad_trap>

8000125c <inst_130>:
8000125c:	40000f37          	lui	t5,0x40000
80001260:	00010eb7          	lui	t4,0x10
80001264:	03df2fb3          	mulhsu	t6,t5,t4
80001268:	1bf42223          	sw	t6,420(s0)
8000126c:	000044b7          	lui	s1,0x4
80001270:	01f48463          	beq	s1,t6,80001278 <inst_131>
80001274:	2910406f          	j	80005d04 <bad_trap>

80001278 <inst_131>:
80001278:	00300f13          	li	t5,3
8000127c:	55555eb7          	lui	t4,0x55555
80001280:	555e8e93          	addi	t4,t4,1365 # 55555555 <absimm+0x10263026>
80001284:	03df2fb3          	mulhsu	t6,t5,t4
80001288:	1bf42423          	sw	t6,424(s0)
8000128c:	00000493          	li	s1,0
80001290:	01f48463          	beq	s1,t6,80001298 <inst_132>
80001294:	2710406f          	j	80005d04 <bad_trap>

80001298 <inst_132>:
80001298:	00300f13          	li	t5,3
8000129c:	aaaabeb7          	lui	t4,0xaaaab
800012a0:	aaae8e93          	addi	t4,t4,-1366 # aaaaaaaa <imm12+0xaaaaafda>
800012a4:	03df2fb3          	mulhsu	t6,t5,t4
800012a8:	1bf42623          	sw	t6,428(s0)
800012ac:	00100493          	li	s1,1
800012b0:	01f48463          	beq	s1,t6,800012b8 <inst_133>
800012b4:	2510406f          	j	80005d04 <bad_trap>

800012b8 <inst_133>:
800012b8:	00300f13          	li	t5,3
800012bc:	00500e93          	li	t4,5
800012c0:	03df2fb3          	mulhsu	t6,t5,t4
800012c4:	1bf42823          	sw	t6,432(s0)
800012c8:	00000493          	li	s1,0
800012cc:	01f48463          	beq	s1,t6,800012d4 <inst_134>
800012d0:	2350406f          	j	80005d04 <bad_trap>

800012d4 <inst_134>:
800012d4:	00300f13          	li	t5,3
800012d8:	33333eb7          	lui	t4,0x33333
800012dc:	333e8e93          	addi	t4,t4,819 # 33333333 <offset+0x333330ff>
800012e0:	03df2fb3          	mulhsu	t6,t5,t4
800012e4:	1bf42a23          	sw	t6,436(s0)
800012e8:	00000493          	li	s1,0
800012ec:	01f48463          	beq	s1,t6,800012f4 <inst_135>
800012f0:	2150406f          	j	80005d04 <bad_trap>

800012f4 <inst_135>:
800012f4:	00300f13          	li	t5,3
800012f8:	66666eb7          	lui	t4,0x66666
800012fc:	666e8e93          	addi	t4,t4,1638 # 66666666 <absimm+0x21374137>
80001300:	03df2fb3          	mulhsu	t6,t5,t4
80001304:	1bf42c23          	sw	t6,440(s0)
80001308:	00100493          	li	s1,1
8000130c:	01f48463          	beq	s1,t6,80001314 <inst_136>
80001310:	1f50406f          	j	80005d04 <bad_trap>

80001314 <inst_136>:
80001314:	00300f13          	li	t5,3
80001318:	0000beb7          	lui	t4,0xb
8000131c:	504e8e93          	addi	t4,t4,1284 # b504 <offset+0xb2d0>
80001320:	03df2fb3          	mulhsu	t6,t5,t4
80001324:	1bf42e23          	sw	t6,444(s0)
80001328:	00000493          	li	s1,0
8000132c:	01f48463          	beq	s1,t6,80001334 <inst_137>
80001330:	1d50406f          	j	80005d04 <bad_trap>

80001334 <inst_137>:
80001334:	00300f13          	li	t5,3
80001338:	00010eb7          	lui	t4,0x10
8000133c:	fffe8e93          	addi	t4,t4,-1 # ffff <offset+0xfdcb>
80001340:	03df2fb3          	mulhsu	t6,t5,t4
80001344:	1df42023          	sw	t6,448(s0)
80001348:	00000493          	li	s1,0
8000134c:	01f48463          	beq	s1,t6,80001354 <inst_138>
80001350:	1b50406f          	j	80005d04 <bad_trap>

80001354 <inst_138>:
80001354:	00300f13          	li	t5,3
80001358:	00200e93          	li	t4,2
8000135c:	03df2fb3          	mulhsu	t6,t5,t4
80001360:	1df42223          	sw	t6,452(s0)
80001364:	00000493          	li	s1,0
80001368:	01f48463          	beq	s1,t6,80001370 <inst_139>
8000136c:	1990406f          	j	80005d04 <bad_trap>

80001370 <inst_139>:
80001370:	00300f13          	li	t5,3
80001374:	55555eb7          	lui	t4,0x55555
80001378:	554e8e93          	addi	t4,t4,1364 # 55555554 <absimm+0x10263025>
8000137c:	03df2fb3          	mulhsu	t6,t5,t4
80001380:	1df42423          	sw	t6,456(s0)
80001384:	00000493          	li	s1,0
80001388:	01f48463          	beq	s1,t6,80001390 <inst_140>
8000138c:	1790406f          	j	80005d04 <bad_trap>

80001390 <inst_140>:
80001390:	00300f13          	li	t5,3
80001394:	aaaabeb7          	lui	t4,0xaaaab
80001398:	aa9e8e93          	addi	t4,t4,-1367 # aaaaaaa9 <imm12+0xaaaaafd9>
8000139c:	03df2fb3          	mulhsu	t6,t5,t4
800013a0:	1df42623          	sw	t6,460(s0)
800013a4:	00100493          	li	s1,1
800013a8:	01f48463          	beq	s1,t6,800013b0 <inst_141>
800013ac:	1590406f          	j	80005d04 <bad_trap>

800013b0 <inst_141>:
800013b0:	00300f13          	li	t5,3
800013b4:	33333eb7          	lui	t4,0x33333
800013b8:	332e8e93          	addi	t4,t4,818 # 33333332 <offset+0x333330fe>
800013bc:	03df2fb3          	mulhsu	t6,t5,t4
800013c0:	1df42823          	sw	t6,464(s0)
800013c4:	00000493          	li	s1,0
800013c8:	01f48463          	beq	s1,t6,800013d0 <inst_142>
800013cc:	1390406f          	j	80005d04 <bad_trap>

800013d0 <inst_142>:
800013d0:	00300f13          	li	t5,3
800013d4:	66666eb7          	lui	t4,0x66666
800013d8:	665e8e93          	addi	t4,t4,1637 # 66666665 <absimm+0x21374136>
800013dc:	03df2fb3          	mulhsu	t6,t5,t4
800013e0:	1df42a23          	sw	t6,468(s0)
800013e4:	00100493          	li	s1,1
800013e8:	01f48463          	beq	s1,t6,800013f0 <inst_143>
800013ec:	1190406f          	j	80005d04 <bad_trap>

800013f0 <inst_143>:
800013f0:	00300f13          	li	t5,3
800013f4:	0000beb7          	lui	t4,0xb
800013f8:	503e8e93          	addi	t4,t4,1283 # b503 <offset+0xb2cf>
800013fc:	03df2fb3          	mulhsu	t6,t5,t4
80001400:	1df42c23          	sw	t6,472(s0)
80001404:	00000493          	li	s1,0
80001408:	01f48463          	beq	s1,t6,80001410 <inst_144>
8000140c:	0f90406f          	j	80005d04 <bad_trap>

80001410 <inst_144>:
80001410:	00300f13          	li	t5,3
80001414:	00000e93          	li	t4,0
80001418:	03df2fb3          	mulhsu	t6,t5,t4
8000141c:	1df42e23          	sw	t6,476(s0)
80001420:	00000493          	li	s1,0
80001424:	01f48463          	beq	s1,t6,8000142c <inst_145>
80001428:	0dd0406f          	j	80005d04 <bad_trap>

8000142c <inst_145>:
8000142c:	00300f13          	li	t5,3
80001430:	00010eb7          	lui	t4,0x10
80001434:	ffee8e93          	addi	t4,t4,-2 # fffe <offset+0xfdca>
80001438:	03df2fb3          	mulhsu	t6,t5,t4
8000143c:	1ff42023          	sw	t6,480(s0)
80001440:	00000493          	li	s1,0
80001444:	01f48463          	beq	s1,t6,8000144c <inst_146>
80001448:	0bd0406f          	j	80005d04 <bad_trap>

8000144c <inst_146>:
8000144c:	00300f13          	li	t5,3
80001450:	00400e93          	li	t4,4
80001454:	03df2fb3          	mulhsu	t6,t5,t4
80001458:	1ff42223          	sw	t6,484(s0)
8000145c:	00000493          	li	s1,0
80001460:	01f48463          	beq	s1,t6,80001468 <inst_147>
80001464:	0a10406f          	j	80005d04 <bad_trap>

80001468 <inst_147>:
80001468:	00300f13          	li	t5,3
8000146c:	55555eb7          	lui	t4,0x55555
80001470:	556e8e93          	addi	t4,t4,1366 # 55555556 <absimm+0x10263027>
80001474:	03df2fb3          	mulhsu	t6,t5,t4
80001478:	1ff42423          	sw	t6,488(s0)
8000147c:	00100493          	li	s1,1
80001480:	01f48463          	beq	s1,t6,80001488 <inst_148>
80001484:	0810406f          	j	80005d04 <bad_trap>

80001488 <inst_148>:
80001488:	00300f13          	li	t5,3
8000148c:	aaaabeb7          	lui	t4,0xaaaab
80001490:	aabe8e93          	addi	t4,t4,-1365 # aaaaaaab <imm12+0xaaaaafdb>
80001494:	03df2fb3          	mulhsu	t6,t5,t4
80001498:	1ff42623          	sw	t6,492(s0)
8000149c:	00200493          	li	s1,2
800014a0:	01f48463          	beq	s1,t6,800014a8 <inst_149>
800014a4:	0610406f          	j	80005d04 <bad_trap>

800014a8 <inst_149>:
800014a8:	00300f13          	li	t5,3
800014ac:	00600e93          	li	t4,6
800014b0:	03df2fb3          	mulhsu	t6,t5,t4
800014b4:	1ff42823          	sw	t6,496(s0)
800014b8:	00000493          	li	s1,0
800014bc:	01f48463          	beq	s1,t6,800014c4 <inst_150>
800014c0:	0450406f          	j	80005d04 <bad_trap>

800014c4 <inst_150>:
800014c4:	00300f13          	li	t5,3
800014c8:	33333eb7          	lui	t4,0x33333
800014cc:	334e8e93          	addi	t4,t4,820 # 33333334 <offset+0x33333100>
800014d0:	03df2fb3          	mulhsu	t6,t5,t4
800014d4:	1ff42a23          	sw	t6,500(s0)
800014d8:	00000493          	li	s1,0
800014dc:	01f48463          	beq	s1,t6,800014e4 <inst_151>
800014e0:	0250406f          	j	80005d04 <bad_trap>

800014e4 <inst_151>:
800014e4:	00300f13          	li	t5,3
800014e8:	66666eb7          	lui	t4,0x66666
800014ec:	667e8e93          	addi	t4,t4,1639 # 66666667 <absimm+0x21374138>
800014f0:	03df2fb3          	mulhsu	t6,t5,t4
800014f4:	1ff42c23          	sw	t6,504(s0)
800014f8:	00100493          	li	s1,1
800014fc:	01f48463          	beq	s1,t6,80001504 <inst_152>
80001500:	0050406f          	j	80005d04 <bad_trap>

80001504 <inst_152>:
80001504:	00300f13          	li	t5,3
80001508:	0000beb7          	lui	t4,0xb
8000150c:	505e8e93          	addi	t4,t4,1285 # b505 <offset+0xb2d1>
80001510:	03df2fb3          	mulhsu	t6,t5,t4
80001514:	1ff42e23          	sw	t6,508(s0)
80001518:	00000493          	li	s1,0
8000151c:	01f48463          	beq	s1,t6,80001524 <inst_153>
80001520:	7e40406f          	j	80005d04 <bad_trap>

80001524 <inst_153>:
80001524:	00300f13          	li	t5,3
80001528:	00100e93          	li	t4,1
8000152c:	03df2fb3          	mulhsu	t6,t5,t4
80001530:	21f42023          	sw	t6,512(s0)
80001534:	00000493          	li	s1,0
80001538:	01f48463          	beq	s1,t6,80001540 <inst_154>
8000153c:	7c80406f          	j	80005d04 <bad_trap>

80001540 <inst_154>:
80001540:	00300f13          	li	t5,3
80001544:	00010eb7          	lui	t4,0x10
80001548:	03df2fb3          	mulhsu	t6,t5,t4
8000154c:	21f42223          	sw	t6,516(s0)
80001550:	00000493          	li	s1,0
80001554:	01f48463          	beq	s1,t6,8000155c <inst_155>
80001558:	7ac0406f          	j	80005d04 <bad_trap>

8000155c <inst_155>:
8000155c:	55555f37          	lui	t5,0x55555
80001560:	555f0f13          	addi	t5,t5,1365 # 55555555 <absimm+0x10263026>
80001564:	00300e93          	li	t4,3
80001568:	03df2fb3          	mulhsu	t6,t5,t4
8000156c:	21f42423          	sw	t6,520(s0)
80001570:	00000493          	li	s1,0
80001574:	01f48463          	beq	s1,t6,8000157c <inst_156>
80001578:	78c0406f          	j	80005d04 <bad_trap>

8000157c <inst_156>:
8000157c:	55555f37          	lui	t5,0x55555
80001580:	555f0f13          	addi	t5,t5,1365 # 55555555 <absimm+0x10263026>
80001584:	55555eb7          	lui	t4,0x55555
80001588:	555e8e93          	addi	t4,t4,1365 # 55555555 <absimm+0x10263026>
8000158c:	03df2fb3          	mulhsu	t6,t5,t4
80001590:	21f42623          	sw	t6,524(s0)
80001594:	1c71c4b7          	lui	s1,0x1c71c
80001598:	71c48493          	addi	s1,s1,1820 # 1c71c71c <offset+0x1c71c4e8>
8000159c:	01f48463          	beq	s1,t6,800015a4 <inst_157>
800015a0:	7640406f          	j	80005d04 <bad_trap>

800015a4 <inst_157>:
800015a4:	55555f37          	lui	t5,0x55555
800015a8:	555f0f13          	addi	t5,t5,1365 # 55555555 <absimm+0x10263026>
800015ac:	aaaabeb7          	lui	t4,0xaaaab
800015b0:	aaae8e93          	addi	t4,t4,-1366 # aaaaaaaa <imm12+0xaaaaafda>
800015b4:	03df2fb3          	mulhsu	t6,t5,t4
800015b8:	21f42823          	sw	t6,528(s0)
800015bc:	38e394b7          	lui	s1,0x38e39
800015c0:	e3848493          	addi	s1,s1,-456 # 38e38e38 <offset+0x38e38c04>
800015c4:	01f48463          	beq	s1,t6,800015cc <inst_158>
800015c8:	73c0406f          	j	80005d04 <bad_trap>

800015cc <inst_158>:
800015cc:	55555f37          	lui	t5,0x55555
800015d0:	555f0f13          	addi	t5,t5,1365 # 55555555 <absimm+0x10263026>
800015d4:	00500e93          	li	t4,5
800015d8:	03df2fb3          	mulhsu	t6,t5,t4
800015dc:	21f42a23          	sw	t6,532(s0)
800015e0:	00100493          	li	s1,1
800015e4:	01f48463          	beq	s1,t6,800015ec <inst_159>
800015e8:	71c0406f          	j	80005d04 <bad_trap>

800015ec <inst_159>:
800015ec:	55555f37          	lui	t5,0x55555
800015f0:	555f0f13          	addi	t5,t5,1365 # 55555555 <absimm+0x10263026>
800015f4:	33333eb7          	lui	t4,0x33333
800015f8:	333e8e93          	addi	t4,t4,819 # 33333333 <offset+0x333330ff>
800015fc:	03df2fb3          	mulhsu	t6,t5,t4
80001600:	21f42c23          	sw	t6,536(s0)
80001604:	111114b7          	lui	s1,0x11111
80001608:	11048493          	addi	s1,s1,272 # 11111110 <offset+0x11110edc>
8000160c:	01f48463          	beq	s1,t6,80001614 <inst_160>
80001610:	6f40406f          	j	80005d04 <bad_trap>

80001614 <inst_160>:
80001614:	55555f37          	lui	t5,0x55555
80001618:	555f0f13          	addi	t5,t5,1365 # 55555555 <absimm+0x10263026>
8000161c:	66666eb7          	lui	t4,0x66666
80001620:	666e8e93          	addi	t4,t4,1638 # 66666666 <absimm+0x21374137>
80001624:	03df2fb3          	mulhsu	t6,t5,t4
80001628:	21f42e23          	sw	t6,540(s0)
8000162c:	222224b7          	lui	s1,0x22222
80001630:	22148493          	addi	s1,s1,545 # 22222221 <offset+0x22221fed>
80001634:	01f48463          	beq	s1,t6,8000163c <inst_161>
80001638:	6cc0406f          	j	80005d04 <bad_trap>

8000163c <inst_161>:
8000163c:	55555f37          	lui	t5,0x55555
80001640:	555f0f13          	addi	t5,t5,1365 # 55555555 <absimm+0x10263026>
80001644:	0000beb7          	lui	t4,0xb
80001648:	504e8e93          	addi	t4,t4,1284 # b504 <offset+0xb2d0>
8000164c:	03df2fb3          	mulhsu	t6,t5,t4
80001650:	23f42023          	sw	t6,544(s0)
80001654:	000044b7          	lui	s1,0x4
80001658:	c5648493          	addi	s1,s1,-938 # 3c56 <offset+0x3a22>
8000165c:	01f48463          	beq	s1,t6,80001664 <inst_162>
80001660:	6a40406f          	j	80005d04 <bad_trap>

80001664 <inst_162>:
80001664:	55555f37          	lui	t5,0x55555
80001668:	555f0f13          	addi	t5,t5,1365 # 55555555 <absimm+0x10263026>
8000166c:	00010eb7          	lui	t4,0x10
80001670:	fffe8e93          	addi	t4,t4,-1 # ffff <offset+0xfdcb>
80001674:	03df2fb3          	mulhsu	t6,t5,t4
80001678:	23f42223          	sw	t6,548(s0)
8000167c:	000054b7          	lui	s1,0x5
80001680:	55448493          	addi	s1,s1,1364 # 5554 <offset+0x5320>
80001684:	01f48463          	beq	s1,t6,8000168c <inst_163>
80001688:	67c0406f          	j	80005d04 <bad_trap>

8000168c <inst_163>:
8000168c:	55555f37          	lui	t5,0x55555
80001690:	555f0f13          	addi	t5,t5,1365 # 55555555 <absimm+0x10263026>
80001694:	00200e93          	li	t4,2
80001698:	03df2fb3          	mulhsu	t6,t5,t4
8000169c:	23f42423          	sw	t6,552(s0)
800016a0:	00000493          	li	s1,0
800016a4:	01f48463          	beq	s1,t6,800016ac <inst_164>
800016a8:	65c0406f          	j	80005d04 <bad_trap>

800016ac <inst_164>:
800016ac:	55555f37          	lui	t5,0x55555
800016b0:	555f0f13          	addi	t5,t5,1365 # 55555555 <absimm+0x10263026>
800016b4:	55555eb7          	lui	t4,0x55555
800016b8:	554e8e93          	addi	t4,t4,1364 # 55555554 <absimm+0x10263025>
800016bc:	03df2fb3          	mulhsu	t6,t5,t4
800016c0:	23f42623          	sw	t6,556(s0)
800016c4:	1c71c4b7          	lui	s1,0x1c71c
800016c8:	71b48493          	addi	s1,s1,1819 # 1c71c71b <offset+0x1c71c4e7>
800016cc:	01f48463          	beq	s1,t6,800016d4 <inst_165>
800016d0:	6340406f          	j	80005d04 <bad_trap>

800016d4 <inst_165>:
800016d4:	55555f37          	lui	t5,0x55555
800016d8:	555f0f13          	addi	t5,t5,1365 # 55555555 <absimm+0x10263026>
800016dc:	aaaabeb7          	lui	t4,0xaaaab
800016e0:	aa9e8e93          	addi	t4,t4,-1367 # aaaaaaa9 <imm12+0xaaaaafd9>
800016e4:	03df2fb3          	mulhsu	t6,t5,t4
800016e8:	23f42823          	sw	t6,560(s0)
800016ec:	38e394b7          	lui	s1,0x38e39
800016f0:	e3848493          	addi	s1,s1,-456 # 38e38e38 <offset+0x38e38c04>
800016f4:	01f48463          	beq	s1,t6,800016fc <inst_166>
800016f8:	60c0406f          	j	80005d04 <bad_trap>

800016fc <inst_166>:
800016fc:	55555f37          	lui	t5,0x55555
80001700:	555f0f13          	addi	t5,t5,1365 # 55555555 <absimm+0x10263026>
80001704:	33333eb7          	lui	t4,0x33333
80001708:	332e8e93          	addi	t4,t4,818 # 33333332 <offset+0x333330fe>
8000170c:	03df2fb3          	mulhsu	t6,t5,t4
80001710:	23f42a23          	sw	t6,564(s0)
80001714:	111114b7          	lui	s1,0x11111
80001718:	11048493          	addi	s1,s1,272 # 11111110 <offset+0x11110edc>
8000171c:	01f48463          	beq	s1,t6,80001724 <inst_167>
80001720:	5e40406f          	j	80005d04 <bad_trap>

80001724 <inst_167>:
80001724:	55555f37          	lui	t5,0x55555
80001728:	555f0f13          	addi	t5,t5,1365 # 55555555 <absimm+0x10263026>
8000172c:	66666eb7          	lui	t4,0x66666
80001730:	665e8e93          	addi	t4,t4,1637 # 66666665 <absimm+0x21374136>
80001734:	03df2fb3          	mulhsu	t6,t5,t4
80001738:	23f42c23          	sw	t6,568(s0)
8000173c:	222224b7          	lui	s1,0x22222
80001740:	22148493          	addi	s1,s1,545 # 22222221 <offset+0x22221fed>
80001744:	01f48463          	beq	s1,t6,8000174c <inst_168>
80001748:	5bc0406f          	j	80005d04 <bad_trap>

8000174c <inst_168>:
8000174c:	55555f37          	lui	t5,0x55555
80001750:	555f0f13          	addi	t5,t5,1365 # 55555555 <absimm+0x10263026>
80001754:	0000beb7          	lui	t4,0xb
80001758:	503e8e93          	addi	t4,t4,1283 # b503 <offset+0xb2cf>
8000175c:	03df2fb3          	mulhsu	t6,t5,t4
80001760:	23f42e23          	sw	t6,572(s0)
80001764:	000044b7          	lui	s1,0x4
80001768:	c5648493          	addi	s1,s1,-938 # 3c56 <offset+0x3a22>
8000176c:	01f48463          	beq	s1,t6,80001774 <inst_169>
80001770:	5940406f          	j	80005d04 <bad_trap>

80001774 <inst_169>:
80001774:	55555f37          	lui	t5,0x55555
80001778:	555f0f13          	addi	t5,t5,1365 # 55555555 <absimm+0x10263026>
8000177c:	00000e93          	li	t4,0
80001780:	03df2fb3          	mulhsu	t6,t5,t4
80001784:	25f42023          	sw	t6,576(s0)
80001788:	00000493          	li	s1,0
8000178c:	01f48463          	beq	s1,t6,80001794 <inst_170>
80001790:	5740406f          	j	80005d04 <bad_trap>

80001794 <inst_170>:
80001794:	55555f37          	lui	t5,0x55555
80001798:	555f0f13          	addi	t5,t5,1365 # 55555555 <absimm+0x10263026>
8000179c:	00010eb7          	lui	t4,0x10
800017a0:	ffee8e93          	addi	t4,t4,-2 # fffe <offset+0xfdca>
800017a4:	03df2fb3          	mulhsu	t6,t5,t4
800017a8:	25f42223          	sw	t6,580(s0)
800017ac:	000054b7          	lui	s1,0x5
800017b0:	55448493          	addi	s1,s1,1364 # 5554 <offset+0x5320>
800017b4:	01f48463          	beq	s1,t6,800017bc <inst_171>
800017b8:	54c0406f          	j	80005d04 <bad_trap>

800017bc <inst_171>:
800017bc:	aaaabf37          	lui	t5,0xaaaab
800017c0:	aaaf0f13          	addi	t5,t5,-1366 # aaaaaaaa <imm12+0xaaaaafda>
800017c4:	00010eb7          	lui	t4,0x10
800017c8:	03df2fb3          	mulhsu	t6,t5,t4
800017cc:	25f42423          	sw	t6,584(s0)
800017d0:	ffffb4b7          	lui	s1,0xffffb
800017d4:	aaa48493          	addi	s1,s1,-1366 # ffffaaaa <imm12+0xffffafda>
800017d8:	01f48463          	beq	s1,t6,800017e0 <inst_172>
800017dc:	5280406f          	j	80005d04 <bad_trap>

800017e0 <inst_172>:
800017e0:	55555f37          	lui	t5,0x55555
800017e4:	555f0f13          	addi	t5,t5,1365 # 55555555 <absimm+0x10263026>
800017e8:	00400e93          	li	t4,4
800017ec:	03df2fb3          	mulhsu	t6,t5,t4
800017f0:	25f42623          	sw	t6,588(s0)
800017f4:	00100493          	li	s1,1
800017f8:	01f48463          	beq	s1,t6,80001800 <inst_173>
800017fc:	5080406f          	j	80005d04 <bad_trap>

80001800 <inst_173>:
80001800:	55555f37          	lui	t5,0x55555
80001804:	555f0f13          	addi	t5,t5,1365 # 55555555 <absimm+0x10263026>
80001808:	55555eb7          	lui	t4,0x55555
8000180c:	556e8e93          	addi	t4,t4,1366 # 55555556 <absimm+0x10263027>
80001810:	03df2fb3          	mulhsu	t6,t5,t4
80001814:	25f42823          	sw	t6,592(s0)
80001818:	1c71c4b7          	lui	s1,0x1c71c
8000181c:	71c48493          	addi	s1,s1,1820 # 1c71c71c <offset+0x1c71c4e8>
80001820:	01f48463          	beq	s1,t6,80001828 <inst_174>
80001824:	4e00406f          	j	80005d04 <bad_trap>

80001828 <inst_174>:
80001828:	55555f37          	lui	t5,0x55555
8000182c:	555f0f13          	addi	t5,t5,1365 # 55555555 <absimm+0x10263026>
80001830:	aaaabeb7          	lui	t4,0xaaaab
80001834:	aabe8e93          	addi	t4,t4,-1365 # aaaaaaab <imm12+0xaaaaafdb>
80001838:	03df2fb3          	mulhsu	t6,t5,t4
8000183c:	25f42a23          	sw	t6,596(s0)
80001840:	38e394b7          	lui	s1,0x38e39
80001844:	e3848493          	addi	s1,s1,-456 # 38e38e38 <offset+0x38e38c04>
80001848:	01f48463          	beq	s1,t6,80001850 <inst_175>
8000184c:	4b80406f          	j	80005d04 <bad_trap>

80001850 <inst_175>:
80001850:	55555f37          	lui	t5,0x55555
80001854:	555f0f13          	addi	t5,t5,1365 # 55555555 <absimm+0x10263026>
80001858:	00600e93          	li	t4,6
8000185c:	03df2fb3          	mulhsu	t6,t5,t4
80001860:	25f42c23          	sw	t6,600(s0)
80001864:	00100493          	li	s1,1
80001868:	01f48463          	beq	s1,t6,80001870 <inst_176>
8000186c:	4980406f          	j	80005d04 <bad_trap>

80001870 <inst_176>:
80001870:	55555f37          	lui	t5,0x55555
80001874:	555f0f13          	addi	t5,t5,1365 # 55555555 <absimm+0x10263026>
80001878:	33333eb7          	lui	t4,0x33333
8000187c:	334e8e93          	addi	t4,t4,820 # 33333334 <offset+0x33333100>
80001880:	03df2fb3          	mulhsu	t6,t5,t4
80001884:	25f42e23          	sw	t6,604(s0)
80001888:	111114b7          	lui	s1,0x11111
8000188c:	11148493          	addi	s1,s1,273 # 11111111 <offset+0x11110edd>
80001890:	01f48463          	beq	s1,t6,80001898 <inst_177>
80001894:	4700406f          	j	80005d04 <bad_trap>

80001898 <inst_177>:
80001898:	55555f37          	lui	t5,0x55555
8000189c:	555f0f13          	addi	t5,t5,1365 # 55555555 <absimm+0x10263026>
800018a0:	66666eb7          	lui	t4,0x66666
800018a4:	667e8e93          	addi	t4,t4,1639 # 66666667 <absimm+0x21374138>
800018a8:	03df2fb3          	mulhsu	t6,t5,t4
800018ac:	27f42023          	sw	t6,608(s0)
800018b0:	222224b7          	lui	s1,0x22222
800018b4:	22248493          	addi	s1,s1,546 # 22222222 <offset+0x22221fee>
800018b8:	01f48463          	beq	s1,t6,800018c0 <inst_178>
800018bc:	4480406f          	j	80005d04 <bad_trap>

800018c0 <inst_178>:
800018c0:	55555f37          	lui	t5,0x55555
800018c4:	555f0f13          	addi	t5,t5,1365 # 55555555 <absimm+0x10263026>
800018c8:	0000beb7          	lui	t4,0xb
800018cc:	505e8e93          	addi	t4,t4,1285 # b505 <offset+0xb2d1>
800018d0:	03df2fb3          	mulhsu	t6,t5,t4
800018d4:	27f42223          	sw	t6,612(s0)
800018d8:	000044b7          	lui	s1,0x4
800018dc:	c5648493          	addi	s1,s1,-938 # 3c56 <offset+0x3a22>
800018e0:	01f48463          	beq	s1,t6,800018e8 <inst_179>
800018e4:	4200406f          	j	80005d04 <bad_trap>

800018e8 <inst_179>:
800018e8:	55555f37          	lui	t5,0x55555
800018ec:	555f0f13          	addi	t5,t5,1365 # 55555555 <absimm+0x10263026>
800018f0:	00100e93          	li	t4,1
800018f4:	03df2fb3          	mulhsu	t6,t5,t4
800018f8:	27f42423          	sw	t6,616(s0)
800018fc:	00000493          	li	s1,0
80001900:	01f48463          	beq	s1,t6,80001908 <inst_180>
80001904:	4000406f          	j	80005d04 <bad_trap>

80001908 <inst_180>:
80001908:	55555f37          	lui	t5,0x55555
8000190c:	555f0f13          	addi	t5,t5,1365 # 55555555 <absimm+0x10263026>
80001910:	00010eb7          	lui	t4,0x10
80001914:	03df2fb3          	mulhsu	t6,t5,t4
80001918:	27f42623          	sw	t6,620(s0)
8000191c:	000054b7          	lui	s1,0x5
80001920:	55548493          	addi	s1,s1,1365 # 5555 <offset+0x5321>
80001924:	01f48463          	beq	s1,t6,8000192c <inst_181>
80001928:	3dc0406f          	j	80005d04 <bad_trap>

8000192c <inst_181>:
8000192c:	aaaabf37          	lui	t5,0xaaaab
80001930:	aaaf0f13          	addi	t5,t5,-1366 # aaaaaaaa <imm12+0xaaaaafda>
80001934:	00300e93          	li	t4,3
80001938:	03df2fb3          	mulhsu	t6,t5,t4
8000193c:	27f42823          	sw	t6,624(s0)
80001940:	ffe00493          	li	s1,-2
80001944:	01f48463          	beq	s1,t6,8000194c <inst_182>
80001948:	3bc0406f          	j	80005d04 <bad_trap>

8000194c <inst_182>:
8000194c:	aaaabf37          	lui	t5,0xaaaab
80001950:	aaaf0f13          	addi	t5,t5,-1366 # aaaaaaaa <imm12+0xaaaaafda>
80001954:	55555eb7          	lui	t4,0x55555
80001958:	555e8e93          	addi	t4,t4,1365 # 55555555 <absimm+0x10263026>
8000195c:	03df2fb3          	mulhsu	t6,t5,t4
80001960:	27f42a23          	sw	t6,628(s0)
80001964:	e38e44b7          	lui	s1,0xe38e4
80001968:	8e348493          	addi	s1,s1,-1821 # e38e38e3 <imm12+0xe38e3e13>
8000196c:	01f48463          	beq	s1,t6,80001974 <inst_183>
80001970:	3940406f          	j	80005d04 <bad_trap>

80001974 <inst_183>:
80001974:	aaaabf37          	lui	t5,0xaaaab
80001978:	aaaf0f13          	addi	t5,t5,-1366 # aaaaaaaa <imm12+0xaaaaafda>
8000197c:	aaaabeb7          	lui	t4,0xaaaab
80001980:	aaae8e93          	addi	t4,t4,-1366 # aaaaaaaa <imm12+0xaaaaafda>
80001984:	03df2fb3          	mulhsu	t6,t5,t4
80001988:	27f42c23          	sw	t6,632(s0)
8000198c:	c71c74b7          	lui	s1,0xc71c7
80001990:	1c648493          	addi	s1,s1,454 # c71c71c6 <imm12+0xc71c76f6>
80001994:	01f48463          	beq	s1,t6,8000199c <inst_184>
80001998:	36c0406f          	j	80005d04 <bad_trap>

8000199c <inst_184>:
8000199c:	aaaabf37          	lui	t5,0xaaaab
800019a0:	aaaf0f13          	addi	t5,t5,-1366 # aaaaaaaa <imm12+0xaaaaafda>
800019a4:	00500e93          	li	t4,5
800019a8:	03df2fb3          	mulhsu	t6,t5,t4
800019ac:	27f42e23          	sw	t6,636(s0)
800019b0:	ffe00493          	li	s1,-2
800019b4:	01f48463          	beq	s1,t6,800019bc <inst_185>
800019b8:	34c0406f          	j	80005d04 <bad_trap>

800019bc <inst_185>:
800019bc:	aaaabf37          	lui	t5,0xaaaab
800019c0:	aaaf0f13          	addi	t5,t5,-1366 # aaaaaaaa <imm12+0xaaaaafda>
800019c4:	33333eb7          	lui	t4,0x33333
800019c8:	333e8e93          	addi	t4,t4,819 # 33333333 <offset+0x333330ff>
800019cc:	03df2fb3          	mulhsu	t6,t5,t4
800019d0:	29f42023          	sw	t6,640(s0)
800019d4:	eeeef4b7          	lui	s1,0xeeeef
800019d8:	eee48493          	addi	s1,s1,-274 # eeeeeeee <imm12+0xeeeef41e>
800019dc:	01f48463          	beq	s1,t6,800019e4 <inst_186>
800019e0:	3240406f          	j	80005d04 <bad_trap>

800019e4 <inst_186>:
800019e4:	aaaabf37          	lui	t5,0xaaaab
800019e8:	aaaf0f13          	addi	t5,t5,-1366 # aaaaaaaa <imm12+0xaaaaafda>
800019ec:	66666eb7          	lui	t4,0x66666
800019f0:	666e8e93          	addi	t4,t4,1638 # 66666666 <absimm+0x21374137>
800019f4:	03df2fb3          	mulhsu	t6,t5,t4
800019f8:	29f42223          	sw	t6,644(s0)
800019fc:	dddde4b7          	lui	s1,0xdddde
80001a00:	ddd48493          	addi	s1,s1,-547 # dddddddd <imm12+0xdddde30d>
80001a04:	01f48463          	beq	s1,t6,80001a0c <inst_187>
80001a08:	2fc0406f          	j	80005d04 <bad_trap>

80001a0c <inst_187>:
80001a0c:	aaaabf37          	lui	t5,0xaaaab
80001a10:	aaaf0f13          	addi	t5,t5,-1366 # aaaaaaaa <imm12+0xaaaaafda>
80001a14:	0000beb7          	lui	t4,0xb
80001a18:	504e8e93          	addi	t4,t4,1284 # b504 <offset+0xb2d0>
80001a1c:	03df2fb3          	mulhsu	t6,t5,t4
80001a20:	29f42423          	sw	t6,648(s0)
80001a24:	ffffc4b7          	lui	s1,0xffffc
80001a28:	3a948493          	addi	s1,s1,937 # ffffc3a9 <imm12+0xffffc8d9>
80001a2c:	01f48463          	beq	s1,t6,80001a34 <inst_188>
80001a30:	2d40406f          	j	80005d04 <bad_trap>

80001a34 <inst_188>:
80001a34:	aaaabf37          	lui	t5,0xaaaab
80001a38:	aaaf0f13          	addi	t5,t5,-1366 # aaaaaaaa <imm12+0xaaaaafda>
80001a3c:	00010eb7          	lui	t4,0x10
80001a40:	fffe8e93          	addi	t4,t4,-1 # ffff <offset+0xfdcb>
80001a44:	03df2fb3          	mulhsu	t6,t5,t4
80001a48:	29f42623          	sw	t6,652(s0)
80001a4c:	ffffb4b7          	lui	s1,0xffffb
80001a50:	aaa48493          	addi	s1,s1,-1366 # ffffaaaa <imm12+0xffffafda>
80001a54:	01f48463          	beq	s1,t6,80001a5c <inst_189>
80001a58:	2ac0406f          	j	80005d04 <bad_trap>

80001a5c <inst_189>:
80001a5c:	aaaabf37          	lui	t5,0xaaaab
80001a60:	aaaf0f13          	addi	t5,t5,-1366 # aaaaaaaa <imm12+0xaaaaafda>
80001a64:	00200e93          	li	t4,2
80001a68:	03df2fb3          	mulhsu	t6,t5,t4
80001a6c:	29f42823          	sw	t6,656(s0)
80001a70:	fff00493          	li	s1,-1
80001a74:	01f48463          	beq	s1,t6,80001a7c <inst_190>
80001a78:	28c0406f          	j	80005d04 <bad_trap>

80001a7c <inst_190>:
80001a7c:	aaaabf37          	lui	t5,0xaaaab
80001a80:	aaaf0f13          	addi	t5,t5,-1366 # aaaaaaaa <imm12+0xaaaaafda>
80001a84:	55555eb7          	lui	t4,0x55555
80001a88:	554e8e93          	addi	t4,t4,1364 # 55555554 <absimm+0x10263025>
80001a8c:	03df2fb3          	mulhsu	t6,t5,t4
80001a90:	29f42a23          	sw	t6,660(s0)
80001a94:	e38e44b7          	lui	s1,0xe38e4
80001a98:	8e348493          	addi	s1,s1,-1821 # e38e38e3 <imm12+0xe38e3e13>
80001a9c:	01f48463          	beq	s1,t6,80001aa4 <inst_191>
80001aa0:	2640406f          	j	80005d04 <bad_trap>

80001aa4 <inst_191>:
80001aa4:	aaaabf37          	lui	t5,0xaaaab
80001aa8:	aaaf0f13          	addi	t5,t5,-1366 # aaaaaaaa <imm12+0xaaaaafda>
80001aac:	aaaabeb7          	lui	t4,0xaaaab
80001ab0:	aa9e8e93          	addi	t4,t4,-1367 # aaaaaaa9 <imm12+0xaaaaafd9>
80001ab4:	03df2fb3          	mulhsu	t6,t5,t4
80001ab8:	29f42c23          	sw	t6,664(s0)
80001abc:	c71c74b7          	lui	s1,0xc71c7
80001ac0:	1c748493          	addi	s1,s1,455 # c71c71c7 <imm12+0xc71c76f7>
80001ac4:	01f48463          	beq	s1,t6,80001acc <inst_192>
80001ac8:	23c0406f          	j	80005d04 <bad_trap>

80001acc <inst_192>:
80001acc:	aaaabf37          	lui	t5,0xaaaab
80001ad0:	aaaf0f13          	addi	t5,t5,-1366 # aaaaaaaa <imm12+0xaaaaafda>
80001ad4:	33333eb7          	lui	t4,0x33333
80001ad8:	332e8e93          	addi	t4,t4,818 # 33333332 <offset+0x333330fe>
80001adc:	03df2fb3          	mulhsu	t6,t5,t4
80001ae0:	29f42e23          	sw	t6,668(s0)
80001ae4:	eeeef4b7          	lui	s1,0xeeeef
80001ae8:	eef48493          	addi	s1,s1,-273 # eeeeeeef <imm12+0xeeeef41f>
80001aec:	01f48463          	beq	s1,t6,80001af4 <inst_193>
80001af0:	2140406f          	j	80005d04 <bad_trap>

80001af4 <inst_193>:
80001af4:	aaaabf37          	lui	t5,0xaaaab
80001af8:	aaaf0f13          	addi	t5,t5,-1366 # aaaaaaaa <imm12+0xaaaaafda>
80001afc:	66666eb7          	lui	t4,0x66666
80001b00:	665e8e93          	addi	t4,t4,1637 # 66666665 <absimm+0x21374136>
80001b04:	03df2fb3          	mulhsu	t6,t5,t4
80001b08:	2bf42023          	sw	t6,672(s0)
80001b0c:	dddde4b7          	lui	s1,0xdddde
80001b10:	dde48493          	addi	s1,s1,-546 # ddddddde <imm12+0xdddde30e>
80001b14:	01f48463          	beq	s1,t6,80001b1c <inst_194>
80001b18:	1ec0406f          	j	80005d04 <bad_trap>

80001b1c <inst_194>:
80001b1c:	aaaabf37          	lui	t5,0xaaaab
80001b20:	aaaf0f13          	addi	t5,t5,-1366 # aaaaaaaa <imm12+0xaaaaafda>
80001b24:	0000beb7          	lui	t4,0xb
80001b28:	503e8e93          	addi	t4,t4,1283 # b503 <offset+0xb2cf>
80001b2c:	03df2fb3          	mulhsu	t6,t5,t4
80001b30:	2bf42223          	sw	t6,676(s0)
80001b34:	ffffc4b7          	lui	s1,0xffffc
80001b38:	3a948493          	addi	s1,s1,937 # ffffc3a9 <imm12+0xffffc8d9>
80001b3c:	01f48463          	beq	s1,t6,80001b44 <inst_195>
80001b40:	1c40406f          	j	80005d04 <bad_trap>

80001b44 <inst_195>:
80001b44:	0000bf37          	lui	t5,0xb
80001b48:	505f0f13          	addi	t5,t5,1285 # b505 <offset+0xb2d1>
80001b4c:	fff00e93          	li	t4,-1
80001b50:	03df2fb3          	mulhsu	t6,t5,t4
80001b54:	2bf42423          	sw	t6,680(s0)
80001b58:	0000b4b7          	lui	s1,0xb
80001b5c:	50448493          	addi	s1,s1,1284 # b504 <offset+0xb2d0>
80001b60:	01f48463          	beq	s1,t6,80001b68 <inst_196>
80001b64:	1a00406f          	j	80005d04 <bad_trap>

80001b68 <inst_196>:
80001b68:	aaaabf37          	lui	t5,0xaaaab
80001b6c:	aaaf0f13          	addi	t5,t5,-1366 # aaaaaaaa <imm12+0xaaaaafda>
80001b70:	00000e93          	li	t4,0
80001b74:	03df2fb3          	mulhsu	t6,t5,t4
80001b78:	2bf42623          	sw	t6,684(s0)
80001b7c:	00000493          	li	s1,0
80001b80:	01f48463          	beq	s1,t6,80001b88 <inst_197>
80001b84:	1800406f          	j	80005d04 <bad_trap>

80001b88 <inst_197>:
80001b88:	aaaabf37          	lui	t5,0xaaaab
80001b8c:	aaaf0f13          	addi	t5,t5,-1366 # aaaaaaaa <imm12+0xaaaaafda>
80001b90:	00010eb7          	lui	t4,0x10
80001b94:	ffee8e93          	addi	t4,t4,-2 # fffe <offset+0xfdca>
80001b98:	03df2fb3          	mulhsu	t6,t5,t4
80001b9c:	2bf42823          	sw	t6,688(s0)
80001ba0:	ffffb4b7          	lui	s1,0xffffb
80001ba4:	aab48493          	addi	s1,s1,-1365 # ffffaaab <imm12+0xffffafdb>
80001ba8:	01f48463          	beq	s1,t6,80001bb0 <inst_198>
80001bac:	1580406f          	j	80005d04 <bad_trap>

80001bb0 <inst_198>:
80001bb0:	aaaabf37          	lui	t5,0xaaaab
80001bb4:	aaaf0f13          	addi	t5,t5,-1366 # aaaaaaaa <imm12+0xaaaaafda>
80001bb8:	00400e93          	li	t4,4
80001bbc:	03df2fb3          	mulhsu	t6,t5,t4
80001bc0:	2bf42a23          	sw	t6,692(s0)
80001bc4:	ffe00493          	li	s1,-2
80001bc8:	01f48463          	beq	s1,t6,80001bd0 <inst_199>
80001bcc:	1380406f          	j	80005d04 <bad_trap>

80001bd0 <inst_199>:
80001bd0:	aaaabf37          	lui	t5,0xaaaab
80001bd4:	aaaf0f13          	addi	t5,t5,-1366 # aaaaaaaa <imm12+0xaaaaafda>
80001bd8:	55555eb7          	lui	t4,0x55555
80001bdc:	556e8e93          	addi	t4,t4,1366 # 55555556 <absimm+0x10263027>
80001be0:	03df2fb3          	mulhsu	t6,t5,t4
80001be4:	2bf42c23          	sw	t6,696(s0)
80001be8:	e38e44b7          	lui	s1,0xe38e4
80001bec:	8e348493          	addi	s1,s1,-1821 # e38e38e3 <imm12+0xe38e3e13>
80001bf0:	01f48463          	beq	s1,t6,80001bf8 <inst_200>
80001bf4:	1100406f          	j	80005d04 <bad_trap>

80001bf8 <inst_200>:
80001bf8:	aaaabf37          	lui	t5,0xaaaab
80001bfc:	aaaf0f13          	addi	t5,t5,-1366 # aaaaaaaa <imm12+0xaaaaafda>
80001c00:	aaaabeb7          	lui	t4,0xaaaab
80001c04:	aabe8e93          	addi	t4,t4,-1365 # aaaaaaab <imm12+0xaaaaafdb>
80001c08:	03df2fb3          	mulhsu	t6,t5,t4
80001c0c:	2bf42e23          	sw	t6,700(s0)
80001c10:	c71c74b7          	lui	s1,0xc71c7
80001c14:	1c648493          	addi	s1,s1,454 # c71c71c6 <imm12+0xc71c76f6>
80001c18:	01f48463          	beq	s1,t6,80001c20 <inst_201>
80001c1c:	0e80406f          	j	80005d04 <bad_trap>

80001c20 <inst_201>:
80001c20:	aaaabf37          	lui	t5,0xaaaab
80001c24:	aaaf0f13          	addi	t5,t5,-1366 # aaaaaaaa <imm12+0xaaaaafda>
80001c28:	00600e93          	li	t4,6
80001c2c:	03df2fb3          	mulhsu	t6,t5,t4
80001c30:	2df42023          	sw	t6,704(s0)
80001c34:	ffd00493          	li	s1,-3
80001c38:	01f48463          	beq	s1,t6,80001c40 <inst_202>
80001c3c:	0c80406f          	j	80005d04 <bad_trap>

80001c40 <inst_202>:
80001c40:	aaaabf37          	lui	t5,0xaaaab
80001c44:	aaaf0f13          	addi	t5,t5,-1366 # aaaaaaaa <imm12+0xaaaaafda>
80001c48:	33333eb7          	lui	t4,0x33333
80001c4c:	334e8e93          	addi	t4,t4,820 # 33333334 <offset+0x33333100>
80001c50:	03df2fb3          	mulhsu	t6,t5,t4
80001c54:	2df42223          	sw	t6,708(s0)
80001c58:	eeeef4b7          	lui	s1,0xeeeef
80001c5c:	eee48493          	addi	s1,s1,-274 # eeeeeeee <imm12+0xeeeef41e>
80001c60:	01f48463          	beq	s1,t6,80001c68 <inst_203>
80001c64:	0a00406f          	j	80005d04 <bad_trap>

80001c68 <inst_203>:
80001c68:	aaaabf37          	lui	t5,0xaaaab
80001c6c:	aaaf0f13          	addi	t5,t5,-1366 # aaaaaaaa <imm12+0xaaaaafda>
80001c70:	66666eb7          	lui	t4,0x66666
80001c74:	667e8e93          	addi	t4,t4,1639 # 66666667 <absimm+0x21374138>
80001c78:	03df2fb3          	mulhsu	t6,t5,t4
80001c7c:	2df42423          	sw	t6,712(s0)
80001c80:	dddde4b7          	lui	s1,0xdddde
80001c84:	ddd48493          	addi	s1,s1,-547 # dddddddd <imm12+0xdddde30d>
80001c88:	01f48463          	beq	s1,t6,80001c90 <inst_204>
80001c8c:	0780406f          	j	80005d04 <bad_trap>

80001c90 <inst_204>:
80001c90:	aaaabf37          	lui	t5,0xaaaab
80001c94:	aaaf0f13          	addi	t5,t5,-1366 # aaaaaaaa <imm12+0xaaaaafda>
80001c98:	0000beb7          	lui	t4,0xb
80001c9c:	505e8e93          	addi	t4,t4,1285 # b505 <offset+0xb2d1>
80001ca0:	03df2fb3          	mulhsu	t6,t5,t4
80001ca4:	2df42623          	sw	t6,716(s0)
80001ca8:	ffffc4b7          	lui	s1,0xffffc
80001cac:	3a848493          	addi	s1,s1,936 # ffffc3a8 <imm12+0xffffc8d8>
80001cb0:	01f48463          	beq	s1,t6,80001cb8 <inst_205>
80001cb4:	0500406f          	j	80005d04 <bad_trap>

80001cb8 <inst_205>:
80001cb8:	aaaabf37          	lui	t5,0xaaaab
80001cbc:	aaaf0f13          	addi	t5,t5,-1366 # aaaaaaaa <imm12+0xaaaaafda>
80001cc0:	00100e93          	li	t4,1
80001cc4:	03df2fb3          	mulhsu	t6,t5,t4
80001cc8:	2df42823          	sw	t6,720(s0)
80001ccc:	fff00493          	li	s1,-1
80001cd0:	01f48463          	beq	s1,t6,80001cd8 <inst_206>
80001cd4:	0300406f          	j	80005d04 <bad_trap>

80001cd8 <inst_206>:
80001cd8:	00500f13          	li	t5,5
80001cdc:	00300e93          	li	t4,3
80001ce0:	03df2fb3          	mulhsu	t6,t5,t4
80001ce4:	2df42a23          	sw	t6,724(s0)
80001ce8:	00000493          	li	s1,0
80001cec:	01f48463          	beq	s1,t6,80001cf4 <inst_207>
80001cf0:	0140406f          	j	80005d04 <bad_trap>

80001cf4 <inst_207>:
80001cf4:	00500f13          	li	t5,5
80001cf8:	55555eb7          	lui	t4,0x55555
80001cfc:	555e8e93          	addi	t4,t4,1365 # 55555555 <absimm+0x10263026>
80001d00:	03df2fb3          	mulhsu	t6,t5,t4
80001d04:	2df42c23          	sw	t6,728(s0)
80001d08:	00100493          	li	s1,1
80001d0c:	01f48463          	beq	s1,t6,80001d14 <inst_208>
80001d10:	7f50306f          	j	80005d04 <bad_trap>

80001d14 <inst_208>:
80001d14:	00500f13          	li	t5,5
80001d18:	aaaabeb7          	lui	t4,0xaaaab
80001d1c:	aaae8e93          	addi	t4,t4,-1366 # aaaaaaaa <imm12+0xaaaaafda>
80001d20:	03df2fb3          	mulhsu	t6,t5,t4
80001d24:	2df42e23          	sw	t6,732(s0)
80001d28:	00300493          	li	s1,3
80001d2c:	01f48463          	beq	s1,t6,80001d34 <inst_209>
80001d30:	7d50306f          	j	80005d04 <bad_trap>

80001d34 <inst_209>:
80001d34:	00500f13          	li	t5,5
80001d38:	00500e93          	li	t4,5
80001d3c:	03df2fb3          	mulhsu	t6,t5,t4
80001d40:	2ff42023          	sw	t6,736(s0)
80001d44:	00000493          	li	s1,0
80001d48:	01f48463          	beq	s1,t6,80001d50 <inst_210>
80001d4c:	7b90306f          	j	80005d04 <bad_trap>

80001d50 <inst_210>:
80001d50:	00500f13          	li	t5,5
80001d54:	33333eb7          	lui	t4,0x33333
80001d58:	333e8e93          	addi	t4,t4,819 # 33333333 <offset+0x333330ff>
80001d5c:	03df2fb3          	mulhsu	t6,t5,t4
80001d60:	2ff42223          	sw	t6,740(s0)
80001d64:	00000493          	li	s1,0
80001d68:	01f48463          	beq	s1,t6,80001d70 <inst_211>
80001d6c:	7990306f          	j	80005d04 <bad_trap>

80001d70 <inst_211>:
80001d70:	00500f13          	li	t5,5
80001d74:	66666eb7          	lui	t4,0x66666
80001d78:	666e8e93          	addi	t4,t4,1638 # 66666666 <absimm+0x21374137>
80001d7c:	03df2fb3          	mulhsu	t6,t5,t4
80001d80:	2ff42423          	sw	t6,744(s0)
80001d84:	00100493          	li	s1,1
80001d88:	01f48463          	beq	s1,t6,80001d90 <inst_212>
80001d8c:	7790306f          	j	80005d04 <bad_trap>

80001d90 <inst_212>:
80001d90:	00500f13          	li	t5,5
80001d94:	0000beb7          	lui	t4,0xb
80001d98:	504e8e93          	addi	t4,t4,1284 # b504 <offset+0xb2d0>
80001d9c:	03df2fb3          	mulhsu	t6,t5,t4
80001da0:	2ff42623          	sw	t6,748(s0)
80001da4:	00000493          	li	s1,0
80001da8:	01f48463          	beq	s1,t6,80001db0 <inst_213>
80001dac:	7590306f          	j	80005d04 <bad_trap>

80001db0 <inst_213>:
80001db0:	00500f13          	li	t5,5
80001db4:	00010eb7          	lui	t4,0x10
80001db8:	fffe8e93          	addi	t4,t4,-1 # ffff <offset+0xfdcb>
80001dbc:	03df2fb3          	mulhsu	t6,t5,t4
80001dc0:	2ff42823          	sw	t6,752(s0)
80001dc4:	00000493          	li	s1,0
80001dc8:	01f48463          	beq	s1,t6,80001dd0 <inst_214>
80001dcc:	7390306f          	j	80005d04 <bad_trap>

80001dd0 <inst_214>:
80001dd0:	00500f13          	li	t5,5
80001dd4:	00200e93          	li	t4,2
80001dd8:	03df2fb3          	mulhsu	t6,t5,t4
80001ddc:	2ff42a23          	sw	t6,756(s0)
80001de0:	00000493          	li	s1,0
80001de4:	01f48463          	beq	s1,t6,80001dec <inst_215>
80001de8:	71d0306f          	j	80005d04 <bad_trap>

80001dec <inst_215>:
80001dec:	00500f13          	li	t5,5
80001df0:	55555eb7          	lui	t4,0x55555
80001df4:	554e8e93          	addi	t4,t4,1364 # 55555554 <absimm+0x10263025>
80001df8:	03df2fb3          	mulhsu	t6,t5,t4
80001dfc:	2ff42c23          	sw	t6,760(s0)
80001e00:	00100493          	li	s1,1
80001e04:	01f48463          	beq	s1,t6,80001e0c <inst_216>
80001e08:	6fd0306f          	j	80005d04 <bad_trap>

80001e0c <inst_216>:
80001e0c:	00500f13          	li	t5,5
80001e10:	aaaabeb7          	lui	t4,0xaaaab
80001e14:	aa9e8e93          	addi	t4,t4,-1367 # aaaaaaa9 <imm12+0xaaaaafd9>
80001e18:	03df2fb3          	mulhsu	t6,t5,t4
80001e1c:	2ff42e23          	sw	t6,764(s0)
80001e20:	00300493          	li	s1,3
80001e24:	01f48463          	beq	s1,t6,80001e2c <inst_217>
80001e28:	6dd0306f          	j	80005d04 <bad_trap>

80001e2c <inst_217>:
80001e2c:	00500f13          	li	t5,5
80001e30:	33333eb7          	lui	t4,0x33333
80001e34:	332e8e93          	addi	t4,t4,818 # 33333332 <offset+0x333330fe>
80001e38:	03df2fb3          	mulhsu	t6,t5,t4
80001e3c:	31f42023          	sw	t6,768(s0)
80001e40:	00000493          	li	s1,0
80001e44:	01f48463          	beq	s1,t6,80001e4c <inst_218>
80001e48:	6bd0306f          	j	80005d04 <bad_trap>

80001e4c <inst_218>:
80001e4c:	00500f13          	li	t5,5
80001e50:	66666eb7          	lui	t4,0x66666
80001e54:	665e8e93          	addi	t4,t4,1637 # 66666665 <absimm+0x21374136>
80001e58:	03df2fb3          	mulhsu	t6,t5,t4
80001e5c:	31f42223          	sw	t6,772(s0)
80001e60:	00100493          	li	s1,1
80001e64:	01f48463          	beq	s1,t6,80001e6c <inst_219>
80001e68:	69d0306f          	j	80005d04 <bad_trap>

80001e6c <inst_219>:
80001e6c:	00500f13          	li	t5,5
80001e70:	0000beb7          	lui	t4,0xb
80001e74:	503e8e93          	addi	t4,t4,1283 # b503 <offset+0xb2cf>
80001e78:	03df2fb3          	mulhsu	t6,t5,t4
80001e7c:	31f42423          	sw	t6,776(s0)
80001e80:	00000493          	li	s1,0
80001e84:	01f48463          	beq	s1,t6,80001e8c <inst_220>
80001e88:	67d0306f          	j	80005d04 <bad_trap>

80001e8c <inst_220>:
80001e8c:	00500f13          	li	t5,5
80001e90:	00000e93          	li	t4,0
80001e94:	03df2fb3          	mulhsu	t6,t5,t4
80001e98:	31f42623          	sw	t6,780(s0)
80001e9c:	00000493          	li	s1,0
80001ea0:	01f48463          	beq	s1,t6,80001ea8 <inst_221>
80001ea4:	6610306f          	j	80005d04 <bad_trap>

80001ea8 <inst_221>:
80001ea8:	00500f13          	li	t5,5
80001eac:	00010eb7          	lui	t4,0x10
80001eb0:	ffee8e93          	addi	t4,t4,-2 # fffe <offset+0xfdca>
80001eb4:	03df2fb3          	mulhsu	t6,t5,t4
80001eb8:	31f42823          	sw	t6,784(s0)
80001ebc:	00000493          	li	s1,0
80001ec0:	01f48463          	beq	s1,t6,80001ec8 <inst_222>
80001ec4:	6410306f          	j	80005d04 <bad_trap>

80001ec8 <inst_222>:
80001ec8:	00500f13          	li	t5,5
80001ecc:	00400e93          	li	t4,4
80001ed0:	03df2fb3          	mulhsu	t6,t5,t4
80001ed4:	31f42a23          	sw	t6,788(s0)
80001ed8:	00000493          	li	s1,0
80001edc:	01f48463          	beq	s1,t6,80001ee4 <inst_223>
80001ee0:	6250306f          	j	80005d04 <bad_trap>

80001ee4 <inst_223>:
80001ee4:	00500f13          	li	t5,5
80001ee8:	55555eb7          	lui	t4,0x55555
80001eec:	556e8e93          	addi	t4,t4,1366 # 55555556 <absimm+0x10263027>
80001ef0:	03df2fb3          	mulhsu	t6,t5,t4
80001ef4:	31f42c23          	sw	t6,792(s0)
80001ef8:	00100493          	li	s1,1
80001efc:	01f48463          	beq	s1,t6,80001f04 <inst_224>
80001f00:	6050306f          	j	80005d04 <bad_trap>

80001f04 <inst_224>:
80001f04:	00500f13          	li	t5,5
80001f08:	aaaabeb7          	lui	t4,0xaaaab
80001f0c:	aabe8e93          	addi	t4,t4,-1365 # aaaaaaab <imm12+0xaaaaafdb>
80001f10:	03df2fb3          	mulhsu	t6,t5,t4
80001f14:	31f42e23          	sw	t6,796(s0)
80001f18:	00300493          	li	s1,3
80001f1c:	01f48463          	beq	s1,t6,80001f24 <inst_225>
80001f20:	5e50306f          	j	80005d04 <bad_trap>

80001f24 <inst_225>:
80001f24:	00500f13          	li	t5,5
80001f28:	00600e93          	li	t4,6
80001f2c:	03df2fb3          	mulhsu	t6,t5,t4
80001f30:	33f42023          	sw	t6,800(s0)
80001f34:	00000493          	li	s1,0
80001f38:	01f48463          	beq	s1,t6,80001f40 <inst_226>
80001f3c:	5c90306f          	j	80005d04 <bad_trap>

80001f40 <inst_226>:
80001f40:	00500f13          	li	t5,5
80001f44:	33333eb7          	lui	t4,0x33333
80001f48:	334e8e93          	addi	t4,t4,820 # 33333334 <offset+0x33333100>
80001f4c:	03df2fb3          	mulhsu	t6,t5,t4
80001f50:	33f42223          	sw	t6,804(s0)
80001f54:	00100493          	li	s1,1
80001f58:	01f48463          	beq	s1,t6,80001f60 <inst_227>
80001f5c:	5a90306f          	j	80005d04 <bad_trap>

80001f60 <inst_227>:
80001f60:	00500f13          	li	t5,5
80001f64:	66666eb7          	lui	t4,0x66666
80001f68:	667e8e93          	addi	t4,t4,1639 # 66666667 <absimm+0x21374138>
80001f6c:	03df2fb3          	mulhsu	t6,t5,t4
80001f70:	33f42423          	sw	t6,808(s0)
80001f74:	00200493          	li	s1,2
80001f78:	01f48463          	beq	s1,t6,80001f80 <inst_228>
80001f7c:	5890306f          	j	80005d04 <bad_trap>

80001f80 <inst_228>:
80001f80:	00500f13          	li	t5,5
80001f84:	0000beb7          	lui	t4,0xb
80001f88:	505e8e93          	addi	t4,t4,1285 # b505 <offset+0xb2d1>
80001f8c:	03df2fb3          	mulhsu	t6,t5,t4
80001f90:	33f42623          	sw	t6,812(s0)
80001f94:	00000493          	li	s1,0
80001f98:	01f48463          	beq	s1,t6,80001fa0 <inst_229>
80001f9c:	5690306f          	j	80005d04 <bad_trap>

80001fa0 <inst_229>:
80001fa0:	00500f13          	li	t5,5
80001fa4:	00100e93          	li	t4,1
80001fa8:	03df2fb3          	mulhsu	t6,t5,t4
80001fac:	33f42823          	sw	t6,816(s0)
80001fb0:	00000493          	li	s1,0
80001fb4:	01f48463          	beq	s1,t6,80001fbc <inst_230>
80001fb8:	54d0306f          	j	80005d04 <bad_trap>

80001fbc <inst_230>:
80001fbc:	00500f13          	li	t5,5
80001fc0:	00010eb7          	lui	t4,0x10
80001fc4:	03df2fb3          	mulhsu	t6,t5,t4
80001fc8:	33f42a23          	sw	t6,820(s0)
80001fcc:	00000493          	li	s1,0
80001fd0:	01f48463          	beq	s1,t6,80001fd8 <inst_231>
80001fd4:	5310306f          	j	80005d04 <bad_trap>

80001fd8 <inst_231>:
80001fd8:	33333f37          	lui	t5,0x33333
80001fdc:	333f0f13          	addi	t5,t5,819 # 33333333 <offset+0x333330ff>
80001fe0:	00300e93          	li	t4,3
80001fe4:	03df2fb3          	mulhsu	t6,t5,t4
80001fe8:	33f42c23          	sw	t6,824(s0)
80001fec:	00000493          	li	s1,0
80001ff0:	01f48463          	beq	s1,t6,80001ff8 <inst_232>
80001ff4:	5110306f          	j	80005d04 <bad_trap>

80001ff8 <inst_232>:
80001ff8:	33333f37          	lui	t5,0x33333
80001ffc:	333f0f13          	addi	t5,t5,819 # 33333333 <offset+0x333330ff>
80002000:	55555eb7          	lui	t4,0x55555
80002004:	555e8e93          	addi	t4,t4,1365 # 55555555 <absimm+0x10263026>
80002008:	03df2fb3          	mulhsu	t6,t5,t4
8000200c:	33f42e23          	sw	t6,828(s0)
80002010:	111114b7          	lui	s1,0x11111
80002014:	11048493          	addi	s1,s1,272 # 11111110 <offset+0x11110edc>
80002018:	01f48463          	beq	s1,t6,80002020 <inst_233>
8000201c:	4e90306f          	j	80005d04 <bad_trap>

80002020 <inst_233>:
80002020:	33333f37          	lui	t5,0x33333
80002024:	333f0f13          	addi	t5,t5,819 # 33333333 <offset+0x333330ff>
80002028:	aaaabeb7          	lui	t4,0xaaaab
8000202c:	aaae8e93          	addi	t4,t4,-1366 # aaaaaaaa <imm12+0xaaaaafda>
80002030:	03df2fb3          	mulhsu	t6,t5,t4
80002034:	35f42023          	sw	t6,832(s0)
80002038:	222224b7          	lui	s1,0x22222
8000203c:	22148493          	addi	s1,s1,545 # 22222221 <offset+0x22221fed>
80002040:	01f48463          	beq	s1,t6,80002048 <inst_234>
80002044:	4c10306f          	j	80005d04 <bad_trap>

80002048 <inst_234>:
80002048:	33333f37          	lui	t5,0x33333
8000204c:	333f0f13          	addi	t5,t5,819 # 33333333 <offset+0x333330ff>
80002050:	00500e93          	li	t4,5
80002054:	03df2fb3          	mulhsu	t6,t5,t4
80002058:	35f42223          	sw	t6,836(s0)
8000205c:	00000493          	li	s1,0
80002060:	01f48463          	beq	s1,t6,80002068 <inst_235>
80002064:	4a10306f          	j	80005d04 <bad_trap>

80002068 <inst_235>:
80002068:	33333f37          	lui	t5,0x33333
8000206c:	333f0f13          	addi	t5,t5,819 # 33333333 <offset+0x333330ff>
80002070:	33333eb7          	lui	t4,0x33333
80002074:	333e8e93          	addi	t4,t4,819 # 33333333 <offset+0x333330ff>
80002078:	03df2fb3          	mulhsu	t6,t5,t4
8000207c:	35f42423          	sw	t6,840(s0)
80002080:	0a3d74b7          	lui	s1,0xa3d7
80002084:	0a348493          	addi	s1,s1,163 # a3d70a3 <offset+0xa3d6e6f>
80002088:	01f48463          	beq	s1,t6,80002090 <inst_236>
8000208c:	4790306f          	j	80005d04 <bad_trap>

80002090 <inst_236>:
80002090:	33333f37          	lui	t5,0x33333
80002094:	333f0f13          	addi	t5,t5,819 # 33333333 <offset+0x333330ff>
80002098:	66666eb7          	lui	t4,0x66666
8000209c:	666e8e93          	addi	t4,t4,1638 # 66666666 <absimm+0x21374137>
800020a0:	03df2fb3          	mulhsu	t6,t5,t4
800020a4:	35f42623          	sw	t6,844(s0)
800020a8:	147ae4b7          	lui	s1,0x147ae
800020ac:	14748493          	addi	s1,s1,327 # 147ae147 <offset+0x147adf13>
800020b0:	01f48463          	beq	s1,t6,800020b8 <inst_237>
800020b4:	4510306f          	j	80005d04 <bad_trap>

800020b8 <inst_237>:
800020b8:	33333f37          	lui	t5,0x33333
800020bc:	333f0f13          	addi	t5,t5,819 # 33333333 <offset+0x333330ff>
800020c0:	0000beb7          	lui	t4,0xb
800020c4:	504e8e93          	addi	t4,t4,1284 # b504 <offset+0xb2d0>
800020c8:	03df2fb3          	mulhsu	t6,t5,t4
800020cc:	35f42823          	sw	t6,848(s0)
800020d0:	000024b7          	lui	s1,0x2
800020d4:	43348493          	addi	s1,s1,1075 # 2433 <offset+0x21ff>
800020d8:	01f48463          	beq	s1,t6,800020e0 <inst_238>
800020dc:	4290306f          	j	80005d04 <bad_trap>

800020e0 <inst_238>:
800020e0:	33333f37          	lui	t5,0x33333
800020e4:	333f0f13          	addi	t5,t5,819 # 33333333 <offset+0x333330ff>
800020e8:	00010eb7          	lui	t4,0x10
800020ec:	fffe8e93          	addi	t4,t4,-1 # ffff <offset+0xfdcb>
800020f0:	03df2fb3          	mulhsu	t6,t5,t4
800020f4:	35f42a23          	sw	t6,852(s0)
800020f8:	000034b7          	lui	s1,0x3
800020fc:	33248493          	addi	s1,s1,818 # 3332 <offset+0x30fe>
80002100:	01f48463          	beq	s1,t6,80002108 <inst_239>
80002104:	4010306f          	j	80005d04 <bad_trap>

80002108 <inst_239>:
80002108:	33333f37          	lui	t5,0x33333
8000210c:	333f0f13          	addi	t5,t5,819 # 33333333 <offset+0x333330ff>
80002110:	00200e93          	li	t4,2
80002114:	03df2fb3          	mulhsu	t6,t5,t4
80002118:	35f42c23          	sw	t6,856(s0)
8000211c:	00000493          	li	s1,0
80002120:	01f48463          	beq	s1,t6,80002128 <inst_240>
80002124:	3e10306f          	j	80005d04 <bad_trap>

80002128 <inst_240>:
80002128:	33333f37          	lui	t5,0x33333
8000212c:	333f0f13          	addi	t5,t5,819 # 33333333 <offset+0x333330ff>
80002130:	55555eb7          	lui	t4,0x55555
80002134:	554e8e93          	addi	t4,t4,1364 # 55555554 <absimm+0x10263025>
80002138:	03df2fb3          	mulhsu	t6,t5,t4
8000213c:	35f42e23          	sw	t6,860(s0)
80002140:	111114b7          	lui	s1,0x11111
80002144:	11048493          	addi	s1,s1,272 # 11111110 <offset+0x11110edc>
80002148:	01f48463          	beq	s1,t6,80002150 <inst_241>
8000214c:	3b90306f          	j	80005d04 <bad_trap>

80002150 <inst_241>:
80002150:	33333f37          	lui	t5,0x33333
80002154:	333f0f13          	addi	t5,t5,819 # 33333333 <offset+0x333330ff>
80002158:	aaaabeb7          	lui	t4,0xaaaab
8000215c:	aa9e8e93          	addi	t4,t4,-1367 # aaaaaaa9 <imm12+0xaaaaafd9>
80002160:	03df2fb3          	mulhsu	t6,t5,t4
80002164:	37f42023          	sw	t6,864(s0)
80002168:	222224b7          	lui	s1,0x22222
8000216c:	22148493          	addi	s1,s1,545 # 22222221 <offset+0x22221fed>
80002170:	01f48463          	beq	s1,t6,80002178 <inst_242>
80002174:	3910306f          	j	80005d04 <bad_trap>

80002178 <inst_242>:
80002178:	33333f37          	lui	t5,0x33333
8000217c:	333f0f13          	addi	t5,t5,819 # 33333333 <offset+0x333330ff>
80002180:	33333eb7          	lui	t4,0x33333
80002184:	332e8e93          	addi	t4,t4,818 # 33333332 <offset+0x333330fe>
80002188:	03df2fb3          	mulhsu	t6,t5,t4
8000218c:	37f42223          	sw	t6,868(s0)
80002190:	0a3d74b7          	lui	s1,0xa3d7
80002194:	0a348493          	addi	s1,s1,163 # a3d70a3 <offset+0xa3d6e6f>
80002198:	01f48463          	beq	s1,t6,800021a0 <inst_243>
8000219c:	3690306f          	j	80005d04 <bad_trap>

800021a0 <inst_243>:
800021a0:	33333f37          	lui	t5,0x33333
800021a4:	333f0f13          	addi	t5,t5,819 # 33333333 <offset+0x333330ff>
800021a8:	66666eb7          	lui	t4,0x66666
800021ac:	665e8e93          	addi	t4,t4,1637 # 66666665 <absimm+0x21374136>
800021b0:	03df2fb3          	mulhsu	t6,t5,t4
800021b4:	37f42423          	sw	t6,872(s0)
800021b8:	147ae4b7          	lui	s1,0x147ae
800021bc:	14748493          	addi	s1,s1,327 # 147ae147 <offset+0x147adf13>
800021c0:	01f48463          	beq	s1,t6,800021c8 <inst_244>
800021c4:	3410306f          	j	80005d04 <bad_trap>

800021c8 <inst_244>:
800021c8:	33333f37          	lui	t5,0x33333
800021cc:	333f0f13          	addi	t5,t5,819 # 33333333 <offset+0x333330ff>
800021d0:	0000beb7          	lui	t4,0xb
800021d4:	503e8e93          	addi	t4,t4,1283 # b503 <offset+0xb2cf>
800021d8:	03df2fb3          	mulhsu	t6,t5,t4
800021dc:	37f42623          	sw	t6,876(s0)
800021e0:	000024b7          	lui	s1,0x2
800021e4:	43348493          	addi	s1,s1,1075 # 2433 <offset+0x21ff>
800021e8:	01f48463          	beq	s1,t6,800021f0 <inst_245>
800021ec:	3190306f          	j	80005d04 <bad_trap>

800021f0 <inst_245>:
800021f0:	33333f37          	lui	t5,0x33333
800021f4:	333f0f13          	addi	t5,t5,819 # 33333333 <offset+0x333330ff>
800021f8:	00000e93          	li	t4,0
800021fc:	03df2fb3          	mulhsu	t6,t5,t4
80002200:	37f42823          	sw	t6,880(s0)
80002204:	00000493          	li	s1,0
80002208:	01f48463          	beq	s1,t6,80002210 <inst_246>
8000220c:	2f90306f          	j	80005d04 <bad_trap>

80002210 <inst_246>:
80002210:	33333f37          	lui	t5,0x33333
80002214:	333f0f13          	addi	t5,t5,819 # 33333333 <offset+0x333330ff>
80002218:	00010eb7          	lui	t4,0x10
8000221c:	ffee8e93          	addi	t4,t4,-2 # fffe <offset+0xfdca>
80002220:	03df2fb3          	mulhsu	t6,t5,t4
80002224:	37f42a23          	sw	t6,884(s0)
80002228:	000034b7          	lui	s1,0x3
8000222c:	33248493          	addi	s1,s1,818 # 3332 <offset+0x30fe>
80002230:	01f48463          	beq	s1,t6,80002238 <inst_247>
80002234:	2d10306f          	j	80005d04 <bad_trap>

80002238 <inst_247>:
80002238:	33333f37          	lui	t5,0x33333
8000223c:	333f0f13          	addi	t5,t5,819 # 33333333 <offset+0x333330ff>
80002240:	00400e93          	li	t4,4
80002244:	03df2fb3          	mulhsu	t6,t5,t4
80002248:	37f42c23          	sw	t6,888(s0)
8000224c:	00000493          	li	s1,0
80002250:	01f48463          	beq	s1,t6,80002258 <inst_248>
80002254:	2b10306f          	j	80005d04 <bad_trap>

80002258 <inst_248>:
80002258:	33333f37          	lui	t5,0x33333
8000225c:	333f0f13          	addi	t5,t5,819 # 33333333 <offset+0x333330ff>
80002260:	55555eb7          	lui	t4,0x55555
80002264:	556e8e93          	addi	t4,t4,1366 # 55555556 <absimm+0x10263027>
80002268:	03df2fb3          	mulhsu	t6,t5,t4
8000226c:	37f42e23          	sw	t6,892(s0)
80002270:	111114b7          	lui	s1,0x11111
80002274:	11148493          	addi	s1,s1,273 # 11111111 <offset+0x11110edd>
80002278:	01f48463          	beq	s1,t6,80002280 <inst_249>
8000227c:	2890306f          	j	80005d04 <bad_trap>

80002280 <inst_249>:
80002280:	33333f37          	lui	t5,0x33333
80002284:	333f0f13          	addi	t5,t5,819 # 33333333 <offset+0x333330ff>
80002288:	aaaabeb7          	lui	t4,0xaaaab
8000228c:	aabe8e93          	addi	t4,t4,-1365 # aaaaaaab <imm12+0xaaaaafdb>
80002290:	03df2fb3          	mulhsu	t6,t5,t4
80002294:	39f42023          	sw	t6,896(s0)
80002298:	222224b7          	lui	s1,0x22222
8000229c:	22248493          	addi	s1,s1,546 # 22222222 <offset+0x22221fee>
800022a0:	01f48463          	beq	s1,t6,800022a8 <inst_250>
800022a4:	2610306f          	j	80005d04 <bad_trap>

800022a8 <inst_250>:
800022a8:	33333f37          	lui	t5,0x33333
800022ac:	333f0f13          	addi	t5,t5,819 # 33333333 <offset+0x333330ff>
800022b0:	00600e93          	li	t4,6
800022b4:	03df2fb3          	mulhsu	t6,t5,t4
800022b8:	39f42223          	sw	t6,900(s0)
800022bc:	00100493          	li	s1,1
800022c0:	01f48463          	beq	s1,t6,800022c8 <inst_251>
800022c4:	2410306f          	j	80005d04 <bad_trap>

800022c8 <inst_251>:
800022c8:	33333f37          	lui	t5,0x33333
800022cc:	333f0f13          	addi	t5,t5,819 # 33333333 <offset+0x333330ff>
800022d0:	33333eb7          	lui	t4,0x33333
800022d4:	334e8e93          	addi	t4,t4,820 # 33333334 <offset+0x33333100>
800022d8:	03df2fb3          	mulhsu	t6,t5,t4
800022dc:	39f42423          	sw	t6,904(s0)
800022e0:	0a3d74b7          	lui	s1,0xa3d7
800022e4:	0a348493          	addi	s1,s1,163 # a3d70a3 <offset+0xa3d6e6f>
800022e8:	01f48463          	beq	s1,t6,800022f0 <inst_252>
800022ec:	2190306f          	j	80005d04 <bad_trap>

800022f0 <inst_252>:
800022f0:	33333f37          	lui	t5,0x33333
800022f4:	333f0f13          	addi	t5,t5,819 # 33333333 <offset+0x333330ff>
800022f8:	66666eb7          	lui	t4,0x66666
800022fc:	667e8e93          	addi	t4,t4,1639 # 66666667 <absimm+0x21374138>
80002300:	03df2fb3          	mulhsu	t6,t5,t4
80002304:	39f42623          	sw	t6,908(s0)
80002308:	147ae4b7          	lui	s1,0x147ae
8000230c:	14748493          	addi	s1,s1,327 # 147ae147 <offset+0x147adf13>
80002310:	01f48463          	beq	s1,t6,80002318 <inst_253>
80002314:	1f10306f          	j	80005d04 <bad_trap>

80002318 <inst_253>:
80002318:	33333f37          	lui	t5,0x33333
8000231c:	333f0f13          	addi	t5,t5,819 # 33333333 <offset+0x333330ff>
80002320:	0000beb7          	lui	t4,0xb
80002324:	505e8e93          	addi	t4,t4,1285 # b505 <offset+0xb2d1>
80002328:	03df2fb3          	mulhsu	t6,t5,t4
8000232c:	39f42823          	sw	t6,912(s0)
80002330:	000024b7          	lui	s1,0x2
80002334:	43448493          	addi	s1,s1,1076 # 2434 <offset+0x2200>
80002338:	01f48463          	beq	s1,t6,80002340 <inst_254>
8000233c:	1c90306f          	j	80005d04 <bad_trap>

80002340 <inst_254>:
80002340:	33333f37          	lui	t5,0x33333
80002344:	333f0f13          	addi	t5,t5,819 # 33333333 <offset+0x333330ff>
80002348:	00100e93          	li	t4,1
8000234c:	03df2fb3          	mulhsu	t6,t5,t4
80002350:	39f42a23          	sw	t6,916(s0)
80002354:	00000493          	li	s1,0
80002358:	01f48463          	beq	s1,t6,80002360 <inst_255>
8000235c:	1a90306f          	j	80005d04 <bad_trap>

80002360 <inst_255>:
80002360:	33333f37          	lui	t5,0x33333
80002364:	333f0f13          	addi	t5,t5,819 # 33333333 <offset+0x333330ff>
80002368:	00010eb7          	lui	t4,0x10
8000236c:	03df2fb3          	mulhsu	t6,t5,t4
80002370:	39f42c23          	sw	t6,920(s0)
80002374:	000034b7          	lui	s1,0x3
80002378:	33348493          	addi	s1,s1,819 # 3333 <offset+0x30ff>
8000237c:	01f48463          	beq	s1,t6,80002384 <inst_256>
80002380:	1850306f          	j	80005d04 <bad_trap>

80002384 <inst_256>:
80002384:	66666f37          	lui	t5,0x66666
80002388:	666f0f13          	addi	t5,t5,1638 # 66666666 <absimm+0x21374137>
8000238c:	00300e93          	li	t4,3
80002390:	03df2fb3          	mulhsu	t6,t5,t4
80002394:	39f42e23          	sw	t6,924(s0)
80002398:	00100493          	li	s1,1
8000239c:	01f48463          	beq	s1,t6,800023a4 <inst_257>
800023a0:	1650306f          	j	80005d04 <bad_trap>

800023a4 <inst_257>:
800023a4:	66666f37          	lui	t5,0x66666
800023a8:	666f0f13          	addi	t5,t5,1638 # 66666666 <absimm+0x21374137>
800023ac:	55555eb7          	lui	t4,0x55555
800023b0:	555e8e93          	addi	t4,t4,1365 # 55555555 <absimm+0x10263026>
800023b4:	03df2fb3          	mulhsu	t6,t5,t4
800023b8:	3bf42023          	sw	t6,928(s0)
800023bc:	222224b7          	lui	s1,0x22222
800023c0:	22148493          	addi	s1,s1,545 # 22222221 <offset+0x22221fed>
800023c4:	01f48463          	beq	s1,t6,800023cc <inst_258>
800023c8:	13d0306f          	j	80005d04 <bad_trap>

800023cc <inst_258>:
800023cc:	66666f37          	lui	t5,0x66666
800023d0:	666f0f13          	addi	t5,t5,1638 # 66666666 <absimm+0x21374137>
800023d4:	aaaabeb7          	lui	t4,0xaaaab
800023d8:	aaae8e93          	addi	t4,t4,-1366 # aaaaaaaa <imm12+0xaaaaafda>
800023dc:	03df2fb3          	mulhsu	t6,t5,t4
800023e0:	3bf42223          	sw	t6,932(s0)
800023e4:	444444b7          	lui	s1,0x44444
800023e8:	44348493          	addi	s1,s1,1091 # 44444443 <offset+0x4444420f>
800023ec:	01f48463          	beq	s1,t6,800023f4 <inst_259>
800023f0:	1150306f          	j	80005d04 <bad_trap>

800023f4 <inst_259>:
800023f4:	66666f37          	lui	t5,0x66666
800023f8:	666f0f13          	addi	t5,t5,1638 # 66666666 <absimm+0x21374137>
800023fc:	00500e93          	li	t4,5
80002400:	03df2fb3          	mulhsu	t6,t5,t4
80002404:	3bf42423          	sw	t6,936(s0)
80002408:	00100493          	li	s1,1
8000240c:	01f48463          	beq	s1,t6,80002414 <inst_260>
80002410:	0f50306f          	j	80005d04 <bad_trap>

80002414 <inst_260>:
80002414:	66666f37          	lui	t5,0x66666
80002418:	666f0f13          	addi	t5,t5,1638 # 66666666 <absimm+0x21374137>
8000241c:	33333eb7          	lui	t4,0x33333
80002420:	333e8e93          	addi	t4,t4,819 # 33333333 <offset+0x333330ff>
80002424:	03df2fb3          	mulhsu	t6,t5,t4
80002428:	3bf42623          	sw	t6,940(s0)
8000242c:	147ae4b7          	lui	s1,0x147ae
80002430:	14748493          	addi	s1,s1,327 # 147ae147 <offset+0x147adf13>
80002434:	01f48463          	beq	s1,t6,8000243c <inst_261>
80002438:	0cd0306f          	j	80005d04 <bad_trap>

8000243c <inst_261>:
8000243c:	66666f37          	lui	t5,0x66666
80002440:	666f0f13          	addi	t5,t5,1638 # 66666666 <absimm+0x21374137>
80002444:	66666eb7          	lui	t4,0x66666
80002448:	666e8e93          	addi	t4,t4,1638 # 66666666 <absimm+0x21374137>
8000244c:	03df2fb3          	mulhsu	t6,t5,t4
80002450:	3bf42823          	sw	t6,944(s0)
80002454:	28f5c4b7          	lui	s1,0x28f5c
80002458:	28f48493          	addi	s1,s1,655 # 28f5c28f <offset+0x28f5c05b>
8000245c:	01f48463          	beq	s1,t6,80002464 <inst_262>
80002460:	0a50306f          	j	80005d04 <bad_trap>

80002464 <inst_262>:
80002464:	66666f37          	lui	t5,0x66666
80002468:	666f0f13          	addi	t5,t5,1638 # 66666666 <absimm+0x21374137>
8000246c:	0000beb7          	lui	t4,0xb
80002470:	504e8e93          	addi	t4,t4,1284 # b504 <offset+0xb2d0>
80002474:	03df2fb3          	mulhsu	t6,t5,t4
80002478:	3bf42a23          	sw	t6,948(s0)
8000247c:	000054b7          	lui	s1,0x5
80002480:	86748493          	addi	s1,s1,-1945 # 4867 <offset+0x4633>
80002484:	01f48463          	beq	s1,t6,8000248c <inst_263>
80002488:	07d0306f          	j	80005d04 <bad_trap>

8000248c <inst_263>:
8000248c:	66666f37          	lui	t5,0x66666
80002490:	666f0f13          	addi	t5,t5,1638 # 66666666 <absimm+0x21374137>
80002494:	00010eb7          	lui	t4,0x10
80002498:	fffe8e93          	addi	t4,t4,-1 # ffff <offset+0xfdcb>
8000249c:	03df2fb3          	mulhsu	t6,t5,t4
800024a0:	3bf42c23          	sw	t6,952(s0)
800024a4:	000064b7          	lui	s1,0x6
800024a8:	66548493          	addi	s1,s1,1637 # 6665 <offset+0x6431>
800024ac:	01f48463          	beq	s1,t6,800024b4 <inst_264>
800024b0:	0550306f          	j	80005d04 <bad_trap>

800024b4 <inst_264>:
800024b4:	66666f37          	lui	t5,0x66666
800024b8:	666f0f13          	addi	t5,t5,1638 # 66666666 <absimm+0x21374137>
800024bc:	00200e93          	li	t4,2
800024c0:	03df2fb3          	mulhsu	t6,t5,t4
800024c4:	3bf42e23          	sw	t6,956(s0)
800024c8:	00000493          	li	s1,0
800024cc:	01f48463          	beq	s1,t6,800024d4 <inst_265>
800024d0:	0350306f          	j	80005d04 <bad_trap>

800024d4 <inst_265>:
800024d4:	66666f37          	lui	t5,0x66666
800024d8:	666f0f13          	addi	t5,t5,1638 # 66666666 <absimm+0x21374137>
800024dc:	55555eb7          	lui	t4,0x55555
800024e0:	554e8e93          	addi	t4,t4,1364 # 55555554 <absimm+0x10263025>
800024e4:	03df2fb3          	mulhsu	t6,t5,t4
800024e8:	3df42023          	sw	t6,960(s0)
800024ec:	222224b7          	lui	s1,0x22222
800024f0:	22148493          	addi	s1,s1,545 # 22222221 <offset+0x22221fed>
800024f4:	01f48463          	beq	s1,t6,800024fc <inst_266>
800024f8:	00d0306f          	j	80005d04 <bad_trap>

800024fc <inst_266>:
800024fc:	66666f37          	lui	t5,0x66666
80002500:	666f0f13          	addi	t5,t5,1638 # 66666666 <absimm+0x21374137>
80002504:	aaaabeb7          	lui	t4,0xaaaab
80002508:	aa9e8e93          	addi	t4,t4,-1367 # aaaaaaa9 <imm12+0xaaaaafd9>
8000250c:	03df2fb3          	mulhsu	t6,t5,t4
80002510:	3df42223          	sw	t6,964(s0)
80002514:	444444b7          	lui	s1,0x44444
80002518:	44348493          	addi	s1,s1,1091 # 44444443 <offset+0x4444420f>
8000251c:	01f48463          	beq	s1,t6,80002524 <inst_267>
80002520:	7e40306f          	j	80005d04 <bad_trap>

80002524 <inst_267>:
80002524:	66666f37          	lui	t5,0x66666
80002528:	666f0f13          	addi	t5,t5,1638 # 66666666 <absimm+0x21374137>
8000252c:	33333eb7          	lui	t4,0x33333
80002530:	332e8e93          	addi	t4,t4,818 # 33333332 <offset+0x333330fe>
80002534:	03df2fb3          	mulhsu	t6,t5,t4
80002538:	3df42423          	sw	t6,968(s0)
8000253c:	147ae4b7          	lui	s1,0x147ae
80002540:	14748493          	addi	s1,s1,327 # 147ae147 <offset+0x147adf13>
80002544:	01f48463          	beq	s1,t6,8000254c <inst_268>
80002548:	7bc0306f          	j	80005d04 <bad_trap>

8000254c <inst_268>:
8000254c:	66666f37          	lui	t5,0x66666
80002550:	666f0f13          	addi	t5,t5,1638 # 66666666 <absimm+0x21374137>
80002554:	66666eb7          	lui	t4,0x66666
80002558:	665e8e93          	addi	t4,t4,1637 # 66666665 <absimm+0x21374136>
8000255c:	03df2fb3          	mulhsu	t6,t5,t4
80002560:	3df42623          	sw	t6,972(s0)
80002564:	28f5c4b7          	lui	s1,0x28f5c
80002568:	28e48493          	addi	s1,s1,654 # 28f5c28e <offset+0x28f5c05a>
8000256c:	01f48463          	beq	s1,t6,80002574 <inst_269>
80002570:	7940306f          	j	80005d04 <bad_trap>

80002574 <inst_269>:
80002574:	66666f37          	lui	t5,0x66666
80002578:	666f0f13          	addi	t5,t5,1638 # 66666666 <absimm+0x21374137>
8000257c:	0000beb7          	lui	t4,0xb
80002580:	503e8e93          	addi	t4,t4,1283 # b503 <offset+0xb2cf>
80002584:	03df2fb3          	mulhsu	t6,t5,t4
80002588:	3df42823          	sw	t6,976(s0)
8000258c:	000054b7          	lui	s1,0x5
80002590:	86748493          	addi	s1,s1,-1945 # 4867 <offset+0x4633>
80002594:	01f48463          	beq	s1,t6,8000259c <inst_270>
80002598:	76c0306f          	j	80005d04 <bad_trap>

8000259c <inst_270>:
8000259c:	66666f37          	lui	t5,0x66666
800025a0:	666f0f13          	addi	t5,t5,1638 # 66666666 <absimm+0x21374137>
800025a4:	00000e93          	li	t4,0
800025a8:	03df2fb3          	mulhsu	t6,t5,t4
800025ac:	3df42a23          	sw	t6,980(s0)
800025b0:	00000493          	li	s1,0
800025b4:	01f48463          	beq	s1,t6,800025bc <inst_271>
800025b8:	74c0306f          	j	80005d04 <bad_trap>

800025bc <inst_271>:
800025bc:	66666f37          	lui	t5,0x66666
800025c0:	666f0f13          	addi	t5,t5,1638 # 66666666 <absimm+0x21374137>
800025c4:	00010eb7          	lui	t4,0x10
800025c8:	ffee8e93          	addi	t4,t4,-2 # fffe <offset+0xfdca>
800025cc:	03df2fb3          	mulhsu	t6,t5,t4
800025d0:	3df42c23          	sw	t6,984(s0)
800025d4:	000064b7          	lui	s1,0x6
800025d8:	66548493          	addi	s1,s1,1637 # 6665 <offset+0x6431>
800025dc:	01f48463          	beq	s1,t6,800025e4 <inst_272>
800025e0:	7240306f          	j	80005d04 <bad_trap>

800025e4 <inst_272>:
800025e4:	66666f37          	lui	t5,0x66666
800025e8:	666f0f13          	addi	t5,t5,1638 # 66666666 <absimm+0x21374137>
800025ec:	00400e93          	li	t4,4
800025f0:	03df2fb3          	mulhsu	t6,t5,t4
800025f4:	3df42e23          	sw	t6,988(s0)
800025f8:	00100493          	li	s1,1
800025fc:	01f48463          	beq	s1,t6,80002604 <inst_273>
80002600:	7040306f          	j	80005d04 <bad_trap>

80002604 <inst_273>:
80002604:	66666f37          	lui	t5,0x66666
80002608:	666f0f13          	addi	t5,t5,1638 # 66666666 <absimm+0x21374137>
8000260c:	55555eb7          	lui	t4,0x55555
80002610:	556e8e93          	addi	t4,t4,1366 # 55555556 <absimm+0x10263027>
80002614:	03df2fb3          	mulhsu	t6,t5,t4
80002618:	3ff42023          	sw	t6,992(s0)
8000261c:	222224b7          	lui	s1,0x22222
80002620:	22248493          	addi	s1,s1,546 # 22222222 <offset+0x22221fee>
80002624:	01f48463          	beq	s1,t6,8000262c <inst_274>
80002628:	6dc0306f          	j	80005d04 <bad_trap>

8000262c <inst_274>:
8000262c:	66666f37          	lui	t5,0x66666
80002630:	666f0f13          	addi	t5,t5,1638 # 66666666 <absimm+0x21374137>
80002634:	aaaabeb7          	lui	t4,0xaaaab
80002638:	aabe8e93          	addi	t4,t4,-1365 # aaaaaaab <imm12+0xaaaaafdb>
8000263c:	03df2fb3          	mulhsu	t6,t5,t4
80002640:	3ff42223          	sw	t6,996(s0)
80002644:	444444b7          	lui	s1,0x44444
80002648:	44448493          	addi	s1,s1,1092 # 44444444 <offset+0x44444210>
8000264c:	01f48463          	beq	s1,t6,80002654 <inst_275>
80002650:	6b40306f          	j	80005d04 <bad_trap>

80002654 <inst_275>:
80002654:	66666f37          	lui	t5,0x66666
80002658:	666f0f13          	addi	t5,t5,1638 # 66666666 <absimm+0x21374137>
8000265c:	00600e93          	li	t4,6
80002660:	03df2fb3          	mulhsu	t6,t5,t4
80002664:	3ff42423          	sw	t6,1000(s0)
80002668:	00200493          	li	s1,2
8000266c:	01f48463          	beq	s1,t6,80002674 <inst_276>
80002670:	6940306f          	j	80005d04 <bad_trap>

80002674 <inst_276>:
80002674:	66666f37          	lui	t5,0x66666
80002678:	666f0f13          	addi	t5,t5,1638 # 66666666 <absimm+0x21374137>
8000267c:	33333eb7          	lui	t4,0x33333
80002680:	334e8e93          	addi	t4,t4,820 # 33333334 <offset+0x33333100>
80002684:	03df2fb3          	mulhsu	t6,t5,t4
80002688:	3ff42623          	sw	t6,1004(s0)
8000268c:	147ae4b7          	lui	s1,0x147ae
80002690:	14748493          	addi	s1,s1,327 # 147ae147 <offset+0x147adf13>
80002694:	01f48463          	beq	s1,t6,8000269c <inst_277>
80002698:	66c0306f          	j	80005d04 <bad_trap>

8000269c <inst_277>:
8000269c:	66666f37          	lui	t5,0x66666
800026a0:	666f0f13          	addi	t5,t5,1638 # 66666666 <absimm+0x21374137>
800026a4:	66666eb7          	lui	t4,0x66666
800026a8:	667e8e93          	addi	t4,t4,1639 # 66666667 <absimm+0x21374138>
800026ac:	03df2fb3          	mulhsu	t6,t5,t4
800026b0:	3ff42823          	sw	t6,1008(s0)
800026b4:	28f5c4b7          	lui	s1,0x28f5c
800026b8:	28f48493          	addi	s1,s1,655 # 28f5c28f <offset+0x28f5c05b>
800026bc:	01f48463          	beq	s1,t6,800026c4 <inst_278>
800026c0:	6440306f          	j	80005d04 <bad_trap>

800026c4 <inst_278>:
800026c4:	66666f37          	lui	t5,0x66666
800026c8:	666f0f13          	addi	t5,t5,1638 # 66666666 <absimm+0x21374137>
800026cc:	0000beb7          	lui	t4,0xb
800026d0:	505e8e93          	addi	t4,t4,1285 # b505 <offset+0xb2d1>
800026d4:	03df2fb3          	mulhsu	t6,t5,t4
800026d8:	3ff42a23          	sw	t6,1012(s0)
800026dc:	000054b7          	lui	s1,0x5
800026e0:	86848493          	addi	s1,s1,-1944 # 4868 <offset+0x4634>
800026e4:	01f48463          	beq	s1,t6,800026ec <inst_279>
800026e8:	61c0306f          	j	80005d04 <bad_trap>

800026ec <inst_279>:
800026ec:	66666f37          	lui	t5,0x66666
800026f0:	666f0f13          	addi	t5,t5,1638 # 66666666 <absimm+0x21374137>
800026f4:	00100e93          	li	t4,1
800026f8:	03df2fb3          	mulhsu	t6,t5,t4
800026fc:	3ff42c23          	sw	t6,1016(s0)
80002700:	00000493          	li	s1,0
80002704:	01f48463          	beq	s1,t6,8000270c <inst_280>
80002708:	5fc0306f          	j	80005d04 <bad_trap>

8000270c <inst_280>:
8000270c:	66666f37          	lui	t5,0x66666
80002710:	666f0f13          	addi	t5,t5,1638 # 66666666 <absimm+0x21374137>
80002714:	00010eb7          	lui	t4,0x10
80002718:	03df2fb3          	mulhsu	t6,t5,t4
8000271c:	3ff42e23          	sw	t6,1020(s0)
80002720:	000064b7          	lui	s1,0x6
80002724:	66648493          	addi	s1,s1,1638 # 6666 <offset+0x6432>
80002728:	01f48463          	beq	s1,t6,80002730 <inst_280+0x24>
8000272c:	5d80306f          	j	80005d04 <bad_trap>
80002730:	00000013          	nop
80002734:	00000013          	nop
80002738:	00000013          	nop
8000273c:	00000013          	nop
80002740:	00005417          	auipc	s0,0x5
80002744:	d2840413          	addi	s0,s0,-728 # 80007468 <signature_x8_1>
80002748:	00000013          	nop
8000274c:	00000013          	nop
80002750:	00000013          	nop
80002754:	00000013          	nop
80002758:	00000013          	nop
8000275c:	00000013          	nop

80002760 <inst_281>:
80002760:	ffff5f37          	lui	t5,0xffff5
80002764:	afcf0f13          	addi	t5,t5,-1284 # ffff4afc <imm12+0xffff502c>
80002768:	00300e93          	li	t4,3
8000276c:	03df2fb3          	mulhsu	t6,t5,t4
80002770:	01f42023          	sw	t6,0(s0)
80002774:	fff00493          	li	s1,-1
80002778:	01f48463          	beq	s1,t6,80002780 <inst_282>
8000277c:	5880306f          	j	80005d04 <bad_trap>

80002780 <inst_282>:
80002780:	ffff5f37          	lui	t5,0xffff5
80002784:	afcf0f13          	addi	t5,t5,-1284 # ffff4afc <imm12+0xffff502c>
80002788:	55555eb7          	lui	t4,0x55555
8000278c:	555e8e93          	addi	t4,t4,1365 # 55555555 <absimm+0x10263026>
80002790:	03df2fb3          	mulhsu	t6,t5,t4
80002794:	01f42223          	sw	t6,4(s0)
80002798:	ffffc4b7          	lui	s1,0xffffc
8000279c:	3a948493          	addi	s1,s1,937 # ffffc3a9 <imm12+0xffffc8d9>
800027a0:	01f48463          	beq	s1,t6,800027a8 <inst_283>
800027a4:	5600306f          	j	80005d04 <bad_trap>

800027a8 <inst_283>:
800027a8:	ffff5f37          	lui	t5,0xffff5
800027ac:	afcf0f13          	addi	t5,t5,-1284 # ffff4afc <imm12+0xffff502c>
800027b0:	aaaabeb7          	lui	t4,0xaaaab
800027b4:	aaae8e93          	addi	t4,t4,-1366 # aaaaaaaa <imm12+0xaaaaafda>
800027b8:	03df2fb3          	mulhsu	t6,t5,t4
800027bc:	01f42423          	sw	t6,8(s0)
800027c0:	ffff84b7          	lui	s1,0xffff8
800027c4:	75248493          	addi	s1,s1,1874 # ffff8752 <imm12+0xffff8c82>
800027c8:	01f48463          	beq	s1,t6,800027d0 <inst_284>
800027cc:	5380306f          	j	80005d04 <bad_trap>

800027d0 <inst_284>:
800027d0:	ffff5f37          	lui	t5,0xffff5
800027d4:	afcf0f13          	addi	t5,t5,-1284 # ffff4afc <imm12+0xffff502c>
800027d8:	00500e93          	li	t4,5
800027dc:	03df2fb3          	mulhsu	t6,t5,t4
800027e0:	01f42623          	sw	t6,12(s0)
800027e4:	fff00493          	li	s1,-1
800027e8:	01f48463          	beq	s1,t6,800027f0 <inst_285>
800027ec:	5180306f          	j	80005d04 <bad_trap>

800027f0 <inst_285>:
800027f0:	ffff5f37          	lui	t5,0xffff5
800027f4:	afcf0f13          	addi	t5,t5,-1284 # ffff4afc <imm12+0xffff502c>
800027f8:	33333eb7          	lui	t4,0x33333
800027fc:	333e8e93          	addi	t4,t4,819 # 33333333 <offset+0x333330ff>
80002800:	03df2fb3          	mulhsu	t6,t5,t4
80002804:	01f42823          	sw	t6,16(s0)
80002808:	ffffe4b7          	lui	s1,0xffffe
8000280c:	bcc48493          	addi	s1,s1,-1076 # ffffdbcc <imm12+0xffffe0fc>
80002810:	01f48463          	beq	s1,t6,80002818 <inst_286>
80002814:	4f00306f          	j	80005d04 <bad_trap>

80002818 <inst_286>:
80002818:	ffff5f37          	lui	t5,0xffff5
8000281c:	afcf0f13          	addi	t5,t5,-1284 # ffff4afc <imm12+0xffff502c>
80002820:	66666eb7          	lui	t4,0x66666
80002824:	666e8e93          	addi	t4,t4,1638 # 66666666 <absimm+0x21374137>
80002828:	03df2fb3          	mulhsu	t6,t5,t4
8000282c:	01f42a23          	sw	t6,20(s0)
80002830:	ffffb4b7          	lui	s1,0xffffb
80002834:	79848493          	addi	s1,s1,1944 # ffffb798 <imm12+0xffffbcc8>
80002838:	01f48463          	beq	s1,t6,80002840 <inst_287>
8000283c:	4c80306f          	j	80005d04 <bad_trap>

80002840 <inst_287>:
80002840:	ffff5f37          	lui	t5,0xffff5
80002844:	afcf0f13          	addi	t5,t5,-1284 # ffff4afc <imm12+0xffff502c>
80002848:	0000beb7          	lui	t4,0xb
8000284c:	504e8e93          	addi	t4,t4,1284 # b504 <offset+0xb2d0>
80002850:	03df2fb3          	mulhsu	t6,t5,t4
80002854:	01f42c23          	sw	t6,24(s0)
80002858:	fff00493          	li	s1,-1
8000285c:	01f48463          	beq	s1,t6,80002864 <inst_288>
80002860:	4a40306f          	j	80005d04 <bad_trap>

80002864 <inst_288>:
80002864:	ffff5f37          	lui	t5,0xffff5
80002868:	afcf0f13          	addi	t5,t5,-1284 # ffff4afc <imm12+0xffff502c>
8000286c:	00010eb7          	lui	t4,0x10
80002870:	fffe8e93          	addi	t4,t4,-1 # ffff <offset+0xfdcb>
80002874:	03df2fb3          	mulhsu	t6,t5,t4
80002878:	01f42e23          	sw	t6,28(s0)
8000287c:	fff00493          	li	s1,-1
80002880:	01f48463          	beq	s1,t6,80002888 <inst_289>
80002884:	4800306f          	j	80005d04 <bad_trap>

80002888 <inst_289>:
80002888:	ffff5f37          	lui	t5,0xffff5
8000288c:	afcf0f13          	addi	t5,t5,-1284 # ffff4afc <imm12+0xffff502c>
80002890:	00200e93          	li	t4,2
80002894:	03df2fb3          	mulhsu	t6,t5,t4
80002898:	03f42023          	sw	t6,32(s0)
8000289c:	fff00493          	li	s1,-1
800028a0:	01f48463          	beq	s1,t6,800028a8 <inst_290>
800028a4:	4600306f          	j	80005d04 <bad_trap>

800028a8 <inst_290>:
800028a8:	ffff5f37          	lui	t5,0xffff5
800028ac:	afcf0f13          	addi	t5,t5,-1284 # ffff4afc <imm12+0xffff502c>
800028b0:	55555eb7          	lui	t4,0x55555
800028b4:	554e8e93          	addi	t4,t4,1364 # 55555554 <absimm+0x10263025>
800028b8:	03df2fb3          	mulhsu	t6,t5,t4
800028bc:	03f42223          	sw	t6,36(s0)
800028c0:	ffffc4b7          	lui	s1,0xffffc
800028c4:	3a948493          	addi	s1,s1,937 # ffffc3a9 <imm12+0xffffc8d9>
800028c8:	01f48463          	beq	s1,t6,800028d0 <inst_291>
800028cc:	4380306f          	j	80005d04 <bad_trap>

800028d0 <inst_291>:
800028d0:	ffff5f37          	lui	t5,0xffff5
800028d4:	afcf0f13          	addi	t5,t5,-1284 # ffff4afc <imm12+0xffff502c>
800028d8:	aaaabeb7          	lui	t4,0xaaaab
800028dc:	aa9e8e93          	addi	t4,t4,-1367 # aaaaaaa9 <imm12+0xaaaaafd9>
800028e0:	03df2fb3          	mulhsu	t6,t5,t4
800028e4:	03f42423          	sw	t6,40(s0)
800028e8:	ffff84b7          	lui	s1,0xffff8
800028ec:	75248493          	addi	s1,s1,1874 # ffff8752 <imm12+0xffff8c82>
800028f0:	01f48463          	beq	s1,t6,800028f8 <inst_292>
800028f4:	4100306f          	j	80005d04 <bad_trap>

800028f8 <inst_292>:
800028f8:	ffff5f37          	lui	t5,0xffff5
800028fc:	afcf0f13          	addi	t5,t5,-1284 # ffff4afc <imm12+0xffff502c>
80002900:	33333eb7          	lui	t4,0x33333
80002904:	332e8e93          	addi	t4,t4,818 # 33333332 <offset+0x333330fe>
80002908:	03df2fb3          	mulhsu	t6,t5,t4
8000290c:	03f42623          	sw	t6,44(s0)
80002910:	ffffe4b7          	lui	s1,0xffffe
80002914:	bcc48493          	addi	s1,s1,-1076 # ffffdbcc <imm12+0xffffe0fc>
80002918:	01f48463          	beq	s1,t6,80002920 <inst_293>
8000291c:	3e80306f          	j	80005d04 <bad_trap>

80002920 <inst_293>:
80002920:	ffff5f37          	lui	t5,0xffff5
80002924:	afcf0f13          	addi	t5,t5,-1284 # ffff4afc <imm12+0xffff502c>
80002928:	66666eb7          	lui	t4,0x66666
8000292c:	665e8e93          	addi	t4,t4,1637 # 66666665 <absimm+0x21374136>
80002930:	03df2fb3          	mulhsu	t6,t5,t4
80002934:	03f42823          	sw	t6,48(s0)
80002938:	ffffb4b7          	lui	s1,0xffffb
8000293c:	79848493          	addi	s1,s1,1944 # ffffb798 <imm12+0xffffbcc8>
80002940:	01f48463          	beq	s1,t6,80002948 <inst_294>
80002944:	3c00306f          	j	80005d04 <bad_trap>

80002948 <inst_294>:
80002948:	ffff5f37          	lui	t5,0xffff5
8000294c:	afcf0f13          	addi	t5,t5,-1284 # ffff4afc <imm12+0xffff502c>
80002950:	0000beb7          	lui	t4,0xb
80002954:	503e8e93          	addi	t4,t4,1283 # b503 <offset+0xb2cf>
80002958:	03df2fb3          	mulhsu	t6,t5,t4
8000295c:	03f42a23          	sw	t6,52(s0)
80002960:	fff00493          	li	s1,-1
80002964:	01f48463          	beq	s1,t6,8000296c <inst_295>
80002968:	39c0306f          	j	80005d04 <bad_trap>

8000296c <inst_295>:
8000296c:	ffff5f37          	lui	t5,0xffff5
80002970:	afcf0f13          	addi	t5,t5,-1284 # ffff4afc <imm12+0xffff502c>
80002974:	00000e93          	li	t4,0
80002978:	03df2fb3          	mulhsu	t6,t5,t4
8000297c:	03f42c23          	sw	t6,56(s0)
80002980:	00000493          	li	s1,0
80002984:	01f48463          	beq	s1,t6,8000298c <inst_296>
80002988:	37c0306f          	j	80005d04 <bad_trap>

8000298c <inst_296>:
8000298c:	ffff5f37          	lui	t5,0xffff5
80002990:	afcf0f13          	addi	t5,t5,-1284 # ffff4afc <imm12+0xffff502c>
80002994:	00010eb7          	lui	t4,0x10
80002998:	ffee8e93          	addi	t4,t4,-2 # fffe <offset+0xfdca>
8000299c:	03df2fb3          	mulhsu	t6,t5,t4
800029a0:	03f42e23          	sw	t6,60(s0)
800029a4:	fff00493          	li	s1,-1
800029a8:	01f48463          	beq	s1,t6,800029b0 <inst_297>
800029ac:	3580306f          	j	80005d04 <bad_trap>

800029b0 <inst_297>:
800029b0:	ffff5f37          	lui	t5,0xffff5
800029b4:	afcf0f13          	addi	t5,t5,-1284 # ffff4afc <imm12+0xffff502c>
800029b8:	00400e93          	li	t4,4
800029bc:	03df2fb3          	mulhsu	t6,t5,t4
800029c0:	05f42023          	sw	t6,64(s0)
800029c4:	fff00493          	li	s1,-1
800029c8:	01f48463          	beq	s1,t6,800029d0 <inst_298>
800029cc:	3380306f          	j	80005d04 <bad_trap>

800029d0 <inst_298>:
800029d0:	ffff5f37          	lui	t5,0xffff5
800029d4:	afcf0f13          	addi	t5,t5,-1284 # ffff4afc <imm12+0xffff502c>
800029d8:	55555eb7          	lui	t4,0x55555
800029dc:	556e8e93          	addi	t4,t4,1366 # 55555556 <absimm+0x10263027>
800029e0:	03df2fb3          	mulhsu	t6,t5,t4
800029e4:	05f42223          	sw	t6,68(s0)
800029e8:	ffffc4b7          	lui	s1,0xffffc
800029ec:	3a948493          	addi	s1,s1,937 # ffffc3a9 <imm12+0xffffc8d9>
800029f0:	01f48463          	beq	s1,t6,800029f8 <inst_299>
800029f4:	3100306f          	j	80005d04 <bad_trap>

800029f8 <inst_299>:
800029f8:	ffff5f37          	lui	t5,0xffff5
800029fc:	afcf0f13          	addi	t5,t5,-1284 # ffff4afc <imm12+0xffff502c>
80002a00:	aaaabeb7          	lui	t4,0xaaaab
80002a04:	aabe8e93          	addi	t4,t4,-1365 # aaaaaaab <imm12+0xaaaaafdb>
80002a08:	03df2fb3          	mulhsu	t6,t5,t4
80002a0c:	05f42423          	sw	t6,72(s0)
80002a10:	ffff84b7          	lui	s1,0xffff8
80002a14:	75248493          	addi	s1,s1,1874 # ffff8752 <imm12+0xffff8c82>
80002a18:	01f48463          	beq	s1,t6,80002a20 <inst_300>
80002a1c:	2e80306f          	j	80005d04 <bad_trap>

80002a20 <inst_300>:
80002a20:	ffff5f37          	lui	t5,0xffff5
80002a24:	afcf0f13          	addi	t5,t5,-1284 # ffff4afc <imm12+0xffff502c>
80002a28:	00600e93          	li	t4,6
80002a2c:	03df2fb3          	mulhsu	t6,t5,t4
80002a30:	05f42623          	sw	t6,76(s0)
80002a34:	fff00493          	li	s1,-1
80002a38:	01f48463          	beq	s1,t6,80002a40 <inst_301>
80002a3c:	2c80306f          	j	80005d04 <bad_trap>

80002a40 <inst_301>:
80002a40:	ffff5f37          	lui	t5,0xffff5
80002a44:	afcf0f13          	addi	t5,t5,-1284 # ffff4afc <imm12+0xffff502c>
80002a48:	33333eb7          	lui	t4,0x33333
80002a4c:	334e8e93          	addi	t4,t4,820 # 33333334 <offset+0x33333100>
80002a50:	03df2fb3          	mulhsu	t6,t5,t4
80002a54:	05f42823          	sw	t6,80(s0)
80002a58:	ffffe4b7          	lui	s1,0xffffe
80002a5c:	bcb48493          	addi	s1,s1,-1077 # ffffdbcb <imm12+0xffffe0fb>
80002a60:	01f48463          	beq	s1,t6,80002a68 <inst_302>
80002a64:	2a00306f          	j	80005d04 <bad_trap>

80002a68 <inst_302>:
80002a68:	ffff5f37          	lui	t5,0xffff5
80002a6c:	afcf0f13          	addi	t5,t5,-1284 # ffff4afc <imm12+0xffff502c>
80002a70:	66666eb7          	lui	t4,0x66666
80002a74:	667e8e93          	addi	t4,t4,1639 # 66666667 <absimm+0x21374138>
80002a78:	03df2fb3          	mulhsu	t6,t5,t4
80002a7c:	05f42a23          	sw	t6,84(s0)
80002a80:	ffffb4b7          	lui	s1,0xffffb
80002a84:	79748493          	addi	s1,s1,1943 # ffffb797 <imm12+0xffffbcc7>
80002a88:	01f48463          	beq	s1,t6,80002a90 <inst_303>
80002a8c:	2780306f          	j	80005d04 <bad_trap>

80002a90 <inst_303>:
80002a90:	ffff5f37          	lui	t5,0xffff5
80002a94:	afcf0f13          	addi	t5,t5,-1284 # ffff4afc <imm12+0xffff502c>
80002a98:	0000beb7          	lui	t4,0xb
80002a9c:	505e8e93          	addi	t4,t4,1285 # b505 <offset+0xb2d1>
80002aa0:	03df2fb3          	mulhsu	t6,t5,t4
80002aa4:	05f42c23          	sw	t6,88(s0)
80002aa8:	fff00493          	li	s1,-1
80002aac:	01f48463          	beq	s1,t6,80002ab4 <inst_304>
80002ab0:	2540306f          	j	80005d04 <bad_trap>

80002ab4 <inst_304>:
80002ab4:	ffff5f37          	lui	t5,0xffff5
80002ab8:	afcf0f13          	addi	t5,t5,-1284 # ffff4afc <imm12+0xffff502c>
80002abc:	00100e93          	li	t4,1
80002ac0:	03df2fb3          	mulhsu	t6,t5,t4
80002ac4:	05f42e23          	sw	t6,92(s0)
80002ac8:	fff00493          	li	s1,-1
80002acc:	01f48463          	beq	s1,t6,80002ad4 <inst_305>
80002ad0:	2340306f          	j	80005d04 <bad_trap>

80002ad4 <inst_305>:
80002ad4:	ffff5f37          	lui	t5,0xffff5
80002ad8:	afcf0f13          	addi	t5,t5,-1284 # ffff4afc <imm12+0xffff502c>
80002adc:	00010eb7          	lui	t4,0x10
80002ae0:	03df2fb3          	mulhsu	t6,t5,t4
80002ae4:	07f42023          	sw	t6,96(s0)
80002ae8:	fff00493          	li	s1,-1
80002aec:	01f48463          	beq	s1,t6,80002af4 <inst_306>
80002af0:	2140306f          	j	80005d04 <bad_trap>

80002af4 <inst_306>:
80002af4:	0000bf37          	lui	t5,0xb
80002af8:	504f0f13          	addi	t5,t5,1284 # b504 <offset+0xb2d0>
80002afc:	00300e93          	li	t4,3
80002b00:	03df2fb3          	mulhsu	t6,t5,t4
80002b04:	07f42223          	sw	t6,100(s0)
80002b08:	00000493          	li	s1,0
80002b0c:	01f48463          	beq	s1,t6,80002b14 <inst_307>
80002b10:	1f40306f          	j	80005d04 <bad_trap>

80002b14 <inst_307>:
80002b14:	0000bf37          	lui	t5,0xb
80002b18:	504f0f13          	addi	t5,t5,1284 # b504 <offset+0xb2d0>
80002b1c:	55555eb7          	lui	t4,0x55555
80002b20:	555e8e93          	addi	t4,t4,1365 # 55555555 <absimm+0x10263026>
80002b24:	03df2fb3          	mulhsu	t6,t5,t4
80002b28:	07f42423          	sw	t6,104(s0)
80002b2c:	000044b7          	lui	s1,0x4
80002b30:	c5648493          	addi	s1,s1,-938 # 3c56 <offset+0x3a22>
80002b34:	01f48463          	beq	s1,t6,80002b3c <inst_308>
80002b38:	1cc0306f          	j	80005d04 <bad_trap>

80002b3c <inst_308>:
80002b3c:	0000bf37          	lui	t5,0xb
80002b40:	504f0f13          	addi	t5,t5,1284 # b504 <offset+0xb2d0>
80002b44:	aaaabeb7          	lui	t4,0xaaaab
80002b48:	aaae8e93          	addi	t4,t4,-1366 # aaaaaaaa <imm12+0xaaaaafda>
80002b4c:	03df2fb3          	mulhsu	t6,t5,t4
80002b50:	07f42623          	sw	t6,108(s0)
80002b54:	000084b7          	lui	s1,0x8
80002b58:	8ad48493          	addi	s1,s1,-1875 # 78ad <offset+0x7679>
80002b5c:	01f48463          	beq	s1,t6,80002b64 <inst_309>
80002b60:	1a40306f          	j	80005d04 <bad_trap>

80002b64 <inst_309>:
80002b64:	0000bf37          	lui	t5,0xb
80002b68:	504f0f13          	addi	t5,t5,1284 # b504 <offset+0xb2d0>
80002b6c:	00500e93          	li	t4,5
80002b70:	03df2fb3          	mulhsu	t6,t5,t4
80002b74:	07f42823          	sw	t6,112(s0)
80002b78:	00000493          	li	s1,0
80002b7c:	01f48463          	beq	s1,t6,80002b84 <inst_310>
80002b80:	1840306f          	j	80005d04 <bad_trap>

80002b84 <inst_310>:
80002b84:	0000bf37          	lui	t5,0xb
80002b88:	504f0f13          	addi	t5,t5,1284 # b504 <offset+0xb2d0>
80002b8c:	33333eb7          	lui	t4,0x33333
80002b90:	333e8e93          	addi	t4,t4,819 # 33333333 <offset+0x333330ff>
80002b94:	03df2fb3          	mulhsu	t6,t5,t4
80002b98:	07f42a23          	sw	t6,116(s0)
80002b9c:	000024b7          	lui	s1,0x2
80002ba0:	43348493          	addi	s1,s1,1075 # 2433 <offset+0x21ff>
80002ba4:	01f48463          	beq	s1,t6,80002bac <inst_311>
80002ba8:	15c0306f          	j	80005d04 <bad_trap>

80002bac <inst_311>:
80002bac:	0000bf37          	lui	t5,0xb
80002bb0:	504f0f13          	addi	t5,t5,1284 # b504 <offset+0xb2d0>
80002bb4:	66666eb7          	lui	t4,0x66666
80002bb8:	666e8e93          	addi	t4,t4,1638 # 66666666 <absimm+0x21374137>
80002bbc:	03df2fb3          	mulhsu	t6,t5,t4
80002bc0:	07f42c23          	sw	t6,120(s0)
80002bc4:	000054b7          	lui	s1,0x5
80002bc8:	86748493          	addi	s1,s1,-1945 # 4867 <offset+0x4633>
80002bcc:	01f48463          	beq	s1,t6,80002bd4 <inst_312>
80002bd0:	1340306f          	j	80005d04 <bad_trap>

80002bd4 <inst_312>:
80002bd4:	0000bf37          	lui	t5,0xb
80002bd8:	504f0f13          	addi	t5,t5,1284 # b504 <offset+0xb2d0>
80002bdc:	0000beb7          	lui	t4,0xb
80002be0:	504e8e93          	addi	t4,t4,1284 # b504 <offset+0xb2d0>
80002be4:	03df2fb3          	mulhsu	t6,t5,t4
80002be8:	07f42e23          	sw	t6,124(s0)
80002bec:	00000493          	li	s1,0
80002bf0:	01f48463          	beq	s1,t6,80002bf8 <inst_313>
80002bf4:	1100306f          	j	80005d04 <bad_trap>

80002bf8 <inst_313>:
80002bf8:	0000bf37          	lui	t5,0xb
80002bfc:	504f0f13          	addi	t5,t5,1284 # b504 <offset+0xb2d0>
80002c00:	00010eb7          	lui	t4,0x10
80002c04:	fffe8e93          	addi	t4,t4,-1 # ffff <offset+0xfdcb>
80002c08:	03df2fb3          	mulhsu	t6,t5,t4
80002c0c:	09f42023          	sw	t6,128(s0)
80002c10:	00000493          	li	s1,0
80002c14:	01f48463          	beq	s1,t6,80002c1c <inst_314>
80002c18:	0ec0306f          	j	80005d04 <bad_trap>

80002c1c <inst_314>:
80002c1c:	0000bf37          	lui	t5,0xb
80002c20:	504f0f13          	addi	t5,t5,1284 # b504 <offset+0xb2d0>
80002c24:	00200e93          	li	t4,2
80002c28:	03df2fb3          	mulhsu	t6,t5,t4
80002c2c:	09f42223          	sw	t6,132(s0)
80002c30:	00000493          	li	s1,0
80002c34:	01f48463          	beq	s1,t6,80002c3c <inst_315>
80002c38:	0cc0306f          	j	80005d04 <bad_trap>

80002c3c <inst_315>:
80002c3c:	0000bf37          	lui	t5,0xb
80002c40:	504f0f13          	addi	t5,t5,1284 # b504 <offset+0xb2d0>
80002c44:	55555eb7          	lui	t4,0x55555
80002c48:	554e8e93          	addi	t4,t4,1364 # 55555554 <absimm+0x10263025>
80002c4c:	03df2fb3          	mulhsu	t6,t5,t4
80002c50:	09f42423          	sw	t6,136(s0)
80002c54:	000044b7          	lui	s1,0x4
80002c58:	c5648493          	addi	s1,s1,-938 # 3c56 <offset+0x3a22>
80002c5c:	01f48463          	beq	s1,t6,80002c64 <inst_316>
80002c60:	0a40306f          	j	80005d04 <bad_trap>

80002c64 <inst_316>:
80002c64:	0000bf37          	lui	t5,0xb
80002c68:	504f0f13          	addi	t5,t5,1284 # b504 <offset+0xb2d0>
80002c6c:	aaaabeb7          	lui	t4,0xaaaab
80002c70:	aa9e8e93          	addi	t4,t4,-1367 # aaaaaaa9 <imm12+0xaaaaafd9>
80002c74:	03df2fb3          	mulhsu	t6,t5,t4
80002c78:	09f42623          	sw	t6,140(s0)
80002c7c:	000084b7          	lui	s1,0x8
80002c80:	8ad48493          	addi	s1,s1,-1875 # 78ad <offset+0x7679>
80002c84:	01f48463          	beq	s1,t6,80002c8c <inst_317>
80002c88:	07c0306f          	j	80005d04 <bad_trap>

80002c8c <inst_317>:
80002c8c:	0000bf37          	lui	t5,0xb
80002c90:	504f0f13          	addi	t5,t5,1284 # b504 <offset+0xb2d0>
80002c94:	33333eb7          	lui	t4,0x33333
80002c98:	332e8e93          	addi	t4,t4,818 # 33333332 <offset+0x333330fe>
80002c9c:	03df2fb3          	mulhsu	t6,t5,t4
80002ca0:	09f42823          	sw	t6,144(s0)
80002ca4:	000024b7          	lui	s1,0x2
80002ca8:	43348493          	addi	s1,s1,1075 # 2433 <offset+0x21ff>
80002cac:	01f48463          	beq	s1,t6,80002cb4 <inst_318>
80002cb0:	0540306f          	j	80005d04 <bad_trap>

80002cb4 <inst_318>:
80002cb4:	0000bf37          	lui	t5,0xb
80002cb8:	504f0f13          	addi	t5,t5,1284 # b504 <offset+0xb2d0>
80002cbc:	66666eb7          	lui	t4,0x66666
80002cc0:	665e8e93          	addi	t4,t4,1637 # 66666665 <absimm+0x21374136>
80002cc4:	03df2fb3          	mulhsu	t6,t5,t4
80002cc8:	09f42a23          	sw	t6,148(s0)
80002ccc:	000054b7          	lui	s1,0x5
80002cd0:	86748493          	addi	s1,s1,-1945 # 4867 <offset+0x4633>
80002cd4:	01f48463          	beq	s1,t6,80002cdc <inst_319>
80002cd8:	02c0306f          	j	80005d04 <bad_trap>

80002cdc <inst_319>:
80002cdc:	0000bf37          	lui	t5,0xb
80002ce0:	504f0f13          	addi	t5,t5,1284 # b504 <offset+0xb2d0>
80002ce4:	0000beb7          	lui	t4,0xb
80002ce8:	503e8e93          	addi	t4,t4,1283 # b503 <offset+0xb2cf>
80002cec:	03df2fb3          	mulhsu	t6,t5,t4
80002cf0:	09f42c23          	sw	t6,152(s0)
80002cf4:	00000493          	li	s1,0
80002cf8:	01f48463          	beq	s1,t6,80002d00 <inst_320>
80002cfc:	0080306f          	j	80005d04 <bad_trap>

80002d00 <inst_320>:
80002d00:	0000bf37          	lui	t5,0xb
80002d04:	504f0f13          	addi	t5,t5,1284 # b504 <offset+0xb2d0>
80002d08:	00000e93          	li	t4,0
80002d0c:	03df2fb3          	mulhsu	t6,t5,t4
80002d10:	09f42e23          	sw	t6,156(s0)
80002d14:	00000493          	li	s1,0
80002d18:	01f48463          	beq	s1,t6,80002d20 <inst_321>
80002d1c:	7e90206f          	j	80005d04 <bad_trap>

80002d20 <inst_321>:
80002d20:	0000bf37          	lui	t5,0xb
80002d24:	504f0f13          	addi	t5,t5,1284 # b504 <offset+0xb2d0>
80002d28:	00010eb7          	lui	t4,0x10
80002d2c:	ffee8e93          	addi	t4,t4,-2 # fffe <offset+0xfdca>
80002d30:	03df2fb3          	mulhsu	t6,t5,t4
80002d34:	0bf42023          	sw	t6,160(s0)
80002d38:	00000493          	li	s1,0
80002d3c:	01f48463          	beq	s1,t6,80002d44 <inst_322>
80002d40:	7c50206f          	j	80005d04 <bad_trap>

80002d44 <inst_322>:
80002d44:	0000bf37          	lui	t5,0xb
80002d48:	504f0f13          	addi	t5,t5,1284 # b504 <offset+0xb2d0>
80002d4c:	00400e93          	li	t4,4
80002d50:	03df2fb3          	mulhsu	t6,t5,t4
80002d54:	0bf42223          	sw	t6,164(s0)
80002d58:	00000493          	li	s1,0
80002d5c:	01f48463          	beq	s1,t6,80002d64 <inst_323>
80002d60:	7a50206f          	j	80005d04 <bad_trap>

80002d64 <inst_323>:
80002d64:	0000bf37          	lui	t5,0xb
80002d68:	504f0f13          	addi	t5,t5,1284 # b504 <offset+0xb2d0>
80002d6c:	55555eb7          	lui	t4,0x55555
80002d70:	556e8e93          	addi	t4,t4,1366 # 55555556 <absimm+0x10263027>
80002d74:	03df2fb3          	mulhsu	t6,t5,t4
80002d78:	0bf42423          	sw	t6,168(s0)
80002d7c:	000044b7          	lui	s1,0x4
80002d80:	c5648493          	addi	s1,s1,-938 # 3c56 <offset+0x3a22>
80002d84:	01f48463          	beq	s1,t6,80002d8c <inst_324>
80002d88:	77d0206f          	j	80005d04 <bad_trap>

80002d8c <inst_324>:
80002d8c:	0000bf37          	lui	t5,0xb
80002d90:	504f0f13          	addi	t5,t5,1284 # b504 <offset+0xb2d0>
80002d94:	aaaabeb7          	lui	t4,0xaaaab
80002d98:	aabe8e93          	addi	t4,t4,-1365 # aaaaaaab <imm12+0xaaaaafdb>
80002d9c:	03df2fb3          	mulhsu	t6,t5,t4
80002da0:	0bf42623          	sw	t6,172(s0)
80002da4:	000084b7          	lui	s1,0x8
80002da8:	8ad48493          	addi	s1,s1,-1875 # 78ad <offset+0x7679>
80002dac:	01f48463          	beq	s1,t6,80002db4 <inst_325>
80002db0:	7550206f          	j	80005d04 <bad_trap>

80002db4 <inst_325>:
80002db4:	0000bf37          	lui	t5,0xb
80002db8:	504f0f13          	addi	t5,t5,1284 # b504 <offset+0xb2d0>
80002dbc:	00600e93          	li	t4,6
80002dc0:	03df2fb3          	mulhsu	t6,t5,t4
80002dc4:	0bf42823          	sw	t6,176(s0)
80002dc8:	00000493          	li	s1,0
80002dcc:	01f48463          	beq	s1,t6,80002dd4 <inst_326>
80002dd0:	7350206f          	j	80005d04 <bad_trap>

80002dd4 <inst_326>:
80002dd4:	0000bf37          	lui	t5,0xb
80002dd8:	504f0f13          	addi	t5,t5,1284 # b504 <offset+0xb2d0>
80002ddc:	33333eb7          	lui	t4,0x33333
80002de0:	334e8e93          	addi	t4,t4,820 # 33333334 <offset+0x33333100>
80002de4:	03df2fb3          	mulhsu	t6,t5,t4
80002de8:	0bf42a23          	sw	t6,180(s0)
80002dec:	000024b7          	lui	s1,0x2
80002df0:	43448493          	addi	s1,s1,1076 # 2434 <offset+0x2200>
80002df4:	01f48463          	beq	s1,t6,80002dfc <inst_327>
80002df8:	70d0206f          	j	80005d04 <bad_trap>

80002dfc <inst_327>:
80002dfc:	0000bf37          	lui	t5,0xb
80002e00:	504f0f13          	addi	t5,t5,1284 # b504 <offset+0xb2d0>
80002e04:	66666eb7          	lui	t4,0x66666
80002e08:	667e8e93          	addi	t4,t4,1639 # 66666667 <absimm+0x21374138>
80002e0c:	03df2fb3          	mulhsu	t6,t5,t4
80002e10:	0bf42c23          	sw	t6,184(s0)
80002e14:	000054b7          	lui	s1,0x5
80002e18:	86848493          	addi	s1,s1,-1944 # 4868 <offset+0x4634>
80002e1c:	01f48463          	beq	s1,t6,80002e24 <inst_328>
80002e20:	6e50206f          	j	80005d04 <bad_trap>

80002e24 <inst_328>:
80002e24:	0000bf37          	lui	t5,0xb
80002e28:	504f0f13          	addi	t5,t5,1284 # b504 <offset+0xb2d0>
80002e2c:	0000beb7          	lui	t4,0xb
80002e30:	505e8e93          	addi	t4,t4,1285 # b505 <offset+0xb2d1>
80002e34:	03df2fb3          	mulhsu	t6,t5,t4
80002e38:	0bf42e23          	sw	t6,188(s0)
80002e3c:	00000493          	li	s1,0
80002e40:	01f48463          	beq	s1,t6,80002e48 <inst_329>
80002e44:	6c10206f          	j	80005d04 <bad_trap>

80002e48 <inst_329>:
80002e48:	0000bf37          	lui	t5,0xb
80002e4c:	504f0f13          	addi	t5,t5,1284 # b504 <offset+0xb2d0>
80002e50:	00100e93          	li	t4,1
80002e54:	03df2fb3          	mulhsu	t6,t5,t4
80002e58:	0df42023          	sw	t6,192(s0)
80002e5c:	00000493          	li	s1,0
80002e60:	01f48463          	beq	s1,t6,80002e68 <inst_330>
80002e64:	6a10206f          	j	80005d04 <bad_trap>

80002e68 <inst_330>:
80002e68:	0000bf37          	lui	t5,0xb
80002e6c:	504f0f13          	addi	t5,t5,1284 # b504 <offset+0xb2d0>
80002e70:	00010eb7          	lui	t4,0x10
80002e74:	03df2fb3          	mulhsu	t6,t5,t4
80002e78:	0df42223          	sw	t6,196(s0)
80002e7c:	00000493          	li	s1,0
80002e80:	01f48463          	beq	s1,t6,80002e88 <inst_331>
80002e84:	6810206f          	j	80005d04 <bad_trap>

80002e88 <inst_331>:
80002e88:	00200f13          	li	t5,2
80002e8c:	00300e93          	li	t4,3
80002e90:	03df2fb3          	mulhsu	t6,t5,t4
80002e94:	0df42423          	sw	t6,200(s0)
80002e98:	00000493          	li	s1,0
80002e9c:	01f48463          	beq	s1,t6,80002ea4 <inst_332>
80002ea0:	6650206f          	j	80005d04 <bad_trap>

80002ea4 <inst_332>:
80002ea4:	00200f13          	li	t5,2
80002ea8:	55555eb7          	lui	t4,0x55555
80002eac:	555e8e93          	addi	t4,t4,1365 # 55555555 <absimm+0x10263026>
80002eb0:	03df2fb3          	mulhsu	t6,t5,t4
80002eb4:	0df42623          	sw	t6,204(s0)
80002eb8:	00000493          	li	s1,0
80002ebc:	01f48463          	beq	s1,t6,80002ec4 <inst_333>
80002ec0:	6450206f          	j	80005d04 <bad_trap>

80002ec4 <inst_333>:
80002ec4:	00200f13          	li	t5,2
80002ec8:	aaaabeb7          	lui	t4,0xaaaab
80002ecc:	aaae8e93          	addi	t4,t4,-1366 # aaaaaaaa <imm12+0xaaaaafda>
80002ed0:	03df2fb3          	mulhsu	t6,t5,t4
80002ed4:	0df42823          	sw	t6,208(s0)
80002ed8:	00100493          	li	s1,1
80002edc:	01f48463          	beq	s1,t6,80002ee4 <inst_334>
80002ee0:	6250206f          	j	80005d04 <bad_trap>

80002ee4 <inst_334>:
80002ee4:	00200f13          	li	t5,2
80002ee8:	00500e93          	li	t4,5
80002eec:	03df2fb3          	mulhsu	t6,t5,t4
80002ef0:	0df42a23          	sw	t6,212(s0)
80002ef4:	00000493          	li	s1,0
80002ef8:	01f48463          	beq	s1,t6,80002f00 <inst_335>
80002efc:	6090206f          	j	80005d04 <bad_trap>

80002f00 <inst_335>:
80002f00:	00200f13          	li	t5,2
80002f04:	33333eb7          	lui	t4,0x33333
80002f08:	333e8e93          	addi	t4,t4,819 # 33333333 <offset+0x333330ff>
80002f0c:	03df2fb3          	mulhsu	t6,t5,t4
80002f10:	0df42c23          	sw	t6,216(s0)
80002f14:	00000493          	li	s1,0
80002f18:	01f48463          	beq	s1,t6,80002f20 <inst_336>
80002f1c:	5e90206f          	j	80005d04 <bad_trap>

80002f20 <inst_336>:
80002f20:	00200f13          	li	t5,2
80002f24:	66666eb7          	lui	t4,0x66666
80002f28:	666e8e93          	addi	t4,t4,1638 # 66666666 <absimm+0x21374137>
80002f2c:	03df2fb3          	mulhsu	t6,t5,t4
80002f30:	0df42e23          	sw	t6,220(s0)
80002f34:	00000493          	li	s1,0
80002f38:	01f48463          	beq	s1,t6,80002f40 <inst_337>
80002f3c:	5c90206f          	j	80005d04 <bad_trap>

80002f40 <inst_337>:
80002f40:	00200f13          	li	t5,2
80002f44:	0000beb7          	lui	t4,0xb
80002f48:	504e8e93          	addi	t4,t4,1284 # b504 <offset+0xb2d0>
80002f4c:	03df2fb3          	mulhsu	t6,t5,t4
80002f50:	0ff42023          	sw	t6,224(s0)
80002f54:	00000493          	li	s1,0
80002f58:	01f48463          	beq	s1,t6,80002f60 <inst_338>
80002f5c:	5a90206f          	j	80005d04 <bad_trap>

80002f60 <inst_338>:
80002f60:	00200f13          	li	t5,2
80002f64:	00010eb7          	lui	t4,0x10
80002f68:	fffe8e93          	addi	t4,t4,-1 # ffff <offset+0xfdcb>
80002f6c:	03df2fb3          	mulhsu	t6,t5,t4
80002f70:	0ff42223          	sw	t6,228(s0)
80002f74:	00000493          	li	s1,0
80002f78:	01f48463          	beq	s1,t6,80002f80 <inst_339>
80002f7c:	5890206f          	j	80005d04 <bad_trap>

80002f80 <inst_339>:
80002f80:	00200f13          	li	t5,2
80002f84:	00200e93          	li	t4,2
80002f88:	03df2fb3          	mulhsu	t6,t5,t4
80002f8c:	0ff42423          	sw	t6,232(s0)
80002f90:	00000493          	li	s1,0
80002f94:	01f48463          	beq	s1,t6,80002f9c <inst_340>
80002f98:	56d0206f          	j	80005d04 <bad_trap>

80002f9c <inst_340>:
80002f9c:	00200f13          	li	t5,2
80002fa0:	55555eb7          	lui	t4,0x55555
80002fa4:	554e8e93          	addi	t4,t4,1364 # 55555554 <absimm+0x10263025>
80002fa8:	03df2fb3          	mulhsu	t6,t5,t4
80002fac:	0ff42623          	sw	t6,236(s0)
80002fb0:	00000493          	li	s1,0
80002fb4:	01f48463          	beq	s1,t6,80002fbc <inst_341>
80002fb8:	54d0206f          	j	80005d04 <bad_trap>

80002fbc <inst_341>:
80002fbc:	00200f13          	li	t5,2
80002fc0:	aaaabeb7          	lui	t4,0xaaaab
80002fc4:	aa9e8e93          	addi	t4,t4,-1367 # aaaaaaa9 <imm12+0xaaaaafd9>
80002fc8:	03df2fb3          	mulhsu	t6,t5,t4
80002fcc:	0ff42823          	sw	t6,240(s0)
80002fd0:	00100493          	li	s1,1
80002fd4:	01f48463          	beq	s1,t6,80002fdc <inst_342>
80002fd8:	52d0206f          	j	80005d04 <bad_trap>

80002fdc <inst_342>:
80002fdc:	00200f13          	li	t5,2
80002fe0:	33333eb7          	lui	t4,0x33333
80002fe4:	332e8e93          	addi	t4,t4,818 # 33333332 <offset+0x333330fe>
80002fe8:	03df2fb3          	mulhsu	t6,t5,t4
80002fec:	0ff42a23          	sw	t6,244(s0)
80002ff0:	00000493          	li	s1,0
80002ff4:	01f48463          	beq	s1,t6,80002ffc <inst_343>
80002ff8:	50d0206f          	j	80005d04 <bad_trap>

80002ffc <inst_343>:
80002ffc:	00200f13          	li	t5,2
80003000:	66666eb7          	lui	t4,0x66666
80003004:	665e8e93          	addi	t4,t4,1637 # 66666665 <absimm+0x21374136>
80003008:	03df2fb3          	mulhsu	t6,t5,t4
8000300c:	0ff42c23          	sw	t6,248(s0)
80003010:	00000493          	li	s1,0
80003014:	01f48463          	beq	s1,t6,8000301c <inst_344>
80003018:	4ed0206f          	j	80005d04 <bad_trap>

8000301c <inst_344>:
8000301c:	00200f13          	li	t5,2
80003020:	0000beb7          	lui	t4,0xb
80003024:	503e8e93          	addi	t4,t4,1283 # b503 <offset+0xb2cf>
80003028:	03df2fb3          	mulhsu	t6,t5,t4
8000302c:	0ff42e23          	sw	t6,252(s0)
80003030:	00000493          	li	s1,0
80003034:	01f48463          	beq	s1,t6,8000303c <inst_345>
80003038:	4cd0206f          	j	80005d04 <bad_trap>

8000303c <inst_345>:
8000303c:	00200f13          	li	t5,2
80003040:	00000e93          	li	t4,0
80003044:	03df2fb3          	mulhsu	t6,t5,t4
80003048:	11f42023          	sw	t6,256(s0)
8000304c:	00000493          	li	s1,0
80003050:	01f48463          	beq	s1,t6,80003058 <inst_346>
80003054:	4b10206f          	j	80005d04 <bad_trap>

80003058 <inst_346>:
80003058:	00200f13          	li	t5,2
8000305c:	00010eb7          	lui	t4,0x10
80003060:	ffee8e93          	addi	t4,t4,-2 # fffe <offset+0xfdca>
80003064:	03df2fb3          	mulhsu	t6,t5,t4
80003068:	11f42223          	sw	t6,260(s0)
8000306c:	00000493          	li	s1,0
80003070:	01f48463          	beq	s1,t6,80003078 <inst_347>
80003074:	4910206f          	j	80005d04 <bad_trap>

80003078 <inst_347>:
80003078:	00200f13          	li	t5,2
8000307c:	00400e93          	li	t4,4
80003080:	03df2fb3          	mulhsu	t6,t5,t4
80003084:	11f42423          	sw	t6,264(s0)
80003088:	00000493          	li	s1,0
8000308c:	01f48463          	beq	s1,t6,80003094 <inst_348>
80003090:	4750206f          	j	80005d04 <bad_trap>

80003094 <inst_348>:
80003094:	00200f13          	li	t5,2
80003098:	55555eb7          	lui	t4,0x55555
8000309c:	556e8e93          	addi	t4,t4,1366 # 55555556 <absimm+0x10263027>
800030a0:	03df2fb3          	mulhsu	t6,t5,t4
800030a4:	11f42623          	sw	t6,268(s0)
800030a8:	00000493          	li	s1,0
800030ac:	01f48463          	beq	s1,t6,800030b4 <inst_349>
800030b0:	4550206f          	j	80005d04 <bad_trap>

800030b4 <inst_349>:
800030b4:	00200f13          	li	t5,2
800030b8:	aaaabeb7          	lui	t4,0xaaaab
800030bc:	aabe8e93          	addi	t4,t4,-1365 # aaaaaaab <imm12+0xaaaaafdb>
800030c0:	03df2fb3          	mulhsu	t6,t5,t4
800030c4:	11f42823          	sw	t6,272(s0)
800030c8:	00100493          	li	s1,1
800030cc:	01f48463          	beq	s1,t6,800030d4 <inst_350>
800030d0:	4350206f          	j	80005d04 <bad_trap>

800030d4 <inst_350>:
800030d4:	00200f13          	li	t5,2
800030d8:	00600e93          	li	t4,6
800030dc:	03df2fb3          	mulhsu	t6,t5,t4
800030e0:	11f42a23          	sw	t6,276(s0)
800030e4:	00000493          	li	s1,0
800030e8:	01f48463          	beq	s1,t6,800030f0 <inst_351>
800030ec:	4190206f          	j	80005d04 <bad_trap>

800030f0 <inst_351>:
800030f0:	00200f13          	li	t5,2
800030f4:	33333eb7          	lui	t4,0x33333
800030f8:	334e8e93          	addi	t4,t4,820 # 33333334 <offset+0x33333100>
800030fc:	03df2fb3          	mulhsu	t6,t5,t4
80003100:	11f42c23          	sw	t6,280(s0)
80003104:	00000493          	li	s1,0
80003108:	01f48463          	beq	s1,t6,80003110 <inst_352>
8000310c:	3f90206f          	j	80005d04 <bad_trap>

80003110 <inst_352>:
80003110:	00200f13          	li	t5,2
80003114:	66666eb7          	lui	t4,0x66666
80003118:	667e8e93          	addi	t4,t4,1639 # 66666667 <absimm+0x21374138>
8000311c:	03df2fb3          	mulhsu	t6,t5,t4
80003120:	11f42e23          	sw	t6,284(s0)
80003124:	00000493          	li	s1,0
80003128:	01f48463          	beq	s1,t6,80003130 <inst_353>
8000312c:	3d90206f          	j	80005d04 <bad_trap>

80003130 <inst_353>:
80003130:	00200f13          	li	t5,2
80003134:	0000beb7          	lui	t4,0xb
80003138:	505e8e93          	addi	t4,t4,1285 # b505 <offset+0xb2d1>
8000313c:	03df2fb3          	mulhsu	t6,t5,t4
80003140:	13f42023          	sw	t6,288(s0)
80003144:	00000493          	li	s1,0
80003148:	01f48463          	beq	s1,t6,80003150 <inst_354>
8000314c:	3b90206f          	j	80005d04 <bad_trap>

80003150 <inst_354>:
80003150:	00200f13          	li	t5,2
80003154:	00100e93          	li	t4,1
80003158:	03df2fb3          	mulhsu	t6,t5,t4
8000315c:	13f42223          	sw	t6,292(s0)
80003160:	00000493          	li	s1,0
80003164:	01f48463          	beq	s1,t6,8000316c <inst_355>
80003168:	39d0206f          	j	80005d04 <bad_trap>

8000316c <inst_355>:
8000316c:	55555f37          	lui	t5,0x55555
80003170:	554f0f13          	addi	t5,t5,1364 # 55555554 <absimm+0x10263025>
80003174:	00300e93          	li	t4,3
80003178:	03df2fb3          	mulhsu	t6,t5,t4
8000317c:	13f42423          	sw	t6,296(s0)
80003180:	00000493          	li	s1,0
80003184:	01f48463          	beq	s1,t6,8000318c <inst_356>
80003188:	37d0206f          	j	80005d04 <bad_trap>

8000318c <inst_356>:
8000318c:	55555f37          	lui	t5,0x55555
80003190:	554f0f13          	addi	t5,t5,1364 # 55555554 <absimm+0x10263025>
80003194:	55555eb7          	lui	t4,0x55555
80003198:	555e8e93          	addi	t4,t4,1365 # 55555555 <absimm+0x10263026>
8000319c:	03df2fb3          	mulhsu	t6,t5,t4
800031a0:	13f42623          	sw	t6,300(s0)
800031a4:	1c71c4b7          	lui	s1,0x1c71c
800031a8:	71b48493          	addi	s1,s1,1819 # 1c71c71b <offset+0x1c71c4e7>
800031ac:	01f48463          	beq	s1,t6,800031b4 <inst_357>
800031b0:	3550206f          	j	80005d04 <bad_trap>

800031b4 <inst_357>:
800031b4:	55555f37          	lui	t5,0x55555
800031b8:	554f0f13          	addi	t5,t5,1364 # 55555554 <absimm+0x10263025>
800031bc:	aaaabeb7          	lui	t4,0xaaaab
800031c0:	aaae8e93          	addi	t4,t4,-1366 # aaaaaaaa <imm12+0xaaaaafda>
800031c4:	03df2fb3          	mulhsu	t6,t5,t4
800031c8:	13f42823          	sw	t6,304(s0)
800031cc:	38e394b7          	lui	s1,0x38e39
800031d0:	e3748493          	addi	s1,s1,-457 # 38e38e37 <offset+0x38e38c03>
800031d4:	01f48463          	beq	s1,t6,800031dc <inst_358>
800031d8:	32d0206f          	j	80005d04 <bad_trap>

800031dc <inst_358>:
800031dc:	55555f37          	lui	t5,0x55555
800031e0:	554f0f13          	addi	t5,t5,1364 # 55555554 <absimm+0x10263025>
800031e4:	00500e93          	li	t4,5
800031e8:	03df2fb3          	mulhsu	t6,t5,t4
800031ec:	13f42a23          	sw	t6,308(s0)
800031f0:	00100493          	li	s1,1
800031f4:	01f48463          	beq	s1,t6,800031fc <inst_359>
800031f8:	30d0206f          	j	80005d04 <bad_trap>

800031fc <inst_359>:
800031fc:	55555f37          	lui	t5,0x55555
80003200:	554f0f13          	addi	t5,t5,1364 # 55555554 <absimm+0x10263025>
80003204:	33333eb7          	lui	t4,0x33333
80003208:	333e8e93          	addi	t4,t4,819 # 33333333 <offset+0x333330ff>
8000320c:	03df2fb3          	mulhsu	t6,t5,t4
80003210:	13f42c23          	sw	t6,312(s0)
80003214:	111114b7          	lui	s1,0x11111
80003218:	11048493          	addi	s1,s1,272 # 11111110 <offset+0x11110edc>
8000321c:	01f48463          	beq	s1,t6,80003224 <inst_360>
80003220:	2e50206f          	j	80005d04 <bad_trap>

80003224 <inst_360>:
80003224:	55555f37          	lui	t5,0x55555
80003228:	554f0f13          	addi	t5,t5,1364 # 55555554 <absimm+0x10263025>
8000322c:	66666eb7          	lui	t4,0x66666
80003230:	666e8e93          	addi	t4,t4,1638 # 66666666 <absimm+0x21374137>
80003234:	03df2fb3          	mulhsu	t6,t5,t4
80003238:	13f42e23          	sw	t6,316(s0)
8000323c:	222224b7          	lui	s1,0x22222
80003240:	22148493          	addi	s1,s1,545 # 22222221 <offset+0x22221fed>
80003244:	01f48463          	beq	s1,t6,8000324c <inst_361>
80003248:	2bd0206f          	j	80005d04 <bad_trap>

8000324c <inst_361>:
8000324c:	55555f37          	lui	t5,0x55555
80003250:	554f0f13          	addi	t5,t5,1364 # 55555554 <absimm+0x10263025>
80003254:	0000beb7          	lui	t4,0xb
80003258:	504e8e93          	addi	t4,t4,1284 # b504 <offset+0xb2d0>
8000325c:	03df2fb3          	mulhsu	t6,t5,t4
80003260:	15f42023          	sw	t6,320(s0)
80003264:	000044b7          	lui	s1,0x4
80003268:	c5648493          	addi	s1,s1,-938 # 3c56 <offset+0x3a22>
8000326c:	01f48463          	beq	s1,t6,80003274 <inst_362>
80003270:	2950206f          	j	80005d04 <bad_trap>

80003274 <inst_362>:
80003274:	55555f37          	lui	t5,0x55555
80003278:	554f0f13          	addi	t5,t5,1364 # 55555554 <absimm+0x10263025>
8000327c:	00010eb7          	lui	t4,0x10
80003280:	fffe8e93          	addi	t4,t4,-1 # ffff <offset+0xfdcb>
80003284:	03df2fb3          	mulhsu	t6,t5,t4
80003288:	15f42223          	sw	t6,324(s0)
8000328c:	000054b7          	lui	s1,0x5
80003290:	55448493          	addi	s1,s1,1364 # 5554 <offset+0x5320>
80003294:	01f48463          	beq	s1,t6,8000329c <inst_363>
80003298:	26d0206f          	j	80005d04 <bad_trap>

8000329c <inst_363>:
8000329c:	55555f37          	lui	t5,0x55555
800032a0:	554f0f13          	addi	t5,t5,1364 # 55555554 <absimm+0x10263025>
800032a4:	00200e93          	li	t4,2
800032a8:	03df2fb3          	mulhsu	t6,t5,t4
800032ac:	15f42423          	sw	t6,328(s0)
800032b0:	00000493          	li	s1,0
800032b4:	01f48463          	beq	s1,t6,800032bc <inst_364>
800032b8:	24d0206f          	j	80005d04 <bad_trap>

800032bc <inst_364>:
800032bc:	55555f37          	lui	t5,0x55555
800032c0:	554f0f13          	addi	t5,t5,1364 # 55555554 <absimm+0x10263025>
800032c4:	55555eb7          	lui	t4,0x55555
800032c8:	554e8e93          	addi	t4,t4,1364 # 55555554 <absimm+0x10263025>
800032cc:	03df2fb3          	mulhsu	t6,t5,t4
800032d0:	15f42623          	sw	t6,332(s0)
800032d4:	1c71c4b7          	lui	s1,0x1c71c
800032d8:	71b48493          	addi	s1,s1,1819 # 1c71c71b <offset+0x1c71c4e7>
800032dc:	01f48463          	beq	s1,t6,800032e4 <inst_365>
800032e0:	2250206f          	j	80005d04 <bad_trap>

800032e4 <inst_365>:
800032e4:	55555f37          	lui	t5,0x55555
800032e8:	554f0f13          	addi	t5,t5,1364 # 55555554 <absimm+0x10263025>
800032ec:	aaaabeb7          	lui	t4,0xaaaab
800032f0:	aa9e8e93          	addi	t4,t4,-1367 # aaaaaaa9 <imm12+0xaaaaafd9>
800032f4:	03df2fb3          	mulhsu	t6,t5,t4
800032f8:	15f42823          	sw	t6,336(s0)
800032fc:	38e394b7          	lui	s1,0x38e39
80003300:	e3748493          	addi	s1,s1,-457 # 38e38e37 <offset+0x38e38c03>
80003304:	01f48463          	beq	s1,t6,8000330c <inst_366>
80003308:	1fd0206f          	j	80005d04 <bad_trap>

8000330c <inst_366>:
8000330c:	55555f37          	lui	t5,0x55555
80003310:	554f0f13          	addi	t5,t5,1364 # 55555554 <absimm+0x10263025>
80003314:	33333eb7          	lui	t4,0x33333
80003318:	332e8e93          	addi	t4,t4,818 # 33333332 <offset+0x333330fe>
8000331c:	03df2fb3          	mulhsu	t6,t5,t4
80003320:	15f42a23          	sw	t6,340(s0)
80003324:	111114b7          	lui	s1,0x11111
80003328:	11048493          	addi	s1,s1,272 # 11111110 <offset+0x11110edc>
8000332c:	01f48463          	beq	s1,t6,80003334 <inst_367>
80003330:	1d50206f          	j	80005d04 <bad_trap>

80003334 <inst_367>:
80003334:	55555f37          	lui	t5,0x55555
80003338:	554f0f13          	addi	t5,t5,1364 # 55555554 <absimm+0x10263025>
8000333c:	66666eb7          	lui	t4,0x66666
80003340:	665e8e93          	addi	t4,t4,1637 # 66666665 <absimm+0x21374136>
80003344:	03df2fb3          	mulhsu	t6,t5,t4
80003348:	15f42c23          	sw	t6,344(s0)
8000334c:	222224b7          	lui	s1,0x22222
80003350:	22148493          	addi	s1,s1,545 # 22222221 <offset+0x22221fed>
80003354:	01f48463          	beq	s1,t6,8000335c <inst_368>
80003358:	1ad0206f          	j	80005d04 <bad_trap>

8000335c <inst_368>:
8000335c:	55555f37          	lui	t5,0x55555
80003360:	554f0f13          	addi	t5,t5,1364 # 55555554 <absimm+0x10263025>
80003364:	0000beb7          	lui	t4,0xb
80003368:	503e8e93          	addi	t4,t4,1283 # b503 <offset+0xb2cf>
8000336c:	03df2fb3          	mulhsu	t6,t5,t4
80003370:	15f42e23          	sw	t6,348(s0)
80003374:	000044b7          	lui	s1,0x4
80003378:	c5648493          	addi	s1,s1,-938 # 3c56 <offset+0x3a22>
8000337c:	01f48463          	beq	s1,t6,80003384 <inst_369>
80003380:	1850206f          	j	80005d04 <bad_trap>

80003384 <inst_369>:
80003384:	55555f37          	lui	t5,0x55555
80003388:	554f0f13          	addi	t5,t5,1364 # 55555554 <absimm+0x10263025>
8000338c:	00000e93          	li	t4,0
80003390:	03df2fb3          	mulhsu	t6,t5,t4
80003394:	17f42023          	sw	t6,352(s0)
80003398:	00000493          	li	s1,0
8000339c:	01f48463          	beq	s1,t6,800033a4 <inst_370>
800033a0:	1650206f          	j	80005d04 <bad_trap>

800033a4 <inst_370>:
800033a4:	55555f37          	lui	t5,0x55555
800033a8:	554f0f13          	addi	t5,t5,1364 # 55555554 <absimm+0x10263025>
800033ac:	00010eb7          	lui	t4,0x10
800033b0:	ffee8e93          	addi	t4,t4,-2 # fffe <offset+0xfdca>
800033b4:	03df2fb3          	mulhsu	t6,t5,t4
800033b8:	17f42223          	sw	t6,356(s0)
800033bc:	000054b7          	lui	s1,0x5
800033c0:	55448493          	addi	s1,s1,1364 # 5554 <offset+0x5320>
800033c4:	01f48463          	beq	s1,t6,800033cc <inst_371>
800033c8:	13d0206f          	j	80005d04 <bad_trap>

800033cc <inst_371>:
800033cc:	55555f37          	lui	t5,0x55555
800033d0:	554f0f13          	addi	t5,t5,1364 # 55555554 <absimm+0x10263025>
800033d4:	00400e93          	li	t4,4
800033d8:	03df2fb3          	mulhsu	t6,t5,t4
800033dc:	17f42423          	sw	t6,360(s0)
800033e0:	00100493          	li	s1,1
800033e4:	01f48463          	beq	s1,t6,800033ec <inst_372>
800033e8:	11d0206f          	j	80005d04 <bad_trap>

800033ec <inst_372>:
800033ec:	55555f37          	lui	t5,0x55555
800033f0:	554f0f13          	addi	t5,t5,1364 # 55555554 <absimm+0x10263025>
800033f4:	55555eb7          	lui	t4,0x55555
800033f8:	556e8e93          	addi	t4,t4,1366 # 55555556 <absimm+0x10263027>
800033fc:	03df2fb3          	mulhsu	t6,t5,t4
80003400:	17f42623          	sw	t6,364(s0)
80003404:	1c71c4b7          	lui	s1,0x1c71c
80003408:	71c48493          	addi	s1,s1,1820 # 1c71c71c <offset+0x1c71c4e8>
8000340c:	01f48463          	beq	s1,t6,80003414 <inst_373>
80003410:	0f50206f          	j	80005d04 <bad_trap>

80003414 <inst_373>:
80003414:	55555f37          	lui	t5,0x55555
80003418:	554f0f13          	addi	t5,t5,1364 # 55555554 <absimm+0x10263025>
8000341c:	aaaabeb7          	lui	t4,0xaaaab
80003420:	aabe8e93          	addi	t4,t4,-1365 # aaaaaaab <imm12+0xaaaaafdb>
80003424:	03df2fb3          	mulhsu	t6,t5,t4
80003428:	17f42823          	sw	t6,368(s0)
8000342c:	38e394b7          	lui	s1,0x38e39
80003430:	e3848493          	addi	s1,s1,-456 # 38e38e38 <offset+0x38e38c04>
80003434:	01f48463          	beq	s1,t6,8000343c <inst_374>
80003438:	0cd0206f          	j	80005d04 <bad_trap>

8000343c <inst_374>:
8000343c:	55555f37          	lui	t5,0x55555
80003440:	554f0f13          	addi	t5,t5,1364 # 55555554 <absimm+0x10263025>
80003444:	00600e93          	li	t4,6
80003448:	03df2fb3          	mulhsu	t6,t5,t4
8000344c:	17f42a23          	sw	t6,372(s0)
80003450:	00100493          	li	s1,1
80003454:	01f48463          	beq	s1,t6,8000345c <inst_375>
80003458:	0ad0206f          	j	80005d04 <bad_trap>

8000345c <inst_375>:
8000345c:	55555f37          	lui	t5,0x55555
80003460:	554f0f13          	addi	t5,t5,1364 # 55555554 <absimm+0x10263025>
80003464:	33333eb7          	lui	t4,0x33333
80003468:	334e8e93          	addi	t4,t4,820 # 33333334 <offset+0x33333100>
8000346c:	03df2fb3          	mulhsu	t6,t5,t4
80003470:	17f42c23          	sw	t6,376(s0)
80003474:	111114b7          	lui	s1,0x11111
80003478:	11148493          	addi	s1,s1,273 # 11111111 <offset+0x11110edd>
8000347c:	01f48463          	beq	s1,t6,80003484 <inst_376>
80003480:	0850206f          	j	80005d04 <bad_trap>

80003484 <inst_376>:
80003484:	55555f37          	lui	t5,0x55555
80003488:	554f0f13          	addi	t5,t5,1364 # 55555554 <absimm+0x10263025>
8000348c:	66666eb7          	lui	t4,0x66666
80003490:	667e8e93          	addi	t4,t4,1639 # 66666667 <absimm+0x21374138>
80003494:	03df2fb3          	mulhsu	t6,t5,t4
80003498:	17f42e23          	sw	t6,380(s0)
8000349c:	222224b7          	lui	s1,0x22222
800034a0:	22148493          	addi	s1,s1,545 # 22222221 <offset+0x22221fed>
800034a4:	01f48463          	beq	s1,t6,800034ac <inst_377>
800034a8:	05d0206f          	j	80005d04 <bad_trap>

800034ac <inst_377>:
800034ac:	55555f37          	lui	t5,0x55555
800034b0:	554f0f13          	addi	t5,t5,1364 # 55555554 <absimm+0x10263025>
800034b4:	0000beb7          	lui	t4,0xb
800034b8:	505e8e93          	addi	t4,t4,1285 # b505 <offset+0xb2d1>
800034bc:	03df2fb3          	mulhsu	t6,t5,t4
800034c0:	19f42023          	sw	t6,384(s0)
800034c4:	000044b7          	lui	s1,0x4
800034c8:	c5648493          	addi	s1,s1,-938 # 3c56 <offset+0x3a22>
800034cc:	01f48463          	beq	s1,t6,800034d4 <inst_378>
800034d0:	0350206f          	j	80005d04 <bad_trap>

800034d4 <inst_378>:
800034d4:	55555f37          	lui	t5,0x55555
800034d8:	554f0f13          	addi	t5,t5,1364 # 55555554 <absimm+0x10263025>
800034dc:	00100e93          	li	t4,1
800034e0:	03df2fb3          	mulhsu	t6,t5,t4
800034e4:	19f42223          	sw	t6,388(s0)
800034e8:	00000493          	li	s1,0
800034ec:	01f48463          	beq	s1,t6,800034f4 <inst_379>
800034f0:	0150206f          	j	80005d04 <bad_trap>

800034f4 <inst_379>:
800034f4:	55555f37          	lui	t5,0x55555
800034f8:	554f0f13          	addi	t5,t5,1364 # 55555554 <absimm+0x10263025>
800034fc:	00010eb7          	lui	t4,0x10
80003500:	03df2fb3          	mulhsu	t6,t5,t4
80003504:	19f42423          	sw	t6,392(s0)
80003508:	000054b7          	lui	s1,0x5
8000350c:	55548493          	addi	s1,s1,1365 # 5555 <offset+0x5321>
80003510:	01f48463          	beq	s1,t6,80003518 <inst_380>
80003514:	7f00206f          	j	80005d04 <bad_trap>

80003518 <inst_380>:
80003518:	33333f37          	lui	t5,0x33333
8000351c:	332f0f13          	addi	t5,t5,818 # 33333332 <offset+0x333330fe>
80003520:	00300e93          	li	t4,3
80003524:	03df2fb3          	mulhsu	t6,t5,t4
80003528:	19f42623          	sw	t6,396(s0)
8000352c:	00000493          	li	s1,0
80003530:	01f48463          	beq	s1,t6,80003538 <inst_381>
80003534:	7d00206f          	j	80005d04 <bad_trap>

80003538 <inst_381>:
80003538:	33333f37          	lui	t5,0x33333
8000353c:	332f0f13          	addi	t5,t5,818 # 33333332 <offset+0x333330fe>
80003540:	55555eb7          	lui	t4,0x55555
80003544:	555e8e93          	addi	t4,t4,1365 # 55555555 <absimm+0x10263026>
80003548:	03df2fb3          	mulhsu	t6,t5,t4
8000354c:	19f42823          	sw	t6,400(s0)
80003550:	111114b7          	lui	s1,0x11111
80003554:	11048493          	addi	s1,s1,272 # 11111110 <offset+0x11110edc>
80003558:	01f48463          	beq	s1,t6,80003560 <inst_382>
8000355c:	7a80206f          	j	80005d04 <bad_trap>

80003560 <inst_382>:
80003560:	33333f37          	lui	t5,0x33333
80003564:	332f0f13          	addi	t5,t5,818 # 33333332 <offset+0x333330fe>
80003568:	aaaabeb7          	lui	t4,0xaaaab
8000356c:	aaae8e93          	addi	t4,t4,-1366 # aaaaaaaa <imm12+0xaaaaafda>
80003570:	03df2fb3          	mulhsu	t6,t5,t4
80003574:	19f42a23          	sw	t6,404(s0)
80003578:	222224b7          	lui	s1,0x22222
8000357c:	22148493          	addi	s1,s1,545 # 22222221 <offset+0x22221fed>
80003580:	01f48463          	beq	s1,t6,80003588 <inst_383>
80003584:	7800206f          	j	80005d04 <bad_trap>

80003588 <inst_383>:
80003588:	33333f37          	lui	t5,0x33333
8000358c:	332f0f13          	addi	t5,t5,818 # 33333332 <offset+0x333330fe>
80003590:	00500e93          	li	t4,5
80003594:	03df2fb3          	mulhsu	t6,t5,t4
80003598:	19f42c23          	sw	t6,408(s0)
8000359c:	00000493          	li	s1,0
800035a0:	01f48463          	beq	s1,t6,800035a8 <inst_384>
800035a4:	7600206f          	j	80005d04 <bad_trap>

800035a8 <inst_384>:
800035a8:	33333f37          	lui	t5,0x33333
800035ac:	332f0f13          	addi	t5,t5,818 # 33333332 <offset+0x333330fe>
800035b0:	33333eb7          	lui	t4,0x33333
800035b4:	333e8e93          	addi	t4,t4,819 # 33333333 <offset+0x333330ff>
800035b8:	03df2fb3          	mulhsu	t6,t5,t4
800035bc:	19f42e23          	sw	t6,412(s0)
800035c0:	0a3d74b7          	lui	s1,0xa3d7
800035c4:	0a348493          	addi	s1,s1,163 # a3d70a3 <offset+0xa3d6e6f>
800035c8:	01f48463          	beq	s1,t6,800035d0 <inst_385>
800035cc:	7380206f          	j	80005d04 <bad_trap>

800035d0 <inst_385>:
800035d0:	33333f37          	lui	t5,0x33333
800035d4:	332f0f13          	addi	t5,t5,818 # 33333332 <offset+0x333330fe>
800035d8:	66666eb7          	lui	t4,0x66666
800035dc:	666e8e93          	addi	t4,t4,1638 # 66666666 <absimm+0x21374137>
800035e0:	03df2fb3          	mulhsu	t6,t5,t4
800035e4:	1bf42023          	sw	t6,416(s0)
800035e8:	147ae4b7          	lui	s1,0x147ae
800035ec:	14748493          	addi	s1,s1,327 # 147ae147 <offset+0x147adf13>
800035f0:	01f48463          	beq	s1,t6,800035f8 <inst_386>
800035f4:	7100206f          	j	80005d04 <bad_trap>

800035f8 <inst_386>:
800035f8:	33333f37          	lui	t5,0x33333
800035fc:	332f0f13          	addi	t5,t5,818 # 33333332 <offset+0x333330fe>
80003600:	0000beb7          	lui	t4,0xb
80003604:	504e8e93          	addi	t4,t4,1284 # b504 <offset+0xb2d0>
80003608:	03df2fb3          	mulhsu	t6,t5,t4
8000360c:	1bf42223          	sw	t6,420(s0)
80003610:	000024b7          	lui	s1,0x2
80003614:	43348493          	addi	s1,s1,1075 # 2433 <offset+0x21ff>
80003618:	01f48463          	beq	s1,t6,80003620 <inst_387>
8000361c:	6e80206f          	j	80005d04 <bad_trap>

80003620 <inst_387>:
80003620:	33333f37          	lui	t5,0x33333
80003624:	332f0f13          	addi	t5,t5,818 # 33333332 <offset+0x333330fe>
80003628:	00010eb7          	lui	t4,0x10
8000362c:	fffe8e93          	addi	t4,t4,-1 # ffff <offset+0xfdcb>
80003630:	03df2fb3          	mulhsu	t6,t5,t4
80003634:	1bf42423          	sw	t6,424(s0)
80003638:	000034b7          	lui	s1,0x3
8000363c:	33248493          	addi	s1,s1,818 # 3332 <offset+0x30fe>
80003640:	01f48463          	beq	s1,t6,80003648 <inst_388>
80003644:	6c00206f          	j	80005d04 <bad_trap>

80003648 <inst_388>:
80003648:	33333f37          	lui	t5,0x33333
8000364c:	332f0f13          	addi	t5,t5,818 # 33333332 <offset+0x333330fe>
80003650:	00200e93          	li	t4,2
80003654:	03df2fb3          	mulhsu	t6,t5,t4
80003658:	1bf42623          	sw	t6,428(s0)
8000365c:	00000493          	li	s1,0
80003660:	01f48463          	beq	s1,t6,80003668 <inst_389>
80003664:	6a00206f          	j	80005d04 <bad_trap>

80003668 <inst_389>:
80003668:	33333f37          	lui	t5,0x33333
8000366c:	332f0f13          	addi	t5,t5,818 # 33333332 <offset+0x333330fe>
80003670:	55555eb7          	lui	t4,0x55555
80003674:	554e8e93          	addi	t4,t4,1364 # 55555554 <absimm+0x10263025>
80003678:	03df2fb3          	mulhsu	t6,t5,t4
8000367c:	1bf42823          	sw	t6,432(s0)
80003680:	111114b7          	lui	s1,0x11111
80003684:	11048493          	addi	s1,s1,272 # 11111110 <offset+0x11110edc>
80003688:	01f48463          	beq	s1,t6,80003690 <inst_390>
8000368c:	6780206f          	j	80005d04 <bad_trap>

80003690 <inst_390>:
80003690:	33333f37          	lui	t5,0x33333
80003694:	332f0f13          	addi	t5,t5,818 # 33333332 <offset+0x333330fe>
80003698:	aaaabeb7          	lui	t4,0xaaaab
8000369c:	aa9e8e93          	addi	t4,t4,-1367 # aaaaaaa9 <imm12+0xaaaaafd9>
800036a0:	03df2fb3          	mulhsu	t6,t5,t4
800036a4:	1bf42a23          	sw	t6,436(s0)
800036a8:	222224b7          	lui	s1,0x22222
800036ac:	22148493          	addi	s1,s1,545 # 22222221 <offset+0x22221fed>
800036b0:	01f48463          	beq	s1,t6,800036b8 <inst_391>
800036b4:	6500206f          	j	80005d04 <bad_trap>

800036b8 <inst_391>:
800036b8:	33333f37          	lui	t5,0x33333
800036bc:	332f0f13          	addi	t5,t5,818 # 33333332 <offset+0x333330fe>
800036c0:	33333eb7          	lui	t4,0x33333
800036c4:	332e8e93          	addi	t4,t4,818 # 33333332 <offset+0x333330fe>
800036c8:	03df2fb3          	mulhsu	t6,t5,t4
800036cc:	1bf42c23          	sw	t6,440(s0)
800036d0:	0a3d74b7          	lui	s1,0xa3d7
800036d4:	0a348493          	addi	s1,s1,163 # a3d70a3 <offset+0xa3d6e6f>
800036d8:	01f48463          	beq	s1,t6,800036e0 <inst_392>
800036dc:	6280206f          	j	80005d04 <bad_trap>

800036e0 <inst_392>:
800036e0:	33333f37          	lui	t5,0x33333
800036e4:	332f0f13          	addi	t5,t5,818 # 33333332 <offset+0x333330fe>
800036e8:	66666eb7          	lui	t4,0x66666
800036ec:	665e8e93          	addi	t4,t4,1637 # 66666665 <absimm+0x21374136>
800036f0:	03df2fb3          	mulhsu	t6,t5,t4
800036f4:	1bf42e23          	sw	t6,444(s0)
800036f8:	147ae4b7          	lui	s1,0x147ae
800036fc:	14648493          	addi	s1,s1,326 # 147ae146 <offset+0x147adf12>
80003700:	01f48463          	beq	s1,t6,80003708 <inst_393>
80003704:	6000206f          	j	80005d04 <bad_trap>

80003708 <inst_393>:
80003708:	33333f37          	lui	t5,0x33333
8000370c:	332f0f13          	addi	t5,t5,818 # 33333332 <offset+0x333330fe>
80003710:	0000beb7          	lui	t4,0xb
80003714:	503e8e93          	addi	t4,t4,1283 # b503 <offset+0xb2cf>
80003718:	03df2fb3          	mulhsu	t6,t5,t4
8000371c:	1df42023          	sw	t6,448(s0)
80003720:	000024b7          	lui	s1,0x2
80003724:	43348493          	addi	s1,s1,1075 # 2433 <offset+0x21ff>
80003728:	01f48463          	beq	s1,t6,80003730 <inst_394>
8000372c:	5d80206f          	j	80005d04 <bad_trap>

80003730 <inst_394>:
80003730:	33333f37          	lui	t5,0x33333
80003734:	332f0f13          	addi	t5,t5,818 # 33333332 <offset+0x333330fe>
80003738:	00000e93          	li	t4,0
8000373c:	03df2fb3          	mulhsu	t6,t5,t4
80003740:	1df42223          	sw	t6,452(s0)
80003744:	00000493          	li	s1,0
80003748:	01f48463          	beq	s1,t6,80003750 <inst_395>
8000374c:	5b80206f          	j	80005d04 <bad_trap>

80003750 <inst_395>:
80003750:	33333f37          	lui	t5,0x33333
80003754:	332f0f13          	addi	t5,t5,818 # 33333332 <offset+0x333330fe>
80003758:	00010eb7          	lui	t4,0x10
8000375c:	ffee8e93          	addi	t4,t4,-2 # fffe <offset+0xfdca>
80003760:	03df2fb3          	mulhsu	t6,t5,t4
80003764:	1df42423          	sw	t6,456(s0)
80003768:	000034b7          	lui	s1,0x3
8000376c:	33248493          	addi	s1,s1,818 # 3332 <offset+0x30fe>
80003770:	01f48463          	beq	s1,t6,80003778 <inst_396>
80003774:	5900206f          	j	80005d04 <bad_trap>

80003778 <inst_396>:
80003778:	33333f37          	lui	t5,0x33333
8000377c:	332f0f13          	addi	t5,t5,818 # 33333332 <offset+0x333330fe>
80003780:	00400e93          	li	t4,4
80003784:	03df2fb3          	mulhsu	t6,t5,t4
80003788:	1df42623          	sw	t6,460(s0)
8000378c:	00000493          	li	s1,0
80003790:	01f48463          	beq	s1,t6,80003798 <inst_397>
80003794:	5700206f          	j	80005d04 <bad_trap>

80003798 <inst_397>:
80003798:	33333f37          	lui	t5,0x33333
8000379c:	332f0f13          	addi	t5,t5,818 # 33333332 <offset+0x333330fe>
800037a0:	55555eb7          	lui	t4,0x55555
800037a4:	556e8e93          	addi	t4,t4,1366 # 55555556 <absimm+0x10263027>
800037a8:	03df2fb3          	mulhsu	t6,t5,t4
800037ac:	1df42823          	sw	t6,464(s0)
800037b0:	111114b7          	lui	s1,0x11111
800037b4:	11048493          	addi	s1,s1,272 # 11111110 <offset+0x11110edc>
800037b8:	01f48463          	beq	s1,t6,800037c0 <inst_398>
800037bc:	5480206f          	j	80005d04 <bad_trap>

800037c0 <inst_398>:
800037c0:	33333f37          	lui	t5,0x33333
800037c4:	332f0f13          	addi	t5,t5,818 # 33333332 <offset+0x333330fe>
800037c8:	aaaabeb7          	lui	t4,0xaaaab
800037cc:	aabe8e93          	addi	t4,t4,-1365 # aaaaaaab <imm12+0xaaaaafdb>
800037d0:	03df2fb3          	mulhsu	t6,t5,t4
800037d4:	1df42a23          	sw	t6,468(s0)
800037d8:	222224b7          	lui	s1,0x22222
800037dc:	22148493          	addi	s1,s1,545 # 22222221 <offset+0x22221fed>
800037e0:	01f48463          	beq	s1,t6,800037e8 <inst_399>
800037e4:	5200206f          	j	80005d04 <bad_trap>

800037e8 <inst_399>:
800037e8:	33333f37          	lui	t5,0x33333
800037ec:	332f0f13          	addi	t5,t5,818 # 33333332 <offset+0x333330fe>
800037f0:	00600e93          	li	t4,6
800037f4:	03df2fb3          	mulhsu	t6,t5,t4
800037f8:	1df42c23          	sw	t6,472(s0)
800037fc:	00100493          	li	s1,1
80003800:	01f48463          	beq	s1,t6,80003808 <inst_400>
80003804:	5000206f          	j	80005d04 <bad_trap>

80003808 <inst_400>:
80003808:	33333f37          	lui	t5,0x33333
8000380c:	332f0f13          	addi	t5,t5,818 # 33333332 <offset+0x333330fe>
80003810:	33333eb7          	lui	t4,0x33333
80003814:	334e8e93          	addi	t4,t4,820 # 33333334 <offset+0x33333100>
80003818:	03df2fb3          	mulhsu	t6,t5,t4
8000381c:	1df42e23          	sw	t6,476(s0)
80003820:	0a3d74b7          	lui	s1,0xa3d7
80003824:	0a348493          	addi	s1,s1,163 # a3d70a3 <offset+0xa3d6e6f>
80003828:	01f48463          	beq	s1,t6,80003830 <inst_401>
8000382c:	4d80206f          	j	80005d04 <bad_trap>

80003830 <inst_401>:
80003830:	33333f37          	lui	t5,0x33333
80003834:	332f0f13          	addi	t5,t5,818 # 33333332 <offset+0x333330fe>
80003838:	66666eb7          	lui	t4,0x66666
8000383c:	667e8e93          	addi	t4,t4,1639 # 66666667 <absimm+0x21374138>
80003840:	03df2fb3          	mulhsu	t6,t5,t4
80003844:	1ff42023          	sw	t6,480(s0)
80003848:	147ae4b7          	lui	s1,0x147ae
8000384c:	14748493          	addi	s1,s1,327 # 147ae147 <offset+0x147adf13>
80003850:	01f48463          	beq	s1,t6,80003858 <inst_402>
80003854:	4b00206f          	j	80005d04 <bad_trap>

80003858 <inst_402>:
80003858:	33333f37          	lui	t5,0x33333
8000385c:	332f0f13          	addi	t5,t5,818 # 33333332 <offset+0x333330fe>
80003860:	0000beb7          	lui	t4,0xb
80003864:	505e8e93          	addi	t4,t4,1285 # b505 <offset+0xb2d1>
80003868:	03df2fb3          	mulhsu	t6,t5,t4
8000386c:	1ff42223          	sw	t6,484(s0)
80003870:	000024b7          	lui	s1,0x2
80003874:	43448493          	addi	s1,s1,1076 # 2434 <offset+0x2200>
80003878:	01f48463          	beq	s1,t6,80003880 <inst_403>
8000387c:	4880206f          	j	80005d04 <bad_trap>

80003880 <inst_403>:
80003880:	33333f37          	lui	t5,0x33333
80003884:	332f0f13          	addi	t5,t5,818 # 33333332 <offset+0x333330fe>
80003888:	00100e93          	li	t4,1
8000388c:	03df2fb3          	mulhsu	t6,t5,t4
80003890:	1ff42423          	sw	t6,488(s0)
80003894:	00000493          	li	s1,0
80003898:	01f48463          	beq	s1,t6,800038a0 <inst_404>
8000389c:	4680206f          	j	80005d04 <bad_trap>

800038a0 <inst_404>:
800038a0:	33333f37          	lui	t5,0x33333
800038a4:	332f0f13          	addi	t5,t5,818 # 33333332 <offset+0x333330fe>
800038a8:	00010eb7          	lui	t4,0x10
800038ac:	03df2fb3          	mulhsu	t6,t5,t4
800038b0:	1ff42623          	sw	t6,492(s0)
800038b4:	000034b7          	lui	s1,0x3
800038b8:	33348493          	addi	s1,s1,819 # 3333 <offset+0x30ff>
800038bc:	01f48463          	beq	s1,t6,800038c4 <inst_405>
800038c0:	4440206f          	j	80005d04 <bad_trap>

800038c4 <inst_405>:
800038c4:	66666f37          	lui	t5,0x66666
800038c8:	665f0f13          	addi	t5,t5,1637 # 66666665 <absimm+0x21374136>
800038cc:	00300e93          	li	t4,3
800038d0:	03df2fb3          	mulhsu	t6,t5,t4
800038d4:	1ff42823          	sw	t6,496(s0)
800038d8:	00100493          	li	s1,1
800038dc:	01f48463          	beq	s1,t6,800038e4 <inst_406>
800038e0:	4240206f          	j	80005d04 <bad_trap>

800038e4 <inst_406>:
800038e4:	66666f37          	lui	t5,0x66666
800038e8:	665f0f13          	addi	t5,t5,1637 # 66666665 <absimm+0x21374136>
800038ec:	55555eb7          	lui	t4,0x55555
800038f0:	555e8e93          	addi	t4,t4,1365 # 55555555 <absimm+0x10263026>
800038f4:	03df2fb3          	mulhsu	t6,t5,t4
800038f8:	1ff42a23          	sw	t6,500(s0)
800038fc:	222224b7          	lui	s1,0x22222
80003900:	22148493          	addi	s1,s1,545 # 22222221 <offset+0x22221fed>
80003904:	01f48463          	beq	s1,t6,8000390c <inst_407>
80003908:	3fc0206f          	j	80005d04 <bad_trap>

8000390c <inst_407>:
8000390c:	66666f37          	lui	t5,0x66666
80003910:	665f0f13          	addi	t5,t5,1637 # 66666665 <absimm+0x21374136>
80003914:	aaaabeb7          	lui	t4,0xaaaab
80003918:	aaae8e93          	addi	t4,t4,-1366 # aaaaaaaa <imm12+0xaaaaafda>
8000391c:	03df2fb3          	mulhsu	t6,t5,t4
80003920:	1ff42c23          	sw	t6,504(s0)
80003924:	444444b7          	lui	s1,0x44444
80003928:	44348493          	addi	s1,s1,1091 # 44444443 <offset+0x4444420f>
8000392c:	01f48463          	beq	s1,t6,80003934 <inst_408>
80003930:	3d40206f          	j	80005d04 <bad_trap>

80003934 <inst_408>:
80003934:	66666f37          	lui	t5,0x66666
80003938:	665f0f13          	addi	t5,t5,1637 # 66666665 <absimm+0x21374136>
8000393c:	00500e93          	li	t4,5
80003940:	03df2fb3          	mulhsu	t6,t5,t4
80003944:	1ff42e23          	sw	t6,508(s0)
80003948:	00100493          	li	s1,1
8000394c:	01f48463          	beq	s1,t6,80003954 <inst_409>
80003950:	3b40206f          	j	80005d04 <bad_trap>

80003954 <inst_409>:
80003954:	66666f37          	lui	t5,0x66666
80003958:	665f0f13          	addi	t5,t5,1637 # 66666665 <absimm+0x21374136>
8000395c:	33333eb7          	lui	t4,0x33333
80003960:	333e8e93          	addi	t4,t4,819 # 33333333 <offset+0x333330ff>
80003964:	03df2fb3          	mulhsu	t6,t5,t4
80003968:	21f42023          	sw	t6,512(s0)
8000396c:	147ae4b7          	lui	s1,0x147ae
80003970:	14748493          	addi	s1,s1,327 # 147ae147 <offset+0x147adf13>
80003974:	01f48463          	beq	s1,t6,8000397c <inst_410>
80003978:	38c0206f          	j	80005d04 <bad_trap>

8000397c <inst_410>:
8000397c:	66666f37          	lui	t5,0x66666
80003980:	665f0f13          	addi	t5,t5,1637 # 66666665 <absimm+0x21374136>
80003984:	66666eb7          	lui	t4,0x66666
80003988:	666e8e93          	addi	t4,t4,1638 # 66666666 <absimm+0x21374137>
8000398c:	03df2fb3          	mulhsu	t6,t5,t4
80003990:	21f42223          	sw	t6,516(s0)
80003994:	28f5c4b7          	lui	s1,0x28f5c
80003998:	28e48493          	addi	s1,s1,654 # 28f5c28e <offset+0x28f5c05a>
8000399c:	01f48463          	beq	s1,t6,800039a4 <inst_411>
800039a0:	3640206f          	j	80005d04 <bad_trap>

800039a4 <inst_411>:
800039a4:	66666f37          	lui	t5,0x66666
800039a8:	665f0f13          	addi	t5,t5,1637 # 66666665 <absimm+0x21374136>
800039ac:	0000beb7          	lui	t4,0xb
800039b0:	504e8e93          	addi	t4,t4,1284 # b504 <offset+0xb2d0>
800039b4:	03df2fb3          	mulhsu	t6,t5,t4
800039b8:	21f42423          	sw	t6,520(s0)
800039bc:	000054b7          	lui	s1,0x5
800039c0:	86748493          	addi	s1,s1,-1945 # 4867 <offset+0x4633>
800039c4:	01f48463          	beq	s1,t6,800039cc <inst_412>
800039c8:	33c0206f          	j	80005d04 <bad_trap>

800039cc <inst_412>:
800039cc:	66666f37          	lui	t5,0x66666
800039d0:	665f0f13          	addi	t5,t5,1637 # 66666665 <absimm+0x21374136>
800039d4:	00010eb7          	lui	t4,0x10
800039d8:	fffe8e93          	addi	t4,t4,-1 # ffff <offset+0xfdcb>
800039dc:	03df2fb3          	mulhsu	t6,t5,t4
800039e0:	21f42623          	sw	t6,524(s0)
800039e4:	000064b7          	lui	s1,0x6
800039e8:	66548493          	addi	s1,s1,1637 # 6665 <offset+0x6431>
800039ec:	01f48463          	beq	s1,t6,800039f4 <inst_413>
800039f0:	3140206f          	j	80005d04 <bad_trap>

800039f4 <inst_413>:
800039f4:	66666f37          	lui	t5,0x66666
800039f8:	665f0f13          	addi	t5,t5,1637 # 66666665 <absimm+0x21374136>
800039fc:	00200e93          	li	t4,2
80003a00:	03df2fb3          	mulhsu	t6,t5,t4
80003a04:	21f42823          	sw	t6,528(s0)
80003a08:	00000493          	li	s1,0
80003a0c:	01f48463          	beq	s1,t6,80003a14 <inst_414>
80003a10:	2f40206f          	j	80005d04 <bad_trap>

80003a14 <inst_414>:
80003a14:	66666f37          	lui	t5,0x66666
80003a18:	665f0f13          	addi	t5,t5,1637 # 66666665 <absimm+0x21374136>
80003a1c:	55555eb7          	lui	t4,0x55555
80003a20:	554e8e93          	addi	t4,t4,1364 # 55555554 <absimm+0x10263025>
80003a24:	03df2fb3          	mulhsu	t6,t5,t4
80003a28:	21f42a23          	sw	t6,532(s0)
80003a2c:	222224b7          	lui	s1,0x22222
80003a30:	22148493          	addi	s1,s1,545 # 22222221 <offset+0x22221fed>
80003a34:	01f48463          	beq	s1,t6,80003a3c <inst_415>
80003a38:	2cc0206f          	j	80005d04 <bad_trap>

80003a3c <inst_415>:
80003a3c:	66666f37          	lui	t5,0x66666
80003a40:	665f0f13          	addi	t5,t5,1637 # 66666665 <absimm+0x21374136>
80003a44:	aaaabeb7          	lui	t4,0xaaaab
80003a48:	aa9e8e93          	addi	t4,t4,-1367 # aaaaaaa9 <imm12+0xaaaaafd9>
80003a4c:	03df2fb3          	mulhsu	t6,t5,t4
80003a50:	21f42c23          	sw	t6,536(s0)
80003a54:	444444b7          	lui	s1,0x44444
80003a58:	44248493          	addi	s1,s1,1090 # 44444442 <offset+0x4444420e>
80003a5c:	01f48463          	beq	s1,t6,80003a64 <inst_416>
80003a60:	2a40206f          	j	80005d04 <bad_trap>

80003a64 <inst_416>:
80003a64:	66666f37          	lui	t5,0x66666
80003a68:	665f0f13          	addi	t5,t5,1637 # 66666665 <absimm+0x21374136>
80003a6c:	33333eb7          	lui	t4,0x33333
80003a70:	332e8e93          	addi	t4,t4,818 # 33333332 <offset+0x333330fe>
80003a74:	03df2fb3          	mulhsu	t6,t5,t4
80003a78:	21f42e23          	sw	t6,540(s0)
80003a7c:	147ae4b7          	lui	s1,0x147ae
80003a80:	14648493          	addi	s1,s1,326 # 147ae146 <offset+0x147adf12>
80003a84:	01f48463          	beq	s1,t6,80003a8c <inst_417>
80003a88:	27c0206f          	j	80005d04 <bad_trap>

80003a8c <inst_417>:
80003a8c:	66666f37          	lui	t5,0x66666
80003a90:	665f0f13          	addi	t5,t5,1637 # 66666665 <absimm+0x21374136>
80003a94:	66666eb7          	lui	t4,0x66666
80003a98:	665e8e93          	addi	t4,t4,1637 # 66666665 <absimm+0x21374136>
80003a9c:	03df2fb3          	mulhsu	t6,t5,t4
80003aa0:	23f42023          	sw	t6,544(s0)
80003aa4:	28f5c4b7          	lui	s1,0x28f5c
80003aa8:	28e48493          	addi	s1,s1,654 # 28f5c28e <offset+0x28f5c05a>
80003aac:	01f48463          	beq	s1,t6,80003ab4 <inst_418>
80003ab0:	2540206f          	j	80005d04 <bad_trap>

80003ab4 <inst_418>:
80003ab4:	00400f13          	li	t5,4
80003ab8:	0000beb7          	lui	t4,0xb
80003abc:	505e8e93          	addi	t4,t4,1285 # b505 <offset+0xb2d1>
80003ac0:	03df2fb3          	mulhsu	t6,t5,t4
80003ac4:	23f42223          	sw	t6,548(s0)
80003ac8:	00000493          	li	s1,0
80003acc:	01f48463          	beq	s1,t6,80003ad4 <inst_419>
80003ad0:	2340206f          	j	80005d04 <bad_trap>

80003ad4 <inst_419>:
80003ad4:	00400f13          	li	t5,4
80003ad8:	00100e93          	li	t4,1
80003adc:	03df2fb3          	mulhsu	t6,t5,t4
80003ae0:	23f42423          	sw	t6,552(s0)
80003ae4:	00000493          	li	s1,0
80003ae8:	01f48463          	beq	s1,t6,80003af0 <inst_420>
80003aec:	2180206f          	j	80005d04 <bad_trap>

80003af0 <inst_420>:
80003af0:	55555f37          	lui	t5,0x55555
80003af4:	556f0f13          	addi	t5,t5,1366 # 55555556 <absimm+0x10263027>
80003af8:	00300e93          	li	t4,3
80003afc:	03df2fb3          	mulhsu	t6,t5,t4
80003b00:	23f42623          	sw	t6,556(s0)
80003b04:	00100493          	li	s1,1
80003b08:	01f48463          	beq	s1,t6,80003b10 <inst_421>
80003b0c:	1f80206f          	j	80005d04 <bad_trap>

80003b10 <inst_421>:
80003b10:	55555f37          	lui	t5,0x55555
80003b14:	556f0f13          	addi	t5,t5,1366 # 55555556 <absimm+0x10263027>
80003b18:	55555eb7          	lui	t4,0x55555
80003b1c:	555e8e93          	addi	t4,t4,1365 # 55555555 <absimm+0x10263026>
80003b20:	03df2fb3          	mulhsu	t6,t5,t4
80003b24:	23f42823          	sw	t6,560(s0)
80003b28:	1c71c4b7          	lui	s1,0x1c71c
80003b2c:	71c48493          	addi	s1,s1,1820 # 1c71c71c <offset+0x1c71c4e8>
80003b30:	01f48463          	beq	s1,t6,80003b38 <inst_422>
80003b34:	1d00206f          	j	80005d04 <bad_trap>

80003b38 <inst_422>:
80003b38:	55555f37          	lui	t5,0x55555
80003b3c:	556f0f13          	addi	t5,t5,1366 # 55555556 <absimm+0x10263027>
80003b40:	aaaabeb7          	lui	t4,0xaaaab
80003b44:	aaae8e93          	addi	t4,t4,-1366 # aaaaaaaa <imm12+0xaaaaafda>
80003b48:	03df2fb3          	mulhsu	t6,t5,t4
80003b4c:	23f42a23          	sw	t6,564(s0)
80003b50:	38e394b7          	lui	s1,0x38e39
80003b54:	e3948493          	addi	s1,s1,-455 # 38e38e39 <offset+0x38e38c05>
80003b58:	01f48463          	beq	s1,t6,80003b60 <inst_423>
80003b5c:	1a80206f          	j	80005d04 <bad_trap>

80003b60 <inst_423>:
80003b60:	55555f37          	lui	t5,0x55555
80003b64:	556f0f13          	addi	t5,t5,1366 # 55555556 <absimm+0x10263027>
80003b68:	00500e93          	li	t4,5
80003b6c:	03df2fb3          	mulhsu	t6,t5,t4
80003b70:	23f42c23          	sw	t6,568(s0)
80003b74:	00100493          	li	s1,1
80003b78:	01f48463          	beq	s1,t6,80003b80 <inst_424>
80003b7c:	1880206f          	j	80005d04 <bad_trap>

80003b80 <inst_424>:
80003b80:	55555f37          	lui	t5,0x55555
80003b84:	556f0f13          	addi	t5,t5,1366 # 55555556 <absimm+0x10263027>
80003b88:	33333eb7          	lui	t4,0x33333
80003b8c:	333e8e93          	addi	t4,t4,819 # 33333333 <offset+0x333330ff>
80003b90:	03df2fb3          	mulhsu	t6,t5,t4
80003b94:	23f42e23          	sw	t6,572(s0)
80003b98:	111114b7          	lui	s1,0x11111
80003b9c:	11148493          	addi	s1,s1,273 # 11111111 <offset+0x11110edd>
80003ba0:	01f48463          	beq	s1,t6,80003ba8 <inst_425>
80003ba4:	1600206f          	j	80005d04 <bad_trap>

80003ba8 <inst_425>:
80003ba8:	55555f37          	lui	t5,0x55555
80003bac:	556f0f13          	addi	t5,t5,1366 # 55555556 <absimm+0x10263027>
80003bb0:	66666eb7          	lui	t4,0x66666
80003bb4:	666e8e93          	addi	t4,t4,1638 # 66666666 <absimm+0x21374137>
80003bb8:	03df2fb3          	mulhsu	t6,t5,t4
80003bbc:	25f42023          	sw	t6,576(s0)
80003bc0:	222224b7          	lui	s1,0x22222
80003bc4:	22248493          	addi	s1,s1,546 # 22222222 <offset+0x22221fee>
80003bc8:	01f48463          	beq	s1,t6,80003bd0 <inst_426>
80003bcc:	1380206f          	j	80005d04 <bad_trap>

80003bd0 <inst_426>:
80003bd0:	55555f37          	lui	t5,0x55555
80003bd4:	556f0f13          	addi	t5,t5,1366 # 55555556 <absimm+0x10263027>
80003bd8:	0000beb7          	lui	t4,0xb
80003bdc:	504e8e93          	addi	t4,t4,1284 # b504 <offset+0xb2d0>
80003be0:	03df2fb3          	mulhsu	t6,t5,t4
80003be4:	25f42223          	sw	t6,580(s0)
80003be8:	000044b7          	lui	s1,0x4
80003bec:	c5648493          	addi	s1,s1,-938 # 3c56 <offset+0x3a22>
80003bf0:	01f48463          	beq	s1,t6,80003bf8 <inst_427>
80003bf4:	1100206f          	j	80005d04 <bad_trap>

80003bf8 <inst_427>:
80003bf8:	55555f37          	lui	t5,0x55555
80003bfc:	556f0f13          	addi	t5,t5,1366 # 55555556 <absimm+0x10263027>
80003c00:	00010eb7          	lui	t4,0x10
80003c04:	fffe8e93          	addi	t4,t4,-1 # ffff <offset+0xfdcb>
80003c08:	03df2fb3          	mulhsu	t6,t5,t4
80003c0c:	25f42423          	sw	t6,584(s0)
80003c10:	000054b7          	lui	s1,0x5
80003c14:	55548493          	addi	s1,s1,1365 # 5555 <offset+0x5321>
80003c18:	01f48463          	beq	s1,t6,80003c20 <inst_428>
80003c1c:	0e80206f          	j	80005d04 <bad_trap>

80003c20 <inst_428>:
80003c20:	55555f37          	lui	t5,0x55555
80003c24:	556f0f13          	addi	t5,t5,1366 # 55555556 <absimm+0x10263027>
80003c28:	00200e93          	li	t4,2
80003c2c:	03df2fb3          	mulhsu	t6,t5,t4
80003c30:	25f42623          	sw	t6,588(s0)
80003c34:	00000493          	li	s1,0
80003c38:	01f48463          	beq	s1,t6,80003c40 <inst_429>
80003c3c:	0c80206f          	j	80005d04 <bad_trap>

80003c40 <inst_429>:
80003c40:	55555f37          	lui	t5,0x55555
80003c44:	556f0f13          	addi	t5,t5,1366 # 55555556 <absimm+0x10263027>
80003c48:	55555eb7          	lui	t4,0x55555
80003c4c:	554e8e93          	addi	t4,t4,1364 # 55555554 <absimm+0x10263025>
80003c50:	03df2fb3          	mulhsu	t6,t5,t4
80003c54:	25f42823          	sw	t6,592(s0)
80003c58:	1c71c4b7          	lui	s1,0x1c71c
80003c5c:	71c48493          	addi	s1,s1,1820 # 1c71c71c <offset+0x1c71c4e8>
80003c60:	01f48463          	beq	s1,t6,80003c68 <inst_430>
80003c64:	0a00206f          	j	80005d04 <bad_trap>

80003c68 <inst_430>:
80003c68:	55555f37          	lui	t5,0x55555
80003c6c:	556f0f13          	addi	t5,t5,1366 # 55555556 <absimm+0x10263027>
80003c70:	aaaabeb7          	lui	t4,0xaaaab
80003c74:	aa9e8e93          	addi	t4,t4,-1367 # aaaaaaa9 <imm12+0xaaaaafd9>
80003c78:	03df2fb3          	mulhsu	t6,t5,t4
80003c7c:	25f42a23          	sw	t6,596(s0)
80003c80:	38e394b7          	lui	s1,0x38e39
80003c84:	e3848493          	addi	s1,s1,-456 # 38e38e38 <offset+0x38e38c04>
80003c88:	01f48463          	beq	s1,t6,80003c90 <inst_431>
80003c8c:	0780206f          	j	80005d04 <bad_trap>

80003c90 <inst_431>:
80003c90:	55555f37          	lui	t5,0x55555
80003c94:	556f0f13          	addi	t5,t5,1366 # 55555556 <absimm+0x10263027>
80003c98:	33333eb7          	lui	t4,0x33333
80003c9c:	332e8e93          	addi	t4,t4,818 # 33333332 <offset+0x333330fe>
80003ca0:	03df2fb3          	mulhsu	t6,t5,t4
80003ca4:	25f42c23          	sw	t6,600(s0)
80003ca8:	111114b7          	lui	s1,0x11111
80003cac:	11048493          	addi	s1,s1,272 # 11111110 <offset+0x11110edc>
80003cb0:	01f48463          	beq	s1,t6,80003cb8 <inst_432>
80003cb4:	0500206f          	j	80005d04 <bad_trap>

80003cb8 <inst_432>:
80003cb8:	55555f37          	lui	t5,0x55555
80003cbc:	556f0f13          	addi	t5,t5,1366 # 55555556 <absimm+0x10263027>
80003cc0:	66666eb7          	lui	t4,0x66666
80003cc4:	665e8e93          	addi	t4,t4,1637 # 66666665 <absimm+0x21374136>
80003cc8:	03df2fb3          	mulhsu	t6,t5,t4
80003ccc:	25f42e23          	sw	t6,604(s0)
80003cd0:	222224b7          	lui	s1,0x22222
80003cd4:	22148493          	addi	s1,s1,545 # 22222221 <offset+0x22221fed>
80003cd8:	01f48463          	beq	s1,t6,80003ce0 <inst_433>
80003cdc:	0280206f          	j	80005d04 <bad_trap>

80003ce0 <inst_433>:
80003ce0:	55555f37          	lui	t5,0x55555
80003ce4:	556f0f13          	addi	t5,t5,1366 # 55555556 <absimm+0x10263027>
80003ce8:	0000beb7          	lui	t4,0xb
80003cec:	503e8e93          	addi	t4,t4,1283 # b503 <offset+0xb2cf>
80003cf0:	03df2fb3          	mulhsu	t6,t5,t4
80003cf4:	27f42023          	sw	t6,608(s0)
80003cf8:	000044b7          	lui	s1,0x4
80003cfc:	c5648493          	addi	s1,s1,-938 # 3c56 <offset+0x3a22>
80003d00:	01f48463          	beq	s1,t6,80003d08 <inst_434>
80003d04:	0000206f          	j	80005d04 <bad_trap>

80003d08 <inst_434>:
80003d08:	55555f37          	lui	t5,0x55555
80003d0c:	556f0f13          	addi	t5,t5,1366 # 55555556 <absimm+0x10263027>
80003d10:	00000e93          	li	t4,0
80003d14:	03df2fb3          	mulhsu	t6,t5,t4
80003d18:	27f42223          	sw	t6,612(s0)
80003d1c:	00000493          	li	s1,0
80003d20:	01f48463          	beq	s1,t6,80003d28 <inst_435>
80003d24:	7e10106f          	j	80005d04 <bad_trap>

80003d28 <inst_435>:
80003d28:	55555f37          	lui	t5,0x55555
80003d2c:	556f0f13          	addi	t5,t5,1366 # 55555556 <absimm+0x10263027>
80003d30:	00010eb7          	lui	t4,0x10
80003d34:	ffee8e93          	addi	t4,t4,-2 # fffe <offset+0xfdca>
80003d38:	03df2fb3          	mulhsu	t6,t5,t4
80003d3c:	27f42423          	sw	t6,616(s0)
80003d40:	000054b7          	lui	s1,0x5
80003d44:	55448493          	addi	s1,s1,1364 # 5554 <offset+0x5320>
80003d48:	01f48463          	beq	s1,t6,80003d50 <inst_436>
80003d4c:	7b90106f          	j	80005d04 <bad_trap>

80003d50 <inst_436>:
80003d50:	55555f37          	lui	t5,0x55555
80003d54:	556f0f13          	addi	t5,t5,1366 # 55555556 <absimm+0x10263027>
80003d58:	00400e93          	li	t4,4
80003d5c:	03df2fb3          	mulhsu	t6,t5,t4
80003d60:	27f42623          	sw	t6,620(s0)
80003d64:	00100493          	li	s1,1
80003d68:	01f48463          	beq	s1,t6,80003d70 <inst_437>
80003d6c:	7990106f          	j	80005d04 <bad_trap>

80003d70 <inst_437>:
80003d70:	55555f37          	lui	t5,0x55555
80003d74:	556f0f13          	addi	t5,t5,1366 # 55555556 <absimm+0x10263027>
80003d78:	55555eb7          	lui	t4,0x55555
80003d7c:	556e8e93          	addi	t4,t4,1366 # 55555556 <absimm+0x10263027>
80003d80:	03df2fb3          	mulhsu	t6,t5,t4
80003d84:	27f42823          	sw	t6,624(s0)
80003d88:	1c71c4b7          	lui	s1,0x1c71c
80003d8c:	71c48493          	addi	s1,s1,1820 # 1c71c71c <offset+0x1c71c4e8>
80003d90:	01f48463          	beq	s1,t6,80003d98 <inst_438>
80003d94:	7710106f          	j	80005d04 <bad_trap>

80003d98 <inst_438>:
80003d98:	55555f37          	lui	t5,0x55555
80003d9c:	556f0f13          	addi	t5,t5,1366 # 55555556 <absimm+0x10263027>
80003da0:	aaaabeb7          	lui	t4,0xaaaab
80003da4:	aabe8e93          	addi	t4,t4,-1365 # aaaaaaab <imm12+0xaaaaafdb>
80003da8:	03df2fb3          	mulhsu	t6,t5,t4
80003dac:	27f42a23          	sw	t6,628(s0)
80003db0:	38e394b7          	lui	s1,0x38e39
80003db4:	e3948493          	addi	s1,s1,-455 # 38e38e39 <offset+0x38e38c05>
80003db8:	01f48463          	beq	s1,t6,80003dc0 <inst_439>
80003dbc:	7490106f          	j	80005d04 <bad_trap>

80003dc0 <inst_439>:
80003dc0:	55555f37          	lui	t5,0x55555
80003dc4:	556f0f13          	addi	t5,t5,1366 # 55555556 <absimm+0x10263027>
80003dc8:	00600e93          	li	t4,6
80003dcc:	03df2fb3          	mulhsu	t6,t5,t4
80003dd0:	27f42c23          	sw	t6,632(s0)
80003dd4:	00200493          	li	s1,2
80003dd8:	01f48463          	beq	s1,t6,80003de0 <inst_440>
80003ddc:	7290106f          	j	80005d04 <bad_trap>

80003de0 <inst_440>:
80003de0:	55555f37          	lui	t5,0x55555
80003de4:	556f0f13          	addi	t5,t5,1366 # 55555556 <absimm+0x10263027>
80003de8:	33333eb7          	lui	t4,0x33333
80003dec:	334e8e93          	addi	t4,t4,820 # 33333334 <offset+0x33333100>
80003df0:	03df2fb3          	mulhsu	t6,t5,t4
80003df4:	27f42e23          	sw	t6,636(s0)
80003df8:	111114b7          	lui	s1,0x11111
80003dfc:	11148493          	addi	s1,s1,273 # 11111111 <offset+0x11110edd>
80003e00:	01f48463          	beq	s1,t6,80003e08 <inst_441>
80003e04:	7010106f          	j	80005d04 <bad_trap>

80003e08 <inst_441>:
80003e08:	55555f37          	lui	t5,0x55555
80003e0c:	556f0f13          	addi	t5,t5,1366 # 55555556 <absimm+0x10263027>
80003e10:	66666eb7          	lui	t4,0x66666
80003e14:	667e8e93          	addi	t4,t4,1639 # 66666667 <absimm+0x21374138>
80003e18:	03df2fb3          	mulhsu	t6,t5,t4
80003e1c:	29f42023          	sw	t6,640(s0)
80003e20:	222224b7          	lui	s1,0x22222
80003e24:	22248493          	addi	s1,s1,546 # 22222222 <offset+0x22221fee>
80003e28:	01f48463          	beq	s1,t6,80003e30 <inst_442>
80003e2c:	6d90106f          	j	80005d04 <bad_trap>

80003e30 <inst_442>:
80003e30:	55555f37          	lui	t5,0x55555
80003e34:	556f0f13          	addi	t5,t5,1366 # 55555556 <absimm+0x10263027>
80003e38:	0000beb7          	lui	t4,0xb
80003e3c:	505e8e93          	addi	t4,t4,1285 # b505 <offset+0xb2d1>
80003e40:	03df2fb3          	mulhsu	t6,t5,t4
80003e44:	29f42223          	sw	t6,644(s0)
80003e48:	000044b7          	lui	s1,0x4
80003e4c:	c5748493          	addi	s1,s1,-937 # 3c57 <offset+0x3a23>
80003e50:	01f48463          	beq	s1,t6,80003e58 <inst_443>
80003e54:	6b10106f          	j	80005d04 <bad_trap>

80003e58 <inst_443>:
80003e58:	55555f37          	lui	t5,0x55555
80003e5c:	556f0f13          	addi	t5,t5,1366 # 55555556 <absimm+0x10263027>
80003e60:	00100e93          	li	t4,1
80003e64:	03df2fb3          	mulhsu	t6,t5,t4
80003e68:	29f42423          	sw	t6,648(s0)
80003e6c:	00000493          	li	s1,0
80003e70:	01f48463          	beq	s1,t6,80003e78 <inst_444>
80003e74:	6910106f          	j	80005d04 <bad_trap>

80003e78 <inst_444>:
80003e78:	55555f37          	lui	t5,0x55555
80003e7c:	556f0f13          	addi	t5,t5,1366 # 55555556 <absimm+0x10263027>
80003e80:	00010eb7          	lui	t4,0x10
80003e84:	03df2fb3          	mulhsu	t6,t5,t4
80003e88:	29f42623          	sw	t6,652(s0)
80003e8c:	000054b7          	lui	s1,0x5
80003e90:	55548493          	addi	s1,s1,1365 # 5555 <offset+0x5321>
80003e94:	01f48463          	beq	s1,t6,80003e9c <inst_445>
80003e98:	66d0106f          	j	80005d04 <bad_trap>

80003e9c <inst_445>:
80003e9c:	aaaabf37          	lui	t5,0xaaaab
80003ea0:	aabf0f13          	addi	t5,t5,-1365 # aaaaaaab <imm12+0xaaaaafdb>
80003ea4:	00300e93          	li	t4,3
80003ea8:	03df2fb3          	mulhsu	t6,t5,t4
80003eac:	29f42823          	sw	t6,656(s0)
80003eb0:	fff00493          	li	s1,-1
80003eb4:	01f48463          	beq	s1,t6,80003ebc <inst_446>
80003eb8:	64d0106f          	j	80005d04 <bad_trap>

80003ebc <inst_446>:
80003ebc:	aaaabf37          	lui	t5,0xaaaab
80003ec0:	aabf0f13          	addi	t5,t5,-1365 # aaaaaaab <imm12+0xaaaaafdb>
80003ec4:	55555eb7          	lui	t4,0x55555
80003ec8:	555e8e93          	addi	t4,t4,1365 # 55555555 <absimm+0x10263026>
80003ecc:	03df2fb3          	mulhsu	t6,t5,t4
80003ed0:	29f42a23          	sw	t6,660(s0)
80003ed4:	e38e44b7          	lui	s1,0xe38e4
80003ed8:	8e348493          	addi	s1,s1,-1821 # e38e38e3 <imm12+0xe38e3e13>
80003edc:	01f48463          	beq	s1,t6,80003ee4 <inst_447>
80003ee0:	6250106f          	j	80005d04 <bad_trap>

80003ee4 <inst_447>:
80003ee4:	aaaabf37          	lui	t5,0xaaaab
80003ee8:	aabf0f13          	addi	t5,t5,-1365 # aaaaaaab <imm12+0xaaaaafdb>
80003eec:	aaaabeb7          	lui	t4,0xaaaab
80003ef0:	aaae8e93          	addi	t4,t4,-1366 # aaaaaaaa <imm12+0xaaaaafda>
80003ef4:	03df2fb3          	mulhsu	t6,t5,t4
80003ef8:	29f42c23          	sw	t6,664(s0)
80003efc:	c71c74b7          	lui	s1,0xc71c7
80003f00:	1c748493          	addi	s1,s1,455 # c71c71c7 <imm12+0xc71c76f7>
80003f04:	01f48463          	beq	s1,t6,80003f0c <inst_448>
80003f08:	5fd0106f          	j	80005d04 <bad_trap>

80003f0c <inst_448>:
80003f0c:	aaaabf37          	lui	t5,0xaaaab
80003f10:	aabf0f13          	addi	t5,t5,-1365 # aaaaaaab <imm12+0xaaaaafdb>
80003f14:	00500e93          	li	t4,5
80003f18:	03df2fb3          	mulhsu	t6,t5,t4
80003f1c:	29f42e23          	sw	t6,668(s0)
80003f20:	ffe00493          	li	s1,-2
80003f24:	01f48463          	beq	s1,t6,80003f2c <inst_449>
80003f28:	5dd0106f          	j	80005d04 <bad_trap>

80003f2c <inst_449>:
80003f2c:	aaaabf37          	lui	t5,0xaaaab
80003f30:	aabf0f13          	addi	t5,t5,-1365 # aaaaaaab <imm12+0xaaaaafdb>
80003f34:	33333eb7          	lui	t4,0x33333
80003f38:	333e8e93          	addi	t4,t4,819 # 33333333 <offset+0x333330ff>
80003f3c:	03df2fb3          	mulhsu	t6,t5,t4
80003f40:	2bf42023          	sw	t6,672(s0)
80003f44:	eeeef4b7          	lui	s1,0xeeeef
80003f48:	eef48493          	addi	s1,s1,-273 # eeeeeeef <imm12+0xeeeef41f>
80003f4c:	01f48463          	beq	s1,t6,80003f54 <inst_450>
80003f50:	5b50106f          	j	80005d04 <bad_trap>

80003f54 <inst_450>:
80003f54:	aaaabf37          	lui	t5,0xaaaab
80003f58:	aabf0f13          	addi	t5,t5,-1365 # aaaaaaab <imm12+0xaaaaafdb>
80003f5c:	66666eb7          	lui	t4,0x66666
80003f60:	666e8e93          	addi	t4,t4,1638 # 66666666 <absimm+0x21374137>
80003f64:	03df2fb3          	mulhsu	t6,t5,t4
80003f68:	2bf42223          	sw	t6,676(s0)
80003f6c:	dddde4b7          	lui	s1,0xdddde
80003f70:	dde48493          	addi	s1,s1,-546 # ddddddde <imm12+0xdddde30e>
80003f74:	01f48463          	beq	s1,t6,80003f7c <inst_451>
80003f78:	58d0106f          	j	80005d04 <bad_trap>

80003f7c <inst_451>:
80003f7c:	aaaabf37          	lui	t5,0xaaaab
80003f80:	aabf0f13          	addi	t5,t5,-1365 # aaaaaaab <imm12+0xaaaaafdb>
80003f84:	0000beb7          	lui	t4,0xb
80003f88:	504e8e93          	addi	t4,t4,1284 # b504 <offset+0xb2d0>
80003f8c:	03df2fb3          	mulhsu	t6,t5,t4
80003f90:	2bf42423          	sw	t6,680(s0)
80003f94:	ffffc4b7          	lui	s1,0xffffc
80003f98:	3a948493          	addi	s1,s1,937 # ffffc3a9 <imm12+0xffffc8d9>
80003f9c:	01f48463          	beq	s1,t6,80003fa4 <inst_452>
80003fa0:	5650106f          	j	80005d04 <bad_trap>

80003fa4 <inst_452>:
80003fa4:	aaaabf37          	lui	t5,0xaaaab
80003fa8:	aabf0f13          	addi	t5,t5,-1365 # aaaaaaab <imm12+0xaaaaafdb>
80003fac:	00010eb7          	lui	t4,0x10
80003fb0:	fffe8e93          	addi	t4,t4,-1 # ffff <offset+0xfdcb>
80003fb4:	03df2fb3          	mulhsu	t6,t5,t4
80003fb8:	2bf42623          	sw	t6,684(s0)
80003fbc:	ffffb4b7          	lui	s1,0xffffb
80003fc0:	aab48493          	addi	s1,s1,-1365 # ffffaaab <imm12+0xffffafdb>
80003fc4:	01f48463          	beq	s1,t6,80003fcc <inst_453>
80003fc8:	53d0106f          	j	80005d04 <bad_trap>

80003fcc <inst_453>:
80003fcc:	aaaabf37          	lui	t5,0xaaaab
80003fd0:	aabf0f13          	addi	t5,t5,-1365 # aaaaaaab <imm12+0xaaaaafdb>
80003fd4:	00200e93          	li	t4,2
80003fd8:	03df2fb3          	mulhsu	t6,t5,t4
80003fdc:	2bf42823          	sw	t6,688(s0)
80003fe0:	fff00493          	li	s1,-1
80003fe4:	01f48463          	beq	s1,t6,80003fec <inst_454>
80003fe8:	51d0106f          	j	80005d04 <bad_trap>

80003fec <inst_454>:
80003fec:	aaaabf37          	lui	t5,0xaaaab
80003ff0:	aabf0f13          	addi	t5,t5,-1365 # aaaaaaab <imm12+0xaaaaafdb>
80003ff4:	55555eb7          	lui	t4,0x55555
80003ff8:	554e8e93          	addi	t4,t4,1364 # 55555554 <absimm+0x10263025>
80003ffc:	03df2fb3          	mulhsu	t6,t5,t4
80004000:	2bf42a23          	sw	t6,692(s0)
80004004:	e38e44b7          	lui	s1,0xe38e4
80004008:	8e448493          	addi	s1,s1,-1820 # e38e38e4 <imm12+0xe38e3e14>
8000400c:	01f48463          	beq	s1,t6,80004014 <inst_455>
80004010:	4f50106f          	j	80005d04 <bad_trap>

80004014 <inst_455>:
80004014:	aaaabf37          	lui	t5,0xaaaab
80004018:	aabf0f13          	addi	t5,t5,-1365 # aaaaaaab <imm12+0xaaaaafdb>
8000401c:	aaaabeb7          	lui	t4,0xaaaab
80004020:	aa9e8e93          	addi	t4,t4,-1367 # aaaaaaa9 <imm12+0xaaaaafd9>
80004024:	03df2fb3          	mulhsu	t6,t5,t4
80004028:	2bf42c23          	sw	t6,696(s0)
8000402c:	c71c74b7          	lui	s1,0xc71c7
80004030:	1c748493          	addi	s1,s1,455 # c71c71c7 <imm12+0xc71c76f7>
80004034:	01f48463          	beq	s1,t6,8000403c <inst_456>
80004038:	4cd0106f          	j	80005d04 <bad_trap>

8000403c <inst_456>:
8000403c:	aaaabf37          	lui	t5,0xaaaab
80004040:	aabf0f13          	addi	t5,t5,-1365 # aaaaaaab <imm12+0xaaaaafdb>
80004044:	33333eb7          	lui	t4,0x33333
80004048:	332e8e93          	addi	t4,t4,818 # 33333332 <offset+0x333330fe>
8000404c:	03df2fb3          	mulhsu	t6,t5,t4
80004050:	2bf42e23          	sw	t6,700(s0)
80004054:	eeeef4b7          	lui	s1,0xeeeef
80004058:	eef48493          	addi	s1,s1,-273 # eeeeeeef <imm12+0xeeeef41f>
8000405c:	01f48463          	beq	s1,t6,80004064 <inst_457>
80004060:	4a50106f          	j	80005d04 <bad_trap>

80004064 <inst_457>:
80004064:	aaaabf37          	lui	t5,0xaaaab
80004068:	aabf0f13          	addi	t5,t5,-1365 # aaaaaaab <imm12+0xaaaaafdb>
8000406c:	66666eb7          	lui	t4,0x66666
80004070:	665e8e93          	addi	t4,t4,1637 # 66666665 <absimm+0x21374136>
80004074:	03df2fb3          	mulhsu	t6,t5,t4
80004078:	2df42023          	sw	t6,704(s0)
8000407c:	dddde4b7          	lui	s1,0xdddde
80004080:	dde48493          	addi	s1,s1,-546 # ddddddde <imm12+0xdddde30e>
80004084:	01f48463          	beq	s1,t6,8000408c <inst_458>
80004088:	47d0106f          	j	80005d04 <bad_trap>

8000408c <inst_458>:
8000408c:	aaaabf37          	lui	t5,0xaaaab
80004090:	aabf0f13          	addi	t5,t5,-1365 # aaaaaaab <imm12+0xaaaaafdb>
80004094:	0000beb7          	lui	t4,0xb
80004098:	503e8e93          	addi	t4,t4,1283 # b503 <offset+0xb2cf>
8000409c:	03df2fb3          	mulhsu	t6,t5,t4
800040a0:	2df42223          	sw	t6,708(s0)
800040a4:	ffffc4b7          	lui	s1,0xffffc
800040a8:	3a948493          	addi	s1,s1,937 # ffffc3a9 <imm12+0xffffc8d9>
800040ac:	01f48463          	beq	s1,t6,800040b4 <inst_459>
800040b0:	4550106f          	j	80005d04 <bad_trap>

800040b4 <inst_459>:
800040b4:	aaaabf37          	lui	t5,0xaaaab
800040b8:	aabf0f13          	addi	t5,t5,-1365 # aaaaaaab <imm12+0xaaaaafdb>
800040bc:	00000e93          	li	t4,0
800040c0:	03df2fb3          	mulhsu	t6,t5,t4
800040c4:	2df42423          	sw	t6,712(s0)
800040c8:	00000493          	li	s1,0
800040cc:	01f48463          	beq	s1,t6,800040d4 <inst_460>
800040d0:	4350106f          	j	80005d04 <bad_trap>

800040d4 <inst_460>:
800040d4:	aaaabf37          	lui	t5,0xaaaab
800040d8:	aabf0f13          	addi	t5,t5,-1365 # aaaaaaab <imm12+0xaaaaafdb>
800040dc:	00010eb7          	lui	t4,0x10
800040e0:	ffee8e93          	addi	t4,t4,-2 # fffe <offset+0xfdca>
800040e4:	03df2fb3          	mulhsu	t6,t5,t4
800040e8:	2df42623          	sw	t6,716(s0)
800040ec:	ffffb4b7          	lui	s1,0xffffb
800040f0:	aab48493          	addi	s1,s1,-1365 # ffffaaab <imm12+0xffffafdb>
800040f4:	01f48463          	beq	s1,t6,800040fc <inst_461>
800040f8:	40d0106f          	j	80005d04 <bad_trap>

800040fc <inst_461>:
800040fc:	aaaabf37          	lui	t5,0xaaaab
80004100:	aabf0f13          	addi	t5,t5,-1365 # aaaaaaab <imm12+0xaaaaafdb>
80004104:	00400e93          	li	t4,4
80004108:	03df2fb3          	mulhsu	t6,t5,t4
8000410c:	2df42823          	sw	t6,720(s0)
80004110:	ffe00493          	li	s1,-2
80004114:	01f48463          	beq	s1,t6,8000411c <inst_462>
80004118:	3ed0106f          	j	80005d04 <bad_trap>

8000411c <inst_462>:
8000411c:	aaaabf37          	lui	t5,0xaaaab
80004120:	aabf0f13          	addi	t5,t5,-1365 # aaaaaaab <imm12+0xaaaaafdb>
80004124:	55555eb7          	lui	t4,0x55555
80004128:	556e8e93          	addi	t4,t4,1366 # 55555556 <absimm+0x10263027>
8000412c:	03df2fb3          	mulhsu	t6,t5,t4
80004130:	2df42a23          	sw	t6,724(s0)
80004134:	e38e44b7          	lui	s1,0xe38e4
80004138:	8e348493          	addi	s1,s1,-1821 # e38e38e3 <imm12+0xe38e3e13>
8000413c:	01f48463          	beq	s1,t6,80004144 <inst_463>
80004140:	3c50106f          	j	80005d04 <bad_trap>

80004144 <inst_463>:
80004144:	aaaabf37          	lui	t5,0xaaaab
80004148:	aabf0f13          	addi	t5,t5,-1365 # aaaaaaab <imm12+0xaaaaafdb>
8000414c:	aaaabeb7          	lui	t4,0xaaaab
80004150:	aabe8e93          	addi	t4,t4,-1365 # aaaaaaab <imm12+0xaaaaafdb>
80004154:	03df2fb3          	mulhsu	t6,t5,t4
80004158:	2df42c23          	sw	t6,728(s0)
8000415c:	c71c74b7          	lui	s1,0xc71c7
80004160:	1c748493          	addi	s1,s1,455 # c71c71c7 <imm12+0xc71c76f7>
80004164:	01f48463          	beq	s1,t6,8000416c <inst_464>
80004168:	39d0106f          	j	80005d04 <bad_trap>

8000416c <inst_464>:
8000416c:	aaaabf37          	lui	t5,0xaaaab
80004170:	aabf0f13          	addi	t5,t5,-1365 # aaaaaaab <imm12+0xaaaaafdb>
80004174:	00600e93          	li	t4,6
80004178:	03df2fb3          	mulhsu	t6,t5,t4
8000417c:	2df42e23          	sw	t6,732(s0)
80004180:	ffe00493          	li	s1,-2
80004184:	01f48463          	beq	s1,t6,8000418c <inst_465>
80004188:	37d0106f          	j	80005d04 <bad_trap>

8000418c <inst_465>:
8000418c:	aaaabf37          	lui	t5,0xaaaab
80004190:	aabf0f13          	addi	t5,t5,-1365 # aaaaaaab <imm12+0xaaaaafdb>
80004194:	33333eb7          	lui	t4,0x33333
80004198:	334e8e93          	addi	t4,t4,820 # 33333334 <offset+0x33333100>
8000419c:	03df2fb3          	mulhsu	t6,t5,t4
800041a0:	2ff42023          	sw	t6,736(s0)
800041a4:	eeeef4b7          	lui	s1,0xeeeef
800041a8:	eee48493          	addi	s1,s1,-274 # eeeeeeee <imm12+0xeeeef41e>
800041ac:	01f48463          	beq	s1,t6,800041b4 <inst_466>
800041b0:	3550106f          	j	80005d04 <bad_trap>

800041b4 <inst_466>:
800041b4:	aaaabf37          	lui	t5,0xaaaab
800041b8:	aabf0f13          	addi	t5,t5,-1365 # aaaaaaab <imm12+0xaaaaafdb>
800041bc:	66666eb7          	lui	t4,0x66666
800041c0:	667e8e93          	addi	t4,t4,1639 # 66666667 <absimm+0x21374138>
800041c4:	03df2fb3          	mulhsu	t6,t5,t4
800041c8:	2ff42223          	sw	t6,740(s0)
800041cc:	dddde4b7          	lui	s1,0xdddde
800041d0:	ddd48493          	addi	s1,s1,-547 # dddddddd <imm12+0xdddde30d>
800041d4:	01f48463          	beq	s1,t6,800041dc <inst_467>
800041d8:	32d0106f          	j	80005d04 <bad_trap>

800041dc <inst_467>:
800041dc:	aaaabf37          	lui	t5,0xaaaab
800041e0:	aabf0f13          	addi	t5,t5,-1365 # aaaaaaab <imm12+0xaaaaafdb>
800041e4:	0000beb7          	lui	t4,0xb
800041e8:	505e8e93          	addi	t4,t4,1285 # b505 <offset+0xb2d1>
800041ec:	03df2fb3          	mulhsu	t6,t5,t4
800041f0:	2ff42423          	sw	t6,744(s0)
800041f4:	ffffc4b7          	lui	s1,0xffffc
800041f8:	3a948493          	addi	s1,s1,937 # ffffc3a9 <imm12+0xffffc8d9>
800041fc:	01f48463          	beq	s1,t6,80004204 <inst_468>
80004200:	3050106f          	j	80005d04 <bad_trap>

80004204 <inst_468>:
80004204:	aaaabf37          	lui	t5,0xaaaab
80004208:	aabf0f13          	addi	t5,t5,-1365 # aaaaaaab <imm12+0xaaaaafdb>
8000420c:	00100e93          	li	t4,1
80004210:	03df2fb3          	mulhsu	t6,t5,t4
80004214:	2ff42623          	sw	t6,748(s0)
80004218:	fff00493          	li	s1,-1
8000421c:	01f48463          	beq	s1,t6,80004224 <inst_469>
80004220:	2e50106f          	j	80005d04 <bad_trap>

80004224 <inst_469>:
80004224:	aaaabf37          	lui	t5,0xaaaab
80004228:	aabf0f13          	addi	t5,t5,-1365 # aaaaaaab <imm12+0xaaaaafdb>
8000422c:	00010eb7          	lui	t4,0x10
80004230:	03df2fb3          	mulhsu	t6,t5,t4
80004234:	2ff42823          	sw	t6,752(s0)
80004238:	ffffb4b7          	lui	s1,0xffffb
8000423c:	aaa48493          	addi	s1,s1,-1366 # ffffaaaa <imm12+0xffffafda>
80004240:	01f48463          	beq	s1,t6,80004248 <inst_470>
80004244:	2c10106f          	j	80005d04 <bad_trap>

80004248 <inst_470>:
80004248:	00600f13          	li	t5,6
8000424c:	00300e93          	li	t4,3
80004250:	03df2fb3          	mulhsu	t6,t5,t4
80004254:	2ff42a23          	sw	t6,756(s0)
80004258:	00000493          	li	s1,0
8000425c:	01f48463          	beq	s1,t6,80004264 <inst_471>
80004260:	2a50106f          	j	80005d04 <bad_trap>

80004264 <inst_471>:
80004264:	00600f13          	li	t5,6
80004268:	55555eb7          	lui	t4,0x55555
8000426c:	555e8e93          	addi	t4,t4,1365 # 55555555 <absimm+0x10263026>
80004270:	03df2fb3          	mulhsu	t6,t5,t4
80004274:	2ff42c23          	sw	t6,760(s0)
80004278:	00100493          	li	s1,1
8000427c:	01f48463          	beq	s1,t6,80004284 <inst_472>
80004280:	2850106f          	j	80005d04 <bad_trap>

80004284 <inst_472>:
80004284:	00600f13          	li	t5,6
80004288:	aaaabeb7          	lui	t4,0xaaaab
8000428c:	aaae8e93          	addi	t4,t4,-1366 # aaaaaaaa <imm12+0xaaaaafda>
80004290:	03df2fb3          	mulhsu	t6,t5,t4
80004294:	2ff42e23          	sw	t6,764(s0)
80004298:	00300493          	li	s1,3
8000429c:	01f48463          	beq	s1,t6,800042a4 <inst_473>
800042a0:	2650106f          	j	80005d04 <bad_trap>

800042a4 <inst_473>:
800042a4:	00600f13          	li	t5,6
800042a8:	00500e93          	li	t4,5
800042ac:	03df2fb3          	mulhsu	t6,t5,t4
800042b0:	31f42023          	sw	t6,768(s0)
800042b4:	00000493          	li	s1,0
800042b8:	01f48463          	beq	s1,t6,800042c0 <inst_474>
800042bc:	2490106f          	j	80005d04 <bad_trap>

800042c0 <inst_474>:
800042c0:	00600f13          	li	t5,6
800042c4:	33333eb7          	lui	t4,0x33333
800042c8:	333e8e93          	addi	t4,t4,819 # 33333333 <offset+0x333330ff>
800042cc:	03df2fb3          	mulhsu	t6,t5,t4
800042d0:	31f42223          	sw	t6,772(s0)
800042d4:	00100493          	li	s1,1
800042d8:	01f48463          	beq	s1,t6,800042e0 <inst_475>
800042dc:	2290106f          	j	80005d04 <bad_trap>

800042e0 <inst_475>:
800042e0:	00600f13          	li	t5,6
800042e4:	66666eb7          	lui	t4,0x66666
800042e8:	666e8e93          	addi	t4,t4,1638 # 66666666 <absimm+0x21374137>
800042ec:	03df2fb3          	mulhsu	t6,t5,t4
800042f0:	31f42423          	sw	t6,776(s0)
800042f4:	00200493          	li	s1,2
800042f8:	01f48463          	beq	s1,t6,80004300 <inst_476>
800042fc:	2090106f          	j	80005d04 <bad_trap>

80004300 <inst_476>:
80004300:	00600f13          	li	t5,6
80004304:	0000beb7          	lui	t4,0xb
80004308:	504e8e93          	addi	t4,t4,1284 # b504 <offset+0xb2d0>
8000430c:	03df2fb3          	mulhsu	t6,t5,t4
80004310:	31f42623          	sw	t6,780(s0)
80004314:	00000493          	li	s1,0
80004318:	01f48463          	beq	s1,t6,80004320 <inst_477>
8000431c:	1e90106f          	j	80005d04 <bad_trap>

80004320 <inst_477>:
80004320:	00600f13          	li	t5,6
80004324:	00010eb7          	lui	t4,0x10
80004328:	fffe8e93          	addi	t4,t4,-1 # ffff <offset+0xfdcb>
8000432c:	03df2fb3          	mulhsu	t6,t5,t4
80004330:	31f42823          	sw	t6,784(s0)
80004334:	00000493          	li	s1,0
80004338:	01f48463          	beq	s1,t6,80004340 <inst_478>
8000433c:	1c90106f          	j	80005d04 <bad_trap>

80004340 <inst_478>:
80004340:	00600f13          	li	t5,6
80004344:	00200e93          	li	t4,2
80004348:	03df2fb3          	mulhsu	t6,t5,t4
8000434c:	31f42a23          	sw	t6,788(s0)
80004350:	00000493          	li	s1,0
80004354:	01f48463          	beq	s1,t6,8000435c <inst_479>
80004358:	1ad0106f          	j	80005d04 <bad_trap>

8000435c <inst_479>:
8000435c:	00600f13          	li	t5,6
80004360:	55555eb7          	lui	t4,0x55555
80004364:	554e8e93          	addi	t4,t4,1364 # 55555554 <absimm+0x10263025>
80004368:	03df2fb3          	mulhsu	t6,t5,t4
8000436c:	31f42c23          	sw	t6,792(s0)
80004370:	00100493          	li	s1,1
80004374:	01f48463          	beq	s1,t6,8000437c <inst_480>
80004378:	18d0106f          	j	80005d04 <bad_trap>

8000437c <inst_480>:
8000437c:	00600f13          	li	t5,6
80004380:	aaaabeb7          	lui	t4,0xaaaab
80004384:	aa9e8e93          	addi	t4,t4,-1367 # aaaaaaa9 <imm12+0xaaaaafd9>
80004388:	03df2fb3          	mulhsu	t6,t5,t4
8000438c:	31f42e23          	sw	t6,796(s0)
80004390:	00300493          	li	s1,3
80004394:	01f48463          	beq	s1,t6,8000439c <inst_481>
80004398:	16d0106f          	j	80005d04 <bad_trap>

8000439c <inst_481>:
8000439c:	00600f13          	li	t5,6
800043a0:	33333eb7          	lui	t4,0x33333
800043a4:	332e8e93          	addi	t4,t4,818 # 33333332 <offset+0x333330fe>
800043a8:	03df2fb3          	mulhsu	t6,t5,t4
800043ac:	33f42023          	sw	t6,800(s0)
800043b0:	00100493          	li	s1,1
800043b4:	01f48463          	beq	s1,t6,800043bc <inst_482>
800043b8:	14d0106f          	j	80005d04 <bad_trap>

800043bc <inst_482>:
800043bc:	00600f13          	li	t5,6
800043c0:	66666eb7          	lui	t4,0x66666
800043c4:	665e8e93          	addi	t4,t4,1637 # 66666665 <absimm+0x21374136>
800043c8:	03df2fb3          	mulhsu	t6,t5,t4
800043cc:	33f42223          	sw	t6,804(s0)
800043d0:	00200493          	li	s1,2
800043d4:	01f48463          	beq	s1,t6,800043dc <inst_483>
800043d8:	12d0106f          	j	80005d04 <bad_trap>

800043dc <inst_483>:
800043dc:	00600f13          	li	t5,6
800043e0:	0000beb7          	lui	t4,0xb
800043e4:	503e8e93          	addi	t4,t4,1283 # b503 <offset+0xb2cf>
800043e8:	03df2fb3          	mulhsu	t6,t5,t4
800043ec:	33f42423          	sw	t6,808(s0)
800043f0:	00000493          	li	s1,0
800043f4:	01f48463          	beq	s1,t6,800043fc <inst_484>
800043f8:	10d0106f          	j	80005d04 <bad_trap>

800043fc <inst_484>:
800043fc:	00600f13          	li	t5,6
80004400:	00000e93          	li	t4,0
80004404:	03df2fb3          	mulhsu	t6,t5,t4
80004408:	33f42623          	sw	t6,812(s0)
8000440c:	00000493          	li	s1,0
80004410:	01f48463          	beq	s1,t6,80004418 <inst_485>
80004414:	0f10106f          	j	80005d04 <bad_trap>

80004418 <inst_485>:
80004418:	00600f13          	li	t5,6
8000441c:	00010eb7          	lui	t4,0x10
80004420:	ffee8e93          	addi	t4,t4,-2 # fffe <offset+0xfdca>
80004424:	03df2fb3          	mulhsu	t6,t5,t4
80004428:	33f42823          	sw	t6,816(s0)
8000442c:	00000493          	li	s1,0
80004430:	01f48463          	beq	s1,t6,80004438 <inst_486>
80004434:	0d10106f          	j	80005d04 <bad_trap>

80004438 <inst_486>:
80004438:	00600f13          	li	t5,6
8000443c:	00400e93          	li	t4,4
80004440:	03df2fb3          	mulhsu	t6,t5,t4
80004444:	33f42a23          	sw	t6,820(s0)
80004448:	00000493          	li	s1,0
8000444c:	01f48463          	beq	s1,t6,80004454 <inst_487>
80004450:	0b50106f          	j	80005d04 <bad_trap>

80004454 <inst_487>:
80004454:	00600f13          	li	t5,6
80004458:	55555eb7          	lui	t4,0x55555
8000445c:	556e8e93          	addi	t4,t4,1366 # 55555556 <absimm+0x10263027>
80004460:	03df2fb3          	mulhsu	t6,t5,t4
80004464:	33f42c23          	sw	t6,824(s0)
80004468:	00200493          	li	s1,2
8000446c:	01f48463          	beq	s1,t6,80004474 <inst_488>
80004470:	0950106f          	j	80005d04 <bad_trap>

80004474 <inst_488>:
80004474:	00600f13          	li	t5,6
80004478:	aaaabeb7          	lui	t4,0xaaaab
8000447c:	aabe8e93          	addi	t4,t4,-1365 # aaaaaaab <imm12+0xaaaaafdb>
80004480:	03df2fb3          	mulhsu	t6,t5,t4
80004484:	33f42e23          	sw	t6,828(s0)
80004488:	00400493          	li	s1,4
8000448c:	01f48463          	beq	s1,t6,80004494 <inst_489>
80004490:	0750106f          	j	80005d04 <bad_trap>

80004494 <inst_489>:
80004494:	00600f13          	li	t5,6
80004498:	00600e93          	li	t4,6
8000449c:	03df2fb3          	mulhsu	t6,t5,t4
800044a0:	35f42023          	sw	t6,832(s0)
800044a4:	00000493          	li	s1,0
800044a8:	01f48463          	beq	s1,t6,800044b0 <inst_490>
800044ac:	0590106f          	j	80005d04 <bad_trap>

800044b0 <inst_490>:
800044b0:	00600f13          	li	t5,6
800044b4:	33333eb7          	lui	t4,0x33333
800044b8:	334e8e93          	addi	t4,t4,820 # 33333334 <offset+0x33333100>
800044bc:	03df2fb3          	mulhsu	t6,t5,t4
800044c0:	35f42223          	sw	t6,836(s0)
800044c4:	00100493          	li	s1,1
800044c8:	01f48463          	beq	s1,t6,800044d0 <inst_491>
800044cc:	0390106f          	j	80005d04 <bad_trap>

800044d0 <inst_491>:
800044d0:	00600f13          	li	t5,6
800044d4:	66666eb7          	lui	t4,0x66666
800044d8:	667e8e93          	addi	t4,t4,1639 # 66666667 <absimm+0x21374138>
800044dc:	03df2fb3          	mulhsu	t6,t5,t4
800044e0:	35f42423          	sw	t6,840(s0)
800044e4:	00200493          	li	s1,2
800044e8:	01f48463          	beq	s1,t6,800044f0 <inst_492>
800044ec:	0190106f          	j	80005d04 <bad_trap>

800044f0 <inst_492>:
800044f0:	00600f13          	li	t5,6
800044f4:	0000beb7          	lui	t4,0xb
800044f8:	505e8e93          	addi	t4,t4,1285 # b505 <offset+0xb2d1>
800044fc:	03df2fb3          	mulhsu	t6,t5,t4
80004500:	35f42623          	sw	t6,844(s0)
80004504:	00000493          	li	s1,0
80004508:	01f48463          	beq	s1,t6,80004510 <inst_493>
8000450c:	7f80106f          	j	80005d04 <bad_trap>

80004510 <inst_493>:
80004510:	00600f13          	li	t5,6
80004514:	00100e93          	li	t4,1
80004518:	03df2fb3          	mulhsu	t6,t5,t4
8000451c:	35f42823          	sw	t6,848(s0)
80004520:	00000493          	li	s1,0
80004524:	01f48463          	beq	s1,t6,8000452c <inst_494>
80004528:	7dc0106f          	j	80005d04 <bad_trap>

8000452c <inst_494>:
8000452c:	00600f13          	li	t5,6
80004530:	00010eb7          	lui	t4,0x10
80004534:	03df2fb3          	mulhsu	t6,t5,t4
80004538:	35f42a23          	sw	t6,852(s0)
8000453c:	00000493          	li	s1,0
80004540:	01f48463          	beq	s1,t6,80004548 <inst_495>
80004544:	7c00106f          	j	80005d04 <bad_trap>

80004548 <inst_495>:
80004548:	33333f37          	lui	t5,0x33333
8000454c:	334f0f13          	addi	t5,t5,820 # 33333334 <offset+0x33333100>
80004550:	00300e93          	li	t4,3
80004554:	03df2fb3          	mulhsu	t6,t5,t4
80004558:	35f42c23          	sw	t6,856(s0)
8000455c:	00000493          	li	s1,0
80004560:	01f48463          	beq	s1,t6,80004568 <inst_496>
80004564:	7a00106f          	j	80005d04 <bad_trap>

80004568 <inst_496>:
80004568:	33333f37          	lui	t5,0x33333
8000456c:	334f0f13          	addi	t5,t5,820 # 33333334 <offset+0x33333100>
80004570:	55555eb7          	lui	t4,0x55555
80004574:	555e8e93          	addi	t4,t4,1365 # 55555555 <absimm+0x10263026>
80004578:	03df2fb3          	mulhsu	t6,t5,t4
8000457c:	35f42e23          	sw	t6,860(s0)
80004580:	111114b7          	lui	s1,0x11111
80004584:	11148493          	addi	s1,s1,273 # 11111111 <offset+0x11110edd>
80004588:	01f48463          	beq	s1,t6,80004590 <inst_497>
8000458c:	7780106f          	j	80005d04 <bad_trap>

80004590 <inst_497>:
80004590:	33333f37          	lui	t5,0x33333
80004594:	334f0f13          	addi	t5,t5,820 # 33333334 <offset+0x33333100>
80004598:	aaaabeb7          	lui	t4,0xaaaab
8000459c:	aaae8e93          	addi	t4,t4,-1366 # aaaaaaaa <imm12+0xaaaaafda>
800045a0:	03df2fb3          	mulhsu	t6,t5,t4
800045a4:	37f42023          	sw	t6,864(s0)
800045a8:	222224b7          	lui	s1,0x22222
800045ac:	22248493          	addi	s1,s1,546 # 22222222 <offset+0x22221fee>
800045b0:	01f48463          	beq	s1,t6,800045b8 <inst_498>
800045b4:	7500106f          	j	80005d04 <bad_trap>

800045b8 <inst_498>:
800045b8:	33333f37          	lui	t5,0x33333
800045bc:	334f0f13          	addi	t5,t5,820 # 33333334 <offset+0x33333100>
800045c0:	00500e93          	li	t4,5
800045c4:	03df2fb3          	mulhsu	t6,t5,t4
800045c8:	37f42223          	sw	t6,868(s0)
800045cc:	00100493          	li	s1,1
800045d0:	01f48463          	beq	s1,t6,800045d8 <inst_499>
800045d4:	7300106f          	j	80005d04 <bad_trap>

800045d8 <inst_499>:
800045d8:	33333f37          	lui	t5,0x33333
800045dc:	334f0f13          	addi	t5,t5,820 # 33333334 <offset+0x33333100>
800045e0:	33333eb7          	lui	t4,0x33333
800045e4:	333e8e93          	addi	t4,t4,819 # 33333333 <offset+0x333330ff>
800045e8:	03df2fb3          	mulhsu	t6,t5,t4
800045ec:	37f42423          	sw	t6,872(s0)
800045f0:	0a3d74b7          	lui	s1,0xa3d7
800045f4:	0a348493          	addi	s1,s1,163 # a3d70a3 <offset+0xa3d6e6f>
800045f8:	01f48463          	beq	s1,t6,80004600 <inst_500>
800045fc:	7080106f          	j	80005d04 <bad_trap>

80004600 <inst_500>:
80004600:	33333f37          	lui	t5,0x33333
80004604:	334f0f13          	addi	t5,t5,820 # 33333334 <offset+0x33333100>
80004608:	66666eb7          	lui	t4,0x66666
8000460c:	666e8e93          	addi	t4,t4,1638 # 66666666 <absimm+0x21374137>
80004610:	03df2fb3          	mulhsu	t6,t5,t4
80004614:	37f42623          	sw	t6,876(s0)
80004618:	147ae4b7          	lui	s1,0x147ae
8000461c:	14748493          	addi	s1,s1,327 # 147ae147 <offset+0x147adf13>
80004620:	01f48463          	beq	s1,t6,80004628 <inst_501>
80004624:	6e00106f          	j	80005d04 <bad_trap>

80004628 <inst_501>:
80004628:	33333f37          	lui	t5,0x33333
8000462c:	334f0f13          	addi	t5,t5,820 # 33333334 <offset+0x33333100>
80004630:	0000beb7          	lui	t4,0xb
80004634:	504e8e93          	addi	t4,t4,1284 # b504 <offset+0xb2d0>
80004638:	03df2fb3          	mulhsu	t6,t5,t4
8000463c:	37f42823          	sw	t6,880(s0)
80004640:	000024b7          	lui	s1,0x2
80004644:	43448493          	addi	s1,s1,1076 # 2434 <offset+0x2200>
80004648:	01f48463          	beq	s1,t6,80004650 <inst_502>
8000464c:	6b80106f          	j	80005d04 <bad_trap>

80004650 <inst_502>:
80004650:	33333f37          	lui	t5,0x33333
80004654:	334f0f13          	addi	t5,t5,820 # 33333334 <offset+0x33333100>
80004658:	00010eb7          	lui	t4,0x10
8000465c:	fffe8e93          	addi	t4,t4,-1 # ffff <offset+0xfdcb>
80004660:	03df2fb3          	mulhsu	t6,t5,t4
80004664:	37f42a23          	sw	t6,884(s0)
80004668:	000034b7          	lui	s1,0x3
8000466c:	33348493          	addi	s1,s1,819 # 3333 <offset+0x30ff>
80004670:	01f48463          	beq	s1,t6,80004678 <inst_503>
80004674:	6900106f          	j	80005d04 <bad_trap>

80004678 <inst_503>:
80004678:	33333f37          	lui	t5,0x33333
8000467c:	334f0f13          	addi	t5,t5,820 # 33333334 <offset+0x33333100>
80004680:	00200e93          	li	t4,2
80004684:	03df2fb3          	mulhsu	t6,t5,t4
80004688:	37f42c23          	sw	t6,888(s0)
8000468c:	00000493          	li	s1,0
80004690:	01f48463          	beq	s1,t6,80004698 <inst_504>
80004694:	6700106f          	j	80005d04 <bad_trap>

80004698 <inst_504>:
80004698:	33333f37          	lui	t5,0x33333
8000469c:	334f0f13          	addi	t5,t5,820 # 33333334 <offset+0x33333100>
800046a0:	55555eb7          	lui	t4,0x55555
800046a4:	554e8e93          	addi	t4,t4,1364 # 55555554 <absimm+0x10263025>
800046a8:	03df2fb3          	mulhsu	t6,t5,t4
800046ac:	37f42e23          	sw	t6,892(s0)
800046b0:	111114b7          	lui	s1,0x11111
800046b4:	11148493          	addi	s1,s1,273 # 11111111 <offset+0x11110edd>
800046b8:	01f48463          	beq	s1,t6,800046c0 <inst_505>
800046bc:	6480106f          	j	80005d04 <bad_trap>

800046c0 <inst_505>:
800046c0:	33333f37          	lui	t5,0x33333
800046c4:	334f0f13          	addi	t5,t5,820 # 33333334 <offset+0x33333100>
800046c8:	aaaabeb7          	lui	t4,0xaaaab
800046cc:	aa9e8e93          	addi	t4,t4,-1367 # aaaaaaa9 <imm12+0xaaaaafd9>
800046d0:	03df2fb3          	mulhsu	t6,t5,t4
800046d4:	39f42023          	sw	t6,896(s0)
800046d8:	222224b7          	lui	s1,0x22222
800046dc:	22248493          	addi	s1,s1,546 # 22222222 <offset+0x22221fee>
800046e0:	01f48463          	beq	s1,t6,800046e8 <inst_506>
800046e4:	6200106f          	j	80005d04 <bad_trap>

800046e8 <inst_506>:
800046e8:	33333f37          	lui	t5,0x33333
800046ec:	334f0f13          	addi	t5,t5,820 # 33333334 <offset+0x33333100>
800046f0:	33333eb7          	lui	t4,0x33333
800046f4:	332e8e93          	addi	t4,t4,818 # 33333332 <offset+0x333330fe>
800046f8:	03df2fb3          	mulhsu	t6,t5,t4
800046fc:	39f42223          	sw	t6,900(s0)
80004700:	0a3d74b7          	lui	s1,0xa3d7
80004704:	0a348493          	addi	s1,s1,163 # a3d70a3 <offset+0xa3d6e6f>
80004708:	01f48463          	beq	s1,t6,80004710 <inst_507>
8000470c:	5f80106f          	j	80005d04 <bad_trap>

80004710 <inst_507>:
80004710:	33333f37          	lui	t5,0x33333
80004714:	334f0f13          	addi	t5,t5,820 # 33333334 <offset+0x33333100>
80004718:	66666eb7          	lui	t4,0x66666
8000471c:	665e8e93          	addi	t4,t4,1637 # 66666665 <absimm+0x21374136>
80004720:	03df2fb3          	mulhsu	t6,t5,t4
80004724:	39f42423          	sw	t6,904(s0)
80004728:	147ae4b7          	lui	s1,0x147ae
8000472c:	14748493          	addi	s1,s1,327 # 147ae147 <offset+0x147adf13>
80004730:	01f48463          	beq	s1,t6,80004738 <inst_508>
80004734:	5d00106f          	j	80005d04 <bad_trap>

80004738 <inst_508>:
80004738:	33333f37          	lui	t5,0x33333
8000473c:	334f0f13          	addi	t5,t5,820 # 33333334 <offset+0x33333100>
80004740:	0000beb7          	lui	t4,0xb
80004744:	503e8e93          	addi	t4,t4,1283 # b503 <offset+0xb2cf>
80004748:	03df2fb3          	mulhsu	t6,t5,t4
8000474c:	39f42623          	sw	t6,908(s0)
80004750:	000024b7          	lui	s1,0x2
80004754:	43348493          	addi	s1,s1,1075 # 2433 <offset+0x21ff>
80004758:	01f48463          	beq	s1,t6,80004760 <inst_509>
8000475c:	5a80106f          	j	80005d04 <bad_trap>

80004760 <inst_509>:
80004760:	33333f37          	lui	t5,0x33333
80004764:	334f0f13          	addi	t5,t5,820 # 33333334 <offset+0x33333100>
80004768:	00000e93          	li	t4,0
8000476c:	03df2fb3          	mulhsu	t6,t5,t4
80004770:	39f42823          	sw	t6,912(s0)
80004774:	00000493          	li	s1,0
80004778:	01f48463          	beq	s1,t6,80004780 <inst_510>
8000477c:	5880106f          	j	80005d04 <bad_trap>

80004780 <inst_510>:
80004780:	33333f37          	lui	t5,0x33333
80004784:	334f0f13          	addi	t5,t5,820 # 33333334 <offset+0x33333100>
80004788:	00010eb7          	lui	t4,0x10
8000478c:	ffee8e93          	addi	t4,t4,-2 # fffe <offset+0xfdca>
80004790:	03df2fb3          	mulhsu	t6,t5,t4
80004794:	39f42a23          	sw	t6,916(s0)
80004798:	000034b7          	lui	s1,0x3
8000479c:	33248493          	addi	s1,s1,818 # 3332 <offset+0x30fe>
800047a0:	01f48463          	beq	s1,t6,800047a8 <inst_511>
800047a4:	5600106f          	j	80005d04 <bad_trap>

800047a8 <inst_511>:
800047a8:	33333f37          	lui	t5,0x33333
800047ac:	334f0f13          	addi	t5,t5,820 # 33333334 <offset+0x33333100>
800047b0:	00400e93          	li	t4,4
800047b4:	03df2fb3          	mulhsu	t6,t5,t4
800047b8:	39f42c23          	sw	t6,920(s0)
800047bc:	00000493          	li	s1,0
800047c0:	01f48463          	beq	s1,t6,800047c8 <inst_512>
800047c4:	5400106f          	j	80005d04 <bad_trap>

800047c8 <inst_512>:
800047c8:	33333f37          	lui	t5,0x33333
800047cc:	334f0f13          	addi	t5,t5,820 # 33333334 <offset+0x33333100>
800047d0:	55555eb7          	lui	t4,0x55555
800047d4:	556e8e93          	addi	t4,t4,1366 # 55555556 <absimm+0x10263027>
800047d8:	03df2fb3          	mulhsu	t6,t5,t4
800047dc:	39f42e23          	sw	t6,924(s0)
800047e0:	111114b7          	lui	s1,0x11111
800047e4:	11148493          	addi	s1,s1,273 # 11111111 <offset+0x11110edd>
800047e8:	01f48463          	beq	s1,t6,800047f0 <inst_513>
800047ec:	5180106f          	j	80005d04 <bad_trap>

800047f0 <inst_513>:
800047f0:	33333f37          	lui	t5,0x33333
800047f4:	334f0f13          	addi	t5,t5,820 # 33333334 <offset+0x33333100>
800047f8:	aaaabeb7          	lui	t4,0xaaaab
800047fc:	aabe8e93          	addi	t4,t4,-1365 # aaaaaaab <imm12+0xaaaaafdb>
80004800:	03df2fb3          	mulhsu	t6,t5,t4
80004804:	3bf42023          	sw	t6,928(s0)
80004808:	222224b7          	lui	s1,0x22222
8000480c:	22248493          	addi	s1,s1,546 # 22222222 <offset+0x22221fee>
80004810:	01f48463          	beq	s1,t6,80004818 <inst_514>
80004814:	4f00106f          	j	80005d04 <bad_trap>

80004818 <inst_514>:
80004818:	33333f37          	lui	t5,0x33333
8000481c:	334f0f13          	addi	t5,t5,820 # 33333334 <offset+0x33333100>
80004820:	00600e93          	li	t4,6
80004824:	03df2fb3          	mulhsu	t6,t5,t4
80004828:	3bf42223          	sw	t6,932(s0)
8000482c:	00100493          	li	s1,1
80004830:	01f48463          	beq	s1,t6,80004838 <inst_515>
80004834:	4d00106f          	j	80005d04 <bad_trap>

80004838 <inst_515>:
80004838:	33333f37          	lui	t5,0x33333
8000483c:	334f0f13          	addi	t5,t5,820 # 33333334 <offset+0x33333100>
80004840:	33333eb7          	lui	t4,0x33333
80004844:	334e8e93          	addi	t4,t4,820 # 33333334 <offset+0x33333100>
80004848:	03df2fb3          	mulhsu	t6,t5,t4
8000484c:	3bf42423          	sw	t6,936(s0)
80004850:	0a3d74b7          	lui	s1,0xa3d7
80004854:	0a448493          	addi	s1,s1,164 # a3d70a4 <offset+0xa3d6e70>
80004858:	01f48463          	beq	s1,t6,80004860 <inst_516>
8000485c:	4a80106f          	j	80005d04 <bad_trap>

80004860 <inst_516>:
80004860:	33333f37          	lui	t5,0x33333
80004864:	334f0f13          	addi	t5,t5,820 # 33333334 <offset+0x33333100>
80004868:	66666eb7          	lui	t4,0x66666
8000486c:	667e8e93          	addi	t4,t4,1639 # 66666667 <absimm+0x21374138>
80004870:	03df2fb3          	mulhsu	t6,t5,t4
80004874:	3bf42623          	sw	t6,940(s0)
80004878:	147ae4b7          	lui	s1,0x147ae
8000487c:	14848493          	addi	s1,s1,328 # 147ae148 <offset+0x147adf14>
80004880:	01f48463          	beq	s1,t6,80004888 <inst_517>
80004884:	4800106f          	j	80005d04 <bad_trap>

80004888 <inst_517>:
80004888:	33333f37          	lui	t5,0x33333
8000488c:	334f0f13          	addi	t5,t5,820 # 33333334 <offset+0x33333100>
80004890:	0000beb7          	lui	t4,0xb
80004894:	505e8e93          	addi	t4,t4,1285 # b505 <offset+0xb2d1>
80004898:	03df2fb3          	mulhsu	t6,t5,t4
8000489c:	3bf42823          	sw	t6,944(s0)
800048a0:	000024b7          	lui	s1,0x2
800048a4:	43448493          	addi	s1,s1,1076 # 2434 <offset+0x2200>
800048a8:	01f48463          	beq	s1,t6,800048b0 <inst_518>
800048ac:	4580106f          	j	80005d04 <bad_trap>

800048b0 <inst_518>:
800048b0:	33333f37          	lui	t5,0x33333
800048b4:	334f0f13          	addi	t5,t5,820 # 33333334 <offset+0x33333100>
800048b8:	00100e93          	li	t4,1
800048bc:	03df2fb3          	mulhsu	t6,t5,t4
800048c0:	3bf42a23          	sw	t6,948(s0)
800048c4:	00000493          	li	s1,0
800048c8:	01f48463          	beq	s1,t6,800048d0 <inst_519>
800048cc:	4380106f          	j	80005d04 <bad_trap>

800048d0 <inst_519>:
800048d0:	33333f37          	lui	t5,0x33333
800048d4:	334f0f13          	addi	t5,t5,820 # 33333334 <offset+0x33333100>
800048d8:	00010eb7          	lui	t4,0x10
800048dc:	03df2fb3          	mulhsu	t6,t5,t4
800048e0:	3bf42c23          	sw	t6,952(s0)
800048e4:	000034b7          	lui	s1,0x3
800048e8:	33348493          	addi	s1,s1,819 # 3333 <offset+0x30ff>
800048ec:	01f48463          	beq	s1,t6,800048f4 <inst_520>
800048f0:	4140106f          	j	80005d04 <bad_trap>

800048f4 <inst_520>:
800048f4:	66666f37          	lui	t5,0x66666
800048f8:	667f0f13          	addi	t5,t5,1639 # 66666667 <absimm+0x21374138>
800048fc:	00300e93          	li	t4,3
80004900:	03df2fb3          	mulhsu	t6,t5,t4
80004904:	3bf42e23          	sw	t6,956(s0)
80004908:	00100493          	li	s1,1
8000490c:	01f48463          	beq	s1,t6,80004914 <inst_521>
80004910:	3f40106f          	j	80005d04 <bad_trap>

80004914 <inst_521>:
80004914:	66666f37          	lui	t5,0x66666
80004918:	667f0f13          	addi	t5,t5,1639 # 66666667 <absimm+0x21374138>
8000491c:	55555eb7          	lui	t4,0x55555
80004920:	555e8e93          	addi	t4,t4,1365 # 55555555 <absimm+0x10263026>
80004924:	03df2fb3          	mulhsu	t6,t5,t4
80004928:	3df42023          	sw	t6,960(s0)
8000492c:	222224b7          	lui	s1,0x22222
80004930:	22248493          	addi	s1,s1,546 # 22222222 <offset+0x22221fee>
80004934:	01f48463          	beq	s1,t6,8000493c <inst_522>
80004938:	3cc0106f          	j	80005d04 <bad_trap>

8000493c <inst_522>:
8000493c:	66666f37          	lui	t5,0x66666
80004940:	667f0f13          	addi	t5,t5,1639 # 66666667 <absimm+0x21374138>
80004944:	aaaabeb7          	lui	t4,0xaaaab
80004948:	aaae8e93          	addi	t4,t4,-1366 # aaaaaaaa <imm12+0xaaaaafda>
8000494c:	03df2fb3          	mulhsu	t6,t5,t4
80004950:	3df42223          	sw	t6,964(s0)
80004954:	444444b7          	lui	s1,0x44444
80004958:	44448493          	addi	s1,s1,1092 # 44444444 <offset+0x44444210>
8000495c:	01f48463          	beq	s1,t6,80004964 <inst_523>
80004960:	3a40106f          	j	80005d04 <bad_trap>

80004964 <inst_523>:
80004964:	66666f37          	lui	t5,0x66666
80004968:	667f0f13          	addi	t5,t5,1639 # 66666667 <absimm+0x21374138>
8000496c:	00500e93          	li	t4,5
80004970:	03df2fb3          	mulhsu	t6,t5,t4
80004974:	3df42423          	sw	t6,968(s0)
80004978:	00200493          	li	s1,2
8000497c:	01f48463          	beq	s1,t6,80004984 <inst_524>
80004980:	3840106f          	j	80005d04 <bad_trap>

80004984 <inst_524>:
80004984:	66666f37          	lui	t5,0x66666
80004988:	667f0f13          	addi	t5,t5,1639 # 66666667 <absimm+0x21374138>
8000498c:	33333eb7          	lui	t4,0x33333
80004990:	333e8e93          	addi	t4,t4,819 # 33333333 <offset+0x333330ff>
80004994:	03df2fb3          	mulhsu	t6,t5,t4
80004998:	3df42623          	sw	t6,972(s0)
8000499c:	147ae4b7          	lui	s1,0x147ae
800049a0:	14748493          	addi	s1,s1,327 # 147ae147 <offset+0x147adf13>
800049a4:	01f48463          	beq	s1,t6,800049ac <inst_525>
800049a8:	35c0106f          	j	80005d04 <bad_trap>

800049ac <inst_525>:
800049ac:	66666f37          	lui	t5,0x66666
800049b0:	667f0f13          	addi	t5,t5,1639 # 66666667 <absimm+0x21374138>
800049b4:	66666eb7          	lui	t4,0x66666
800049b8:	666e8e93          	addi	t4,t4,1638 # 66666666 <absimm+0x21374137>
800049bc:	03df2fb3          	mulhsu	t6,t5,t4
800049c0:	3df42823          	sw	t6,976(s0)
800049c4:	28f5c4b7          	lui	s1,0x28f5c
800049c8:	28f48493          	addi	s1,s1,655 # 28f5c28f <offset+0x28f5c05b>
800049cc:	01f48463          	beq	s1,t6,800049d4 <inst_526>
800049d0:	3340106f          	j	80005d04 <bad_trap>

800049d4 <inst_526>:
800049d4:	66666f37          	lui	t5,0x66666
800049d8:	667f0f13          	addi	t5,t5,1639 # 66666667 <absimm+0x21374138>
800049dc:	0000beb7          	lui	t4,0xb
800049e0:	504e8e93          	addi	t4,t4,1284 # b504 <offset+0xb2d0>
800049e4:	03df2fb3          	mulhsu	t6,t5,t4
800049e8:	3df42a23          	sw	t6,980(s0)
800049ec:	000054b7          	lui	s1,0x5
800049f0:	86848493          	addi	s1,s1,-1944 # 4868 <offset+0x4634>
800049f4:	01f48463          	beq	s1,t6,800049fc <inst_527>
800049f8:	30c0106f          	j	80005d04 <bad_trap>

800049fc <inst_527>:
800049fc:	66666f37          	lui	t5,0x66666
80004a00:	667f0f13          	addi	t5,t5,1639 # 66666667 <absimm+0x21374138>
80004a04:	00010eb7          	lui	t4,0x10
80004a08:	fffe8e93          	addi	t4,t4,-1 # ffff <offset+0xfdcb>
80004a0c:	03df2fb3          	mulhsu	t6,t5,t4
80004a10:	3df42c23          	sw	t6,984(s0)
80004a14:	000064b7          	lui	s1,0x6
80004a18:	66648493          	addi	s1,s1,1638 # 6666 <offset+0x6432>
80004a1c:	01f48463          	beq	s1,t6,80004a24 <inst_528>
80004a20:	2e40106f          	j	80005d04 <bad_trap>

80004a24 <inst_528>:
80004a24:	66666f37          	lui	t5,0x66666
80004a28:	667f0f13          	addi	t5,t5,1639 # 66666667 <absimm+0x21374138>
80004a2c:	00200e93          	li	t4,2
80004a30:	03df2fb3          	mulhsu	t6,t5,t4
80004a34:	3df42e23          	sw	t6,988(s0)
80004a38:	00000493          	li	s1,0
80004a3c:	01f48463          	beq	s1,t6,80004a44 <inst_529>
80004a40:	2c40106f          	j	80005d04 <bad_trap>

80004a44 <inst_529>:
80004a44:	66666f37          	lui	t5,0x66666
80004a48:	667f0f13          	addi	t5,t5,1639 # 66666667 <absimm+0x21374138>
80004a4c:	55555eb7          	lui	t4,0x55555
80004a50:	554e8e93          	addi	t4,t4,1364 # 55555554 <absimm+0x10263025>
80004a54:	03df2fb3          	mulhsu	t6,t5,t4
80004a58:	3ff42023          	sw	t6,992(s0)
80004a5c:	222224b7          	lui	s1,0x22222
80004a60:	22148493          	addi	s1,s1,545 # 22222221 <offset+0x22221fed>
80004a64:	01f48463          	beq	s1,t6,80004a6c <inst_530>
80004a68:	29c0106f          	j	80005d04 <bad_trap>

80004a6c <inst_530>:
80004a6c:	66666f37          	lui	t5,0x66666
80004a70:	667f0f13          	addi	t5,t5,1639 # 66666667 <absimm+0x21374138>
80004a74:	aaaabeb7          	lui	t4,0xaaaab
80004a78:	aa9e8e93          	addi	t4,t4,-1367 # aaaaaaa9 <imm12+0xaaaaafd9>
80004a7c:	03df2fb3          	mulhsu	t6,t5,t4
80004a80:	3ff42223          	sw	t6,996(s0)
80004a84:	444444b7          	lui	s1,0x44444
80004a88:	44348493          	addi	s1,s1,1091 # 44444443 <offset+0x4444420f>
80004a8c:	01f48463          	beq	s1,t6,80004a94 <inst_531>
80004a90:	2740106f          	j	80005d04 <bad_trap>

80004a94 <inst_531>:
80004a94:	66666f37          	lui	t5,0x66666
80004a98:	667f0f13          	addi	t5,t5,1639 # 66666667 <absimm+0x21374138>
80004a9c:	33333eb7          	lui	t4,0x33333
80004aa0:	332e8e93          	addi	t4,t4,818 # 33333332 <offset+0x333330fe>
80004aa4:	03df2fb3          	mulhsu	t6,t5,t4
80004aa8:	3ff42423          	sw	t6,1000(s0)
80004aac:	147ae4b7          	lui	s1,0x147ae
80004ab0:	14748493          	addi	s1,s1,327 # 147ae147 <offset+0x147adf13>
80004ab4:	01f48463          	beq	s1,t6,80004abc <inst_532>
80004ab8:	24c0106f          	j	80005d04 <bad_trap>

80004abc <inst_532>:
80004abc:	66666f37          	lui	t5,0x66666
80004ac0:	667f0f13          	addi	t5,t5,1639 # 66666667 <absimm+0x21374138>
80004ac4:	66666eb7          	lui	t4,0x66666
80004ac8:	665e8e93          	addi	t4,t4,1637 # 66666665 <absimm+0x21374136>
80004acc:	03df2fb3          	mulhsu	t6,t5,t4
80004ad0:	3ff42623          	sw	t6,1004(s0)
80004ad4:	28f5c4b7          	lui	s1,0x28f5c
80004ad8:	28f48493          	addi	s1,s1,655 # 28f5c28f <offset+0x28f5c05b>
80004adc:	01f48463          	beq	s1,t6,80004ae4 <inst_533>
80004ae0:	2240106f          	j	80005d04 <bad_trap>

80004ae4 <inst_533>:
80004ae4:	66666f37          	lui	t5,0x66666
80004ae8:	667f0f13          	addi	t5,t5,1639 # 66666667 <absimm+0x21374138>
80004aec:	0000beb7          	lui	t4,0xb
80004af0:	503e8e93          	addi	t4,t4,1283 # b503 <offset+0xb2cf>
80004af4:	03df2fb3          	mulhsu	t6,t5,t4
80004af8:	3ff42823          	sw	t6,1008(s0)
80004afc:	000054b7          	lui	s1,0x5
80004b00:	86748493          	addi	s1,s1,-1945 # 4867 <offset+0x4633>
80004b04:	01f48463          	beq	s1,t6,80004b0c <inst_534>
80004b08:	1fc0106f          	j	80005d04 <bad_trap>

80004b0c <inst_534>:
80004b0c:	66666f37          	lui	t5,0x66666
80004b10:	667f0f13          	addi	t5,t5,1639 # 66666667 <absimm+0x21374138>
80004b14:	00000e93          	li	t4,0
80004b18:	03df2fb3          	mulhsu	t6,t5,t4
80004b1c:	3ff42a23          	sw	t6,1012(s0)
80004b20:	00000493          	li	s1,0
80004b24:	01f48463          	beq	s1,t6,80004b2c <inst_535>
80004b28:	1dc0106f          	j	80005d04 <bad_trap>

80004b2c <inst_535>:
80004b2c:	66666f37          	lui	t5,0x66666
80004b30:	667f0f13          	addi	t5,t5,1639 # 66666667 <absimm+0x21374138>
80004b34:	00010eb7          	lui	t4,0x10
80004b38:	ffee8e93          	addi	t4,t4,-2 # fffe <offset+0xfdca>
80004b3c:	03df2fb3          	mulhsu	t6,t5,t4
80004b40:	3ff42c23          	sw	t6,1016(s0)
80004b44:	000064b7          	lui	s1,0x6
80004b48:	66548493          	addi	s1,s1,1637 # 6665 <offset+0x6431>
80004b4c:	01f48463          	beq	s1,t6,80004b54 <inst_536>
80004b50:	1b40106f          	j	80005d04 <bad_trap>

80004b54 <inst_536>:
80004b54:	66666f37          	lui	t5,0x66666
80004b58:	667f0f13          	addi	t5,t5,1639 # 66666667 <absimm+0x21374138>
80004b5c:	00400e93          	li	t4,4
80004b60:	03df2fb3          	mulhsu	t6,t5,t4
80004b64:	3ff42e23          	sw	t6,1020(s0)
80004b68:	00100493          	li	s1,1
80004b6c:	01f48463          	beq	s1,t6,80004b74 <inst_536+0x20>
80004b70:	1940106f          	j	80005d04 <bad_trap>
80004b74:	00000013          	nop
80004b78:	00000013          	nop
80004b7c:	00000013          	nop
80004b80:	00003417          	auipc	s0,0x3
80004b84:	ce840413          	addi	s0,s0,-792 # 80007868 <signature_x8_2>
80004b88:	00000013          	nop
80004b8c:	00000013          	nop
80004b90:	00000013          	nop
80004b94:	00000013          	nop
80004b98:	00000013          	nop
80004b9c:	00000013          	nop

80004ba0 <inst_537>:
80004ba0:	66666f37          	lui	t5,0x66666
80004ba4:	667f0f13          	addi	t5,t5,1639 # 66666667 <absimm+0x21374138>
80004ba8:	55555eb7          	lui	t4,0x55555
80004bac:	556e8e93          	addi	t4,t4,1366 # 55555556 <absimm+0x10263027>
80004bb0:	03df2fb3          	mulhsu	t6,t5,t4
80004bb4:	01f42023          	sw	t6,0(s0)
80004bb8:	222224b7          	lui	s1,0x22222
80004bbc:	22248493          	addi	s1,s1,546 # 22222222 <offset+0x22221fee>
80004bc0:	01f48463          	beq	s1,t6,80004bc8 <inst_538>
80004bc4:	1400106f          	j	80005d04 <bad_trap>

80004bc8 <inst_538>:
80004bc8:	66666f37          	lui	t5,0x66666
80004bcc:	667f0f13          	addi	t5,t5,1639 # 66666667 <absimm+0x21374138>
80004bd0:	aaaabeb7          	lui	t4,0xaaaab
80004bd4:	aabe8e93          	addi	t4,t4,-1365 # aaaaaaab <imm12+0xaaaaafdb>
80004bd8:	03df2fb3          	mulhsu	t6,t5,t4
80004bdc:	01f42223          	sw	t6,4(s0)
80004be0:	444444b7          	lui	s1,0x44444
80004be4:	44448493          	addi	s1,s1,1092 # 44444444 <offset+0x44444210>
80004be8:	01f48463          	beq	s1,t6,80004bf0 <inst_539>
80004bec:	1180106f          	j	80005d04 <bad_trap>

80004bf0 <inst_539>:
80004bf0:	66666f37          	lui	t5,0x66666
80004bf4:	667f0f13          	addi	t5,t5,1639 # 66666667 <absimm+0x21374138>
80004bf8:	00600e93          	li	t4,6
80004bfc:	03df2fb3          	mulhsu	t6,t5,t4
80004c00:	01f42423          	sw	t6,8(s0)
80004c04:	00200493          	li	s1,2
80004c08:	01f48463          	beq	s1,t6,80004c10 <inst_540>
80004c0c:	0f80106f          	j	80005d04 <bad_trap>

80004c10 <inst_540>:
80004c10:	66666f37          	lui	t5,0x66666
80004c14:	667f0f13          	addi	t5,t5,1639 # 66666667 <absimm+0x21374138>
80004c18:	33333eb7          	lui	t4,0x33333
80004c1c:	334e8e93          	addi	t4,t4,820 # 33333334 <offset+0x33333100>
80004c20:	03df2fb3          	mulhsu	t6,t5,t4
80004c24:	01f42623          	sw	t6,12(s0)
80004c28:	147ae4b7          	lui	s1,0x147ae
80004c2c:	14848493          	addi	s1,s1,328 # 147ae148 <offset+0x147adf14>
80004c30:	01f48463          	beq	s1,t6,80004c38 <inst_541>
80004c34:	0d00106f          	j	80005d04 <bad_trap>

80004c38 <inst_541>:
80004c38:	66666f37          	lui	t5,0x66666
80004c3c:	667f0f13          	addi	t5,t5,1639 # 66666667 <absimm+0x21374138>
80004c40:	66666eb7          	lui	t4,0x66666
80004c44:	667e8e93          	addi	t4,t4,1639 # 66666667 <absimm+0x21374138>
80004c48:	03df2fb3          	mulhsu	t6,t5,t4
80004c4c:	01f42823          	sw	t6,16(s0)
80004c50:	28f5c4b7          	lui	s1,0x28f5c
80004c54:	28f48493          	addi	s1,s1,655 # 28f5c28f <offset+0x28f5c05b>
80004c58:	01f48463          	beq	s1,t6,80004c60 <inst_542>
80004c5c:	0a80106f          	j	80005d04 <bad_trap>

80004c60 <inst_542>:
80004c60:	66666f37          	lui	t5,0x66666
80004c64:	667f0f13          	addi	t5,t5,1639 # 66666667 <absimm+0x21374138>
80004c68:	0000beb7          	lui	t4,0xb
80004c6c:	505e8e93          	addi	t4,t4,1285 # b505 <offset+0xb2d1>
80004c70:	03df2fb3          	mulhsu	t6,t5,t4
80004c74:	01f42a23          	sw	t6,20(s0)
80004c78:	000054b7          	lui	s1,0x5
80004c7c:	86848493          	addi	s1,s1,-1944 # 4868 <offset+0x4634>
80004c80:	01f48463          	beq	s1,t6,80004c88 <inst_543>
80004c84:	0800106f          	j	80005d04 <bad_trap>

80004c88 <inst_543>:
80004c88:	66666f37          	lui	t5,0x66666
80004c8c:	667f0f13          	addi	t5,t5,1639 # 66666667 <absimm+0x21374138>
80004c90:	00100e93          	li	t4,1
80004c94:	03df2fb3          	mulhsu	t6,t5,t4
80004c98:	01f42c23          	sw	t6,24(s0)
80004c9c:	00000493          	li	s1,0
80004ca0:	01f48463          	beq	s1,t6,80004ca8 <inst_544>
80004ca4:	0600106f          	j	80005d04 <bad_trap>

80004ca8 <inst_544>:
80004ca8:	66666f37          	lui	t5,0x66666
80004cac:	667f0f13          	addi	t5,t5,1639 # 66666667 <absimm+0x21374138>
80004cb0:	00010eb7          	lui	t4,0x10
80004cb4:	03df2fb3          	mulhsu	t6,t5,t4
80004cb8:	01f42e23          	sw	t6,28(s0)
80004cbc:	000064b7          	lui	s1,0x6
80004cc0:	66648493          	addi	s1,s1,1638 # 6666 <offset+0x6432>
80004cc4:	01f48463          	beq	s1,t6,80004ccc <inst_545>
80004cc8:	03c0106f          	j	80005d04 <bad_trap>

80004ccc <inst_545>:
80004ccc:	ffff5f37          	lui	t5,0xffff5
80004cd0:	afdf0f13          	addi	t5,t5,-1283 # ffff4afd <imm12+0xffff502d>
80004cd4:	00300e93          	li	t4,3
80004cd8:	03df2fb3          	mulhsu	t6,t5,t4
80004cdc:	03f42023          	sw	t6,32(s0)
80004ce0:	fff00493          	li	s1,-1
80004ce4:	01f48463          	beq	s1,t6,80004cec <inst_546>
80004ce8:	01c0106f          	j	80005d04 <bad_trap>

80004cec <inst_546>:
80004cec:	00400f13          	li	t5,4
80004cf0:	00000e93          	li	t4,0
80004cf4:	03df2fb3          	mulhsu	t6,t5,t4
80004cf8:	03f42223          	sw	t6,36(s0)
80004cfc:	00000493          	li	s1,0
80004d00:	01f48463          	beq	s1,t6,80004d08 <inst_547>
80004d04:	0000106f          	j	80005d04 <bad_trap>

80004d08 <inst_547>:
80004d08:	ffff5f37          	lui	t5,0xffff5
80004d0c:	afdf0f13          	addi	t5,t5,-1283 # ffff4afd <imm12+0xffff502d>
80004d10:	55555eb7          	lui	t4,0x55555
80004d14:	555e8e93          	addi	t4,t4,1365 # 55555555 <absimm+0x10263026>
80004d18:	03df2fb3          	mulhsu	t6,t5,t4
80004d1c:	03f42423          	sw	t6,40(s0)
80004d20:	ffffc4b7          	lui	s1,0xffffc
80004d24:	3a948493          	addi	s1,s1,937 # ffffc3a9 <imm12+0xffffc8d9>
80004d28:	7df49ee3          	bne	s1,t6,80005d04 <bad_trap>

80004d2c <inst_548>:
80004d2c:	00400f13          	li	t5,4
80004d30:	55555eb7          	lui	t4,0x55555
80004d34:	556e8e93          	addi	t4,t4,1366 # 55555556 <absimm+0x10263027>
80004d38:	03df2fb3          	mulhsu	t6,t5,t4
80004d3c:	03f42623          	sw	t6,44(s0)
80004d40:	00100493          	li	s1,1
80004d44:	7df490e3          	bne	s1,t6,80005d04 <bad_trap>

80004d48 <inst_549>:
80004d48:	ffff5f37          	lui	t5,0xffff5
80004d4c:	afdf0f13          	addi	t5,t5,-1283 # ffff4afd <imm12+0xffff502d>
80004d50:	aaaabeb7          	lui	t4,0xaaaab
80004d54:	aaae8e93          	addi	t4,t4,-1366 # aaaaaaaa <imm12+0xaaaaafda>
80004d58:	03df2fb3          	mulhsu	t6,t5,t4
80004d5c:	03f42823          	sw	t6,48(s0)
80004d60:	ffff84b7          	lui	s1,0xffff8
80004d64:	75348493          	addi	s1,s1,1875 # ffff8753 <imm12+0xffff8c83>
80004d68:	79f49ee3          	bne	s1,t6,80005d04 <bad_trap>

80004d6c <inst_550>:
80004d6c:	ffff5f37          	lui	t5,0xffff5
80004d70:	afdf0f13          	addi	t5,t5,-1283 # ffff4afd <imm12+0xffff502d>
80004d74:	00500e93          	li	t4,5
80004d78:	03df2fb3          	mulhsu	t6,t5,t4
80004d7c:	03f42a23          	sw	t6,52(s0)
80004d80:	fff00493          	li	s1,-1
80004d84:	79f490e3          	bne	s1,t6,80005d04 <bad_trap>

80004d88 <inst_551>:
80004d88:	ffff5f37          	lui	t5,0xffff5
80004d8c:	afdf0f13          	addi	t5,t5,-1283 # ffff4afd <imm12+0xffff502d>
80004d90:	33333eb7          	lui	t4,0x33333
80004d94:	333e8e93          	addi	t4,t4,819 # 33333333 <offset+0x333330ff>
80004d98:	03df2fb3          	mulhsu	t6,t5,t4
80004d9c:	03f42c23          	sw	t6,56(s0)
80004da0:	ffffe4b7          	lui	s1,0xffffe
80004da4:	bcc48493          	addi	s1,s1,-1076 # ffffdbcc <imm12+0xffffe0fc>
80004da8:	75f49ee3          	bne	s1,t6,80005d04 <bad_trap>

80004dac <inst_552>:
80004dac:	ffff5f37          	lui	t5,0xffff5
80004db0:	afdf0f13          	addi	t5,t5,-1283 # ffff4afd <imm12+0xffff502d>
80004db4:	66666eb7          	lui	t4,0x66666
80004db8:	666e8e93          	addi	t4,t4,1638 # 66666666 <absimm+0x21374137>
80004dbc:	03df2fb3          	mulhsu	t6,t5,t4
80004dc0:	03f42e23          	sw	t6,60(s0)
80004dc4:	ffffb4b7          	lui	s1,0xffffb
80004dc8:	79848493          	addi	s1,s1,1944 # ffffb798 <imm12+0xffffbcc8>
80004dcc:	73f49ce3          	bne	s1,t6,80005d04 <bad_trap>

80004dd0 <inst_553>:
80004dd0:	ffff5f37          	lui	t5,0xffff5
80004dd4:	afdf0f13          	addi	t5,t5,-1283 # ffff4afd <imm12+0xffff502d>
80004dd8:	0000beb7          	lui	t4,0xb
80004ddc:	504e8e93          	addi	t4,t4,1284 # b504 <offset+0xb2d0>
80004de0:	03df2fb3          	mulhsu	t6,t5,t4
80004de4:	05f42023          	sw	t6,64(s0)
80004de8:	fff00493          	li	s1,-1
80004dec:	71f49ce3          	bne	s1,t6,80005d04 <bad_trap>

80004df0 <inst_554>:
80004df0:	ffff5f37          	lui	t5,0xffff5
80004df4:	afdf0f13          	addi	t5,t5,-1283 # ffff4afd <imm12+0xffff502d>
80004df8:	00010eb7          	lui	t4,0x10
80004dfc:	fffe8e93          	addi	t4,t4,-1 # ffff <offset+0xfdcb>
80004e00:	03df2fb3          	mulhsu	t6,t5,t4
80004e04:	05f42223          	sw	t6,68(s0)
80004e08:	fff00493          	li	s1,-1
80004e0c:	6ff49ce3          	bne	s1,t6,80005d04 <bad_trap>

80004e10 <inst_555>:
80004e10:	ffff5f37          	lui	t5,0xffff5
80004e14:	afdf0f13          	addi	t5,t5,-1283 # ffff4afd <imm12+0xffff502d>
80004e18:	00200e93          	li	t4,2
80004e1c:	03df2fb3          	mulhsu	t6,t5,t4
80004e20:	05f42423          	sw	t6,72(s0)
80004e24:	fff00493          	li	s1,-1
80004e28:	6df49ee3          	bne	s1,t6,80005d04 <bad_trap>

80004e2c <inst_556>:
80004e2c:	ffff5f37          	lui	t5,0xffff5
80004e30:	afdf0f13          	addi	t5,t5,-1283 # ffff4afd <imm12+0xffff502d>
80004e34:	55555eb7          	lui	t4,0x55555
80004e38:	554e8e93          	addi	t4,t4,1364 # 55555554 <absimm+0x10263025>
80004e3c:	03df2fb3          	mulhsu	t6,t5,t4
80004e40:	05f42623          	sw	t6,76(s0)
80004e44:	ffffc4b7          	lui	s1,0xffffc
80004e48:	3a948493          	addi	s1,s1,937 # ffffc3a9 <imm12+0xffffc8d9>
80004e4c:	6bf49ce3          	bne	s1,t6,80005d04 <bad_trap>

80004e50 <inst_557>:
80004e50:	ffff5f37          	lui	t5,0xffff5
80004e54:	afdf0f13          	addi	t5,t5,-1283 # ffff4afd <imm12+0xffff502d>
80004e58:	aaaabeb7          	lui	t4,0xaaaab
80004e5c:	aa9e8e93          	addi	t4,t4,-1367 # aaaaaaa9 <imm12+0xaaaaafd9>
80004e60:	03df2fb3          	mulhsu	t6,t5,t4
80004e64:	05f42823          	sw	t6,80(s0)
80004e68:	ffff84b7          	lui	s1,0xffff8
80004e6c:	75348493          	addi	s1,s1,1875 # ffff8753 <imm12+0xffff8c83>
80004e70:	69f49ae3          	bne	s1,t6,80005d04 <bad_trap>

80004e74 <inst_558>:
80004e74:	ffff5f37          	lui	t5,0xffff5
80004e78:	afdf0f13          	addi	t5,t5,-1283 # ffff4afd <imm12+0xffff502d>
80004e7c:	33333eb7          	lui	t4,0x33333
80004e80:	332e8e93          	addi	t4,t4,818 # 33333332 <offset+0x333330fe>
80004e84:	03df2fb3          	mulhsu	t6,t5,t4
80004e88:	05f42a23          	sw	t6,84(s0)
80004e8c:	ffffe4b7          	lui	s1,0xffffe
80004e90:	bcc48493          	addi	s1,s1,-1076 # ffffdbcc <imm12+0xffffe0fc>
80004e94:	67f498e3          	bne	s1,t6,80005d04 <bad_trap>

80004e98 <inst_559>:
80004e98:	ffff5f37          	lui	t5,0xffff5
80004e9c:	afdf0f13          	addi	t5,t5,-1283 # ffff4afd <imm12+0xffff502d>
80004ea0:	66666eb7          	lui	t4,0x66666
80004ea4:	665e8e93          	addi	t4,t4,1637 # 66666665 <absimm+0x21374136>
80004ea8:	03df2fb3          	mulhsu	t6,t5,t4
80004eac:	05f42c23          	sw	t6,88(s0)
80004eb0:	ffffb4b7          	lui	s1,0xffffb
80004eb4:	79848493          	addi	s1,s1,1944 # ffffb798 <imm12+0xffffbcc8>
80004eb8:	65f496e3          	bne	s1,t6,80005d04 <bad_trap>

80004ebc <inst_560>:
80004ebc:	ffff5f37          	lui	t5,0xffff5
80004ec0:	afdf0f13          	addi	t5,t5,-1283 # ffff4afd <imm12+0xffff502d>
80004ec4:	0000beb7          	lui	t4,0xb
80004ec8:	503e8e93          	addi	t4,t4,1283 # b503 <offset+0xb2cf>
80004ecc:	03df2fb3          	mulhsu	t6,t5,t4
80004ed0:	05f42e23          	sw	t6,92(s0)
80004ed4:	fff00493          	li	s1,-1
80004ed8:	63f496e3          	bne	s1,t6,80005d04 <bad_trap>

80004edc <inst_561>:
80004edc:	ffff5f37          	lui	t5,0xffff5
80004ee0:	afdf0f13          	addi	t5,t5,-1283 # ffff4afd <imm12+0xffff502d>
80004ee4:	00000e93          	li	t4,0
80004ee8:	03df2fb3          	mulhsu	t6,t5,t4
80004eec:	07f42023          	sw	t6,96(s0)
80004ef0:	00000493          	li	s1,0
80004ef4:	61f498e3          	bne	s1,t6,80005d04 <bad_trap>

80004ef8 <inst_562>:
80004ef8:	ffff5f37          	lui	t5,0xffff5
80004efc:	afdf0f13          	addi	t5,t5,-1283 # ffff4afd <imm12+0xffff502d>
80004f00:	00010eb7          	lui	t4,0x10
80004f04:	ffee8e93          	addi	t4,t4,-2 # fffe <offset+0xfdca>
80004f08:	03df2fb3          	mulhsu	t6,t5,t4
80004f0c:	07f42223          	sw	t6,100(s0)
80004f10:	fff00493          	li	s1,-1
80004f14:	5ff498e3          	bne	s1,t6,80005d04 <bad_trap>

80004f18 <inst_563>:
80004f18:	ffff5f37          	lui	t5,0xffff5
80004f1c:	afdf0f13          	addi	t5,t5,-1283 # ffff4afd <imm12+0xffff502d>
80004f20:	00400e93          	li	t4,4
80004f24:	03df2fb3          	mulhsu	t6,t5,t4
80004f28:	07f42423          	sw	t6,104(s0)
80004f2c:	fff00493          	li	s1,-1
80004f30:	5df49ae3          	bne	s1,t6,80005d04 <bad_trap>

80004f34 <inst_564>:
80004f34:	ffff5f37          	lui	t5,0xffff5
80004f38:	afdf0f13          	addi	t5,t5,-1283 # ffff4afd <imm12+0xffff502d>
80004f3c:	55555eb7          	lui	t4,0x55555
80004f40:	556e8e93          	addi	t4,t4,1366 # 55555556 <absimm+0x10263027>
80004f44:	03df2fb3          	mulhsu	t6,t5,t4
80004f48:	07f42623          	sw	t6,108(s0)
80004f4c:	ffffc4b7          	lui	s1,0xffffc
80004f50:	3a948493          	addi	s1,s1,937 # ffffc3a9 <imm12+0xffffc8d9>
80004f54:	5bf498e3          	bne	s1,t6,80005d04 <bad_trap>

80004f58 <inst_565>:
80004f58:	ffff5f37          	lui	t5,0xffff5
80004f5c:	afdf0f13          	addi	t5,t5,-1283 # ffff4afd <imm12+0xffff502d>
80004f60:	aaaabeb7          	lui	t4,0xaaaab
80004f64:	aabe8e93          	addi	t4,t4,-1365 # aaaaaaab <imm12+0xaaaaafdb>
80004f68:	03df2fb3          	mulhsu	t6,t5,t4
80004f6c:	07f42823          	sw	t6,112(s0)
80004f70:	ffff84b7          	lui	s1,0xffff8
80004f74:	75348493          	addi	s1,s1,1875 # ffff8753 <imm12+0xffff8c83>
80004f78:	59f496e3          	bne	s1,t6,80005d04 <bad_trap>

80004f7c <inst_566>:
80004f7c:	ffff5f37          	lui	t5,0xffff5
80004f80:	afdf0f13          	addi	t5,t5,-1283 # ffff4afd <imm12+0xffff502d>
80004f84:	00600e93          	li	t4,6
80004f88:	03df2fb3          	mulhsu	t6,t5,t4
80004f8c:	07f42a23          	sw	t6,116(s0)
80004f90:	fff00493          	li	s1,-1
80004f94:	57f498e3          	bne	s1,t6,80005d04 <bad_trap>

80004f98 <inst_567>:
80004f98:	ffff5f37          	lui	t5,0xffff5
80004f9c:	afdf0f13          	addi	t5,t5,-1283 # ffff4afd <imm12+0xffff502d>
80004fa0:	33333eb7          	lui	t4,0x33333
80004fa4:	334e8e93          	addi	t4,t4,820 # 33333334 <offset+0x33333100>
80004fa8:	03df2fb3          	mulhsu	t6,t5,t4
80004fac:	07f42c23          	sw	t6,120(s0)
80004fb0:	ffffe4b7          	lui	s1,0xffffe
80004fb4:	bcc48493          	addi	s1,s1,-1076 # ffffdbcc <imm12+0xffffe0fc>
80004fb8:	55f496e3          	bne	s1,t6,80005d04 <bad_trap>

80004fbc <inst_568>:
80004fbc:	ffff5f37          	lui	t5,0xffff5
80004fc0:	afdf0f13          	addi	t5,t5,-1283 # ffff4afd <imm12+0xffff502d>
80004fc4:	66666eb7          	lui	t4,0x66666
80004fc8:	667e8e93          	addi	t4,t4,1639 # 66666667 <absimm+0x21374138>
80004fcc:	03df2fb3          	mulhsu	t6,t5,t4
80004fd0:	07f42e23          	sw	t6,124(s0)
80004fd4:	ffffb4b7          	lui	s1,0xffffb
80004fd8:	79848493          	addi	s1,s1,1944 # ffffb798 <imm12+0xffffbcc8>
80004fdc:	53f494e3          	bne	s1,t6,80005d04 <bad_trap>

80004fe0 <inst_569>:
80004fe0:	ffff5f37          	lui	t5,0xffff5
80004fe4:	afdf0f13          	addi	t5,t5,-1283 # ffff4afd <imm12+0xffff502d>
80004fe8:	0000beb7          	lui	t4,0xb
80004fec:	505e8e93          	addi	t4,t4,1285 # b505 <offset+0xb2d1>
80004ff0:	03df2fb3          	mulhsu	t6,t5,t4
80004ff4:	09f42023          	sw	t6,128(s0)
80004ff8:	fff00493          	li	s1,-1
80004ffc:	51f494e3          	bne	s1,t6,80005d04 <bad_trap>

80005000 <inst_570>:
80005000:	ffff5f37          	lui	t5,0xffff5
80005004:	afdf0f13          	addi	t5,t5,-1283 # ffff4afd <imm12+0xffff502d>
80005008:	00100e93          	li	t4,1
8000500c:	03df2fb3          	mulhsu	t6,t5,t4
80005010:	09f42223          	sw	t6,132(s0)
80005014:	fff00493          	li	s1,-1
80005018:	4ff496e3          	bne	s1,t6,80005d04 <bad_trap>

8000501c <inst_571>:
8000501c:	ffff5f37          	lui	t5,0xffff5
80005020:	afdf0f13          	addi	t5,t5,-1283 # ffff4afd <imm12+0xffff502d>
80005024:	00010eb7          	lui	t4,0x10
80005028:	03df2fb3          	mulhsu	t6,t5,t4
8000502c:	09f42423          	sw	t6,136(s0)
80005030:	fff00493          	li	s1,-1
80005034:	4df498e3          	bne	s1,t6,80005d04 <bad_trap>

80005038 <inst_572>:
80005038:	0000bf37          	lui	t5,0xb
8000503c:	505f0f13          	addi	t5,t5,1285 # b505 <offset+0xb2d1>
80005040:	00300e93          	li	t4,3
80005044:	03df2fb3          	mulhsu	t6,t5,t4
80005048:	09f42623          	sw	t6,140(s0)
8000504c:	00000493          	li	s1,0
80005050:	4bf49ae3          	bne	s1,t6,80005d04 <bad_trap>

80005054 <inst_573>:
80005054:	0000bf37          	lui	t5,0xb
80005058:	505f0f13          	addi	t5,t5,1285 # b505 <offset+0xb2d1>
8000505c:	55555eb7          	lui	t4,0x55555
80005060:	555e8e93          	addi	t4,t4,1365 # 55555555 <absimm+0x10263026>
80005064:	03df2fb3          	mulhsu	t6,t5,t4
80005068:	09f42823          	sw	t6,144(s0)
8000506c:	000044b7          	lui	s1,0x4
80005070:	c5648493          	addi	s1,s1,-938 # 3c56 <offset+0x3a22>
80005074:	49f498e3          	bne	s1,t6,80005d04 <bad_trap>

80005078 <inst_574>:
80005078:	0000bf37          	lui	t5,0xb
8000507c:	505f0f13          	addi	t5,t5,1285 # b505 <offset+0xb2d1>
80005080:	aaaabeb7          	lui	t4,0xaaaab
80005084:	aaae8e93          	addi	t4,t4,-1366 # aaaaaaaa <imm12+0xaaaaafda>
80005088:	03df2fb3          	mulhsu	t6,t5,t4
8000508c:	09f42a23          	sw	t6,148(s0)
80005090:	000084b7          	lui	s1,0x8
80005094:	8ad48493          	addi	s1,s1,-1875 # 78ad <offset+0x7679>
80005098:	47f496e3          	bne	s1,t6,80005d04 <bad_trap>

8000509c <inst_575>:
8000509c:	0000bf37          	lui	t5,0xb
800050a0:	505f0f13          	addi	t5,t5,1285 # b505 <offset+0xb2d1>
800050a4:	00500e93          	li	t4,5
800050a8:	03df2fb3          	mulhsu	t6,t5,t4
800050ac:	09f42c23          	sw	t6,152(s0)
800050b0:	00000493          	li	s1,0
800050b4:	45f498e3          	bne	s1,t6,80005d04 <bad_trap>

800050b8 <inst_576>:
800050b8:	0000bf37          	lui	t5,0xb
800050bc:	505f0f13          	addi	t5,t5,1285 # b505 <offset+0xb2d1>
800050c0:	33333eb7          	lui	t4,0x33333
800050c4:	333e8e93          	addi	t4,t4,819 # 33333333 <offset+0x333330ff>
800050c8:	03df2fb3          	mulhsu	t6,t5,t4
800050cc:	09f42e23          	sw	t6,156(s0)
800050d0:	000024b7          	lui	s1,0x2
800050d4:	43448493          	addi	s1,s1,1076 # 2434 <offset+0x2200>
800050d8:	43f496e3          	bne	s1,t6,80005d04 <bad_trap>

800050dc <inst_577>:
800050dc:	0000bf37          	lui	t5,0xb
800050e0:	505f0f13          	addi	t5,t5,1285 # b505 <offset+0xb2d1>
800050e4:	66666eb7          	lui	t4,0x66666
800050e8:	666e8e93          	addi	t4,t4,1638 # 66666666 <absimm+0x21374137>
800050ec:	03df2fb3          	mulhsu	t6,t5,t4
800050f0:	0bf42023          	sw	t6,160(s0)
800050f4:	000054b7          	lui	s1,0x5
800050f8:	86848493          	addi	s1,s1,-1944 # 4868 <offset+0x4634>
800050fc:	41f494e3          	bne	s1,t6,80005d04 <bad_trap>

80005100 <inst_578>:
80005100:	0000bf37          	lui	t5,0xb
80005104:	505f0f13          	addi	t5,t5,1285 # b505 <offset+0xb2d1>
80005108:	0000beb7          	lui	t4,0xb
8000510c:	504e8e93          	addi	t4,t4,1284 # b504 <offset+0xb2d0>
80005110:	03df2fb3          	mulhsu	t6,t5,t4
80005114:	0bf42223          	sw	t6,164(s0)
80005118:	00000493          	li	s1,0
8000511c:	3ff494e3          	bne	s1,t6,80005d04 <bad_trap>

80005120 <inst_579>:
80005120:	0000bf37          	lui	t5,0xb
80005124:	505f0f13          	addi	t5,t5,1285 # b505 <offset+0xb2d1>
80005128:	00010eb7          	lui	t4,0x10
8000512c:	fffe8e93          	addi	t4,t4,-1 # ffff <offset+0xfdcb>
80005130:	03df2fb3          	mulhsu	t6,t5,t4
80005134:	0bf42423          	sw	t6,168(s0)
80005138:	00000493          	li	s1,0
8000513c:	3df494e3          	bne	s1,t6,80005d04 <bad_trap>

80005140 <inst_580>:
80005140:	0000bf37          	lui	t5,0xb
80005144:	505f0f13          	addi	t5,t5,1285 # b505 <offset+0xb2d1>
80005148:	55555eb7          	lui	t4,0x55555
8000514c:	554e8e93          	addi	t4,t4,1364 # 55555554 <absimm+0x10263025>
80005150:	03df2fb3          	mulhsu	t6,t5,t4
80005154:	0bf42623          	sw	t6,172(s0)
80005158:	000044b7          	lui	s1,0x4
8000515c:	c5648493          	addi	s1,s1,-938 # 3c56 <offset+0x3a22>
80005160:	3bf492e3          	bne	s1,t6,80005d04 <bad_trap>

80005164 <inst_581>:
80005164:	0000bf37          	lui	t5,0xb
80005168:	505f0f13          	addi	t5,t5,1285 # b505 <offset+0xb2d1>
8000516c:	aaaabeb7          	lui	t4,0xaaaab
80005170:	aa9e8e93          	addi	t4,t4,-1367 # aaaaaaa9 <imm12+0xaaaaafd9>
80005174:	03df2fb3          	mulhsu	t6,t5,t4
80005178:	0bf42823          	sw	t6,176(s0)
8000517c:	000084b7          	lui	s1,0x8
80005180:	8ad48493          	addi	s1,s1,-1875 # 78ad <offset+0x7679>
80005184:	39f490e3          	bne	s1,t6,80005d04 <bad_trap>

80005188 <inst_582>:
80005188:	0000bf37          	lui	t5,0xb
8000518c:	505f0f13          	addi	t5,t5,1285 # b505 <offset+0xb2d1>
80005190:	33333eb7          	lui	t4,0x33333
80005194:	332e8e93          	addi	t4,t4,818 # 33333332 <offset+0x333330fe>
80005198:	03df2fb3          	mulhsu	t6,t5,t4
8000519c:	0bf42a23          	sw	t6,180(s0)
800051a0:	000024b7          	lui	s1,0x2
800051a4:	43448493          	addi	s1,s1,1076 # 2434 <offset+0x2200>
800051a8:	35f49ee3          	bne	s1,t6,80005d04 <bad_trap>

800051ac <inst_583>:
800051ac:	0000bf37          	lui	t5,0xb
800051b0:	505f0f13          	addi	t5,t5,1285 # b505 <offset+0xb2d1>
800051b4:	66666eb7          	lui	t4,0x66666
800051b8:	665e8e93          	addi	t4,t4,1637 # 66666665 <absimm+0x21374136>
800051bc:	03df2fb3          	mulhsu	t6,t5,t4
800051c0:	0bf42c23          	sw	t6,184(s0)
800051c4:	000054b7          	lui	s1,0x5
800051c8:	86848493          	addi	s1,s1,-1944 # 4868 <offset+0x4634>
800051cc:	33f49ce3          	bne	s1,t6,80005d04 <bad_trap>

800051d0 <inst_584>:
800051d0:	0000bf37          	lui	t5,0xb
800051d4:	505f0f13          	addi	t5,t5,1285 # b505 <offset+0xb2d1>
800051d8:	0000beb7          	lui	t4,0xb
800051dc:	503e8e93          	addi	t4,t4,1283 # b503 <offset+0xb2cf>
800051e0:	03df2fb3          	mulhsu	t6,t5,t4
800051e4:	0bf42e23          	sw	t6,188(s0)
800051e8:	00000493          	li	s1,0
800051ec:	31f49ce3          	bne	s1,t6,80005d04 <bad_trap>

800051f0 <inst_585>:
800051f0:	0000bf37          	lui	t5,0xb
800051f4:	505f0f13          	addi	t5,t5,1285 # b505 <offset+0xb2d1>
800051f8:	00000e93          	li	t4,0
800051fc:	03df2fb3          	mulhsu	t6,t5,t4
80005200:	0df42023          	sw	t6,192(s0)
80005204:	00000493          	li	s1,0
80005208:	2ff49ee3          	bne	s1,t6,80005d04 <bad_trap>

8000520c <inst_586>:
8000520c:	0000bf37          	lui	t5,0xb
80005210:	505f0f13          	addi	t5,t5,1285 # b505 <offset+0xb2d1>
80005214:	00010eb7          	lui	t4,0x10
80005218:	ffee8e93          	addi	t4,t4,-2 # fffe <offset+0xfdca>
8000521c:	03df2fb3          	mulhsu	t6,t5,t4
80005220:	0df42223          	sw	t6,196(s0)
80005224:	00000493          	li	s1,0
80005228:	2df49ee3          	bne	s1,t6,80005d04 <bad_trap>

8000522c <inst_587>:
8000522c:	0000bf37          	lui	t5,0xb
80005230:	505f0f13          	addi	t5,t5,1285 # b505 <offset+0xb2d1>
80005234:	55555eb7          	lui	t4,0x55555
80005238:	556e8e93          	addi	t4,t4,1366 # 55555556 <absimm+0x10263027>
8000523c:	03df2fb3          	mulhsu	t6,t5,t4
80005240:	0df42423          	sw	t6,200(s0)
80005244:	000044b7          	lui	s1,0x4
80005248:	c5748493          	addi	s1,s1,-937 # 3c57 <offset+0x3a23>
8000524c:	2bf49ce3          	bne	s1,t6,80005d04 <bad_trap>

80005250 <inst_588>:
80005250:	0000bf37          	lui	t5,0xb
80005254:	505f0f13          	addi	t5,t5,1285 # b505 <offset+0xb2d1>
80005258:	aaaabeb7          	lui	t4,0xaaaab
8000525c:	aabe8e93          	addi	t4,t4,-1365 # aaaaaaab <imm12+0xaaaaafdb>
80005260:	03df2fb3          	mulhsu	t6,t5,t4
80005264:	0df42623          	sw	t6,204(s0)
80005268:	000084b7          	lui	s1,0x8
8000526c:	8ae48493          	addi	s1,s1,-1874 # 78ae <offset+0x767a>
80005270:	29f49ae3          	bne	s1,t6,80005d04 <bad_trap>

80005274 <inst_589>:
80005274:	0000bf37          	lui	t5,0xb
80005278:	505f0f13          	addi	t5,t5,1285 # b505 <offset+0xb2d1>
8000527c:	00600e93          	li	t4,6
80005280:	03df2fb3          	mulhsu	t6,t5,t4
80005284:	0df42823          	sw	t6,208(s0)
80005288:	00000493          	li	s1,0
8000528c:	27f49ce3          	bne	s1,t6,80005d04 <bad_trap>

80005290 <inst_590>:
80005290:	66666f37          	lui	t5,0x66666
80005294:	665f0f13          	addi	t5,t5,1637 # 66666665 <absimm+0x21374136>
80005298:	0000beb7          	lui	t4,0xb
8000529c:	503e8e93          	addi	t4,t4,1283 # b503 <offset+0xb2cf>
800052a0:	03df2fb3          	mulhsu	t6,t5,t4
800052a4:	0df42a23          	sw	t6,212(s0)
800052a8:	000054b7          	lui	s1,0x5
800052ac:	86748493          	addi	s1,s1,-1945 # 4867 <offset+0x4633>
800052b0:	25f49ae3          	bne	s1,t6,80005d04 <bad_trap>

800052b4 <inst_591>:
800052b4:	0000bf37          	lui	t5,0xb
800052b8:	505f0f13          	addi	t5,t5,1285 # b505 <offset+0xb2d1>
800052bc:	33333eb7          	lui	t4,0x33333
800052c0:	334e8e93          	addi	t4,t4,820 # 33333334 <offset+0x33333100>
800052c4:	03df2fb3          	mulhsu	t6,t5,t4
800052c8:	0df42c23          	sw	t6,216(s0)
800052cc:	000024b7          	lui	s1,0x2
800052d0:	43448493          	addi	s1,s1,1076 # 2434 <offset+0x2200>
800052d4:	23f498e3          	bne	s1,t6,80005d04 <bad_trap>

800052d8 <inst_592>:
800052d8:	66666f37          	lui	t5,0x66666
800052dc:	665f0f13          	addi	t5,t5,1637 # 66666665 <absimm+0x21374136>
800052e0:	00000e93          	li	t4,0
800052e4:	03df2fb3          	mulhsu	t6,t5,t4
800052e8:	0df42e23          	sw	t6,220(s0)
800052ec:	00000493          	li	s1,0
800052f0:	21f49ae3          	bne	s1,t6,80005d04 <bad_trap>

800052f4 <inst_593>:
800052f4:	0000bf37          	lui	t5,0xb
800052f8:	505f0f13          	addi	t5,t5,1285 # b505 <offset+0xb2d1>
800052fc:	66666eb7          	lui	t4,0x66666
80005300:	667e8e93          	addi	t4,t4,1639 # 66666667 <absimm+0x21374138>
80005304:	03df2fb3          	mulhsu	t6,t5,t4
80005308:	0ff42023          	sw	t6,224(s0)
8000530c:	000054b7          	lui	s1,0x5
80005310:	86848493          	addi	s1,s1,-1944 # 4868 <offset+0x4634>
80005314:	1ff498e3          	bne	s1,t6,80005d04 <bad_trap>

80005318 <inst_594>:
80005318:	66666f37          	lui	t5,0x66666
8000531c:	665f0f13          	addi	t5,t5,1637 # 66666665 <absimm+0x21374136>
80005320:	00010eb7          	lui	t4,0x10
80005324:	ffee8e93          	addi	t4,t4,-2 # fffe <offset+0xfdca>
80005328:	03df2fb3          	mulhsu	t6,t5,t4
8000532c:	0ff42223          	sw	t6,228(s0)
80005330:	000064b7          	lui	s1,0x6
80005334:	66548493          	addi	s1,s1,1637 # 6665 <offset+0x6431>
80005338:	1df496e3          	bne	s1,t6,80005d04 <bad_trap>

8000533c <inst_595>:
8000533c:	66666f37          	lui	t5,0x66666
80005340:	665f0f13          	addi	t5,t5,1637 # 66666665 <absimm+0x21374136>
80005344:	00400e93          	li	t4,4
80005348:	03df2fb3          	mulhsu	t6,t5,t4
8000534c:	0ff42423          	sw	t6,232(s0)
80005350:	00100493          	li	s1,1
80005354:	1bf498e3          	bne	s1,t6,80005d04 <bad_trap>

80005358 <inst_596>:
80005358:	66666f37          	lui	t5,0x66666
8000535c:	665f0f13          	addi	t5,t5,1637 # 66666665 <absimm+0x21374136>
80005360:	55555eb7          	lui	t4,0x55555
80005364:	556e8e93          	addi	t4,t4,1366 # 55555556 <absimm+0x10263027>
80005368:	03df2fb3          	mulhsu	t6,t5,t4
8000536c:	0ff42623          	sw	t6,236(s0)
80005370:	222224b7          	lui	s1,0x22222
80005374:	22148493          	addi	s1,s1,545 # 22222221 <offset+0x22221fed>
80005378:	19f496e3          	bne	s1,t6,80005d04 <bad_trap>

8000537c <inst_597>:
8000537c:	66666f37          	lui	t5,0x66666
80005380:	665f0f13          	addi	t5,t5,1637 # 66666665 <absimm+0x21374136>
80005384:	aaaabeb7          	lui	t4,0xaaaab
80005388:	aabe8e93          	addi	t4,t4,-1365 # aaaaaaab <imm12+0xaaaaafdb>
8000538c:	03df2fb3          	mulhsu	t6,t5,t4
80005390:	0ff42823          	sw	t6,240(s0)
80005394:	444444b7          	lui	s1,0x44444
80005398:	44348493          	addi	s1,s1,1091 # 44444443 <offset+0x4444420f>
8000539c:	17f494e3          	bne	s1,t6,80005d04 <bad_trap>

800053a0 <inst_598>:
800053a0:	66666f37          	lui	t5,0x66666
800053a4:	665f0f13          	addi	t5,t5,1637 # 66666665 <absimm+0x21374136>
800053a8:	00600e93          	li	t4,6
800053ac:	03df2fb3          	mulhsu	t6,t5,t4
800053b0:	0ff42a23          	sw	t6,244(s0)
800053b4:	00200493          	li	s1,2
800053b8:	15f496e3          	bne	s1,t6,80005d04 <bad_trap>

800053bc <inst_599>:
800053bc:	66666f37          	lui	t5,0x66666
800053c0:	665f0f13          	addi	t5,t5,1637 # 66666665 <absimm+0x21374136>
800053c4:	33333eb7          	lui	t4,0x33333
800053c8:	334e8e93          	addi	t4,t4,820 # 33333334 <offset+0x33333100>
800053cc:	03df2fb3          	mulhsu	t6,t5,t4
800053d0:	0ff42c23          	sw	t6,248(s0)
800053d4:	147ae4b7          	lui	s1,0x147ae
800053d8:	14748493          	addi	s1,s1,327 # 147ae147 <offset+0x147adf13>
800053dc:	13f494e3          	bne	s1,t6,80005d04 <bad_trap>

800053e0 <inst_600>:
800053e0:	66666f37          	lui	t5,0x66666
800053e4:	665f0f13          	addi	t5,t5,1637 # 66666665 <absimm+0x21374136>
800053e8:	66666eb7          	lui	t4,0x66666
800053ec:	667e8e93          	addi	t4,t4,1639 # 66666667 <absimm+0x21374138>
800053f0:	03df2fb3          	mulhsu	t6,t5,t4
800053f4:	0ff42e23          	sw	t6,252(s0)
800053f8:	28f5c4b7          	lui	s1,0x28f5c
800053fc:	28f48493          	addi	s1,s1,655 # 28f5c28f <offset+0x28f5c05b>
80005400:	11f492e3          	bne	s1,t6,80005d04 <bad_trap>

80005404 <inst_601>:
80005404:	66666f37          	lui	t5,0x66666
80005408:	665f0f13          	addi	t5,t5,1637 # 66666665 <absimm+0x21374136>
8000540c:	0000beb7          	lui	t4,0xb
80005410:	505e8e93          	addi	t4,t4,1285 # b505 <offset+0xb2d1>
80005414:	03df2fb3          	mulhsu	t6,t5,t4
80005418:	11f42023          	sw	t6,256(s0)
8000541c:	000054b7          	lui	s1,0x5
80005420:	86848493          	addi	s1,s1,-1944 # 4868 <offset+0x4634>
80005424:	0ff490e3          	bne	s1,t6,80005d04 <bad_trap>

80005428 <inst_602>:
80005428:	66666f37          	lui	t5,0x66666
8000542c:	665f0f13          	addi	t5,t5,1637 # 66666665 <absimm+0x21374136>
80005430:	00100e93          	li	t4,1
80005434:	03df2fb3          	mulhsu	t6,t5,t4
80005438:	11f42223          	sw	t6,260(s0)
8000543c:	00000493          	li	s1,0
80005440:	0df492e3          	bne	s1,t6,80005d04 <bad_trap>

80005444 <inst_603>:
80005444:	66666f37          	lui	t5,0x66666
80005448:	665f0f13          	addi	t5,t5,1637 # 66666665 <absimm+0x21374136>
8000544c:	00010eb7          	lui	t4,0x10
80005450:	03df2fb3          	mulhsu	t6,t5,t4
80005454:	11f42423          	sw	t6,264(s0)
80005458:	000064b7          	lui	s1,0x6
8000545c:	66648493          	addi	s1,s1,1638 # 6666 <offset+0x6432>
80005460:	0bf492e3          	bne	s1,t6,80005d04 <bad_trap>

80005464 <inst_604>:
80005464:	00000f13          	li	t5,0
80005468:	00300e93          	li	t4,3
8000546c:	03df2fb3          	mulhsu	t6,t5,t4
80005470:	11f42623          	sw	t6,268(s0)
80005474:	00000493          	li	s1,0
80005478:	09f496e3          	bne	s1,t6,80005d04 <bad_trap>

8000547c <inst_605>:
8000547c:	00000f13          	li	t5,0
80005480:	55555eb7          	lui	t4,0x55555
80005484:	555e8e93          	addi	t4,t4,1365 # 55555555 <absimm+0x10263026>
80005488:	03df2fb3          	mulhsu	t6,t5,t4
8000548c:	11f42823          	sw	t6,272(s0)
80005490:	00000493          	li	s1,0
80005494:	07f498e3          	bne	s1,t6,80005d04 <bad_trap>

80005498 <inst_606>:
80005498:	00000f13          	li	t5,0
8000549c:	aaaabeb7          	lui	t4,0xaaaab
800054a0:	aaae8e93          	addi	t4,t4,-1366 # aaaaaaaa <imm12+0xaaaaafda>
800054a4:	03df2fb3          	mulhsu	t6,t5,t4
800054a8:	11f42a23          	sw	t6,276(s0)
800054ac:	00000493          	li	s1,0
800054b0:	05f49ae3          	bne	s1,t6,80005d04 <bad_trap>

800054b4 <inst_607>:
800054b4:	00000f13          	li	t5,0
800054b8:	00500e93          	li	t4,5
800054bc:	03df2fb3          	mulhsu	t6,t5,t4
800054c0:	11f42c23          	sw	t6,280(s0)
800054c4:	00000493          	li	s1,0
800054c8:	03f49ee3          	bne	s1,t6,80005d04 <bad_trap>

800054cc <inst_608>:
800054cc:	00000f13          	li	t5,0
800054d0:	33333eb7          	lui	t4,0x33333
800054d4:	333e8e93          	addi	t4,t4,819 # 33333333 <offset+0x333330ff>
800054d8:	03df2fb3          	mulhsu	t6,t5,t4
800054dc:	11f42e23          	sw	t6,284(s0)
800054e0:	00000493          	li	s1,0
800054e4:	03f490e3          	bne	s1,t6,80005d04 <bad_trap>

800054e8 <inst_609>:
800054e8:	00000f13          	li	t5,0
800054ec:	66666eb7          	lui	t4,0x66666
800054f0:	666e8e93          	addi	t4,t4,1638 # 66666666 <absimm+0x21374137>
800054f4:	03df2fb3          	mulhsu	t6,t5,t4
800054f8:	13f42023          	sw	t6,288(s0)
800054fc:	00000493          	li	s1,0
80005500:	01f492e3          	bne	s1,t6,80005d04 <bad_trap>

80005504 <inst_610>:
80005504:	00000f13          	li	t5,0
80005508:	0000beb7          	lui	t4,0xb
8000550c:	504e8e93          	addi	t4,t4,1284 # b504 <offset+0xb2d0>
80005510:	03df2fb3          	mulhsu	t6,t5,t4
80005514:	13f42223          	sw	t6,292(s0)
80005518:	00000493          	li	s1,0
8000551c:	7ff49463          	bne	s1,t6,80005d04 <bad_trap>

80005520 <inst_611>:
80005520:	00000f13          	li	t5,0
80005524:	00010eb7          	lui	t4,0x10
80005528:	fffe8e93          	addi	t4,t4,-1 # ffff <offset+0xfdcb>
8000552c:	03df2fb3          	mulhsu	t6,t5,t4
80005530:	13f42423          	sw	t6,296(s0)
80005534:	00000493          	li	s1,0
80005538:	7df49663          	bne	s1,t6,80005d04 <bad_trap>

8000553c <inst_612>:
8000553c:	00000f13          	li	t5,0
80005540:	00200e93          	li	t4,2
80005544:	03df2fb3          	mulhsu	t6,t5,t4
80005548:	13f42623          	sw	t6,300(s0)
8000554c:	00000493          	li	s1,0
80005550:	7bf49a63          	bne	s1,t6,80005d04 <bad_trap>

80005554 <inst_613>:
80005554:	00000f13          	li	t5,0
80005558:	55555eb7          	lui	t4,0x55555
8000555c:	554e8e93          	addi	t4,t4,1364 # 55555554 <absimm+0x10263025>
80005560:	03df2fb3          	mulhsu	t6,t5,t4
80005564:	13f42823          	sw	t6,304(s0)
80005568:	00000493          	li	s1,0
8000556c:	79f49c63          	bne	s1,t6,80005d04 <bad_trap>

80005570 <inst_614>:
80005570:	00000f13          	li	t5,0
80005574:	aaaabeb7          	lui	t4,0xaaaab
80005578:	aa9e8e93          	addi	t4,t4,-1367 # aaaaaaa9 <imm12+0xaaaaafd9>
8000557c:	03df2fb3          	mulhsu	t6,t5,t4
80005580:	13f42a23          	sw	t6,308(s0)
80005584:	00000493          	li	s1,0
80005588:	77f49e63          	bne	s1,t6,80005d04 <bad_trap>

8000558c <inst_615>:
8000558c:	00000f13          	li	t5,0
80005590:	33333eb7          	lui	t4,0x33333
80005594:	332e8e93          	addi	t4,t4,818 # 33333332 <offset+0x333330fe>
80005598:	03df2fb3          	mulhsu	t6,t5,t4
8000559c:	13f42c23          	sw	t6,312(s0)
800055a0:	00000493          	li	s1,0
800055a4:	77f49063          	bne	s1,t6,80005d04 <bad_trap>

800055a8 <inst_616>:
800055a8:	00000f13          	li	t5,0
800055ac:	66666eb7          	lui	t4,0x66666
800055b0:	665e8e93          	addi	t4,t4,1637 # 66666665 <absimm+0x21374136>
800055b4:	03df2fb3          	mulhsu	t6,t5,t4
800055b8:	13f42e23          	sw	t6,316(s0)
800055bc:	00000493          	li	s1,0
800055c0:	75f49263          	bne	s1,t6,80005d04 <bad_trap>

800055c4 <inst_617>:
800055c4:	00000f13          	li	t5,0
800055c8:	0000beb7          	lui	t4,0xb
800055cc:	503e8e93          	addi	t4,t4,1283 # b503 <offset+0xb2cf>
800055d0:	03df2fb3          	mulhsu	t6,t5,t4
800055d4:	15f42023          	sw	t6,320(s0)
800055d8:	00000493          	li	s1,0
800055dc:	73f49463          	bne	s1,t6,80005d04 <bad_trap>

800055e0 <inst_618>:
800055e0:	00000f13          	li	t5,0
800055e4:	00000e93          	li	t4,0
800055e8:	03df2fb3          	mulhsu	t6,t5,t4
800055ec:	15f42223          	sw	t6,324(s0)
800055f0:	00000493          	li	s1,0
800055f4:	71f49863          	bne	s1,t6,80005d04 <bad_trap>

800055f8 <inst_619>:
800055f8:	00000f13          	li	t5,0
800055fc:	00010eb7          	lui	t4,0x10
80005600:	ffee8e93          	addi	t4,t4,-2 # fffe <offset+0xfdca>
80005604:	03df2fb3          	mulhsu	t6,t5,t4
80005608:	15f42423          	sw	t6,328(s0)
8000560c:	00000493          	li	s1,0
80005610:	6ff49a63          	bne	s1,t6,80005d04 <bad_trap>

80005614 <inst_620>:
80005614:	00000f13          	li	t5,0
80005618:	00400e93          	li	t4,4
8000561c:	03df2fb3          	mulhsu	t6,t5,t4
80005620:	15f42623          	sw	t6,332(s0)
80005624:	00000493          	li	s1,0
80005628:	6df49e63          	bne	s1,t6,80005d04 <bad_trap>

8000562c <inst_621>:
8000562c:	00000f13          	li	t5,0
80005630:	55555eb7          	lui	t4,0x55555
80005634:	556e8e93          	addi	t4,t4,1366 # 55555556 <absimm+0x10263027>
80005638:	03df2fb3          	mulhsu	t6,t5,t4
8000563c:	15f42823          	sw	t6,336(s0)
80005640:	00000493          	li	s1,0
80005644:	6df49063          	bne	s1,t6,80005d04 <bad_trap>

80005648 <inst_622>:
80005648:	00000f13          	li	t5,0
8000564c:	aaaabeb7          	lui	t4,0xaaaab
80005650:	aabe8e93          	addi	t4,t4,-1365 # aaaaaaab <imm12+0xaaaaafdb>
80005654:	03df2fb3          	mulhsu	t6,t5,t4
80005658:	15f42a23          	sw	t6,340(s0)
8000565c:	00000493          	li	s1,0
80005660:	6bf49263          	bne	s1,t6,80005d04 <bad_trap>

80005664 <inst_623>:
80005664:	00000f13          	li	t5,0
80005668:	00600e93          	li	t4,6
8000566c:	03df2fb3          	mulhsu	t6,t5,t4
80005670:	15f42c23          	sw	t6,344(s0)
80005674:	00000493          	li	s1,0
80005678:	69f49663          	bne	s1,t6,80005d04 <bad_trap>

8000567c <inst_624>:
8000567c:	00000f13          	li	t5,0
80005680:	33333eb7          	lui	t4,0x33333
80005684:	334e8e93          	addi	t4,t4,820 # 33333334 <offset+0x33333100>
80005688:	03df2fb3          	mulhsu	t6,t5,t4
8000568c:	15f42e23          	sw	t6,348(s0)
80005690:	00000493          	li	s1,0
80005694:	67f49863          	bne	s1,t6,80005d04 <bad_trap>

80005698 <inst_625>:
80005698:	00000f13          	li	t5,0
8000569c:	66666eb7          	lui	t4,0x66666
800056a0:	667e8e93          	addi	t4,t4,1639 # 66666667 <absimm+0x21374138>
800056a4:	03df2fb3          	mulhsu	t6,t5,t4
800056a8:	17f42023          	sw	t6,352(s0)
800056ac:	00000493          	li	s1,0
800056b0:	65f49a63          	bne	s1,t6,80005d04 <bad_trap>

800056b4 <inst_626>:
800056b4:	00000f13          	li	t5,0
800056b8:	0000beb7          	lui	t4,0xb
800056bc:	505e8e93          	addi	t4,t4,1285 # b505 <offset+0xb2d1>
800056c0:	03df2fb3          	mulhsu	t6,t5,t4
800056c4:	17f42223          	sw	t6,356(s0)
800056c8:	00000493          	li	s1,0
800056cc:	63f49c63          	bne	s1,t6,80005d04 <bad_trap>

800056d0 <inst_627>:
800056d0:	00000f13          	li	t5,0
800056d4:	00100e93          	li	t4,1
800056d8:	03df2fb3          	mulhsu	t6,t5,t4
800056dc:	17f42423          	sw	t6,360(s0)
800056e0:	00000493          	li	s1,0
800056e4:	63f49063          	bne	s1,t6,80005d04 <bad_trap>

800056e8 <inst_628>:
800056e8:	0000bf37          	lui	t5,0xb
800056ec:	503f0f13          	addi	t5,t5,1283 # b503 <offset+0xb2cf>
800056f0:	00300e93          	li	t4,3
800056f4:	03df2fb3          	mulhsu	t6,t5,t4
800056f8:	17f42623          	sw	t6,364(s0)
800056fc:	00000493          	li	s1,0
80005700:	61f49263          	bne	s1,t6,80005d04 <bad_trap>

80005704 <inst_629>:
80005704:	0000bf37          	lui	t5,0xb
80005708:	503f0f13          	addi	t5,t5,1283 # b503 <offset+0xb2cf>
8000570c:	55555eb7          	lui	t4,0x55555
80005710:	555e8e93          	addi	t4,t4,1365 # 55555555 <absimm+0x10263026>
80005714:	03df2fb3          	mulhsu	t6,t5,t4
80005718:	17f42823          	sw	t6,368(s0)
8000571c:	000044b7          	lui	s1,0x4
80005720:	c5648493          	addi	s1,s1,-938 # 3c56 <offset+0x3a22>
80005724:	5ff49063          	bne	s1,t6,80005d04 <bad_trap>

80005728 <inst_630>:
80005728:	0000bf37          	lui	t5,0xb
8000572c:	503f0f13          	addi	t5,t5,1283 # b503 <offset+0xb2cf>
80005730:	aaaabeb7          	lui	t4,0xaaaab
80005734:	aaae8e93          	addi	t4,t4,-1366 # aaaaaaaa <imm12+0xaaaaafda>
80005738:	03df2fb3          	mulhsu	t6,t5,t4
8000573c:	17f42a23          	sw	t6,372(s0)
80005740:	000084b7          	lui	s1,0x8
80005744:	8ac48493          	addi	s1,s1,-1876 # 78ac <offset+0x7678>
80005748:	5bf49e63          	bne	s1,t6,80005d04 <bad_trap>

8000574c <inst_631>:
8000574c:	0000bf37          	lui	t5,0xb
80005750:	503f0f13          	addi	t5,t5,1283 # b503 <offset+0xb2cf>
80005754:	00500e93          	li	t4,5
80005758:	03df2fb3          	mulhsu	t6,t5,t4
8000575c:	17f42c23          	sw	t6,376(s0)
80005760:	00000493          	li	s1,0
80005764:	5bf49063          	bne	s1,t6,80005d04 <bad_trap>

80005768 <inst_632>:
80005768:	0000bf37          	lui	t5,0xb
8000576c:	503f0f13          	addi	t5,t5,1283 # b503 <offset+0xb2cf>
80005770:	33333eb7          	lui	t4,0x33333
80005774:	333e8e93          	addi	t4,t4,819 # 33333333 <offset+0x333330ff>
80005778:	03df2fb3          	mulhsu	t6,t5,t4
8000577c:	17f42e23          	sw	t6,380(s0)
80005780:	000024b7          	lui	s1,0x2
80005784:	43348493          	addi	s1,s1,1075 # 2433 <offset+0x21ff>
80005788:	57f49e63          	bne	s1,t6,80005d04 <bad_trap>

8000578c <inst_633>:
8000578c:	0000bf37          	lui	t5,0xb
80005790:	503f0f13          	addi	t5,t5,1283 # b503 <offset+0xb2cf>
80005794:	66666eb7          	lui	t4,0x66666
80005798:	666e8e93          	addi	t4,t4,1638 # 66666666 <absimm+0x21374137>
8000579c:	03df2fb3          	mulhsu	t6,t5,t4
800057a0:	19f42023          	sw	t6,384(s0)
800057a4:	000054b7          	lui	s1,0x5
800057a8:	86748493          	addi	s1,s1,-1945 # 4867 <offset+0x4633>
800057ac:	55f49c63          	bne	s1,t6,80005d04 <bad_trap>

800057b0 <inst_634>:
800057b0:	0000bf37          	lui	t5,0xb
800057b4:	503f0f13          	addi	t5,t5,1283 # b503 <offset+0xb2cf>
800057b8:	0000beb7          	lui	t4,0xb
800057bc:	504e8e93          	addi	t4,t4,1284 # b504 <offset+0xb2d0>
800057c0:	03df2fb3          	mulhsu	t6,t5,t4
800057c4:	19f42223          	sw	t6,388(s0)
800057c8:	00000493          	li	s1,0
800057cc:	53f49c63          	bne	s1,t6,80005d04 <bad_trap>

800057d0 <inst_635>:
800057d0:	0000bf37          	lui	t5,0xb
800057d4:	503f0f13          	addi	t5,t5,1283 # b503 <offset+0xb2cf>
800057d8:	00010eb7          	lui	t4,0x10
800057dc:	fffe8e93          	addi	t4,t4,-1 # ffff <offset+0xfdcb>
800057e0:	03df2fb3          	mulhsu	t6,t5,t4
800057e4:	19f42423          	sw	t6,392(s0)
800057e8:	00000493          	li	s1,0
800057ec:	51f49c63          	bne	s1,t6,80005d04 <bad_trap>

800057f0 <inst_636>:
800057f0:	0000bf37          	lui	t5,0xb
800057f4:	503f0f13          	addi	t5,t5,1283 # b503 <offset+0xb2cf>
800057f8:	00200e93          	li	t4,2
800057fc:	03df2fb3          	mulhsu	t6,t5,t4
80005800:	19f42623          	sw	t6,396(s0)
80005804:	00000493          	li	s1,0
80005808:	4ff49e63          	bne	s1,t6,80005d04 <bad_trap>

8000580c <inst_637>:
8000580c:	0000bf37          	lui	t5,0xb
80005810:	503f0f13          	addi	t5,t5,1283 # b503 <offset+0xb2cf>
80005814:	55555eb7          	lui	t4,0x55555
80005818:	554e8e93          	addi	t4,t4,1364 # 55555554 <absimm+0x10263025>
8000581c:	03df2fb3          	mulhsu	t6,t5,t4
80005820:	19f42823          	sw	t6,400(s0)
80005824:	000044b7          	lui	s1,0x4
80005828:	c5648493          	addi	s1,s1,-938 # 3c56 <offset+0x3a22>
8000582c:	4df49c63          	bne	s1,t6,80005d04 <bad_trap>

80005830 <inst_638>:
80005830:	0000bf37          	lui	t5,0xb
80005834:	503f0f13          	addi	t5,t5,1283 # b503 <offset+0xb2cf>
80005838:	aaaabeb7          	lui	t4,0xaaaab
8000583c:	aa9e8e93          	addi	t4,t4,-1367 # aaaaaaa9 <imm12+0xaaaaafd9>
80005840:	03df2fb3          	mulhsu	t6,t5,t4
80005844:	19f42a23          	sw	t6,404(s0)
80005848:	000084b7          	lui	s1,0x8
8000584c:	8ac48493          	addi	s1,s1,-1876 # 78ac <offset+0x7678>
80005850:	4bf49a63          	bne	s1,t6,80005d04 <bad_trap>

80005854 <inst_639>:
80005854:	0000bf37          	lui	t5,0xb
80005858:	503f0f13          	addi	t5,t5,1283 # b503 <offset+0xb2cf>
8000585c:	33333eb7          	lui	t4,0x33333
80005860:	332e8e93          	addi	t4,t4,818 # 33333332 <offset+0x333330fe>
80005864:	03df2fb3          	mulhsu	t6,t5,t4
80005868:	19f42c23          	sw	t6,408(s0)
8000586c:	000024b7          	lui	s1,0x2
80005870:	43348493          	addi	s1,s1,1075 # 2433 <offset+0x21ff>
80005874:	49f49863          	bne	s1,t6,80005d04 <bad_trap>

80005878 <inst_640>:
80005878:	0000bf37          	lui	t5,0xb
8000587c:	503f0f13          	addi	t5,t5,1283 # b503 <offset+0xb2cf>
80005880:	66666eb7          	lui	t4,0x66666
80005884:	665e8e93          	addi	t4,t4,1637 # 66666665 <absimm+0x21374136>
80005888:	03df2fb3          	mulhsu	t6,t5,t4
8000588c:	19f42e23          	sw	t6,412(s0)
80005890:	000054b7          	lui	s1,0x5
80005894:	86748493          	addi	s1,s1,-1945 # 4867 <offset+0x4633>
80005898:	47f49663          	bne	s1,t6,80005d04 <bad_trap>

8000589c <inst_641>:
8000589c:	0000bf37          	lui	t5,0xb
800058a0:	503f0f13          	addi	t5,t5,1283 # b503 <offset+0xb2cf>
800058a4:	0000beb7          	lui	t4,0xb
800058a8:	503e8e93          	addi	t4,t4,1283 # b503 <offset+0xb2cf>
800058ac:	03df2fb3          	mulhsu	t6,t5,t4
800058b0:	1bf42023          	sw	t6,416(s0)
800058b4:	00000493          	li	s1,0
800058b8:	45f49663          	bne	s1,t6,80005d04 <bad_trap>

800058bc <inst_642>:
800058bc:	0000bf37          	lui	t5,0xb
800058c0:	503f0f13          	addi	t5,t5,1283 # b503 <offset+0xb2cf>
800058c4:	00000e93          	li	t4,0
800058c8:	03df2fb3          	mulhsu	t6,t5,t4
800058cc:	1bf42223          	sw	t6,420(s0)
800058d0:	00000493          	li	s1,0
800058d4:	43f49863          	bne	s1,t6,80005d04 <bad_trap>

800058d8 <inst_643>:
800058d8:	0000bf37          	lui	t5,0xb
800058dc:	503f0f13          	addi	t5,t5,1283 # b503 <offset+0xb2cf>
800058e0:	00010eb7          	lui	t4,0x10
800058e4:	ffee8e93          	addi	t4,t4,-2 # fffe <offset+0xfdca>
800058e8:	03df2fb3          	mulhsu	t6,t5,t4
800058ec:	1bf42423          	sw	t6,424(s0)
800058f0:	00000493          	li	s1,0
800058f4:	41f49863          	bne	s1,t6,80005d04 <bad_trap>

800058f8 <inst_644>:
800058f8:	0000bf37          	lui	t5,0xb
800058fc:	503f0f13          	addi	t5,t5,1283 # b503 <offset+0xb2cf>
80005900:	00400e93          	li	t4,4
80005904:	03df2fb3          	mulhsu	t6,t5,t4
80005908:	1bf42623          	sw	t6,428(s0)
8000590c:	00000493          	li	s1,0
80005910:	3ff49a63          	bne	s1,t6,80005d04 <bad_trap>

80005914 <inst_645>:
80005914:	0000bf37          	lui	t5,0xb
80005918:	503f0f13          	addi	t5,t5,1283 # b503 <offset+0xb2cf>
8000591c:	55555eb7          	lui	t4,0x55555
80005920:	556e8e93          	addi	t4,t4,1366 # 55555556 <absimm+0x10263027>
80005924:	03df2fb3          	mulhsu	t6,t5,t4
80005928:	1bf42823          	sw	t6,432(s0)
8000592c:	000044b7          	lui	s1,0x4
80005930:	c5648493          	addi	s1,s1,-938 # 3c56 <offset+0x3a22>
80005934:	3df49863          	bne	s1,t6,80005d04 <bad_trap>

80005938 <inst_646>:
80005938:	0000bf37          	lui	t5,0xb
8000593c:	503f0f13          	addi	t5,t5,1283 # b503 <offset+0xb2cf>
80005940:	aaaabeb7          	lui	t4,0xaaaab
80005944:	aabe8e93          	addi	t4,t4,-1365 # aaaaaaab <imm12+0xaaaaafdb>
80005948:	03df2fb3          	mulhsu	t6,t5,t4
8000594c:	1bf42a23          	sw	t6,436(s0)
80005950:	000084b7          	lui	s1,0x8
80005954:	8ac48493          	addi	s1,s1,-1876 # 78ac <offset+0x7678>
80005958:	3bf49663          	bne	s1,t6,80005d04 <bad_trap>

8000595c <inst_647>:
8000595c:	0000bf37          	lui	t5,0xb
80005960:	503f0f13          	addi	t5,t5,1283 # b503 <offset+0xb2cf>
80005964:	00600e93          	li	t4,6
80005968:	03df2fb3          	mulhsu	t6,t5,t4
8000596c:	1bf42c23          	sw	t6,440(s0)
80005970:	00000493          	li	s1,0
80005974:	39f49863          	bne	s1,t6,80005d04 <bad_trap>

80005978 <inst_648>:
80005978:	0000bf37          	lui	t5,0xb
8000597c:	503f0f13          	addi	t5,t5,1283 # b503 <offset+0xb2cf>
80005980:	33333eb7          	lui	t4,0x33333
80005984:	334e8e93          	addi	t4,t4,820 # 33333334 <offset+0x33333100>
80005988:	03df2fb3          	mulhsu	t6,t5,t4
8000598c:	1bf42e23          	sw	t6,444(s0)
80005990:	000024b7          	lui	s1,0x2
80005994:	43348493          	addi	s1,s1,1075 # 2433 <offset+0x21ff>
80005998:	37f49663          	bne	s1,t6,80005d04 <bad_trap>

8000599c <inst_649>:
8000599c:	0000bf37          	lui	t5,0xb
800059a0:	503f0f13          	addi	t5,t5,1283 # b503 <offset+0xb2cf>
800059a4:	66666eb7          	lui	t4,0x66666
800059a8:	667e8e93          	addi	t4,t4,1639 # 66666667 <absimm+0x21374138>
800059ac:	03df2fb3          	mulhsu	t6,t5,t4
800059b0:	1df42023          	sw	t6,448(s0)
800059b4:	000054b7          	lui	s1,0x5
800059b8:	86748493          	addi	s1,s1,-1945 # 4867 <offset+0x4633>
800059bc:	35f49463          	bne	s1,t6,80005d04 <bad_trap>

800059c0 <inst_650>:
800059c0:	0000bf37          	lui	t5,0xb
800059c4:	503f0f13          	addi	t5,t5,1283 # b503 <offset+0xb2cf>
800059c8:	0000beb7          	lui	t4,0xb
800059cc:	505e8e93          	addi	t4,t4,1285 # b505 <offset+0xb2d1>
800059d0:	03df2fb3          	mulhsu	t6,t5,t4
800059d4:	1df42223          	sw	t6,452(s0)
800059d8:	00000493          	li	s1,0
800059dc:	33f49463          	bne	s1,t6,80005d04 <bad_trap>

800059e0 <inst_651>:
800059e0:	0000bf37          	lui	t5,0xb
800059e4:	503f0f13          	addi	t5,t5,1283 # b503 <offset+0xb2cf>
800059e8:	00100e93          	li	t4,1
800059ec:	03df2fb3          	mulhsu	t6,t5,t4
800059f0:	1df42423          	sw	t6,456(s0)
800059f4:	00000493          	li	s1,0
800059f8:	31f49663          	bne	s1,t6,80005d04 <bad_trap>

800059fc <inst_652>:
800059fc:	0000bf37          	lui	t5,0xb
80005a00:	503f0f13          	addi	t5,t5,1283 # b503 <offset+0xb2cf>
80005a04:	00010eb7          	lui	t4,0x10
80005a08:	03df2fb3          	mulhsu	t6,t5,t4
80005a0c:	1df42623          	sw	t6,460(s0)
80005a10:	00000493          	li	s1,0
80005a14:	2ff49863          	bne	s1,t6,80005d04 <bad_trap>

80005a18 <inst_653>:
80005a18:	00400f13          	li	t5,4
80005a1c:	00300e93          	li	t4,3
80005a20:	03df2fb3          	mulhsu	t6,t5,t4
80005a24:	1df42823          	sw	t6,464(s0)
80005a28:	00000493          	li	s1,0
80005a2c:	2df49c63          	bne	s1,t6,80005d04 <bad_trap>

80005a30 <inst_654>:
80005a30:	00400f13          	li	t5,4
80005a34:	55555eb7          	lui	t4,0x55555
80005a38:	555e8e93          	addi	t4,t4,1365 # 55555555 <absimm+0x10263026>
80005a3c:	03df2fb3          	mulhsu	t6,t5,t4
80005a40:	1df42a23          	sw	t6,468(s0)
80005a44:	00100493          	li	s1,1
80005a48:	2bf49e63          	bne	s1,t6,80005d04 <bad_trap>

80005a4c <inst_655>:
80005a4c:	00400f13          	li	t5,4
80005a50:	aaaabeb7          	lui	t4,0xaaaab
80005a54:	aaae8e93          	addi	t4,t4,-1366 # aaaaaaaa <imm12+0xaaaaafda>
80005a58:	03df2fb3          	mulhsu	t6,t5,t4
80005a5c:	1df42c23          	sw	t6,472(s0)
80005a60:	00200493          	li	s1,2
80005a64:	2bf49063          	bne	s1,t6,80005d04 <bad_trap>

80005a68 <inst_656>:
80005a68:	00400f13          	li	t5,4
80005a6c:	00500e93          	li	t4,5
80005a70:	03df2fb3          	mulhsu	t6,t5,t4
80005a74:	1df42e23          	sw	t6,476(s0)
80005a78:	00000493          	li	s1,0
80005a7c:	29f49463          	bne	s1,t6,80005d04 <bad_trap>

80005a80 <inst_657>:
80005a80:	00400f13          	li	t5,4
80005a84:	33333eb7          	lui	t4,0x33333
80005a88:	333e8e93          	addi	t4,t4,819 # 33333333 <offset+0x333330ff>
80005a8c:	03df2fb3          	mulhsu	t6,t5,t4
80005a90:	1ff42023          	sw	t6,480(s0)
80005a94:	00000493          	li	s1,0
80005a98:	27f49663          	bne	s1,t6,80005d04 <bad_trap>

80005a9c <inst_658>:
80005a9c:	00400f13          	li	t5,4
80005aa0:	66666eb7          	lui	t4,0x66666
80005aa4:	666e8e93          	addi	t4,t4,1638 # 66666666 <absimm+0x21374137>
80005aa8:	03df2fb3          	mulhsu	t6,t5,t4
80005aac:	1ff42223          	sw	t6,484(s0)
80005ab0:	00100493          	li	s1,1
80005ab4:	25f49863          	bne	s1,t6,80005d04 <bad_trap>

80005ab8 <inst_659>:
80005ab8:	00400f13          	li	t5,4
80005abc:	0000beb7          	lui	t4,0xb
80005ac0:	504e8e93          	addi	t4,t4,1284 # b504 <offset+0xb2d0>
80005ac4:	03df2fb3          	mulhsu	t6,t5,t4
80005ac8:	1ff42423          	sw	t6,488(s0)
80005acc:	00000493          	li	s1,0
80005ad0:	23f49a63          	bne	s1,t6,80005d04 <bad_trap>

80005ad4 <inst_660>:
80005ad4:	00400f13          	li	t5,4
80005ad8:	00010eb7          	lui	t4,0x10
80005adc:	fffe8e93          	addi	t4,t4,-1 # ffff <offset+0xfdcb>
80005ae0:	03df2fb3          	mulhsu	t6,t5,t4
80005ae4:	1ff42623          	sw	t6,492(s0)
80005ae8:	00000493          	li	s1,0
80005aec:	21f49c63          	bne	s1,t6,80005d04 <bad_trap>

80005af0 <inst_661>:
80005af0:	00400f13          	li	t5,4
80005af4:	00200e93          	li	t4,2
80005af8:	03df2fb3          	mulhsu	t6,t5,t4
80005afc:	1ff42823          	sw	t6,496(s0)
80005b00:	00000493          	li	s1,0
80005b04:	21f49063          	bne	s1,t6,80005d04 <bad_trap>

80005b08 <inst_662>:
80005b08:	00400f13          	li	t5,4
80005b0c:	55555eb7          	lui	t4,0x55555
80005b10:	554e8e93          	addi	t4,t4,1364 # 55555554 <absimm+0x10263025>
80005b14:	03df2fb3          	mulhsu	t6,t5,t4
80005b18:	1ff42a23          	sw	t6,500(s0)
80005b1c:	00100493          	li	s1,1
80005b20:	1ff49263          	bne	s1,t6,80005d04 <bad_trap>

80005b24 <inst_663>:
80005b24:	00400f13          	li	t5,4
80005b28:	aaaabeb7          	lui	t4,0xaaaab
80005b2c:	aa9e8e93          	addi	t4,t4,-1367 # aaaaaaa9 <imm12+0xaaaaafd9>
80005b30:	03df2fb3          	mulhsu	t6,t5,t4
80005b34:	1ff42c23          	sw	t6,504(s0)
80005b38:	00200493          	li	s1,2
80005b3c:	1df49463          	bne	s1,t6,80005d04 <bad_trap>

80005b40 <inst_664>:
80005b40:	00400f13          	li	t5,4
80005b44:	33333eb7          	lui	t4,0x33333
80005b48:	332e8e93          	addi	t4,t4,818 # 33333332 <offset+0x333330fe>
80005b4c:	03df2fb3          	mulhsu	t6,t5,t4
80005b50:	1ff42e23          	sw	t6,508(s0)
80005b54:	00000493          	li	s1,0
80005b58:	1bf49663          	bne	s1,t6,80005d04 <bad_trap>

80005b5c <inst_665>:
80005b5c:	00400f13          	li	t5,4
80005b60:	66666eb7          	lui	t4,0x66666
80005b64:	665e8e93          	addi	t4,t4,1637 # 66666665 <absimm+0x21374136>
80005b68:	03df2fb3          	mulhsu	t6,t5,t4
80005b6c:	21f42023          	sw	t6,512(s0)
80005b70:	00100493          	li	s1,1
80005b74:	19f49863          	bne	s1,t6,80005d04 <bad_trap>

80005b78 <inst_666>:
80005b78:	00400f13          	li	t5,4
80005b7c:	0000beb7          	lui	t4,0xb
80005b80:	503e8e93          	addi	t4,t4,1283 # b503 <offset+0xb2cf>
80005b84:	03df2fb3          	mulhsu	t6,t5,t4
80005b88:	21f42223          	sw	t6,516(s0)
80005b8c:	00000493          	li	s1,0
80005b90:	17f49a63          	bne	s1,t6,80005d04 <bad_trap>

80005b94 <inst_667>:
80005b94:	00400f13          	li	t5,4
80005b98:	00010eb7          	lui	t4,0x10
80005b9c:	ffee8e93          	addi	t4,t4,-2 # fffe <offset+0xfdca>
80005ba0:	03df2fb3          	mulhsu	t6,t5,t4
80005ba4:	21f42423          	sw	t6,520(s0)
80005ba8:	00000493          	li	s1,0
80005bac:	15f49c63          	bne	s1,t6,80005d04 <bad_trap>

80005bb0 <inst_668>:
80005bb0:	00400f13          	li	t5,4
80005bb4:	00400e93          	li	t4,4
80005bb8:	03df2fb3          	mulhsu	t6,t5,t4
80005bbc:	21f42623          	sw	t6,524(s0)
80005bc0:	00000493          	li	s1,0
80005bc4:	15f49063          	bne	s1,t6,80005d04 <bad_trap>

80005bc8 <inst_669>:
80005bc8:	00400f13          	li	t5,4
80005bcc:	aaaabeb7          	lui	t4,0xaaaab
80005bd0:	aabe8e93          	addi	t4,t4,-1365 # aaaaaaab <imm12+0xaaaaafdb>
80005bd4:	03df2fb3          	mulhsu	t6,t5,t4
80005bd8:	21f42823          	sw	t6,528(s0)
80005bdc:	00200493          	li	s1,2
80005be0:	13f49263          	bne	s1,t6,80005d04 <bad_trap>

80005be4 <inst_670>:
80005be4:	00400f13          	li	t5,4
80005be8:	00600e93          	li	t4,6
80005bec:	03df2fb3          	mulhsu	t6,t5,t4
80005bf0:	21f42a23          	sw	t6,532(s0)
80005bf4:	00000493          	li	s1,0
80005bf8:	11f49663          	bne	s1,t6,80005d04 <bad_trap>

80005bfc <inst_671>:
80005bfc:	00400f13          	li	t5,4
80005c00:	33333eb7          	lui	t4,0x33333
80005c04:	334e8e93          	addi	t4,t4,820 # 33333334 <offset+0x33333100>
80005c08:	03df2fb3          	mulhsu	t6,t5,t4
80005c0c:	21f42c23          	sw	t6,536(s0)
80005c10:	00000493          	li	s1,0
80005c14:	0ff49863          	bne	s1,t6,80005d04 <bad_trap>

80005c18 <inst_672>:
80005c18:	00400f13          	li	t5,4
80005c1c:	66666eb7          	lui	t4,0x66666
80005c20:	667e8e93          	addi	t4,t4,1639 # 66666667 <absimm+0x21374138>
80005c24:	03df2fb3          	mulhsu	t6,t5,t4
80005c28:	21f42e23          	sw	t6,540(s0)
80005c2c:	00100493          	li	s1,1
80005c30:	0df49a63          	bne	s1,t6,80005d04 <bad_trap>

80005c34 <inst_673>:
80005c34:	0000bf37          	lui	t5,0xb
80005c38:	505f0f13          	addi	t5,t5,1285 # b505 <offset+0xb2d1>
80005c3c:	00010eb7          	lui	t4,0x10
80005c40:	03df2fb3          	mulhsu	t6,t5,t4
80005c44:	23f42023          	sw	t6,544(s0)
80005c48:	00000493          	li	s1,0
80005c4c:	0bf49c63          	bne	s1,t6,80005d04 <bad_trap>

80005c50 <inst_674>:
80005c50:	0000bf37          	lui	t5,0xb
80005c54:	505f0f13          	addi	t5,t5,1285 # b505 <offset+0xb2d1>
80005c58:	0000beb7          	lui	t4,0xb
80005c5c:	505e8e93          	addi	t4,t4,1285 # b505 <offset+0xb2d1>
80005c60:	03df2fb3          	mulhsu	t6,t5,t4
80005c64:	23f42223          	sw	t6,548(s0)
80005c68:	00000493          	li	s1,0
80005c6c:	09f49c63          	bne	s1,t6,80005d04 <bad_trap>

80005c70 <inst_675>:
80005c70:	0000bf37          	lui	t5,0xb
80005c74:	505f0f13          	addi	t5,t5,1285 # b505 <offset+0xb2d1>
80005c78:	ff000eb7          	lui	t4,0xff000
80005c7c:	fffe8e93          	addi	t4,t4,-1 # feffffff <imm12+0xff00052f>
80005c80:	03df2fb3          	mulhsu	t6,t5,t4
80005c84:	23f42423          	sw	t6,552(s0)
80005c88:	0000b4b7          	lui	s1,0xb
80005c8c:	44f48493          	addi	s1,s1,1103 # b44f <offset+0xb21b>
80005c90:	07f49a63          	bne	s1,t6,80005d04 <bad_trap>

80005c94 <inst_676>:
80005c94:	0000bf37          	lui	t5,0xb
80005c98:	505f0f13          	addi	t5,t5,1285 # b505 <offset+0xb2d1>
80005c9c:	fc000eb7          	lui	t4,0xfc000
80005ca0:	fffe8e93          	addi	t4,t4,-1 # fbffffff <imm12+0xfc00052f>
80005ca4:	03df2fb3          	mulhsu	t6,t5,t4
80005ca8:	23f42623          	sw	t6,556(s0)
80005cac:	0000b4b7          	lui	s1,0xb
80005cb0:	23048493          	addi	s1,s1,560 # b230 <offset+0xaffc>
80005cb4:	05f49863          	bne	s1,t6,80005d04 <bad_trap>

80005cb8 <inst_677>:
80005cb8:	0000bf37          	lui	t5,0xb
80005cbc:	505f0f13          	addi	t5,t5,1285 # b505 <offset+0xb2d1>
80005cc0:	f8000eb7          	lui	t4,0xf8000
80005cc4:	fffe8e93          	addi	t4,t4,-1 # f7ffffff <imm12+0xf800052f>
80005cc8:	03df2fb3          	mulhsu	t6,t5,t4
80005ccc:	23f42823          	sw	t6,560(s0)
80005cd0:	0000b4b7          	lui	s1,0xb
80005cd4:	f5c48493          	addi	s1,s1,-164 # af5c <offset+0xad28>
80005cd8:	03f49663          	bne	s1,t6,80005d04 <bad_trap>

80005cdc <cleanup_epilogs>:
80005cdc:	0200006f          	j	80005cfc <exit_cleanup>

80005ce0 <abort_tests>:
80005ce0:	17812483          	lw	s1,376(sp)
80005ce4:	18012303          	lw	t1,384(sp)
80005ce8:	00930333          	add	t1,t1,s1
80005cec:	bad0e337          	lui	t1,0xbad0e
80005cf0:	ad030313          	addi	t1,t1,-1328 # bad0dad0 <imm12+0xbad0e000>
80005cf4:	fe64ae23          	sw	t1,-4(s1)
80005cf8:	0040006f          	j	80005cfc <exit_cleanup>

80005cfc <exit_cleanup>:
80005cfc:	00000513          	li	a0,0
80005d00:	024000ef          	jal	ra,80005d24 <halt>

80005d04 <bad_trap>:
80005d04:	00100513          	li	a0,1
80005d08:	01c000ef          	jal	ra,80005d24 <halt>
	...

80005d24 <halt>:
80005d24:	0000006f          	j	80005d24 <halt>

80005d28 <_trm_init>:
80005d28:	ff010113          	addi	sp,sp,-16
80005d2c:	00000517          	auipc	a0,0x0
80005d30:	01450513          	addi	a0,a0,20 # 80005d40 <_etext>
80005d34:	00112623          	sw	ra,12(sp)
80005d38:	ad8fa0ef          	jal	ra,80000010 <main>
80005d3c:	0000006f          	j	80005d3c <_trm_init+0x14>
