
test/or-riscv32-ni.elf:     file format elf32-littleriscv


Disassembly of section .text:

80000000 <_start>:
80000000:	00000413          	li	s0,0
80000004:	00018117          	auipc	sp,0x18
80000008:	ffc10113          	addi	sp,sp,-4 # 80018000 <_end>
8000000c:	454050ef          	jal	ra,80005460 <_trm_init>

80000010 <main>:
80000010:	010000ef          	jal	ra,80000020 <rvtest_entry_point>
80000014:	00000513          	li	a0,0
80000018:	00008067          	ret
8000001c:	0000                	unimp
	...

80000020 <rvtest_entry_point>:
80000020:	7d5c0837          	lui	a6,0x7d5c0
80000024:	ddb80813          	addi	a6,a6,-549 # 7d5bfddb <absimm+0x382cd8ac>
80000028:	00785893          	srli	a7,a6,0x7
8000002c:	01985793          	srli	a5,a6,0x19
80000030:	00f8e8b3          	or	a7,a7,a5
80000034:	0078d913          	srli	s2,a7,0x7
80000038:	0198d793          	srli	a5,a7,0x19
8000003c:	00f96933          	or	s2,s2,a5
80000040:	00795993          	srli	s3,s2,0x7
80000044:	01995793          	srli	a5,s2,0x19
80000048:	00f9e9b3          	or	s3,s3,a5
8000004c:	0079da13          	srli	s4,s3,0x7
80000050:	0199d793          	srli	a5,s3,0x19
80000054:	00fa6a33          	or	s4,s4,a5
80000058:	007a5a93          	srli	s5,s4,0x7
8000005c:	019a5793          	srli	a5,s4,0x19
80000060:	00faeab3          	or	s5,s5,a5
80000064:	007adb13          	srli	s6,s5,0x7
80000068:	019ad793          	srli	a5,s5,0x19
8000006c:	00fb6b33          	or	s6,s6,a5
80000070:	007b5b93          	srli	s7,s6,0x7
80000074:	019b5793          	srli	a5,s6,0x19
80000078:	00fbebb3          	or	s7,s7,a5
8000007c:	007bdc13          	srli	s8,s7,0x7
80000080:	019bd793          	srli	a5,s7,0x19
80000084:	00fc6c33          	or	s8,s8,a5
80000088:	007c5c93          	srli	s9,s8,0x7
8000008c:	019c5793          	srli	a5,s8,0x19
80000090:	00fcecb3          	or	s9,s9,a5
80000094:	007cdd13          	srli	s10,s9,0x7
80000098:	019cd793          	srli	a5,s9,0x19
8000009c:	00fd6d33          	or	s10,s10,a5
800000a0:	007d5d93          	srli	s11,s10,0x7
800000a4:	019d5793          	srli	a5,s10,0x19
800000a8:	00fdedb3          	or	s11,s11,a5
800000ac:	007dde13          	srli	t3,s11,0x7
800000b0:	019dd793          	srli	a5,s11,0x19
800000b4:	00fe6e33          	or	t3,t3,a5
800000b8:	007e5e93          	srli	t4,t3,0x7
800000bc:	019e5793          	srli	a5,t3,0x19
800000c0:	00feeeb3          	or	t4,t4,a5
800000c4:	007edf13          	srli	t5,t4,0x7
800000c8:	019ed793          	srli	a5,t4,0x19
800000cc:	00ff6f33          	or	t5,t5,a5
800000d0:	feedc0b7          	lui	ra,0xfeedc
800000d4:	ead08093          	addi	ra,ra,-339 # feedbead <imm12+0xfeedc3dd>
800000d8:	0070d113          	srli	sp,ra,0x7
800000dc:	0190d793          	srli	a5,ra,0x19
800000e0:	00f16133          	or	sp,sp,a5
800000e4:	00715193          	srli	gp,sp,0x7
800000e8:	01915793          	srli	a5,sp,0x19
800000ec:	00f1e1b3          	or	gp,gp,a5
800000f0:	0071d213          	srli	tp,gp,0x7
800000f4:	0191d793          	srli	a5,gp,0x19
800000f8:	00f26233          	or	tp,tp,a5
800000fc:	00725293          	srli	t0,tp,0x7
80000100:	01925793          	srli	a5,tp,0x19
80000104:	00f2e2b3          	or	t0,t0,a5
80000108:	0072d313          	srli	t1,t0,0x7
8000010c:	0192d793          	srli	a5,t0,0x19
80000110:	00f36333          	or	t1,t1,a5
80000114:	00735393          	srli	t2,t1,0x7
80000118:	01935793          	srli	a5,t1,0x19
8000011c:	00f3e3b3          	or	t2,t2,a5
80000120:	0073d413          	srli	s0,t2,0x7
80000124:	0193d793          	srli	a5,t2,0x19
80000128:	00f46433          	or	s0,s0,a5
8000012c:	00745493          	srli	s1,s0,0x7
80000130:	01945793          	srli	a5,s0,0x19
80000134:	00f4e4b3          	or	s1,s1,a5
80000138:	0074d513          	srli	a0,s1,0x7
8000013c:	0194d793          	srli	a5,s1,0x19
80000140:	00f56533          	or	a0,a0,a5
80000144:	00755593          	srli	a1,a0,0x7
80000148:	01955793          	srli	a5,a0,0x19
8000014c:	00f5e5b3          	or	a1,a1,a5
80000150:	0075d613          	srli	a2,a1,0x7
80000154:	0195d793          	srli	a5,a1,0x19
80000158:	00f66633          	or	a2,a2,a5
8000015c:	00765693          	srli	a3,a2,0x7
80000160:	01965793          	srli	a5,a2,0x19
80000164:	00f6e6b3          	or	a3,a3,a5

80000168 <rvtest_code_begin>:
80000168:	00000013          	nop
8000016c:	00000013          	nop
80000170:	00000013          	nop
80000174:	00000013          	nop
80000178:	00000013          	nop
8000017c:	00000013          	nop
80000180:	00007197          	auipc	gp,0x7
80000184:	e8418193          	addi	gp,gp,-380 # 80007004 <signature_x3_0>
80000188:	00000013          	nop
8000018c:	00000013          	nop
80000190:	00000013          	nop
80000194:	00000013          	nop
80000198:	00000013          	nop
8000019c:	00000013          	nop

800001a0 <inst_0>:
800001a0:	00100437          	lui	s0,0x100
800001a4:	01000d13          	li	s10,16
800001a8:	01a46d33          	or	s10,s0,s10
800001ac:	01a1a023          	sw	s10,0(gp)
800001b0:	001002b7          	lui	t0,0x100
800001b4:	01028293          	addi	t0,t0,16 # 100010 <offset+0xfff30>
800001b8:	01a28463          	beq	t0,s10,800001c0 <inst_1>
800001bc:	2880506f          	j	80005444 <bad_trap>

800001c0 <inst_1>:
800001c0:	00200313          	li	t1,2
800001c4:	00200313          	li	t1,2
800001c8:	006368b3          	or	a7,t1,t1
800001cc:	0111a223          	sw	a7,4(gp)
800001d0:	00200293          	li	t0,2
800001d4:	01128463          	beq	t0,a7,800001dc <inst_2>
800001d8:	26c0506f          	j	80005444 <bad_trap>

800001dc <inst_2>:
800001dc:	f0000fb7          	lui	t6,0xf0000
800001e0:	ffff8f93          	addi	t6,t6,-1 # efffffff <imm12+0xf000052f>
800001e4:	f0000fb7          	lui	t6,0xf0000
800001e8:	ffff8f93          	addi	t6,t6,-1 # efffffff <imm12+0xf000052f>
800001ec:	01ffefb3          	or	t6,t6,t6
800001f0:	01f1a423          	sw	t6,8(gp)
800001f4:	f00002b7          	lui	t0,0xf0000
800001f8:	fff28293          	addi	t0,t0,-1 # efffffff <imm12+0xf000052f>
800001fc:	01f28463          	beq	t0,t6,80000204 <inst_3>
80000200:	2440506f          	j	80005444 <bad_trap>

80000204 <inst_3>:
80000204:	fffffdb7          	lui	s11,0xfffff
80000208:	7ffd8d93          	addi	s11,s11,2047 # fffff7ff <imm12+0xfffffd2f>
8000020c:	00400eb7          	lui	t4,0x400
80000210:	01ddedb3          	or	s11,s11,t4
80000214:	01b1a623          	sw	s11,12(gp)
80000218:	fffff2b7          	lui	t0,0xfffff
8000021c:	7ff28293          	addi	t0,t0,2047 # fffff7ff <imm12+0xfffffd2f>
80000220:	01b28463          	beq	t0,s11,80000228 <inst_4>
80000224:	2200506f          	j	80005444 <bad_trap>

80000228 <inst_4>:
80000228:	fff00f37          	lui	t5,0xfff00
8000022c:	ffff0f13          	addi	t5,t5,-1 # ffefffff <imm12+0xfff0052f>
80000230:	fff009b7          	lui	s3,0xfff00
80000234:	fff98993          	addi	s3,s3,-1 # ffefffff <imm12+0xfff0052f>
80000238:	013f6933          	or	s2,t5,s3
8000023c:	0121a823          	sw	s2,16(gp)
80000240:	fff002b7          	lui	t0,0xfff00
80000244:	fff28293          	addi	t0,t0,-1 # ffefffff <imm12+0xfff0052f>
80000248:	01228463          	beq	t0,s2,80000250 <inst_5>
8000024c:	1f80506f          	j	80005444 <bad_trap>

80000250 <inst_5>:
80000250:	00020ab7          	lui	s5,0x20
80000254:	80000737          	lui	a4,0x80000
80000258:	00eae4b3          	or	s1,s5,a4
8000025c:	0091aa23          	sw	s1,20(gp)
80000260:	800202b7          	lui	t0,0x80020
80000264:	00928463          	beq	t0,s1,8000026c <inst_6>
80000268:	1dc0506f          	j	80005444 <bad_trap>

8000026c <inst_6>:
8000026c:	ffffed37          	lui	s10,0xffffe
80000270:	fffd0d13          	addi	s10,s10,-1 # ffffdfff <imm12+0xffffe52f>
80000274:	00000c13          	li	s8,0
80000278:	018d6233          	or	tp,s10,s8
8000027c:	0041ac23          	sw	tp,24(gp)
80000280:	ffffe2b7          	lui	t0,0xffffe
80000284:	fff28293          	addi	t0,t0,-1 # ffffdfff <imm12+0xffffe52f>
80000288:	00428463          	beq	t0,tp,80000290 <inst_7>
8000028c:	1b80506f          	j	80005444 <bad_trap>

80000290 <inst_7>:
80000290:	00000493          	li	s1,0
80000294:	80000437          	lui	s0,0x80000
80000298:	fff40413          	addi	s0,s0,-1 # 7fffffff <imm12+0x8000052f>
8000029c:	0084ef33          	or	t5,s1,s0
800002a0:	01e1ae23          	sw	t5,28(gp)
800002a4:	800002b7          	lui	t0,0x80000
800002a8:	fff28293          	addi	t0,t0,-1 # 7fffffff <imm12+0x8000052f>
800002ac:	01e28463          	beq	t0,t5,800002b4 <inst_8>
800002b0:	1940506f          	j	80005444 <bad_trap>

800002b4 <inst_8>:
800002b4:	ff800bb7          	lui	s7,0xff800
800002b8:	fffb8b93          	addi	s7,s7,-1 # ff7fffff <imm12+0xff80052f>
800002bc:	00100393          	li	t2,1
800002c0:	007be433          	or	s0,s7,t2
800002c4:	0281a023          	sw	s0,32(gp)
800002c8:	ff8002b7          	lui	t0,0xff800
800002cc:	fff28293          	addi	t0,t0,-1 # ff7fffff <imm12+0xff80052f>
800002d0:	00828463          	beq	t0,s0,800002d8 <inst_9>
800002d4:	1700506f          	j	80005444 <bad_trap>

800002d8 <inst_9>:
800002d8:	80000637          	lui	a2,0x80000
800002dc:	00000013          	nop
800002e0:	00066b33          	or	s6,a2,zero
800002e4:	0361a223          	sw	s6,36(gp)
800002e8:	800002b7          	lui	t0,0x80000
800002ec:	01628463          	beq	t0,s6,800002f4 <inst_10>
800002f0:	1540506f          	j	80005444 <bad_trap>

800002f4 <inst_10>:
800002f4:	80000537          	lui	a0,0x80000
800002f8:	fff50513          	addi	a0,a0,-1 # 7fffffff <imm12+0x8000052f>
800002fc:	04000f13          	li	t5,64
80000300:	01e56e33          	or	t3,a0,t5
80000304:	03c1a423          	sw	t3,40(gp)
80000308:	800002b7          	lui	t0,0x80000
8000030c:	fff28293          	addi	t0,t0,-1 # 7fffffff <imm12+0x8000052f>
80000310:	01c28463          	beq	t0,t3,80000318 <inst_11>
80000314:	1300506f          	j	80005444 <bad_trap>

80000318 <inst_11>:
80000318:	00100913          	li	s2,1
8000031c:	55555ab7          	lui	s5,0x55555
80000320:	554a8a93          	addi	s5,s5,1364 # 55555554 <absimm+0x10263025>
80000324:	01596833          	or	a6,s2,s5
80000328:	0301a623          	sw	a6,44(gp)
8000032c:	555552b7          	lui	t0,0x55555
80000330:	55528293          	addi	t0,t0,1365 # 55555555 <absimm+0x10263026>
80000334:	01028463          	beq	t0,a6,8000033c <inst_12>
80000338:	10c0506f          	j	80005444 <bad_trap>

8000033c <inst_12>:
8000033c:	00001737          	lui	a4,0x1
80000340:	00200893          	li	a7,2
80000344:	01176633          	or	a2,a4,a7
80000348:	02c1a823          	sw	a2,48(gp)
8000034c:	000012b7          	lui	t0,0x1
80000350:	00228293          	addi	t0,t0,2 # 1002 <offset+0xf22>
80000354:	00c28463          	beq	t0,a2,8000035c <inst_13>
80000358:	0ec0506f          	j	80005444 <bad_trap>

8000035c <inst_13>:
8000035c:	ff8009b7          	lui	s3,0xff800
80000360:	fff98993          	addi	s3,s3,-1 # ff7fffff <imm12+0xff80052f>
80000364:	00400813          	li	a6,4
80000368:	0109e7b3          	or	a5,s3,a6
8000036c:	02f1aa23          	sw	a5,52(gp)
80000370:	ff8002b7          	lui	t0,0xff800
80000374:	fff28293          	addi	t0,t0,-1 # ff7fffff <imm12+0xff80052f>
80000378:	00f28463          	beq	t0,a5,80000380 <inst_14>
8000037c:	0c80506f          	j	80005444 <bad_trap>

80000380 <inst_14>:
80000380:	bff00213          	li	tp,-1025
80000384:	00800113          	li	sp,8
80000388:	002263b3          	or	t2,tp,sp
8000038c:	0271ac23          	sw	t2,56(gp)
80000390:	bff00293          	li	t0,-1025
80000394:	00728463          	beq	t0,t2,8000039c <inst_15>
80000398:	0ac0506f          	j	80005444 <bad_trap>

8000039c <inst_15>:
8000039c:	80000137          	lui	sp,0x80000
800003a0:	fff10113          	addi	sp,sp,-1 # 7fffffff <imm12+0x8000052f>
800003a4:	02000b13          	li	s6,32
800003a8:	016165b3          	or	a1,sp,s6
800003ac:	02b1ae23          	sw	a1,60(gp)
800003b0:	800002b7          	lui	t0,0x80000
800003b4:	fff28293          	addi	t0,t0,-1 # 7fffffff <imm12+0x8000052f>
800003b8:	00b28463          	beq	t0,a1,800003c0 <inst_16>
800003bc:	0880506f          	j	80005444 <bad_trap>

800003c0 <inst_16>:
800003c0:	dff00e13          	li	t3,-513
800003c4:	08000793          	li	a5,128
800003c8:	00fe6cb3          	or	s9,t3,a5
800003cc:	0591a023          	sw	s9,64(gp)
800003d0:	dff00293          	li	t0,-513
800003d4:	01928463          	beq	t0,s9,800003dc <inst_17>
800003d8:	06c0506f          	j	80005444 <bad_trap>

800003dc <inst_17>:
800003dc:	0000bcb7          	lui	s9,0xb
800003e0:	504c8c93          	addi	s9,s9,1284 # b504 <offset+0xb424>
800003e4:	10000093          	li	ra,256
800003e8:	001ce333          	or	t1,s9,ra
800003ec:	0461a223          	sw	t1,68(gp)
800003f0:	0000b2b7          	lui	t0,0xb
800003f4:	50428293          	addi	t0,t0,1284 # b504 <offset+0xb424>
800003f8:	00628463          	beq	t0,t1,80000400 <inst_18>
800003fc:	0480506f          	j	80005444 <bad_trap>

80000400 <inst_18>:
80000400:	00400893          	li	a7,4
80000404:	20000513          	li	a0,512
80000408:	00a8ea33          	or	s4,a7,a0
8000040c:	0541a423          	sw	s4,72(gp)
80000410:	20400413          	li	s0,516
80000414:	01440463          	beq	s0,s4,8000041c <inst_18+0x1c>
80000418:	02c0506f          	j	80005444 <bad_trap>
8000041c:	00000013          	nop
80000420:	00007317          	auipc	t1,0x7
80000424:	c3030313          	addi	t1,t1,-976 # 80007050 <signature_x6_0>
80000428:	00000013          	nop
8000042c:	00000013          	nop
80000430:	00000013          	nop
80000434:	00000013          	nop
80000438:	00000013          	nop
8000043c:	00000013          	nop

80000440 <inst_19>:
80000440:	fff00a37          	lui	s4,0xfff00
80000444:	fffa0a13          	addi	s4,s4,-1 # ffefffff <imm12+0xfff0052f>
80000448:	40000b93          	li	s7,1024
8000044c:	017a62b3          	or	t0,s4,s7
80000450:	00532023          	sw	t0,0(t1)
80000454:	fff00437          	lui	s0,0xfff00
80000458:	fff40413          	addi	s0,s0,-1 # ffefffff <imm12+0xfff0052f>
8000045c:	00540463          	beq	s0,t0,80000464 <inst_20>
80000460:	7e50406f          	j	80005444 <bad_trap>

80000464 <inst_20>:
80000464:	00000593          	li	a1,0
80000468:	00001637          	lui	a2,0x1
8000046c:	80060613          	addi	a2,a2,-2048 # 800 <offset+0x720>
80000470:	00c5e133          	or	sp,a1,a2
80000474:	00232223          	sw	sp,4(t1)
80000478:	00001437          	lui	s0,0x1
8000047c:	80040413          	addi	s0,s0,-2048 # 800 <offset+0x720>
80000480:	00240463          	beq	s0,sp,80000488 <inst_21>
80000484:	7c10406f          	j	80005444 <bad_trap>

80000488 <inst_21>:
80000488:	fc0006b7          	lui	a3,0xfc000
8000048c:	fff68693          	addi	a3,a3,-1 # fbffffff <imm12+0xfc00052f>
80000490:	00001a37          	lui	s4,0x1
80000494:	0146e0b3          	or	ra,a3,s4
80000498:	00132423          	sw	ra,8(t1)
8000049c:	fc000437          	lui	s0,0xfc000
800004a0:	fff40413          	addi	s0,s0,-1 # fbffffff <imm12+0xfc00052f>
800004a4:	00140463          	beq	s0,ra,800004ac <inst_22>
800004a8:	79d0406f          	j	80005444 <bad_trap>

800004ac <inst_22>:
800004ac:	00400793          	li	a5,4
800004b0:	00002db7          	lui	s11,0x2
800004b4:	01b7e1b3          	or	gp,a5,s11
800004b8:	00332623          	sw	gp,12(t1)
800004bc:	00002437          	lui	s0,0x2
800004c0:	00440413          	addi	s0,s0,4 # 2004 <offset+0x1f24>
800004c4:	00340463          	beq	s0,gp,800004cc <inst_23>
800004c8:	77d0406f          	j	80005444 <bad_trap>

800004cc <inst_23>:
800004cc:	ffff0b37          	lui	s6,0xffff0
800004d0:	fffb0b13          	addi	s6,s6,-1 # fffeffff <imm12+0xffff052f>
800004d4:	00004237          	lui	tp,0x4
800004d8:	004b6ab3          	or	s5,s6,tp
800004dc:	01532823          	sw	s5,16(t1)
800004e0:	ffff0437          	lui	s0,0xffff0
800004e4:	fff40413          	addi	s0,s0,-1 # fffeffff <imm12+0xffff052f>
800004e8:	01540463          	beq	s0,s5,800004f0 <inst_24>
800004ec:	7590406f          	j	80005444 <bad_trap>

800004f0 <inst_24>:
800004f0:	000803b7          	lui	t2,0x80
800004f4:	000086b7          	lui	a3,0x8
800004f8:	00d3e9b3          	or	s3,t2,a3
800004fc:	01332a23          	sw	s3,20(t1)
80000500:	00088437          	lui	s0,0x88
80000504:	01340463          	beq	s0,s3,8000050c <inst_25>
80000508:	73d0406f          	j	80005444 <bad_trap>

8000050c <inst_25>:
8000050c:	ffc00c13          	li	s8,-4
80000510:	000102b7          	lui	t0,0x10
80000514:	005c6733          	or	a4,s8,t0
80000518:	00e32c23          	sw	a4,24(t1)
8000051c:	ffc00413          	li	s0,-4
80000520:	00e40463          	beq	s0,a4,80000528 <inst_26>
80000524:	7210406f          	j	80005444 <bad_trap>

80000528 <inst_26>:
80000528:	55555837          	lui	a6,0x55555
8000052c:	55580813          	addi	a6,a6,1365 # 55555555 <absimm+0x10263026>
80000530:	00020937          	lui	s2,0x20
80000534:	01286533          	or	a0,a6,s2
80000538:	00a32e23          	sw	a0,28(t1)
8000053c:	55575437          	lui	s0,0x55575
80000540:	55540413          	addi	s0,s0,1365 # 55575555 <absimm+0x10283026>
80000544:	00a40463          	beq	s0,a0,8000054c <inst_27>
80000548:	6fd0406f          	j	80005444 <bad_trap>

8000054c <inst_27>:
8000054c:	ffff50b7          	lui	ra,0xffff5
80000550:	afc08093          	addi	ra,ra,-1284 # ffff4afc <imm12+0xffff502c>
80000554:	000404b7          	lui	s1,0x40
80000558:	0090ebb3          	or	s7,ra,s1
8000055c:	03732023          	sw	s7,32(t1)
80000560:	ffff5437          	lui	s0,0xffff5
80000564:	afc40413          	addi	s0,s0,-1284 # ffff4afc <imm12+0xffff502c>
80000568:	01740463          	beq	s0,s7,80000570 <inst_28>
8000056c:	6d90406f          	j	80005444 <bad_trap>

80000570 <inst_28>:
80000570:	00400193          	li	gp,4
80000574:	000805b7          	lui	a1,0x80
80000578:	00b1eeb3          	or	t4,gp,a1
8000057c:	03d32223          	sw	t4,36(t1)
80000580:	00080437          	lui	s0,0x80
80000584:	00440413          	addi	s0,s0,4 # 80004 <offset+0x7ff24>
80000588:	01d40463          	beq	s0,t4,80000590 <inst_29>
8000058c:	6b90406f          	j	80005444 <bad_trap>

80000590 <inst_29>:
80000590:	fffffeb7          	lui	t4,0xfffff
80000594:	fffe8e93          	addi	t4,t4,-1 # ffffefff <imm12+0xfffff52f>
80000598:	00100e37          	lui	t3,0x100
8000059c:	01cee6b3          	or	a3,t4,t3
800005a0:	02d32423          	sw	a3,40(t1)
800005a4:	fffff437          	lui	s0,0xfffff
800005a8:	fff40413          	addi	s0,s0,-1 # ffffefff <imm12+0xfffff52f>
800005ac:	00d40463          	beq	s0,a3,800005b4 <inst_30>
800005b0:	6950406f          	j	80005444 <bad_trap>

800005b4 <inst_30>:
800005b4:	333332b7          	lui	t0,0x33333
800005b8:	33228293          	addi	t0,t0,818 # 33333332 <offset+0x33333252>
800005bc:	002001b7          	lui	gp,0x200
800005c0:	0032e033          	or	zero,t0,gp
800005c4:	02032623          	sw	zero,44(t1)
800005c8:	00000413          	li	s0,0
800005cc:	00040463          	beqz	s0,800005d4 <inst_31>
800005d0:	6750406f          	j	80005444 <bad_trap>

800005d4 <inst_31>:
800005d4:	00000013          	nop
800005d8:	00800cb7          	lui	s9,0x800
800005dc:	01906c33          	or	s8,zero,s9
800005e0:	03832823          	sw	s8,48(t1)
800005e4:	00800437          	lui	s0,0x800
800005e8:	01840463          	beq	s0,s8,800005f0 <inst_32>
800005ec:	6590406f          	j	80005444 <bad_trap>

800005f0 <inst_32>:
800005f0:	04000513          	li	a0,64
800005f4:	010005b7          	lui	a1,0x1000
800005f8:	00b56633          	or	a2,a0,a1
800005fc:	02c32a23          	sw	a2,52(t1)
80000600:	01000437          	lui	s0,0x1000
80000604:	04040413          	addi	s0,s0,64 # 1000040 <offset+0xffff60>
80000608:	00c40463          	beq	s0,a2,80000610 <inst_33>
8000060c:	6390406f          	j	80005444 <bad_trap>

80000610 <inst_33>:
80000610:	ff700513          	li	a0,-9
80000614:	020005b7          	lui	a1,0x2000
80000618:	00b56633          	or	a2,a0,a1
8000061c:	02c32c23          	sw	a2,56(t1)
80000620:	ff700413          	li	s0,-9
80000624:	00c40463          	beq	s0,a2,8000062c <inst_34>
80000628:	61d0406f          	j	80005444 <bad_trap>

8000062c <inst_34>:
8000062c:	55555537          	lui	a0,0x55555
80000630:	55650513          	addi	a0,a0,1366 # 55555556 <absimm+0x10263027>
80000634:	040005b7          	lui	a1,0x4000
80000638:	00b56633          	or	a2,a0,a1
8000063c:	02c32e23          	sw	a2,60(t1)
80000640:	55555437          	lui	s0,0x55555
80000644:	55640413          	addi	s0,s0,1366 # 55555556 <absimm+0x10263027>
80000648:	00c40463          	beq	s0,a2,80000650 <inst_35>
8000064c:	5f90406f          	j	80005444 <bad_trap>

80000650 <inst_35>:
80000650:	01000537          	lui	a0,0x1000
80000654:	080005b7          	lui	a1,0x8000
80000658:	00b56633          	or	a2,a0,a1
8000065c:	04c32023          	sw	a2,64(t1)
80000660:	09000437          	lui	s0,0x9000
80000664:	00c40463          	beq	s0,a2,8000066c <inst_36>
80000668:	5dd0406f          	j	80005444 <bad_trap>

8000066c <inst_36>:
8000066c:	ffa00513          	li	a0,-6
80000670:	100005b7          	lui	a1,0x10000
80000674:	00b56633          	or	a2,a0,a1
80000678:	04c32223          	sw	a2,68(t1)
8000067c:	ffa00413          	li	s0,-6
80000680:	00c40463          	beq	s0,a2,80000688 <inst_37>
80000684:	5c10406f          	j	80005444 <bad_trap>

80000688 <inst_37>:
80000688:	aaaab537          	lui	a0,0xaaaab
8000068c:	aaa50513          	addi	a0,a0,-1366 # aaaaaaaa <imm12+0xaaaaafda>
80000690:	200005b7          	lui	a1,0x20000
80000694:	00b56633          	or	a2,a0,a1
80000698:	04c32423          	sw	a2,72(t1)
8000069c:	aaaab437          	lui	s0,0xaaaab
800006a0:	aaa40413          	addi	s0,s0,-1366 # aaaaaaaa <imm12+0xaaaaafda>
800006a4:	00c40463          	beq	s0,a2,800006ac <inst_38>
800006a8:	59d0406f          	j	80005444 <bad_trap>

800006ac <inst_38>:
800006ac:	00800537          	lui	a0,0x800
800006b0:	400005b7          	lui	a1,0x40000
800006b4:	00b56633          	or	a2,a0,a1
800006b8:	04c32623          	sw	a2,76(t1)
800006bc:	40800437          	lui	s0,0x40800
800006c0:	00c40463          	beq	s0,a2,800006c8 <inst_39>
800006c4:	5810406f          	j	80005444 <bad_trap>

800006c8 <inst_39>:
800006c8:	02000513          	li	a0,32
800006cc:	ffe00593          	li	a1,-2
800006d0:	00b56633          	or	a2,a0,a1
800006d4:	04c32823          	sw	a2,80(t1)
800006d8:	ffe00413          	li	s0,-2
800006dc:	00c40463          	beq	s0,a2,800006e4 <inst_40>
800006e0:	5650406f          	j	80005444 <bad_trap>

800006e4 <inst_40>:
800006e4:	10000537          	lui	a0,0x10000
800006e8:	ffd00593          	li	a1,-3
800006ec:	00b56633          	or	a2,a0,a1
800006f0:	04c32a23          	sw	a2,84(t1)
800006f4:	ffd00413          	li	s0,-3
800006f8:	00c40463          	beq	s0,a2,80000700 <inst_41>
800006fc:	5490406f          	j	80005444 <bad_trap>

80000700 <inst_41>:
80000700:	00100513          	li	a0,1
80000704:	ffb00593          	li	a1,-5
80000708:	00b56633          	or	a2,a0,a1
8000070c:	04c32c23          	sw	a2,88(t1)
80000710:	ffb00413          	li	s0,-5
80000714:	00c40463          	beq	s0,a2,8000071c <inst_42>
80000718:	52d0406f          	j	80005444 <bad_trap>

8000071c <inst_42>:
8000071c:	00080537          	lui	a0,0x80
80000720:	ff700593          	li	a1,-9
80000724:	00b56633          	or	a2,a0,a1
80000728:	04c32e23          	sw	a2,92(t1)
8000072c:	ff700413          	li	s0,-9
80000730:	00c40463          	beq	s0,a2,80000738 <inst_43>
80000734:	5110406f          	j	80005444 <bad_trap>

80000738 <inst_43>:
80000738:	00800513          	li	a0,8
8000073c:	fef00593          	li	a1,-17
80000740:	00b56633          	or	a2,a0,a1
80000744:	06c32023          	sw	a2,96(t1)
80000748:	fef00413          	li	s0,-17
8000074c:	00c40463          	beq	s0,a2,80000754 <inst_44>
80000750:	4f50406f          	j	80005444 <bad_trap>

80000754 <inst_44>:
80000754:	ffff5537          	lui	a0,0xffff5
80000758:	afc50513          	addi	a0,a0,-1284 # ffff4afc <imm12+0xffff502c>
8000075c:	fdf00593          	li	a1,-33
80000760:	00b56633          	or	a2,a0,a1
80000764:	06c32223          	sw	a2,100(t1)
80000768:	fff00413          	li	s0,-1
8000076c:	00c40463          	beq	s0,a2,80000774 <inst_45>
80000770:	4d50406f          	j	80005444 <bad_trap>

80000774 <inst_45>:
80000774:	00020537          	lui	a0,0x20
80000778:	fbf00593          	li	a1,-65
8000077c:	00b56633          	or	a2,a0,a1
80000780:	06c32423          	sw	a2,104(t1)
80000784:	fbf00413          	li	s0,-65
80000788:	00c40463          	beq	s0,a2,80000790 <inst_46>
8000078c:	4b90406f          	j	80005444 <bad_trap>

80000790 <inst_46>:
80000790:	ffe00537          	lui	a0,0xffe00
80000794:	fff50513          	addi	a0,a0,-1 # ffdfffff <imm12+0xffe0052f>
80000798:	f7f00593          	li	a1,-129
8000079c:	00b56633          	or	a2,a0,a1
800007a0:	06c32623          	sw	a2,108(t1)
800007a4:	fff00413          	li	s0,-1
800007a8:	00c40463          	beq	s0,a2,800007b0 <inst_47>
800007ac:	4990406f          	j	80005444 <bad_trap>

800007b0 <inst_47>:
800007b0:	33333537          	lui	a0,0x33333
800007b4:	33450513          	addi	a0,a0,820 # 33333334 <offset+0x33333254>
800007b8:	eff00593          	li	a1,-257
800007bc:	00b56633          	or	a2,a0,a1
800007c0:	06c32823          	sw	a2,112(t1)
800007c4:	fff00413          	li	s0,-1
800007c8:	00c40463          	beq	s0,a2,800007d0 <inst_48>
800007cc:	4790406f          	j	80005444 <bad_trap>

800007d0 <inst_48>:
800007d0:	80000537          	lui	a0,0x80000
800007d4:	fff50513          	addi	a0,a0,-1 # 7fffffff <imm12+0x8000052f>
800007d8:	dff00593          	li	a1,-513
800007dc:	00b56633          	or	a2,a0,a1
800007e0:	06c32a23          	sw	a2,116(t1)
800007e4:	fff00413          	li	s0,-1
800007e8:	00c40463          	beq	s0,a2,800007f0 <inst_49>
800007ec:	4590406f          	j	80005444 <bad_trap>

800007f0 <inst_49>:
800007f0:	00300513          	li	a0,3
800007f4:	fffff5b7          	lui	a1,0xfffff
800007f8:	fff58593          	addi	a1,a1,-1 # ffffefff <imm12+0xfffff52f>
800007fc:	00b56633          	or	a2,a0,a1
80000800:	06c32c23          	sw	a2,120(t1)
80000804:	fffff437          	lui	s0,0xfffff
80000808:	fff40413          	addi	s0,s0,-1 # ffffefff <imm12+0xfffff52f>
8000080c:	00c40463          	beq	s0,a2,80000814 <inst_50>
80000810:	4350406f          	j	80005444 <bad_trap>

80000814 <inst_50>:
80000814:	80000537          	lui	a0,0x80000
80000818:	ffffe5b7          	lui	a1,0xffffe
8000081c:	fff58593          	addi	a1,a1,-1 # ffffdfff <imm12+0xffffe52f>
80000820:	00b56633          	or	a2,a0,a1
80000824:	06c32e23          	sw	a2,124(t1)
80000828:	ffffe437          	lui	s0,0xffffe
8000082c:	fff40413          	addi	s0,s0,-1 # ffffdfff <imm12+0xffffe52f>
80000830:	00c40463          	beq	s0,a2,80000838 <inst_51>
80000834:	4110406f          	j	80005444 <bad_trap>

80000838 <inst_51>:
80000838:	00500513          	li	a0,5
8000083c:	ffffc5b7          	lui	a1,0xffffc
80000840:	fff58593          	addi	a1,a1,-1 # ffffbfff <imm12+0xffffc52f>
80000844:	00b56633          	or	a2,a0,a1
80000848:	08c32023          	sw	a2,128(t1)
8000084c:	ffffc437          	lui	s0,0xffffc
80000850:	fff40413          	addi	s0,s0,-1 # ffffbfff <imm12+0xffffc52f>
80000854:	00c40463          	beq	s0,a2,8000085c <inst_52>
80000858:	3ed0406f          	j	80005444 <bad_trap>

8000085c <inst_52>:
8000085c:	ff800537          	lui	a0,0xff800
80000860:	fff50513          	addi	a0,a0,-1 # ff7fffff <imm12+0xff80052f>
80000864:	ffff85b7          	lui	a1,0xffff8
80000868:	fff58593          	addi	a1,a1,-1 # ffff7fff <imm12+0xffff852f>
8000086c:	00b56633          	or	a2,a0,a1
80000870:	08c32223          	sw	a2,132(t1)
80000874:	fff00413          	li	s0,-1
80000878:	00c40463          	beq	s0,a2,80000880 <inst_53>
8000087c:	3c90406f          	j	80005444 <bad_trap>

80000880 <inst_53>:
80000880:	ff700513          	li	a0,-9
80000884:	ffff05b7          	lui	a1,0xffff0
80000888:	fff58593          	addi	a1,a1,-1 # fffeffff <imm12+0xffff052f>
8000088c:	00b56633          	or	a2,a0,a1
80000890:	08c32423          	sw	a2,136(t1)
80000894:	fff00413          	li	s0,-1
80000898:	00c40463          	beq	s0,a2,800008a0 <inst_54>
8000089c:	3a90406f          	j	80005444 <bad_trap>

800008a0 <inst_54>:
800008a0:	ffff5537          	lui	a0,0xffff5
800008a4:	afd50513          	addi	a0,a0,-1283 # ffff4afd <imm12+0xffff502d>
800008a8:	fffe05b7          	lui	a1,0xfffe0
800008ac:	fff58593          	addi	a1,a1,-1 # fffdffff <imm12+0xfffe052f>
800008b0:	00b56633          	or	a2,a0,a1
800008b4:	08c32623          	sw	a2,140(t1)
800008b8:	fff00413          	li	s0,-1
800008bc:	00c40463          	beq	s0,a2,800008c4 <inst_55>
800008c0:	3850406f          	j	80005444 <bad_trap>

800008c4 <inst_55>:
800008c4:	fdf00513          	li	a0,-33
800008c8:	fffc05b7          	lui	a1,0xfffc0
800008cc:	fff58593          	addi	a1,a1,-1 # fffbffff <imm12+0xfffc052f>
800008d0:	00b56633          	or	a2,a0,a1
800008d4:	08c32823          	sw	a2,144(t1)
800008d8:	fff00413          	li	s0,-1
800008dc:	00c40463          	beq	s0,a2,800008e4 <inst_56>
800008e0:	3650406f          	j	80005444 <bad_trap>

800008e4 <inst_56>:
800008e4:	0000b537          	lui	a0,0xb
800008e8:	50350513          	addi	a0,a0,1283 # b503 <offset+0xb423>
800008ec:	fff805b7          	lui	a1,0xfff80
800008f0:	fff58593          	addi	a1,a1,-1 # fff7ffff <imm12+0xfff8052f>
800008f4:	00b56633          	or	a2,a0,a1
800008f8:	08c32a23          	sw	a2,148(t1)
800008fc:	fff80437          	lui	s0,0xfff80
80000900:	fff40413          	addi	s0,s0,-1 # fff7ffff <imm12+0xfff8052f>
80000904:	00c40463          	beq	s0,a2,8000090c <inst_57>
80000908:	33d0406f          	j	80005444 <bad_trap>

8000090c <inst_57>:
8000090c:	55555537          	lui	a0,0x55555
80000910:	55550513          	addi	a0,a0,1365 # 55555555 <absimm+0x10263026>
80000914:	ffe005b7          	lui	a1,0xffe00
80000918:	fff58593          	addi	a1,a1,-1 # ffdfffff <imm12+0xffe0052f>
8000091c:	00b56633          	or	a2,a0,a1
80000920:	08c32c23          	sw	a2,152(t1)
80000924:	ffe00437          	lui	s0,0xffe00
80000928:	fff40413          	addi	s0,s0,-1 # ffdfffff <imm12+0xffe0052f>
8000092c:	00c40463          	beq	s0,a2,80000934 <inst_58>
80000930:	3150406f          	j	80005444 <bad_trap>

80000934 <inst_58>:
80000934:	00300513          	li	a0,3
80000938:	ffc005b7          	lui	a1,0xffc00
8000093c:	fff58593          	addi	a1,a1,-1 # ffbfffff <imm12+0xffc0052f>
80000940:	00b56633          	or	a2,a0,a1
80000944:	08c32e23          	sw	a2,156(t1)
80000948:	ffc00437          	lui	s0,0xffc00
8000094c:	fff40413          	addi	s0,s0,-1 # ffbfffff <imm12+0xffc0052f>
80000950:	00c40463          	beq	s0,a2,80000958 <inst_59>
80000954:	2f10406f          	j	80005444 <bad_trap>

80000958 <inst_59>:
80000958:	eff00513          	li	a0,-257
8000095c:	ff8005b7          	lui	a1,0xff800
80000960:	fff58593          	addi	a1,a1,-1 # ff7fffff <imm12+0xff80052f>
80000964:	00b56633          	or	a2,a0,a1
80000968:	0ac32023          	sw	a2,160(t1)
8000096c:	fff00413          	li	s0,-1
80000970:	00c40463          	beq	s0,a2,80000978 <inst_60>
80000974:	2d10406f          	j	80005444 <bad_trap>

80000978 <inst_60>:
80000978:	66666537          	lui	a0,0x66666
8000097c:	66650513          	addi	a0,a0,1638 # 66666666 <absimm+0x21374137>
80000980:	ff0005b7          	lui	a1,0xff000
80000984:	fff58593          	addi	a1,a1,-1 # feffffff <imm12+0xff00052f>
80000988:	00b56633          	or	a2,a0,a1
8000098c:	0ac32223          	sw	a2,164(t1)
80000990:	ff000437          	lui	s0,0xff000
80000994:	fff40413          	addi	s0,s0,-1 # feffffff <imm12+0xff00052f>
80000998:	00c40463          	beq	s0,a2,800009a0 <inst_61>
8000099c:	2a90406f          	j	80005444 <bad_trap>

800009a0 <inst_61>:
800009a0:	ffff8537          	lui	a0,0xffff8
800009a4:	fff50513          	addi	a0,a0,-1 # ffff7fff <imm12+0xffff852f>
800009a8:	fe0005b7          	lui	a1,0xfe000
800009ac:	fff58593          	addi	a1,a1,-1 # fdffffff <imm12+0xfe00052f>
800009b0:	00b56633          	or	a2,a0,a1
800009b4:	0ac32423          	sw	a2,168(t1)
800009b8:	fff00413          	li	s0,-1
800009bc:	00c40463          	beq	s0,a2,800009c4 <inst_62>
800009c0:	2850406f          	j	80005444 <bad_trap>

800009c4 <inst_62>:
800009c4:	00010537          	lui	a0,0x10
800009c8:	fc0005b7          	lui	a1,0xfc000
800009cc:	fff58593          	addi	a1,a1,-1 # fbffffff <imm12+0xfc00052f>
800009d0:	00b56633          	or	a2,a0,a1
800009d4:	0ac32623          	sw	a2,172(t1)
800009d8:	fc000437          	lui	s0,0xfc000
800009dc:	fff40413          	addi	s0,s0,-1 # fbffffff <imm12+0xfc00052f>
800009e0:	00c40463          	beq	s0,a2,800009e8 <inst_63>
800009e4:	2610406f          	j	80005444 <bad_trap>

800009e8 <inst_63>:
800009e8:	66666537          	lui	a0,0x66666
800009ec:	66550513          	addi	a0,a0,1637 # 66666665 <absimm+0x21374136>
800009f0:	f80005b7          	lui	a1,0xf8000
800009f4:	fff58593          	addi	a1,a1,-1 # f7ffffff <imm12+0xf800052f>
800009f8:	00b56633          	or	a2,a0,a1
800009fc:	0ac32823          	sw	a2,176(t1)
80000a00:	f8000437          	lui	s0,0xf8000
80000a04:	fff40413          	addi	s0,s0,-1 # f7ffffff <imm12+0xf800052f>
80000a08:	00c40463          	beq	s0,a2,80000a10 <inst_64>
80000a0c:	2390406f          	j	80005444 <bad_trap>

80000a10 <inst_64>:
80000a10:	c0000537          	lui	a0,0xc0000
80000a14:	f00005b7          	lui	a1,0xf0000
80000a18:	fff58593          	addi	a1,a1,-1 # efffffff <imm12+0xf000052f>
80000a1c:	00b56633          	or	a2,a0,a1
80000a20:	0ac32a23          	sw	a2,180(t1)
80000a24:	f0000437          	lui	s0,0xf0000
80000a28:	fff40413          	addi	s0,s0,-1 # efffffff <imm12+0xf000052f>
80000a2c:	00c40463          	beq	s0,a2,80000a34 <inst_65>
80000a30:	2150406f          	j	80005444 <bad_trap>

80000a34 <inst_65>:
80000a34:	20000513          	li	a0,512
80000a38:	e00005b7          	lui	a1,0xe0000
80000a3c:	fff58593          	addi	a1,a1,-1 # dfffffff <imm12+0xe000052f>
80000a40:	00b56633          	or	a2,a0,a1
80000a44:	0ac32c23          	sw	a2,184(t1)
80000a48:	e0000437          	lui	s0,0xe0000
80000a4c:	fff40413          	addi	s0,s0,-1 # dfffffff <imm12+0xe000052f>
80000a50:	00c40463          	beq	s0,a2,80000a58 <inst_66>
80000a54:	1f10406f          	j	80005444 <bad_trap>

80000a58 <inst_66>:
80000a58:	aaaab537          	lui	a0,0xaaaab
80000a5c:	aab50513          	addi	a0,a0,-1365 # aaaaaaab <imm12+0xaaaaafdb>
80000a60:	c00005b7          	lui	a1,0xc0000
80000a64:	fff58593          	addi	a1,a1,-1 # bfffffff <imm12+0xc000052f>
80000a68:	00b56633          	or	a2,a0,a1
80000a6c:	0ac32e23          	sw	a2,188(t1)
80000a70:	c0000437          	lui	s0,0xc0000
80000a74:	fff40413          	addi	s0,s0,-1 # bfffffff <imm12+0xc000052f>
80000a78:	00c40463          	beq	s0,a2,80000a80 <inst_67>
80000a7c:	1c90406f          	j	80005444 <bad_trap>

80000a80 <inst_67>:
80000a80:	ffc00513          	li	a0,-4
80000a84:	555555b7          	lui	a1,0x55555
80000a88:	55558593          	addi	a1,a1,1365 # 55555555 <absimm+0x10263026>
80000a8c:	00b56633          	or	a2,a0,a1
80000a90:	0cc32023          	sw	a2,192(t1)
80000a94:	ffd00413          	li	s0,-3
80000a98:	00c40463          	beq	s0,a2,80000aa0 <inst_68>
80000a9c:	1a90406f          	j	80005444 <bad_trap>

80000aa0 <inst_68>:
80000aa0:	e0000537          	lui	a0,0xe0000
80000aa4:	fff50513          	addi	a0,a0,-1 # dfffffff <imm12+0xe000052f>
80000aa8:	aaaab5b7          	lui	a1,0xaaaab
80000aac:	aaa58593          	addi	a1,a1,-1366 # aaaaaaaa <imm12+0xaaaaafda>
80000ab0:	00b56633          	or	a2,a0,a1
80000ab4:	0cc32223          	sw	a2,196(t1)
80000ab8:	fff00413          	li	s0,-1
80000abc:	00c40463          	beq	s0,a2,80000ac4 <inst_69>
80000ac0:	1850406f          	j	80005444 <bad_trap>

80000ac4 <inst_69>:
80000ac4:	01000513          	li	a0,16
80000ac8:	ff900593          	li	a1,-7
80000acc:	00b56633          	or	a2,a0,a1
80000ad0:	0cc32423          	sw	a2,200(t1)
80000ad4:	ff900413          	li	s0,-7
80000ad8:	00c40463          	beq	s0,a2,80000ae0 <inst_70>
80000adc:	1690406f          	j	80005444 <bad_trap>

80000ae0 <inst_70>:
80000ae0:	08000513          	li	a0,128
80000ae4:	ff900593          	li	a1,-7
80000ae8:	00b56633          	or	a2,a0,a1
80000aec:	0cc32623          	sw	a2,204(t1)
80000af0:	ff900413          	li	s0,-7
80000af4:	00c40463          	beq	s0,a2,80000afc <inst_71>
80000af8:	14d0406f          	j	80005444 <bad_trap>

80000afc <inst_71>:
80000afc:	10000513          	li	a0,256
80000b00:	fc0005b7          	lui	a1,0xfc000
80000b04:	fff58593          	addi	a1,a1,-1 # fbffffff <imm12+0xfc00052f>
80000b08:	00b56633          	or	a2,a0,a1
80000b0c:	0cc32823          	sw	a2,208(t1)
80000b10:	fc000437          	lui	s0,0xfc000
80000b14:	fff40413          	addi	s0,s0,-1 # fbffffff <imm12+0xfc00052f>
80000b18:	00c40463          	beq	s0,a2,80000b20 <inst_72>
80000b1c:	1290406f          	j	80005444 <bad_trap>

80000b20 <inst_72>:
80000b20:	40000513          	li	a0,1024
80000b24:	aaaab5b7          	lui	a1,0xaaaab
80000b28:	aaa58593          	addi	a1,a1,-1366 # aaaaaaaa <imm12+0xaaaaafda>
80000b2c:	00b56633          	or	a2,a0,a1
80000b30:	0cc32a23          	sw	a2,212(t1)
80000b34:	aaaab437          	lui	s0,0xaaaab
80000b38:	eaa40413          	addi	s0,s0,-342 # aaaaaeaa <imm12+0xaaaab3da>
80000b3c:	00c40463          	beq	s0,a2,80000b44 <inst_73>
80000b40:	1050406f          	j	80005444 <bad_trap>

80000b44 <inst_73>:
80000b44:	00001537          	lui	a0,0x1
80000b48:	80050513          	addi	a0,a0,-2048 # 800 <offset+0x720>
80000b4c:	ffe005b7          	lui	a1,0xffe00
80000b50:	fff58593          	addi	a1,a1,-1 # ffdfffff <imm12+0xffe0052f>
80000b54:	00b56633          	or	a2,a0,a1
80000b58:	0cc32c23          	sw	a2,216(t1)
80000b5c:	ffe00437          	lui	s0,0xffe00
80000b60:	fff40413          	addi	s0,s0,-1 # ffdfffff <imm12+0xffe0052f>
80000b64:	00c40463          	beq	s0,a2,80000b6c <inst_74>
80000b68:	0dd0406f          	j	80005444 <bad_trap>

80000b6c <inst_74>:
80000b6c:	00002537          	lui	a0,0x2
80000b70:	0000b5b7          	lui	a1,0xb
80000b74:	50358593          	addi	a1,a1,1283 # b503 <offset+0xb423>
80000b78:	00b56633          	or	a2,a0,a1
80000b7c:	0cc32e23          	sw	a2,220(t1)
80000b80:	0000b437          	lui	s0,0xb
80000b84:	50340413          	addi	s0,s0,1283 # b503 <offset+0xb423>
80000b88:	00c40463          	beq	s0,a2,80000b90 <inst_75>
80000b8c:	0b90406f          	j	80005444 <bad_trap>

80000b90 <inst_75>:
80000b90:	00004537          	lui	a0,0x4
80000b94:	ffa00593          	li	a1,-6
80000b98:	00b56633          	or	a2,a0,a1
80000b9c:	0ec32023          	sw	a2,224(t1)
80000ba0:	ffa00413          	li	s0,-6
80000ba4:	00c40463          	beq	s0,a2,80000bac <inst_76>
80000ba8:	09d0406f          	j	80005444 <bad_trap>

80000bac <inst_76>:
80000bac:	00008537          	lui	a0,0x8
80000bb0:	000015b7          	lui	a1,0x1
80000bb4:	80058593          	addi	a1,a1,-2048 # 800 <offset+0x720>
80000bb8:	00b56633          	or	a2,a0,a1
80000bbc:	0ec32223          	sw	a2,228(t1)
80000bc0:	00009437          	lui	s0,0x9
80000bc4:	80040413          	addi	s0,s0,-2048 # 8800 <offset+0x8720>
80000bc8:	00c40463          	beq	s0,a2,80000bd0 <inst_77>
80000bcc:	0790406f          	j	80005444 <bad_trap>

80000bd0 <inst_77>:
80000bd0:	00040537          	lui	a0,0x40
80000bd4:	ff0005b7          	lui	a1,0xff000
80000bd8:	fff58593          	addi	a1,a1,-1 # feffffff <imm12+0xff00052f>
80000bdc:	00b56633          	or	a2,a0,a1
80000be0:	0ec32423          	sw	a2,232(t1)
80000be4:	ff000437          	lui	s0,0xff000
80000be8:	fff40413          	addi	s0,s0,-1 # feffffff <imm12+0xff00052f>
80000bec:	00c40463          	beq	s0,a2,80000bf4 <inst_78>
80000bf0:	0550406f          	j	80005444 <bad_trap>

80000bf4 <inst_78>:
80000bf4:	00200537          	lui	a0,0x200
80000bf8:	00000593          	li	a1,0
80000bfc:	00b56633          	or	a2,a0,a1
80000c00:	0ec32623          	sw	a2,236(t1)
80000c04:	00200437          	lui	s0,0x200
80000c08:	00c40463          	beq	s0,a2,80000c10 <inst_79>
80000c0c:	0390406f          	j	80005444 <bad_trap>

80000c10 <inst_79>:
80000c10:	00400537          	lui	a0,0x400
80000c14:	ffff55b7          	lui	a1,0xffff5
80000c18:	afd58593          	addi	a1,a1,-1283 # ffff4afd <imm12+0xffff502d>
80000c1c:	00b56633          	or	a2,a0,a1
80000c20:	0ec32823          	sw	a2,240(t1)
80000c24:	ffff5437          	lui	s0,0xffff5
80000c28:	afd40413          	addi	s0,s0,-1283 # ffff4afd <imm12+0xffff502d>
80000c2c:	00c40463          	beq	s0,a2,80000c34 <inst_80>
80000c30:	0150406f          	j	80005444 <bad_trap>

80000c34 <inst_80>:
80000c34:	02000537          	lui	a0,0x2000
80000c38:	400005b7          	lui	a1,0x40000
80000c3c:	fff58593          	addi	a1,a1,-1 # 3fffffff <offset+0x3fffff1f>
80000c40:	00b56633          	or	a2,a0,a1
80000c44:	0ec32a23          	sw	a2,244(t1)
80000c48:	40000437          	lui	s0,0x40000
80000c4c:	fff40413          	addi	s0,s0,-1 # 3fffffff <offset+0x3fffff1f>
80000c50:	00c40463          	beq	s0,a2,80000c58 <inst_81>
80000c54:	7f00406f          	j	80005444 <bad_trap>

80000c58 <inst_81>:
80000c58:	04000537          	lui	a0,0x4000
80000c5c:	fff805b7          	lui	a1,0xfff80
80000c60:	fff58593          	addi	a1,a1,-1 # fff7ffff <imm12+0xfff8052f>
80000c64:	00b56633          	or	a2,a0,a1
80000c68:	0ec32c23          	sw	a2,248(t1)
80000c6c:	fff80437          	lui	s0,0xfff80
80000c70:	fff40413          	addi	s0,s0,-1 # fff7ffff <imm12+0xfff8052f>
80000c74:	00c40463          	beq	s0,a2,80000c7c <inst_82>
80000c78:	7cc0406f          	j	80005444 <bad_trap>

80000c7c <inst_82>:
80000c7c:	08000537          	lui	a0,0x8000
80000c80:	02000593          	li	a1,32
80000c84:	00b56633          	or	a2,a0,a1
80000c88:	0ec32e23          	sw	a2,252(t1)
80000c8c:	08000437          	lui	s0,0x8000
80000c90:	02040413          	addi	s0,s0,32 # 8000020 <offset+0x7ffff40>
80000c94:	00c40463          	beq	s0,a2,80000c9c <inst_83>
80000c98:	7ac0406f          	j	80005444 <bad_trap>

80000c9c <inst_83>:
80000c9c:	20000537          	lui	a0,0x20000
80000ca0:	ffffe5b7          	lui	a1,0xffffe
80000ca4:	fff58593          	addi	a1,a1,-1 # ffffdfff <imm12+0xffffe52f>
80000ca8:	00b56633          	or	a2,a0,a1
80000cac:	10c32023          	sw	a2,256(t1)
80000cb0:	ffffe437          	lui	s0,0xffffe
80000cb4:	fff40413          	addi	s0,s0,-1 # ffffdfff <imm12+0xffffe52f>
80000cb8:	00c40463          	beq	s0,a2,80000cc0 <inst_84>
80000cbc:	7880406f          	j	80005444 <bad_trap>

80000cc0 <inst_84>:
80000cc0:	40000537          	lui	a0,0x40000
80000cc4:	00800593          	li	a1,8
80000cc8:	00b56633          	or	a2,a0,a1
80000ccc:	10c32223          	sw	a2,260(t1)
80000cd0:	40000437          	lui	s0,0x40000
80000cd4:	00840413          	addi	s0,s0,8 # 40000008 <offset+0x3fffff28>
80000cd8:	00c40463          	beq	s0,a2,80000ce0 <inst_85>
80000cdc:	7680406f          	j	80005444 <bad_trap>

80000ce0 <inst_85>:
80000ce0:	ffe00513          	li	a0,-2
80000ce4:	00400593          	li	a1,4
80000ce8:	00b56633          	or	a2,a0,a1
80000cec:	10c32423          	sw	a2,264(t1)
80000cf0:	ffe00413          	li	s0,-2
80000cf4:	00c40463          	beq	s0,a2,80000cfc <inst_86>
80000cf8:	74c0406f          	j	80005444 <bad_trap>

80000cfc <inst_86>:
80000cfc:	ffd00513          	li	a0,-3
80000d00:	ff800593          	li	a1,-8
80000d04:	00b56633          	or	a2,a0,a1
80000d08:	10c32623          	sw	a2,268(t1)
80000d0c:	ffd00413          	li	s0,-3
80000d10:	00c40463          	beq	s0,a2,80000d18 <inst_87>
80000d14:	7300406f          	j	80005444 <bad_trap>

80000d18 <inst_87>:
80000d18:	ffb00513          	li	a0,-5
80000d1c:	ffff55b7          	lui	a1,0xffff5
80000d20:	afd58593          	addi	a1,a1,-1283 # ffff4afd <imm12+0xffff502d>
80000d24:	00b56633          	or	a2,a0,a1
80000d28:	10c32823          	sw	a2,272(t1)
80000d2c:	fff00413          	li	s0,-1
80000d30:	00c40463          	beq	s0,a2,80000d38 <inst_88>
80000d34:	7100406f          	j	80005444 <bad_trap>

80000d38 <inst_88>:
80000d38:	fef00513          	li	a0,-17
80000d3c:	ffc005b7          	lui	a1,0xffc00
80000d40:	fff58593          	addi	a1,a1,-1 # ffbfffff <imm12+0xffc0052f>
80000d44:	00b56633          	or	a2,a0,a1
80000d48:	10c32a23          	sw	a2,276(t1)
80000d4c:	fff00413          	li	s0,-1
80000d50:	00c40463          	beq	s0,a2,80000d58 <inst_89>
80000d54:	6f00406f          	j	80005444 <bad_trap>

80000d58 <inst_89>:
80000d58:	fbf00513          	li	a0,-65
80000d5c:	00500593          	li	a1,5
80000d60:	00b56633          	or	a2,a0,a1
80000d64:	10c32c23          	sw	a2,280(t1)
80000d68:	fbf00413          	li	s0,-65
80000d6c:	00c40463          	beq	s0,a2,80000d74 <inst_90>
80000d70:	6d40406f          	j	80005444 <bad_trap>

80000d74 <inst_90>:
80000d74:	f7f00513          	li	a0,-129
80000d78:	008005b7          	lui	a1,0x800
80000d7c:	00b56633          	or	a2,a0,a1
80000d80:	10c32e23          	sw	a2,284(t1)
80000d84:	f7f00413          	li	s0,-129
80000d88:	00c40463          	beq	s0,a2,80000d90 <inst_91>
80000d8c:	6b80406f          	j	80005444 <bad_trap>

80000d90 <inst_91>:
80000d90:	ffffc537          	lui	a0,0xffffc
80000d94:	fff50513          	addi	a0,a0,-1 # ffffbfff <imm12+0xffffc52f>
80000d98:	0000b5b7          	lui	a1,0xb
80000d9c:	50358593          	addi	a1,a1,1283 # b503 <offset+0xb423>
80000da0:	00b56633          	or	a2,a0,a1
80000da4:	12c32023          	sw	a2,288(t1)
80000da8:	ffffc437          	lui	s0,0xffffc
80000dac:	fff40413          	addi	s0,s0,-1 # ffffbfff <imm12+0xffffc52f>
80000db0:	00c40463          	beq	s0,a2,80000db8 <inst_92>
80000db4:	6900406f          	j	80005444 <bad_trap>

80000db8 <inst_92>:
80000db8:	fffe0537          	lui	a0,0xfffe0
80000dbc:	fff50513          	addi	a0,a0,-1 # fffdffff <imm12+0xfffe052f>
80000dc0:	ffffc5b7          	lui	a1,0xffffc
80000dc4:	fff58593          	addi	a1,a1,-1 # ffffbfff <imm12+0xffffc52f>
80000dc8:	00b56633          	or	a2,a0,a1
80000dcc:	12c32223          	sw	a2,292(t1)
80000dd0:	fff00413          	li	s0,-1
80000dd4:	00c40463          	beq	s0,a2,80000ddc <inst_93>
80000dd8:	66c0406f          	j	80005444 <bad_trap>

80000ddc <inst_93>:
80000ddc:	fffc0537          	lui	a0,0xfffc0
80000de0:	fff50513          	addi	a0,a0,-1 # fffbffff <imm12+0xfffc052f>
80000de4:	aaaab5b7          	lui	a1,0xaaaab
80000de8:	aaa58593          	addi	a1,a1,-1366 # aaaaaaaa <imm12+0xaaaaafda>
80000dec:	00b56633          	or	a2,a0,a1
80000df0:	12c32423          	sw	a2,296(t1)
80000df4:	fffc0437          	lui	s0,0xfffc0
80000df8:	fff40413          	addi	s0,s0,-1 # fffbffff <imm12+0xfffc052f>
80000dfc:	00c40463          	beq	s0,a2,80000e04 <inst_94>
80000e00:	6440406f          	j	80005444 <bad_trap>

80000e04 <inst_94>:
80000e04:	fff80537          	lui	a0,0xfff80
80000e08:	fff50513          	addi	a0,a0,-1 # fff7ffff <imm12+0xfff8052f>
80000e0c:	fbf00593          	li	a1,-65
80000e10:	00b56633          	or	a2,a0,a1
80000e14:	12c32623          	sw	a2,300(t1)
80000e18:	fff00413          	li	s0,-1
80000e1c:	00c40463          	beq	s0,a2,80000e24 <inst_95>
80000e20:	6240406f          	j	80005444 <bad_trap>

80000e24 <inst_95>:
80000e24:	ffc00537          	lui	a0,0xffc00
80000e28:	fff50513          	addi	a0,a0,-1 # ffbfffff <imm12+0xffc0052f>
80000e2c:	eff00593          	li	a1,-257
80000e30:	00b56633          	or	a2,a0,a1
80000e34:	12c32823          	sw	a2,304(t1)
80000e38:	fff00413          	li	s0,-1
80000e3c:	00c40463          	beq	s0,a2,80000e44 <inst_96>
80000e40:	6040406f          	j	80005444 <bad_trap>

80000e44 <inst_96>:
80000e44:	ff000537          	lui	a0,0xff000
80000e48:	fff50513          	addi	a0,a0,-1 # feffffff <imm12+0xff00052f>
80000e4c:	00000593          	li	a1,0
80000e50:	00b56633          	or	a2,a0,a1
80000e54:	12c32a23          	sw	a2,308(t1)
80000e58:	ff000437          	lui	s0,0xff000
80000e5c:	fff40413          	addi	s0,s0,-1 # feffffff <imm12+0xff00052f>
80000e60:	00c40463          	beq	s0,a2,80000e68 <inst_97>
80000e64:	5e00406f          	j	80005444 <bad_trap>

80000e68 <inst_97>:
80000e68:	fe000537          	lui	a0,0xfe000
80000e6c:	fff50513          	addi	a0,a0,-1 # fdffffff <imm12+0xfe00052f>
80000e70:	00400593          	li	a1,4
80000e74:	00b56633          	or	a2,a0,a1
80000e78:	12c32c23          	sw	a2,312(t1)
80000e7c:	fe000437          	lui	s0,0xfe000
80000e80:	fff40413          	addi	s0,s0,-1 # fdffffff <imm12+0xfe00052f>
80000e84:	00c40463          	beq	s0,a2,80000e8c <inst_98>
80000e88:	5bc0406f          	j	80005444 <bad_trap>

80000e8c <inst_98>:
80000e8c:	f8000537          	lui	a0,0xf8000
80000e90:	fff50513          	addi	a0,a0,-1 # f7ffffff <imm12+0xf800052f>
80000e94:	ffb00593          	li	a1,-5
80000e98:	00b56633          	or	a2,a0,a1
80000e9c:	12c32e23          	sw	a2,316(t1)
80000ea0:	fff00413          	li	s0,-1
80000ea4:	00c40463          	beq	s0,a2,80000eac <inst_99>
80000ea8:	59c0406f          	j	80005444 <bad_trap>

80000eac <inst_99>:
80000eac:	c0000537          	lui	a0,0xc0000
80000eb0:	fff50513          	addi	a0,a0,-1 # bfffffff <imm12+0xc000052f>
80000eb4:	c00005b7          	lui	a1,0xc0000
80000eb8:	fff58593          	addi	a1,a1,-1 # bfffffff <imm12+0xc000052f>
80000ebc:	00b56633          	or	a2,a0,a1
80000ec0:	14c32023          	sw	a2,320(t1)
80000ec4:	c0000437          	lui	s0,0xc0000
80000ec8:	fff40413          	addi	s0,s0,-1 # bfffffff <imm12+0xc000052f>
80000ecc:	00c40463          	beq	s0,a2,80000ed4 <inst_100>
80000ed0:	5740406f          	j	80005444 <bad_trap>

80000ed4 <inst_100>:
80000ed4:	00300513          	li	a0,3
80000ed8:	00300593          	li	a1,3
80000edc:	00b56633          	or	a2,a0,a1
80000ee0:	14c32223          	sw	a2,324(t1)
80000ee4:	00300413          	li	s0,3
80000ee8:	00c40463          	beq	s0,a2,80000ef0 <inst_101>
80000eec:	5580406f          	j	80005444 <bad_trap>

80000ef0 <inst_101>:
80000ef0:	00300513          	li	a0,3
80000ef4:	555555b7          	lui	a1,0x55555
80000ef8:	55558593          	addi	a1,a1,1365 # 55555555 <absimm+0x10263026>
80000efc:	00b56633          	or	a2,a0,a1
80000f00:	14c32423          	sw	a2,328(t1)
80000f04:	55555437          	lui	s0,0x55555
80000f08:	55740413          	addi	s0,s0,1367 # 55555557 <absimm+0x10263028>
80000f0c:	00c40463          	beq	s0,a2,80000f14 <inst_102>
80000f10:	5340406f          	j	80005444 <bad_trap>

80000f14 <inst_102>:
80000f14:	00300513          	li	a0,3
80000f18:	aaaab5b7          	lui	a1,0xaaaab
80000f1c:	aaa58593          	addi	a1,a1,-1366 # aaaaaaaa <imm12+0xaaaaafda>
80000f20:	00b56633          	or	a2,a0,a1
80000f24:	14c32623          	sw	a2,332(t1)
80000f28:	aaaab437          	lui	s0,0xaaaab
80000f2c:	aab40413          	addi	s0,s0,-1365 # aaaaaaab <imm12+0xaaaaafdb>
80000f30:	00c40463          	beq	s0,a2,80000f38 <inst_103>
80000f34:	5100406f          	j	80005444 <bad_trap>

80000f38 <inst_103>:
80000f38:	00300513          	li	a0,3
80000f3c:	00500593          	li	a1,5
80000f40:	00b56633          	or	a2,a0,a1
80000f44:	14c32823          	sw	a2,336(t1)
80000f48:	00700413          	li	s0,7
80000f4c:	00c40463          	beq	s0,a2,80000f54 <inst_104>
80000f50:	4f40406f          	j	80005444 <bad_trap>

80000f54 <inst_104>:
80000f54:	00300513          	li	a0,3
80000f58:	333335b7          	lui	a1,0x33333
80000f5c:	33358593          	addi	a1,a1,819 # 33333333 <offset+0x33333253>
80000f60:	00b56633          	or	a2,a0,a1
80000f64:	14c32a23          	sw	a2,340(t1)
80000f68:	33333437          	lui	s0,0x33333
80000f6c:	33340413          	addi	s0,s0,819 # 33333333 <offset+0x33333253>
80000f70:	00c40463          	beq	s0,a2,80000f78 <inst_105>
80000f74:	4d00406f          	j	80005444 <bad_trap>

80000f78 <inst_105>:
80000f78:	00300513          	li	a0,3
80000f7c:	666665b7          	lui	a1,0x66666
80000f80:	66658593          	addi	a1,a1,1638 # 66666666 <absimm+0x21374137>
80000f84:	00b56633          	or	a2,a0,a1
80000f88:	14c32c23          	sw	a2,344(t1)
80000f8c:	66666437          	lui	s0,0x66666
80000f90:	66740413          	addi	s0,s0,1639 # 66666667 <absimm+0x21374138>
80000f94:	00c40463          	beq	s0,a2,80000f9c <inst_106>
80000f98:	4ac0406f          	j	80005444 <bad_trap>

80000f9c <inst_106>:
80000f9c:	00300513          	li	a0,3
80000fa0:	ffff55b7          	lui	a1,0xffff5
80000fa4:	afc58593          	addi	a1,a1,-1284 # ffff4afc <imm12+0xffff502c>
80000fa8:	00b56633          	or	a2,a0,a1
80000fac:	14c32e23          	sw	a2,348(t1)
80000fb0:	ffff5437          	lui	s0,0xffff5
80000fb4:	aff40413          	addi	s0,s0,-1281 # ffff4aff <imm12+0xffff502f>
80000fb8:	00c40463          	beq	s0,a2,80000fc0 <inst_107>
80000fbc:	4880406f          	j	80005444 <bad_trap>

80000fc0 <inst_107>:
80000fc0:	00300513          	li	a0,3
80000fc4:	0000b5b7          	lui	a1,0xb
80000fc8:	50458593          	addi	a1,a1,1284 # b504 <offset+0xb424>
80000fcc:	00b56633          	or	a2,a0,a1
80000fd0:	16c32023          	sw	a2,352(t1)
80000fd4:	0000b437          	lui	s0,0xb
80000fd8:	50740413          	addi	s0,s0,1287 # b507 <offset+0xb427>
80000fdc:	00c40463          	beq	s0,a2,80000fe4 <inst_108>
80000fe0:	4640406f          	j	80005444 <bad_trap>

80000fe4 <inst_108>:
80000fe4:	00300513          	li	a0,3
80000fe8:	00200593          	li	a1,2
80000fec:	00b56633          	or	a2,a0,a1
80000ff0:	16c32223          	sw	a2,356(t1)
80000ff4:	00300413          	li	s0,3
80000ff8:	00c40463          	beq	s0,a2,80001000 <inst_109>
80000ffc:	4480406f          	j	80005444 <bad_trap>

80001000 <inst_109>:
80001000:	00300513          	li	a0,3
80001004:	555555b7          	lui	a1,0x55555
80001008:	55458593          	addi	a1,a1,1364 # 55555554 <absimm+0x10263025>
8000100c:	00b56633          	or	a2,a0,a1
80001010:	16c32423          	sw	a2,360(t1)
80001014:	55555437          	lui	s0,0x55555
80001018:	55740413          	addi	s0,s0,1367 # 55555557 <absimm+0x10263028>
8000101c:	00c40463          	beq	s0,a2,80001024 <inst_110>
80001020:	4240406f          	j	80005444 <bad_trap>

80001024 <inst_110>:
80001024:	00300513          	li	a0,3
80001028:	00000593          	li	a1,0
8000102c:	00b56633          	or	a2,a0,a1
80001030:	16c32623          	sw	a2,364(t1)
80001034:	00300413          	li	s0,3
80001038:	00c40463          	beq	s0,a2,80001040 <inst_111>
8000103c:	4080406f          	j	80005444 <bad_trap>

80001040 <inst_111>:
80001040:	00300513          	li	a0,3
80001044:	00400593          	li	a1,4
80001048:	00b56633          	or	a2,a0,a1
8000104c:	16c32823          	sw	a2,368(t1)
80001050:	00700413          	li	s0,7
80001054:	00c40463          	beq	s0,a2,8000105c <inst_112>
80001058:	3ec0406f          	j	80005444 <bad_trap>

8000105c <inst_112>:
8000105c:	00300513          	li	a0,3
80001060:	333335b7          	lui	a1,0x33333
80001064:	33258593          	addi	a1,a1,818 # 33333332 <offset+0x33333252>
80001068:	00b56633          	or	a2,a0,a1
8000106c:	16c32a23          	sw	a2,372(t1)
80001070:	33333437          	lui	s0,0x33333
80001074:	33340413          	addi	s0,s0,819 # 33333333 <offset+0x33333253>
80001078:	00c40463          	beq	s0,a2,80001080 <inst_113>
8000107c:	3c80406f          	j	80005444 <bad_trap>

80001080 <inst_113>:
80001080:	00300513          	li	a0,3
80001084:	666665b7          	lui	a1,0x66666
80001088:	66558593          	addi	a1,a1,1637 # 66666665 <absimm+0x21374136>
8000108c:	00b56633          	or	a2,a0,a1
80001090:	16c32c23          	sw	a2,376(t1)
80001094:	66666437          	lui	s0,0x66666
80001098:	66740413          	addi	s0,s0,1639 # 66666667 <absimm+0x21374138>
8000109c:	00c40463          	beq	s0,a2,800010a4 <inst_114>
800010a0:	3a40406f          	j	80005444 <bad_trap>

800010a4 <inst_114>:
800010a4:	00300513          	li	a0,3
800010a8:	0000b5b7          	lui	a1,0xb
800010ac:	50358593          	addi	a1,a1,1283 # b503 <offset+0xb423>
800010b0:	00b56633          	or	a2,a0,a1
800010b4:	16c32e23          	sw	a2,380(t1)
800010b8:	0000b437          	lui	s0,0xb
800010bc:	50340413          	addi	s0,s0,1283 # b503 <offset+0xb423>
800010c0:	00c40463          	beq	s0,a2,800010c8 <inst_115>
800010c4:	3800406f          	j	80005444 <bad_trap>

800010c8 <inst_115>:
800010c8:	00300513          	li	a0,3
800010cc:	555555b7          	lui	a1,0x55555
800010d0:	55658593          	addi	a1,a1,1366 # 55555556 <absimm+0x10263027>
800010d4:	00b56633          	or	a2,a0,a1
800010d8:	18c32023          	sw	a2,384(t1)
800010dc:	55555437          	lui	s0,0x55555
800010e0:	55740413          	addi	s0,s0,1367 # 55555557 <absimm+0x10263028>
800010e4:	00c40463          	beq	s0,a2,800010ec <inst_116>
800010e8:	35c0406f          	j	80005444 <bad_trap>

800010ec <inst_116>:
800010ec:	00300513          	li	a0,3
800010f0:	aaaab5b7          	lui	a1,0xaaaab
800010f4:	aab58593          	addi	a1,a1,-1365 # aaaaaaab <imm12+0xaaaaafdb>
800010f8:	00b56633          	or	a2,a0,a1
800010fc:	18c32223          	sw	a2,388(t1)
80001100:	aaaab437          	lui	s0,0xaaaab
80001104:	aab40413          	addi	s0,s0,-1365 # aaaaaaab <imm12+0xaaaaafdb>
80001108:	00c40463          	beq	s0,a2,80001110 <inst_117>
8000110c:	3380406f          	j	80005444 <bad_trap>

80001110 <inst_117>:
80001110:	00300513          	li	a0,3
80001114:	00600593          	li	a1,6
80001118:	00b56633          	or	a2,a0,a1
8000111c:	18c32423          	sw	a2,392(t1)
80001120:	00700413          	li	s0,7
80001124:	00c40463          	beq	s0,a2,8000112c <inst_118>
80001128:	31c0406f          	j	80005444 <bad_trap>

8000112c <inst_118>:
8000112c:	00300513          	li	a0,3
80001130:	333335b7          	lui	a1,0x33333
80001134:	33458593          	addi	a1,a1,820 # 33333334 <offset+0x33333254>
80001138:	00b56633          	or	a2,a0,a1
8000113c:	18c32623          	sw	a2,396(t1)
80001140:	33333437          	lui	s0,0x33333
80001144:	33740413          	addi	s0,s0,823 # 33333337 <offset+0x33333257>
80001148:	00c40463          	beq	s0,a2,80001150 <inst_119>
8000114c:	2f80406f          	j	80005444 <bad_trap>

80001150 <inst_119>:
80001150:	00300513          	li	a0,3
80001154:	666665b7          	lui	a1,0x66666
80001158:	66758593          	addi	a1,a1,1639 # 66666667 <absimm+0x21374138>
8000115c:	00b56633          	or	a2,a0,a1
80001160:	18c32823          	sw	a2,400(t1)
80001164:	66666437          	lui	s0,0x66666
80001168:	66740413          	addi	s0,s0,1639 # 66666667 <absimm+0x21374138>
8000116c:	00c40463          	beq	s0,a2,80001174 <inst_120>
80001170:	2d40406f          	j	80005444 <bad_trap>

80001174 <inst_120>:
80001174:	00300513          	li	a0,3
80001178:	ffff55b7          	lui	a1,0xffff5
8000117c:	afd58593          	addi	a1,a1,-1283 # ffff4afd <imm12+0xffff502d>
80001180:	00b56633          	or	a2,a0,a1
80001184:	18c32a23          	sw	a2,404(t1)
80001188:	ffff5437          	lui	s0,0xffff5
8000118c:	aff40413          	addi	s0,s0,-1281 # ffff4aff <imm12+0xffff502f>
80001190:	00c40463          	beq	s0,a2,80001198 <inst_121>
80001194:	2b00406f          	j	80005444 <bad_trap>

80001198 <inst_121>:
80001198:	00300513          	li	a0,3
8000119c:	0000b5b7          	lui	a1,0xb
800011a0:	50558593          	addi	a1,a1,1285 # b505 <offset+0xb425>
800011a4:	00b56633          	or	a2,a0,a1
800011a8:	18c32c23          	sw	a2,408(t1)
800011ac:	0000b437          	lui	s0,0xb
800011b0:	50740413          	addi	s0,s0,1287 # b507 <offset+0xb427>
800011b4:	00c40463          	beq	s0,a2,800011bc <inst_122>
800011b8:	28c0406f          	j	80005444 <bad_trap>

800011bc <inst_122>:
800011bc:	55555537          	lui	a0,0x55555
800011c0:	55550513          	addi	a0,a0,1365 # 55555555 <absimm+0x10263026>
800011c4:	00300593          	li	a1,3
800011c8:	00b56633          	or	a2,a0,a1
800011cc:	18c32e23          	sw	a2,412(t1)
800011d0:	55555437          	lui	s0,0x55555
800011d4:	55740413          	addi	s0,s0,1367 # 55555557 <absimm+0x10263028>
800011d8:	00c40463          	beq	s0,a2,800011e0 <inst_123>
800011dc:	2680406f          	j	80005444 <bad_trap>

800011e0 <inst_123>:
800011e0:	55555537          	lui	a0,0x55555
800011e4:	55550513          	addi	a0,a0,1365 # 55555555 <absimm+0x10263026>
800011e8:	555555b7          	lui	a1,0x55555
800011ec:	55558593          	addi	a1,a1,1365 # 55555555 <absimm+0x10263026>
800011f0:	00b56633          	or	a2,a0,a1
800011f4:	1ac32023          	sw	a2,416(t1)
800011f8:	55555437          	lui	s0,0x55555
800011fc:	55540413          	addi	s0,s0,1365 # 55555555 <absimm+0x10263026>
80001200:	00c40463          	beq	s0,a2,80001208 <inst_124>
80001204:	2400406f          	j	80005444 <bad_trap>

80001208 <inst_124>:
80001208:	55555537          	lui	a0,0x55555
8000120c:	55550513          	addi	a0,a0,1365 # 55555555 <absimm+0x10263026>
80001210:	aaaab5b7          	lui	a1,0xaaaab
80001214:	aaa58593          	addi	a1,a1,-1366 # aaaaaaaa <imm12+0xaaaaafda>
80001218:	00b56633          	or	a2,a0,a1
8000121c:	1ac32223          	sw	a2,420(t1)
80001220:	fff00413          	li	s0,-1
80001224:	00c40463          	beq	s0,a2,8000122c <inst_125>
80001228:	21c0406f          	j	80005444 <bad_trap>

8000122c <inst_125>:
8000122c:	55555537          	lui	a0,0x55555
80001230:	55550513          	addi	a0,a0,1365 # 55555555 <absimm+0x10263026>
80001234:	00500593          	li	a1,5
80001238:	00b56633          	or	a2,a0,a1
8000123c:	1ac32423          	sw	a2,424(t1)
80001240:	55555437          	lui	s0,0x55555
80001244:	55540413          	addi	s0,s0,1365 # 55555555 <absimm+0x10263026>
80001248:	00c40463          	beq	s0,a2,80001250 <inst_126>
8000124c:	1f80406f          	j	80005444 <bad_trap>

80001250 <inst_126>:
80001250:	55555537          	lui	a0,0x55555
80001254:	55550513          	addi	a0,a0,1365 # 55555555 <absimm+0x10263026>
80001258:	333335b7          	lui	a1,0x33333
8000125c:	33358593          	addi	a1,a1,819 # 33333333 <offset+0x33333253>
80001260:	00b56633          	or	a2,a0,a1
80001264:	1ac32623          	sw	a2,428(t1)
80001268:	77777437          	lui	s0,0x77777
8000126c:	77740413          	addi	s0,s0,1911 # 77777777 <absimm+0x32485248>
80001270:	00c40463          	beq	s0,a2,80001278 <inst_127>
80001274:	1d00406f          	j	80005444 <bad_trap>

80001278 <inst_127>:
80001278:	55555537          	lui	a0,0x55555
8000127c:	55550513          	addi	a0,a0,1365 # 55555555 <absimm+0x10263026>
80001280:	666665b7          	lui	a1,0x66666
80001284:	66658593          	addi	a1,a1,1638 # 66666666 <absimm+0x21374137>
80001288:	00b56633          	or	a2,a0,a1
8000128c:	1ac32823          	sw	a2,432(t1)
80001290:	77777437          	lui	s0,0x77777
80001294:	77740413          	addi	s0,s0,1911 # 77777777 <absimm+0x32485248>
80001298:	00c40463          	beq	s0,a2,800012a0 <inst_128>
8000129c:	1a80406f          	j	80005444 <bad_trap>

800012a0 <inst_128>:
800012a0:	55555537          	lui	a0,0x55555
800012a4:	55550513          	addi	a0,a0,1365 # 55555555 <absimm+0x10263026>
800012a8:	ffff55b7          	lui	a1,0xffff5
800012ac:	afc58593          	addi	a1,a1,-1284 # ffff4afc <imm12+0xffff502c>
800012b0:	00b56633          	or	a2,a0,a1
800012b4:	1ac32a23          	sw	a2,436(t1)
800012b8:	ffff6437          	lui	s0,0xffff6
800012bc:	ffd40413          	addi	s0,s0,-3 # ffff5ffd <imm12+0xffff652d>
800012c0:	00c40463          	beq	s0,a2,800012c8 <inst_129>
800012c4:	1800406f          	j	80005444 <bad_trap>

800012c8 <inst_129>:
800012c8:	55555537          	lui	a0,0x55555
800012cc:	55550513          	addi	a0,a0,1365 # 55555555 <absimm+0x10263026>
800012d0:	0000b5b7          	lui	a1,0xb
800012d4:	50458593          	addi	a1,a1,1284 # b504 <offset+0xb424>
800012d8:	00b56633          	or	a2,a0,a1
800012dc:	1ac32c23          	sw	a2,440(t1)
800012e0:	5555f437          	lui	s0,0x5555f
800012e4:	55540413          	addi	s0,s0,1365 # 5555f555 <absimm+0x1026d026>
800012e8:	00c40463          	beq	s0,a2,800012f0 <inst_130>
800012ec:	1580406f          	j	80005444 <bad_trap>

800012f0 <inst_130>:
800012f0:	55555537          	lui	a0,0x55555
800012f4:	55550513          	addi	a0,a0,1365 # 55555555 <absimm+0x10263026>
800012f8:	00200593          	li	a1,2
800012fc:	00b56633          	or	a2,a0,a1
80001300:	1ac32e23          	sw	a2,444(t1)
80001304:	55555437          	lui	s0,0x55555
80001308:	55740413          	addi	s0,s0,1367 # 55555557 <absimm+0x10263028>
8000130c:	00c40463          	beq	s0,a2,80001314 <inst_131>
80001310:	1340406f          	j	80005444 <bad_trap>

80001314 <inst_131>:
80001314:	55555537          	lui	a0,0x55555
80001318:	55550513          	addi	a0,a0,1365 # 55555555 <absimm+0x10263026>
8000131c:	555555b7          	lui	a1,0x55555
80001320:	55458593          	addi	a1,a1,1364 # 55555554 <absimm+0x10263025>
80001324:	00b56633          	or	a2,a0,a1
80001328:	1cc32023          	sw	a2,448(t1)
8000132c:	55555437          	lui	s0,0x55555
80001330:	55540413          	addi	s0,s0,1365 # 55555555 <absimm+0x10263026>
80001334:	00c40463          	beq	s0,a2,8000133c <inst_132>
80001338:	10c0406f          	j	80005444 <bad_trap>

8000133c <inst_132>:
8000133c:	55555537          	lui	a0,0x55555
80001340:	55550513          	addi	a0,a0,1365 # 55555555 <absimm+0x10263026>
80001344:	00000593          	li	a1,0
80001348:	00b56633          	or	a2,a0,a1
8000134c:	1cc32223          	sw	a2,452(t1)
80001350:	55555437          	lui	s0,0x55555
80001354:	55540413          	addi	s0,s0,1365 # 55555555 <absimm+0x10263026>
80001358:	00c40463          	beq	s0,a2,80001360 <inst_133>
8000135c:	0e80406f          	j	80005444 <bad_trap>

80001360 <inst_133>:
80001360:	55555537          	lui	a0,0x55555
80001364:	55550513          	addi	a0,a0,1365 # 55555555 <absimm+0x10263026>
80001368:	00400593          	li	a1,4
8000136c:	00b56633          	or	a2,a0,a1
80001370:	1cc32423          	sw	a2,456(t1)
80001374:	55555437          	lui	s0,0x55555
80001378:	55540413          	addi	s0,s0,1365 # 55555555 <absimm+0x10263026>
8000137c:	00c40463          	beq	s0,a2,80001384 <inst_134>
80001380:	0c40406f          	j	80005444 <bad_trap>

80001384 <inst_134>:
80001384:	55555537          	lui	a0,0x55555
80001388:	55550513          	addi	a0,a0,1365 # 55555555 <absimm+0x10263026>
8000138c:	333335b7          	lui	a1,0x33333
80001390:	33258593          	addi	a1,a1,818 # 33333332 <offset+0x33333252>
80001394:	00b56633          	or	a2,a0,a1
80001398:	1cc32623          	sw	a2,460(t1)
8000139c:	77777437          	lui	s0,0x77777
800013a0:	77740413          	addi	s0,s0,1911 # 77777777 <absimm+0x32485248>
800013a4:	00c40463          	beq	s0,a2,800013ac <inst_135>
800013a8:	09c0406f          	j	80005444 <bad_trap>

800013ac <inst_135>:
800013ac:	55555537          	lui	a0,0x55555
800013b0:	55550513          	addi	a0,a0,1365 # 55555555 <absimm+0x10263026>
800013b4:	666665b7          	lui	a1,0x66666
800013b8:	66558593          	addi	a1,a1,1637 # 66666665 <absimm+0x21374136>
800013bc:	00b56633          	or	a2,a0,a1
800013c0:	1cc32823          	sw	a2,464(t1)
800013c4:	77777437          	lui	s0,0x77777
800013c8:	77540413          	addi	s0,s0,1909 # 77777775 <absimm+0x32485246>
800013cc:	00c40463          	beq	s0,a2,800013d4 <inst_136>
800013d0:	0740406f          	j	80005444 <bad_trap>

800013d4 <inst_136>:
800013d4:	55555537          	lui	a0,0x55555
800013d8:	55550513          	addi	a0,a0,1365 # 55555555 <absimm+0x10263026>
800013dc:	0000b5b7          	lui	a1,0xb
800013e0:	50358593          	addi	a1,a1,1283 # b503 <offset+0xb423>
800013e4:	00b56633          	or	a2,a0,a1
800013e8:	1cc32a23          	sw	a2,468(t1)
800013ec:	5555f437          	lui	s0,0x5555f
800013f0:	55740413          	addi	s0,s0,1367 # 5555f557 <absimm+0x1026d028>
800013f4:	00c40463          	beq	s0,a2,800013fc <inst_137>
800013f8:	04c0406f          	j	80005444 <bad_trap>

800013fc <inst_137>:
800013fc:	55555537          	lui	a0,0x55555
80001400:	55550513          	addi	a0,a0,1365 # 55555555 <absimm+0x10263026>
80001404:	555555b7          	lui	a1,0x55555
80001408:	55658593          	addi	a1,a1,1366 # 55555556 <absimm+0x10263027>
8000140c:	00b56633          	or	a2,a0,a1
80001410:	1cc32c23          	sw	a2,472(t1)
80001414:	55555437          	lui	s0,0x55555
80001418:	55740413          	addi	s0,s0,1367 # 55555557 <absimm+0x10263028>
8000141c:	00c40463          	beq	s0,a2,80001424 <inst_138>
80001420:	0240406f          	j	80005444 <bad_trap>

80001424 <inst_138>:
80001424:	55555537          	lui	a0,0x55555
80001428:	55550513          	addi	a0,a0,1365 # 55555555 <absimm+0x10263026>
8000142c:	aaaab5b7          	lui	a1,0xaaaab
80001430:	aab58593          	addi	a1,a1,-1365 # aaaaaaab <imm12+0xaaaaafdb>
80001434:	00b56633          	or	a2,a0,a1
80001438:	1cc32e23          	sw	a2,476(t1)
8000143c:	fff00413          	li	s0,-1
80001440:	00c40463          	beq	s0,a2,80001448 <inst_139>
80001444:	0000406f          	j	80005444 <bad_trap>

80001448 <inst_139>:
80001448:	55555537          	lui	a0,0x55555
8000144c:	55550513          	addi	a0,a0,1365 # 55555555 <absimm+0x10263026>
80001450:	00600593          	li	a1,6
80001454:	00b56633          	or	a2,a0,a1
80001458:	1ec32023          	sw	a2,480(t1)
8000145c:	55555437          	lui	s0,0x55555
80001460:	55740413          	addi	s0,s0,1367 # 55555557 <absimm+0x10263028>
80001464:	00c40463          	beq	s0,a2,8000146c <inst_140>
80001468:	7dd0306f          	j	80005444 <bad_trap>

8000146c <inst_140>:
8000146c:	55555537          	lui	a0,0x55555
80001470:	55550513          	addi	a0,a0,1365 # 55555555 <absimm+0x10263026>
80001474:	333335b7          	lui	a1,0x33333
80001478:	33458593          	addi	a1,a1,820 # 33333334 <offset+0x33333254>
8000147c:	00b56633          	or	a2,a0,a1
80001480:	1ec32223          	sw	a2,484(t1)
80001484:	77777437          	lui	s0,0x77777
80001488:	77540413          	addi	s0,s0,1909 # 77777775 <absimm+0x32485246>
8000148c:	00c40463          	beq	s0,a2,80001494 <inst_141>
80001490:	7b50306f          	j	80005444 <bad_trap>

80001494 <inst_141>:
80001494:	55555537          	lui	a0,0x55555
80001498:	55550513          	addi	a0,a0,1365 # 55555555 <absimm+0x10263026>
8000149c:	666665b7          	lui	a1,0x66666
800014a0:	66758593          	addi	a1,a1,1639 # 66666667 <absimm+0x21374138>
800014a4:	00b56633          	or	a2,a0,a1
800014a8:	1ec32423          	sw	a2,488(t1)
800014ac:	77777437          	lui	s0,0x77777
800014b0:	77740413          	addi	s0,s0,1911 # 77777777 <absimm+0x32485248>
800014b4:	00c40463          	beq	s0,a2,800014bc <inst_142>
800014b8:	78d0306f          	j	80005444 <bad_trap>

800014bc <inst_142>:
800014bc:	55555537          	lui	a0,0x55555
800014c0:	55550513          	addi	a0,a0,1365 # 55555555 <absimm+0x10263026>
800014c4:	ffff55b7          	lui	a1,0xffff5
800014c8:	afd58593          	addi	a1,a1,-1283 # ffff4afd <imm12+0xffff502d>
800014cc:	00b56633          	or	a2,a0,a1
800014d0:	1ec32623          	sw	a2,492(t1)
800014d4:	ffff6437          	lui	s0,0xffff6
800014d8:	ffd40413          	addi	s0,s0,-3 # ffff5ffd <imm12+0xffff652d>
800014dc:	00c40463          	beq	s0,a2,800014e4 <inst_143>
800014e0:	7650306f          	j	80005444 <bad_trap>

800014e4 <inst_143>:
800014e4:	55555537          	lui	a0,0x55555
800014e8:	55550513          	addi	a0,a0,1365 # 55555555 <absimm+0x10263026>
800014ec:	0000b5b7          	lui	a1,0xb
800014f0:	50558593          	addi	a1,a1,1285 # b505 <offset+0xb425>
800014f4:	00b56633          	or	a2,a0,a1
800014f8:	1ec32823          	sw	a2,496(t1)
800014fc:	5555f437          	lui	s0,0x5555f
80001500:	55540413          	addi	s0,s0,1365 # 5555f555 <absimm+0x1026d026>
80001504:	00c40463          	beq	s0,a2,8000150c <inst_144>
80001508:	73d0306f          	j	80005444 <bad_trap>

8000150c <inst_144>:
8000150c:	aaaab537          	lui	a0,0xaaaab
80001510:	aaa50513          	addi	a0,a0,-1366 # aaaaaaaa <imm12+0xaaaaafda>
80001514:	00300593          	li	a1,3
80001518:	00b56633          	or	a2,a0,a1
8000151c:	1ec32a23          	sw	a2,500(t1)
80001520:	aaaab437          	lui	s0,0xaaaab
80001524:	aab40413          	addi	s0,s0,-1365 # aaaaaaab <imm12+0xaaaaafdb>
80001528:	00c40463          	beq	s0,a2,80001530 <inst_145>
8000152c:	7190306f          	j	80005444 <bad_trap>

80001530 <inst_145>:
80001530:	aaaab537          	lui	a0,0xaaaab
80001534:	aaa50513          	addi	a0,a0,-1366 # aaaaaaaa <imm12+0xaaaaafda>
80001538:	555555b7          	lui	a1,0x55555
8000153c:	55558593          	addi	a1,a1,1365 # 55555555 <absimm+0x10263026>
80001540:	00b56633          	or	a2,a0,a1
80001544:	1ec32c23          	sw	a2,504(t1)
80001548:	fff00413          	li	s0,-1
8000154c:	00c40463          	beq	s0,a2,80001554 <inst_146>
80001550:	6f50306f          	j	80005444 <bad_trap>

80001554 <inst_146>:
80001554:	aaaab537          	lui	a0,0xaaaab
80001558:	aaa50513          	addi	a0,a0,-1366 # aaaaaaaa <imm12+0xaaaaafda>
8000155c:	aaaab5b7          	lui	a1,0xaaaab
80001560:	aaa58593          	addi	a1,a1,-1366 # aaaaaaaa <imm12+0xaaaaafda>
80001564:	00b56633          	or	a2,a0,a1
80001568:	1ec32e23          	sw	a2,508(t1)
8000156c:	aaaab437          	lui	s0,0xaaaab
80001570:	aaa40413          	addi	s0,s0,-1366 # aaaaaaaa <imm12+0xaaaaafda>
80001574:	00c40463          	beq	s0,a2,8000157c <inst_147>
80001578:	6cd0306f          	j	80005444 <bad_trap>

8000157c <inst_147>:
8000157c:	aaaab537          	lui	a0,0xaaaab
80001580:	aaa50513          	addi	a0,a0,-1366 # aaaaaaaa <imm12+0xaaaaafda>
80001584:	00500593          	li	a1,5
80001588:	00b56633          	or	a2,a0,a1
8000158c:	20c32023          	sw	a2,512(t1)
80001590:	aaaab437          	lui	s0,0xaaaab
80001594:	aaf40413          	addi	s0,s0,-1361 # aaaaaaaf <imm12+0xaaaaafdf>
80001598:	00c40463          	beq	s0,a2,800015a0 <inst_148>
8000159c:	6a90306f          	j	80005444 <bad_trap>

800015a0 <inst_148>:
800015a0:	aaaab537          	lui	a0,0xaaaab
800015a4:	aaa50513          	addi	a0,a0,-1366 # aaaaaaaa <imm12+0xaaaaafda>
800015a8:	333335b7          	lui	a1,0x33333
800015ac:	33358593          	addi	a1,a1,819 # 33333333 <offset+0x33333253>
800015b0:	00b56633          	or	a2,a0,a1
800015b4:	20c32223          	sw	a2,516(t1)
800015b8:	bbbbc437          	lui	s0,0xbbbbc
800015bc:	bbb40413          	addi	s0,s0,-1093 # bbbbbbbb <imm12+0xbbbbc0eb>
800015c0:	00c40463          	beq	s0,a2,800015c8 <inst_149>
800015c4:	6810306f          	j	80005444 <bad_trap>

800015c8 <inst_149>:
800015c8:	aaaab537          	lui	a0,0xaaaab
800015cc:	aaa50513          	addi	a0,a0,-1366 # aaaaaaaa <imm12+0xaaaaafda>
800015d0:	666665b7          	lui	a1,0x66666
800015d4:	66658593          	addi	a1,a1,1638 # 66666666 <absimm+0x21374137>
800015d8:	00b56633          	or	a2,a0,a1
800015dc:	20c32423          	sw	a2,520(t1)
800015e0:	eeeef437          	lui	s0,0xeeeef
800015e4:	eee40413          	addi	s0,s0,-274 # eeeeeeee <imm12+0xeeeef41e>
800015e8:	00c40463          	beq	s0,a2,800015f0 <inst_150>
800015ec:	6590306f          	j	80005444 <bad_trap>

800015f0 <inst_150>:
800015f0:	aaaab537          	lui	a0,0xaaaab
800015f4:	aaa50513          	addi	a0,a0,-1366 # aaaaaaaa <imm12+0xaaaaafda>
800015f8:	ffff55b7          	lui	a1,0xffff5
800015fc:	afc58593          	addi	a1,a1,-1284 # ffff4afc <imm12+0xffff502c>
80001600:	00b56633          	or	a2,a0,a1
80001604:	20c32623          	sw	a2,524(t1)
80001608:	fffff437          	lui	s0,0xfffff
8000160c:	afe40413          	addi	s0,s0,-1282 # ffffeafe <imm12+0xfffff02e>
80001610:	00c40463          	beq	s0,a2,80001618 <inst_151>
80001614:	6310306f          	j	80005444 <bad_trap>

80001618 <inst_151>:
80001618:	aaaab537          	lui	a0,0xaaaab
8000161c:	aaa50513          	addi	a0,a0,-1366 # aaaaaaaa <imm12+0xaaaaafda>
80001620:	0000b5b7          	lui	a1,0xb
80001624:	50458593          	addi	a1,a1,1284 # b504 <offset+0xb424>
80001628:	00b56633          	or	a2,a0,a1
8000162c:	20c32823          	sw	a2,528(t1)
80001630:	aaaac437          	lui	s0,0xaaaac
80001634:	fae40413          	addi	s0,s0,-82 # aaaabfae <imm12+0xaaaac4de>
80001638:	00c40463          	beq	s0,a2,80001640 <inst_152>
8000163c:	6090306f          	j	80005444 <bad_trap>

80001640 <inst_152>:
80001640:	aaaab537          	lui	a0,0xaaaab
80001644:	aaa50513          	addi	a0,a0,-1366 # aaaaaaaa <imm12+0xaaaaafda>
80001648:	00200593          	li	a1,2
8000164c:	00b56633          	or	a2,a0,a1
80001650:	20c32a23          	sw	a2,532(t1)
80001654:	aaaab437          	lui	s0,0xaaaab
80001658:	aaa40413          	addi	s0,s0,-1366 # aaaaaaaa <imm12+0xaaaaafda>
8000165c:	00c40463          	beq	s0,a2,80001664 <inst_153>
80001660:	5e50306f          	j	80005444 <bad_trap>

80001664 <inst_153>:
80001664:	aaaab537          	lui	a0,0xaaaab
80001668:	aaa50513          	addi	a0,a0,-1366 # aaaaaaaa <imm12+0xaaaaafda>
8000166c:	555555b7          	lui	a1,0x55555
80001670:	55458593          	addi	a1,a1,1364 # 55555554 <absimm+0x10263025>
80001674:	00b56633          	or	a2,a0,a1
80001678:	20c32c23          	sw	a2,536(t1)
8000167c:	ffe00413          	li	s0,-2
80001680:	00c40463          	beq	s0,a2,80001688 <inst_154>
80001684:	5c10306f          	j	80005444 <bad_trap>

80001688 <inst_154>:
80001688:	aaaab537          	lui	a0,0xaaaab
8000168c:	aaa50513          	addi	a0,a0,-1366 # aaaaaaaa <imm12+0xaaaaafda>
80001690:	00000593          	li	a1,0
80001694:	00b56633          	or	a2,a0,a1
80001698:	20c32e23          	sw	a2,540(t1)
8000169c:	aaaab437          	lui	s0,0xaaaab
800016a0:	aaa40413          	addi	s0,s0,-1366 # aaaaaaaa <imm12+0xaaaaafda>
800016a4:	00c40463          	beq	s0,a2,800016ac <inst_155>
800016a8:	59d0306f          	j	80005444 <bad_trap>

800016ac <inst_155>:
800016ac:	aaaab537          	lui	a0,0xaaaab
800016b0:	aaa50513          	addi	a0,a0,-1366 # aaaaaaaa <imm12+0xaaaaafda>
800016b4:	00400593          	li	a1,4
800016b8:	00b56633          	or	a2,a0,a1
800016bc:	22c32023          	sw	a2,544(t1)
800016c0:	aaaab437          	lui	s0,0xaaaab
800016c4:	aae40413          	addi	s0,s0,-1362 # aaaaaaae <imm12+0xaaaaafde>
800016c8:	00c40463          	beq	s0,a2,800016d0 <inst_156>
800016cc:	5790306f          	j	80005444 <bad_trap>

800016d0 <inst_156>:
800016d0:	aaaab537          	lui	a0,0xaaaab
800016d4:	aaa50513          	addi	a0,a0,-1366 # aaaaaaaa <imm12+0xaaaaafda>
800016d8:	333335b7          	lui	a1,0x33333
800016dc:	33258593          	addi	a1,a1,818 # 33333332 <offset+0x33333252>
800016e0:	00b56633          	or	a2,a0,a1
800016e4:	22c32223          	sw	a2,548(t1)
800016e8:	bbbbc437          	lui	s0,0xbbbbc
800016ec:	bba40413          	addi	s0,s0,-1094 # bbbbbbba <imm12+0xbbbbc0ea>
800016f0:	00c40463          	beq	s0,a2,800016f8 <inst_157>
800016f4:	5510306f          	j	80005444 <bad_trap>

800016f8 <inst_157>:
800016f8:	aaaab537          	lui	a0,0xaaaab
800016fc:	aaa50513          	addi	a0,a0,-1366 # aaaaaaaa <imm12+0xaaaaafda>
80001700:	666665b7          	lui	a1,0x66666
80001704:	66558593          	addi	a1,a1,1637 # 66666665 <absimm+0x21374136>
80001708:	00b56633          	or	a2,a0,a1
8000170c:	22c32423          	sw	a2,552(t1)
80001710:	eeeef437          	lui	s0,0xeeeef
80001714:	eef40413          	addi	s0,s0,-273 # eeeeeeef <imm12+0xeeeef41f>
80001718:	00c40463          	beq	s0,a2,80001720 <inst_158>
8000171c:	5290306f          	j	80005444 <bad_trap>

80001720 <inst_158>:
80001720:	aaaab537          	lui	a0,0xaaaab
80001724:	aaa50513          	addi	a0,a0,-1366 # aaaaaaaa <imm12+0xaaaaafda>
80001728:	0000b5b7          	lui	a1,0xb
8000172c:	50358593          	addi	a1,a1,1283 # b503 <offset+0xb423>
80001730:	00b56633          	or	a2,a0,a1
80001734:	22c32623          	sw	a2,556(t1)
80001738:	aaaac437          	lui	s0,0xaaaac
8000173c:	fab40413          	addi	s0,s0,-85 # aaaabfab <imm12+0xaaaac4db>
80001740:	00c40463          	beq	s0,a2,80001748 <inst_159>
80001744:	5010306f          	j	80005444 <bad_trap>

80001748 <inst_159>:
80001748:	aaaab537          	lui	a0,0xaaaab
8000174c:	aaa50513          	addi	a0,a0,-1366 # aaaaaaaa <imm12+0xaaaaafda>
80001750:	555555b7          	lui	a1,0x55555
80001754:	55658593          	addi	a1,a1,1366 # 55555556 <absimm+0x10263027>
80001758:	00b56633          	or	a2,a0,a1
8000175c:	22c32823          	sw	a2,560(t1)
80001760:	ffe00413          	li	s0,-2
80001764:	00c40463          	beq	s0,a2,8000176c <inst_160>
80001768:	4dd0306f          	j	80005444 <bad_trap>

8000176c <inst_160>:
8000176c:	aaaab537          	lui	a0,0xaaaab
80001770:	aaa50513          	addi	a0,a0,-1366 # aaaaaaaa <imm12+0xaaaaafda>
80001774:	aaaab5b7          	lui	a1,0xaaaab
80001778:	aab58593          	addi	a1,a1,-1365 # aaaaaaab <imm12+0xaaaaafdb>
8000177c:	00b56633          	or	a2,a0,a1
80001780:	22c32a23          	sw	a2,564(t1)
80001784:	aaaab437          	lui	s0,0xaaaab
80001788:	aab40413          	addi	s0,s0,-1365 # aaaaaaab <imm12+0xaaaaafdb>
8000178c:	00c40463          	beq	s0,a2,80001794 <inst_161>
80001790:	4b50306f          	j	80005444 <bad_trap>

80001794 <inst_161>:
80001794:	aaaab537          	lui	a0,0xaaaab
80001798:	aaa50513          	addi	a0,a0,-1366 # aaaaaaaa <imm12+0xaaaaafda>
8000179c:	00600593          	li	a1,6
800017a0:	00b56633          	or	a2,a0,a1
800017a4:	22c32c23          	sw	a2,568(t1)
800017a8:	aaaab437          	lui	s0,0xaaaab
800017ac:	aae40413          	addi	s0,s0,-1362 # aaaaaaae <imm12+0xaaaaafde>
800017b0:	00c40463          	beq	s0,a2,800017b8 <inst_162>
800017b4:	4910306f          	j	80005444 <bad_trap>

800017b8 <inst_162>:
800017b8:	aaaab537          	lui	a0,0xaaaab
800017bc:	aaa50513          	addi	a0,a0,-1366 # aaaaaaaa <imm12+0xaaaaafda>
800017c0:	333335b7          	lui	a1,0x33333
800017c4:	33458593          	addi	a1,a1,820 # 33333334 <offset+0x33333254>
800017c8:	00b56633          	or	a2,a0,a1
800017cc:	22c32e23          	sw	a2,572(t1)
800017d0:	bbbbc437          	lui	s0,0xbbbbc
800017d4:	bbe40413          	addi	s0,s0,-1090 # bbbbbbbe <imm12+0xbbbbc0ee>
800017d8:	00c40463          	beq	s0,a2,800017e0 <inst_163>
800017dc:	4690306f          	j	80005444 <bad_trap>

800017e0 <inst_163>:
800017e0:	aaaab537          	lui	a0,0xaaaab
800017e4:	aaa50513          	addi	a0,a0,-1366 # aaaaaaaa <imm12+0xaaaaafda>
800017e8:	666665b7          	lui	a1,0x66666
800017ec:	66758593          	addi	a1,a1,1639 # 66666667 <absimm+0x21374138>
800017f0:	00b56633          	or	a2,a0,a1
800017f4:	24c32023          	sw	a2,576(t1)
800017f8:	eeeef437          	lui	s0,0xeeeef
800017fc:	eef40413          	addi	s0,s0,-273 # eeeeeeef <imm12+0xeeeef41f>
80001800:	00c40463          	beq	s0,a2,80001808 <inst_164>
80001804:	4410306f          	j	80005444 <bad_trap>

80001808 <inst_164>:
80001808:	aaaab537          	lui	a0,0xaaaab
8000180c:	aaa50513          	addi	a0,a0,-1366 # aaaaaaaa <imm12+0xaaaaafda>
80001810:	ffff55b7          	lui	a1,0xffff5
80001814:	afd58593          	addi	a1,a1,-1283 # ffff4afd <imm12+0xffff502d>
80001818:	00b56633          	or	a2,a0,a1
8000181c:	24c32223          	sw	a2,580(t1)
80001820:	fffff437          	lui	s0,0xfffff
80001824:	aff40413          	addi	s0,s0,-1281 # ffffeaff <imm12+0xfffff02f>
80001828:	00c40463          	beq	s0,a2,80001830 <inst_165>
8000182c:	4190306f          	j	80005444 <bad_trap>

80001830 <inst_165>:
80001830:	aaaab537          	lui	a0,0xaaaab
80001834:	aaa50513          	addi	a0,a0,-1366 # aaaaaaaa <imm12+0xaaaaafda>
80001838:	0000b5b7          	lui	a1,0xb
8000183c:	50558593          	addi	a1,a1,1285 # b505 <offset+0xb425>
80001840:	00b56633          	or	a2,a0,a1
80001844:	24c32423          	sw	a2,584(t1)
80001848:	aaaac437          	lui	s0,0xaaaac
8000184c:	faf40413          	addi	s0,s0,-81 # aaaabfaf <imm12+0xaaaac4df>
80001850:	00c40463          	beq	s0,a2,80001858 <inst_166>
80001854:	3f10306f          	j	80005444 <bad_trap>

80001858 <inst_166>:
80001858:	00500513          	li	a0,5
8000185c:	00300593          	li	a1,3
80001860:	00b56633          	or	a2,a0,a1
80001864:	24c32623          	sw	a2,588(t1)
80001868:	00700413          	li	s0,7
8000186c:	00c40463          	beq	s0,a2,80001874 <inst_167>
80001870:	3d50306f          	j	80005444 <bad_trap>

80001874 <inst_167>:
80001874:	00500513          	li	a0,5
80001878:	555555b7          	lui	a1,0x55555
8000187c:	55558593          	addi	a1,a1,1365 # 55555555 <absimm+0x10263026>
80001880:	00b56633          	or	a2,a0,a1
80001884:	24c32823          	sw	a2,592(t1)
80001888:	55555437          	lui	s0,0x55555
8000188c:	55540413          	addi	s0,s0,1365 # 55555555 <absimm+0x10263026>
80001890:	00c40463          	beq	s0,a2,80001898 <inst_168>
80001894:	3b10306f          	j	80005444 <bad_trap>

80001898 <inst_168>:
80001898:	00500513          	li	a0,5
8000189c:	aaaab5b7          	lui	a1,0xaaaab
800018a0:	aaa58593          	addi	a1,a1,-1366 # aaaaaaaa <imm12+0xaaaaafda>
800018a4:	00b56633          	or	a2,a0,a1
800018a8:	24c32a23          	sw	a2,596(t1)
800018ac:	aaaab437          	lui	s0,0xaaaab
800018b0:	aaf40413          	addi	s0,s0,-1361 # aaaaaaaf <imm12+0xaaaaafdf>
800018b4:	00c40463          	beq	s0,a2,800018bc <inst_169>
800018b8:	38d0306f          	j	80005444 <bad_trap>

800018bc <inst_169>:
800018bc:	00500513          	li	a0,5
800018c0:	00500593          	li	a1,5
800018c4:	00b56633          	or	a2,a0,a1
800018c8:	24c32c23          	sw	a2,600(t1)
800018cc:	00500413          	li	s0,5
800018d0:	00c40463          	beq	s0,a2,800018d8 <inst_170>
800018d4:	3710306f          	j	80005444 <bad_trap>

800018d8 <inst_170>:
800018d8:	00500513          	li	a0,5
800018dc:	333335b7          	lui	a1,0x33333
800018e0:	33358593          	addi	a1,a1,819 # 33333333 <offset+0x33333253>
800018e4:	00b56633          	or	a2,a0,a1
800018e8:	24c32e23          	sw	a2,604(t1)
800018ec:	33333437          	lui	s0,0x33333
800018f0:	33740413          	addi	s0,s0,823 # 33333337 <offset+0x33333257>
800018f4:	00c40463          	beq	s0,a2,800018fc <inst_171>
800018f8:	34d0306f          	j	80005444 <bad_trap>

800018fc <inst_171>:
800018fc:	00500513          	li	a0,5
80001900:	666665b7          	lui	a1,0x66666
80001904:	66658593          	addi	a1,a1,1638 # 66666666 <absimm+0x21374137>
80001908:	00b56633          	or	a2,a0,a1
8000190c:	26c32023          	sw	a2,608(t1)
80001910:	66666437          	lui	s0,0x66666
80001914:	66740413          	addi	s0,s0,1639 # 66666667 <absimm+0x21374138>
80001918:	00c40463          	beq	s0,a2,80001920 <inst_172>
8000191c:	3290306f          	j	80005444 <bad_trap>

80001920 <inst_172>:
80001920:	00500513          	li	a0,5
80001924:	ffff55b7          	lui	a1,0xffff5
80001928:	afc58593          	addi	a1,a1,-1284 # ffff4afc <imm12+0xffff502c>
8000192c:	00b56633          	or	a2,a0,a1
80001930:	26c32223          	sw	a2,612(t1)
80001934:	ffff5437          	lui	s0,0xffff5
80001938:	afd40413          	addi	s0,s0,-1283 # ffff4afd <imm12+0xffff502d>
8000193c:	00c40463          	beq	s0,a2,80001944 <inst_173>
80001940:	3050306f          	j	80005444 <bad_trap>

80001944 <inst_173>:
80001944:	00500513          	li	a0,5
80001948:	0000b5b7          	lui	a1,0xb
8000194c:	50458593          	addi	a1,a1,1284 # b504 <offset+0xb424>
80001950:	00b56633          	or	a2,a0,a1
80001954:	26c32423          	sw	a2,616(t1)
80001958:	0000b437          	lui	s0,0xb
8000195c:	50540413          	addi	s0,s0,1285 # b505 <offset+0xb425>
80001960:	00c40463          	beq	s0,a2,80001968 <inst_174>
80001964:	2e10306f          	j	80005444 <bad_trap>

80001968 <inst_174>:
80001968:	00500513          	li	a0,5
8000196c:	00200593          	li	a1,2
80001970:	00b56633          	or	a2,a0,a1
80001974:	26c32623          	sw	a2,620(t1)
80001978:	00700413          	li	s0,7
8000197c:	00c40463          	beq	s0,a2,80001984 <inst_175>
80001980:	2c50306f          	j	80005444 <bad_trap>

80001984 <inst_175>:
80001984:	00500513          	li	a0,5
80001988:	555555b7          	lui	a1,0x55555
8000198c:	55458593          	addi	a1,a1,1364 # 55555554 <absimm+0x10263025>
80001990:	00b56633          	or	a2,a0,a1
80001994:	26c32823          	sw	a2,624(t1)
80001998:	55555437          	lui	s0,0x55555
8000199c:	55540413          	addi	s0,s0,1365 # 55555555 <absimm+0x10263026>
800019a0:	00c40463          	beq	s0,a2,800019a8 <inst_176>
800019a4:	2a10306f          	j	80005444 <bad_trap>

800019a8 <inst_176>:
800019a8:	00500513          	li	a0,5
800019ac:	00000593          	li	a1,0
800019b0:	00b56633          	or	a2,a0,a1
800019b4:	26c32a23          	sw	a2,628(t1)
800019b8:	00500413          	li	s0,5
800019bc:	00c40463          	beq	s0,a2,800019c4 <inst_177>
800019c0:	2850306f          	j	80005444 <bad_trap>

800019c4 <inst_177>:
800019c4:	00500513          	li	a0,5
800019c8:	00400593          	li	a1,4
800019cc:	00b56633          	or	a2,a0,a1
800019d0:	26c32c23          	sw	a2,632(t1)
800019d4:	00500413          	li	s0,5
800019d8:	00c40463          	beq	s0,a2,800019e0 <inst_178>
800019dc:	2690306f          	j	80005444 <bad_trap>

800019e0 <inst_178>:
800019e0:	00500513          	li	a0,5
800019e4:	333335b7          	lui	a1,0x33333
800019e8:	33258593          	addi	a1,a1,818 # 33333332 <offset+0x33333252>
800019ec:	00b56633          	or	a2,a0,a1
800019f0:	26c32e23          	sw	a2,636(t1)
800019f4:	33333437          	lui	s0,0x33333
800019f8:	33740413          	addi	s0,s0,823 # 33333337 <offset+0x33333257>
800019fc:	00c40463          	beq	s0,a2,80001a04 <inst_179>
80001a00:	2450306f          	j	80005444 <bad_trap>

80001a04 <inst_179>:
80001a04:	00500513          	li	a0,5
80001a08:	666665b7          	lui	a1,0x66666
80001a0c:	66558593          	addi	a1,a1,1637 # 66666665 <absimm+0x21374136>
80001a10:	00b56633          	or	a2,a0,a1
80001a14:	28c32023          	sw	a2,640(t1)
80001a18:	66666437          	lui	s0,0x66666
80001a1c:	66540413          	addi	s0,s0,1637 # 66666665 <absimm+0x21374136>
80001a20:	00c40463          	beq	s0,a2,80001a28 <inst_180>
80001a24:	2210306f          	j	80005444 <bad_trap>

80001a28 <inst_180>:
80001a28:	00500513          	li	a0,5
80001a2c:	0000b5b7          	lui	a1,0xb
80001a30:	50358593          	addi	a1,a1,1283 # b503 <offset+0xb423>
80001a34:	00b56633          	or	a2,a0,a1
80001a38:	28c32223          	sw	a2,644(t1)
80001a3c:	0000b437          	lui	s0,0xb
80001a40:	50740413          	addi	s0,s0,1287 # b507 <offset+0xb427>
80001a44:	00c40463          	beq	s0,a2,80001a4c <inst_181>
80001a48:	1fd0306f          	j	80005444 <bad_trap>

80001a4c <inst_181>:
80001a4c:	00500513          	li	a0,5
80001a50:	555555b7          	lui	a1,0x55555
80001a54:	55658593          	addi	a1,a1,1366 # 55555556 <absimm+0x10263027>
80001a58:	00b56633          	or	a2,a0,a1
80001a5c:	28c32423          	sw	a2,648(t1)
80001a60:	55555437          	lui	s0,0x55555
80001a64:	55740413          	addi	s0,s0,1367 # 55555557 <absimm+0x10263028>
80001a68:	00c40463          	beq	s0,a2,80001a70 <inst_182>
80001a6c:	1d90306f          	j	80005444 <bad_trap>

80001a70 <inst_182>:
80001a70:	00500513          	li	a0,5
80001a74:	aaaab5b7          	lui	a1,0xaaaab
80001a78:	aab58593          	addi	a1,a1,-1365 # aaaaaaab <imm12+0xaaaaafdb>
80001a7c:	00b56633          	or	a2,a0,a1
80001a80:	28c32623          	sw	a2,652(t1)
80001a84:	aaaab437          	lui	s0,0xaaaab
80001a88:	aaf40413          	addi	s0,s0,-1361 # aaaaaaaf <imm12+0xaaaaafdf>
80001a8c:	00c40463          	beq	s0,a2,80001a94 <inst_183>
80001a90:	1b50306f          	j	80005444 <bad_trap>

80001a94 <inst_183>:
80001a94:	00500513          	li	a0,5
80001a98:	00600593          	li	a1,6
80001a9c:	00b56633          	or	a2,a0,a1
80001aa0:	28c32823          	sw	a2,656(t1)
80001aa4:	00700413          	li	s0,7
80001aa8:	00c40463          	beq	s0,a2,80001ab0 <inst_184>
80001aac:	1990306f          	j	80005444 <bad_trap>

80001ab0 <inst_184>:
80001ab0:	00500513          	li	a0,5
80001ab4:	333335b7          	lui	a1,0x33333
80001ab8:	33458593          	addi	a1,a1,820 # 33333334 <offset+0x33333254>
80001abc:	00b56633          	or	a2,a0,a1
80001ac0:	28c32a23          	sw	a2,660(t1)
80001ac4:	33333437          	lui	s0,0x33333
80001ac8:	33540413          	addi	s0,s0,821 # 33333335 <offset+0x33333255>
80001acc:	00c40463          	beq	s0,a2,80001ad4 <inst_185>
80001ad0:	1750306f          	j	80005444 <bad_trap>

80001ad4 <inst_185>:
80001ad4:	00500513          	li	a0,5
80001ad8:	666665b7          	lui	a1,0x66666
80001adc:	66758593          	addi	a1,a1,1639 # 66666667 <absimm+0x21374138>
80001ae0:	00b56633          	or	a2,a0,a1
80001ae4:	28c32c23          	sw	a2,664(t1)
80001ae8:	66666437          	lui	s0,0x66666
80001aec:	66740413          	addi	s0,s0,1639 # 66666667 <absimm+0x21374138>
80001af0:	00c40463          	beq	s0,a2,80001af8 <inst_186>
80001af4:	1510306f          	j	80005444 <bad_trap>

80001af8 <inst_186>:
80001af8:	00500513          	li	a0,5
80001afc:	ffff55b7          	lui	a1,0xffff5
80001b00:	afd58593          	addi	a1,a1,-1283 # ffff4afd <imm12+0xffff502d>
80001b04:	00b56633          	or	a2,a0,a1
80001b08:	28c32e23          	sw	a2,668(t1)
80001b0c:	ffff5437          	lui	s0,0xffff5
80001b10:	afd40413          	addi	s0,s0,-1283 # ffff4afd <imm12+0xffff502d>
80001b14:	00c40463          	beq	s0,a2,80001b1c <inst_187>
80001b18:	12d0306f          	j	80005444 <bad_trap>

80001b1c <inst_187>:
80001b1c:	00500513          	li	a0,5
80001b20:	0000b5b7          	lui	a1,0xb
80001b24:	50558593          	addi	a1,a1,1285 # b505 <offset+0xb425>
80001b28:	00b56633          	or	a2,a0,a1
80001b2c:	2ac32023          	sw	a2,672(t1)
80001b30:	0000b437          	lui	s0,0xb
80001b34:	50540413          	addi	s0,s0,1285 # b505 <offset+0xb425>
80001b38:	00c40463          	beq	s0,a2,80001b40 <inst_188>
80001b3c:	1090306f          	j	80005444 <bad_trap>

80001b40 <inst_188>:
80001b40:	33333537          	lui	a0,0x33333
80001b44:	33350513          	addi	a0,a0,819 # 33333333 <offset+0x33333253>
80001b48:	00300593          	li	a1,3
80001b4c:	00b56633          	or	a2,a0,a1
80001b50:	2ac32223          	sw	a2,676(t1)
80001b54:	33333437          	lui	s0,0x33333
80001b58:	33340413          	addi	s0,s0,819 # 33333333 <offset+0x33333253>
80001b5c:	00c40463          	beq	s0,a2,80001b64 <inst_189>
80001b60:	0e50306f          	j	80005444 <bad_trap>

80001b64 <inst_189>:
80001b64:	33333537          	lui	a0,0x33333
80001b68:	33350513          	addi	a0,a0,819 # 33333333 <offset+0x33333253>
80001b6c:	555555b7          	lui	a1,0x55555
80001b70:	55558593          	addi	a1,a1,1365 # 55555555 <absimm+0x10263026>
80001b74:	00b56633          	or	a2,a0,a1
80001b78:	2ac32423          	sw	a2,680(t1)
80001b7c:	77777437          	lui	s0,0x77777
80001b80:	77740413          	addi	s0,s0,1911 # 77777777 <absimm+0x32485248>
80001b84:	00c40463          	beq	s0,a2,80001b8c <inst_190>
80001b88:	0bd0306f          	j	80005444 <bad_trap>

80001b8c <inst_190>:
80001b8c:	33333537          	lui	a0,0x33333
80001b90:	33350513          	addi	a0,a0,819 # 33333333 <offset+0x33333253>
80001b94:	aaaab5b7          	lui	a1,0xaaaab
80001b98:	aaa58593          	addi	a1,a1,-1366 # aaaaaaaa <imm12+0xaaaaafda>
80001b9c:	00b56633          	or	a2,a0,a1
80001ba0:	2ac32623          	sw	a2,684(t1)
80001ba4:	bbbbc437          	lui	s0,0xbbbbc
80001ba8:	bbb40413          	addi	s0,s0,-1093 # bbbbbbbb <imm12+0xbbbbc0eb>
80001bac:	00c40463          	beq	s0,a2,80001bb4 <inst_191>
80001bb0:	0950306f          	j	80005444 <bad_trap>

80001bb4 <inst_191>:
80001bb4:	33333537          	lui	a0,0x33333
80001bb8:	33350513          	addi	a0,a0,819 # 33333333 <offset+0x33333253>
80001bbc:	00500593          	li	a1,5
80001bc0:	00b56633          	or	a2,a0,a1
80001bc4:	2ac32823          	sw	a2,688(t1)
80001bc8:	33333437          	lui	s0,0x33333
80001bcc:	33740413          	addi	s0,s0,823 # 33333337 <offset+0x33333257>
80001bd0:	00c40463          	beq	s0,a2,80001bd8 <inst_192>
80001bd4:	0710306f          	j	80005444 <bad_trap>

80001bd8 <inst_192>:
80001bd8:	33333537          	lui	a0,0x33333
80001bdc:	33350513          	addi	a0,a0,819 # 33333333 <offset+0x33333253>
80001be0:	333335b7          	lui	a1,0x33333
80001be4:	33358593          	addi	a1,a1,819 # 33333333 <offset+0x33333253>
80001be8:	00b56633          	or	a2,a0,a1
80001bec:	2ac32a23          	sw	a2,692(t1)
80001bf0:	33333437          	lui	s0,0x33333
80001bf4:	33340413          	addi	s0,s0,819 # 33333333 <offset+0x33333253>
80001bf8:	00c40463          	beq	s0,a2,80001c00 <inst_193>
80001bfc:	0490306f          	j	80005444 <bad_trap>

80001c00 <inst_193>:
80001c00:	33333537          	lui	a0,0x33333
80001c04:	33350513          	addi	a0,a0,819 # 33333333 <offset+0x33333253>
80001c08:	666665b7          	lui	a1,0x66666
80001c0c:	66658593          	addi	a1,a1,1638 # 66666666 <absimm+0x21374137>
80001c10:	00b56633          	or	a2,a0,a1
80001c14:	2ac32c23          	sw	a2,696(t1)
80001c18:	77777437          	lui	s0,0x77777
80001c1c:	77740413          	addi	s0,s0,1911 # 77777777 <absimm+0x32485248>
80001c20:	00c40463          	beq	s0,a2,80001c28 <inst_194>
80001c24:	0210306f          	j	80005444 <bad_trap>

80001c28 <inst_194>:
80001c28:	33333537          	lui	a0,0x33333
80001c2c:	33350513          	addi	a0,a0,819 # 33333333 <offset+0x33333253>
80001c30:	ffff55b7          	lui	a1,0xffff5
80001c34:	afc58593          	addi	a1,a1,-1284 # ffff4afc <imm12+0xffff502c>
80001c38:	00b56633          	or	a2,a0,a1
80001c3c:	2ac32e23          	sw	a2,700(t1)
80001c40:	ffff8437          	lui	s0,0xffff8
80001c44:	bff40413          	addi	s0,s0,-1025 # ffff7bff <imm12+0xffff812f>
80001c48:	00c40463          	beq	s0,a2,80001c50 <inst_195>
80001c4c:	7f80306f          	j	80005444 <bad_trap>

80001c50 <inst_195>:
80001c50:	33333537          	lui	a0,0x33333
80001c54:	33350513          	addi	a0,a0,819 # 33333333 <offset+0x33333253>
80001c58:	0000b5b7          	lui	a1,0xb
80001c5c:	50458593          	addi	a1,a1,1284 # b504 <offset+0xb424>
80001c60:	00b56633          	or	a2,a0,a1
80001c64:	2cc32023          	sw	a2,704(t1)
80001c68:	3333b437          	lui	s0,0x3333b
80001c6c:	73740413          	addi	s0,s0,1847 # 3333b737 <offset+0x3333b657>
80001c70:	00c40463          	beq	s0,a2,80001c78 <inst_196>
80001c74:	7d00306f          	j	80005444 <bad_trap>

80001c78 <inst_196>:
80001c78:	33333537          	lui	a0,0x33333
80001c7c:	33350513          	addi	a0,a0,819 # 33333333 <offset+0x33333253>
80001c80:	00200593          	li	a1,2
80001c84:	00b56633          	or	a2,a0,a1
80001c88:	2cc32223          	sw	a2,708(t1)
80001c8c:	33333437          	lui	s0,0x33333
80001c90:	33340413          	addi	s0,s0,819 # 33333333 <offset+0x33333253>
80001c94:	00c40463          	beq	s0,a2,80001c9c <inst_197>
80001c98:	7ac0306f          	j	80005444 <bad_trap>

80001c9c <inst_197>:
80001c9c:	33333537          	lui	a0,0x33333
80001ca0:	33350513          	addi	a0,a0,819 # 33333333 <offset+0x33333253>
80001ca4:	555555b7          	lui	a1,0x55555
80001ca8:	55458593          	addi	a1,a1,1364 # 55555554 <absimm+0x10263025>
80001cac:	00b56633          	or	a2,a0,a1
80001cb0:	2cc32423          	sw	a2,712(t1)
80001cb4:	77777437          	lui	s0,0x77777
80001cb8:	77740413          	addi	s0,s0,1911 # 77777777 <absimm+0x32485248>
80001cbc:	00c40463          	beq	s0,a2,80001cc4 <inst_198>
80001cc0:	7840306f          	j	80005444 <bad_trap>

80001cc4 <inst_198>:
80001cc4:	33333537          	lui	a0,0x33333
80001cc8:	33350513          	addi	a0,a0,819 # 33333333 <offset+0x33333253>
80001ccc:	00000593          	li	a1,0
80001cd0:	00b56633          	or	a2,a0,a1
80001cd4:	2cc32623          	sw	a2,716(t1)
80001cd8:	33333437          	lui	s0,0x33333
80001cdc:	33340413          	addi	s0,s0,819 # 33333333 <offset+0x33333253>
80001ce0:	00c40463          	beq	s0,a2,80001ce8 <inst_199>
80001ce4:	7600306f          	j	80005444 <bad_trap>

80001ce8 <inst_199>:
80001ce8:	33333537          	lui	a0,0x33333
80001cec:	33350513          	addi	a0,a0,819 # 33333333 <offset+0x33333253>
80001cf0:	00400593          	li	a1,4
80001cf4:	00b56633          	or	a2,a0,a1
80001cf8:	2cc32823          	sw	a2,720(t1)
80001cfc:	33333437          	lui	s0,0x33333
80001d00:	33740413          	addi	s0,s0,823 # 33333337 <offset+0x33333257>
80001d04:	00c40463          	beq	s0,a2,80001d0c <inst_200>
80001d08:	73c0306f          	j	80005444 <bad_trap>

80001d0c <inst_200>:
80001d0c:	33333537          	lui	a0,0x33333
80001d10:	33350513          	addi	a0,a0,819 # 33333333 <offset+0x33333253>
80001d14:	333335b7          	lui	a1,0x33333
80001d18:	33258593          	addi	a1,a1,818 # 33333332 <offset+0x33333252>
80001d1c:	00b56633          	or	a2,a0,a1
80001d20:	2cc32a23          	sw	a2,724(t1)
80001d24:	33333437          	lui	s0,0x33333
80001d28:	33340413          	addi	s0,s0,819 # 33333333 <offset+0x33333253>
80001d2c:	00c40463          	beq	s0,a2,80001d34 <inst_201>
80001d30:	7140306f          	j	80005444 <bad_trap>

80001d34 <inst_201>:
80001d34:	33333537          	lui	a0,0x33333
80001d38:	33350513          	addi	a0,a0,819 # 33333333 <offset+0x33333253>
80001d3c:	666665b7          	lui	a1,0x66666
80001d40:	66558593          	addi	a1,a1,1637 # 66666665 <absimm+0x21374136>
80001d44:	00b56633          	or	a2,a0,a1
80001d48:	2cc32c23          	sw	a2,728(t1)
80001d4c:	77777437          	lui	s0,0x77777
80001d50:	77740413          	addi	s0,s0,1911 # 77777777 <absimm+0x32485248>
80001d54:	00c40463          	beq	s0,a2,80001d5c <inst_202>
80001d58:	6ec0306f          	j	80005444 <bad_trap>

80001d5c <inst_202>:
80001d5c:	33333537          	lui	a0,0x33333
80001d60:	33350513          	addi	a0,a0,819 # 33333333 <offset+0x33333253>
80001d64:	0000b5b7          	lui	a1,0xb
80001d68:	50358593          	addi	a1,a1,1283 # b503 <offset+0xb423>
80001d6c:	00b56633          	or	a2,a0,a1
80001d70:	2cc32e23          	sw	a2,732(t1)
80001d74:	3333b437          	lui	s0,0x3333b
80001d78:	73340413          	addi	s0,s0,1843 # 3333b733 <offset+0x3333b653>
80001d7c:	00c40463          	beq	s0,a2,80001d84 <inst_203>
80001d80:	6c40306f          	j	80005444 <bad_trap>

80001d84 <inst_203>:
80001d84:	33333537          	lui	a0,0x33333
80001d88:	33350513          	addi	a0,a0,819 # 33333333 <offset+0x33333253>
80001d8c:	555555b7          	lui	a1,0x55555
80001d90:	55658593          	addi	a1,a1,1366 # 55555556 <absimm+0x10263027>
80001d94:	00b56633          	or	a2,a0,a1
80001d98:	2ec32023          	sw	a2,736(t1)
80001d9c:	77777437          	lui	s0,0x77777
80001da0:	77740413          	addi	s0,s0,1911 # 77777777 <absimm+0x32485248>
80001da4:	00c40463          	beq	s0,a2,80001dac <inst_204>
80001da8:	69c0306f          	j	80005444 <bad_trap>

80001dac <inst_204>:
80001dac:	33333537          	lui	a0,0x33333
80001db0:	33350513          	addi	a0,a0,819 # 33333333 <offset+0x33333253>
80001db4:	aaaab5b7          	lui	a1,0xaaaab
80001db8:	aab58593          	addi	a1,a1,-1365 # aaaaaaab <imm12+0xaaaaafdb>
80001dbc:	00b56633          	or	a2,a0,a1
80001dc0:	2ec32223          	sw	a2,740(t1)
80001dc4:	bbbbc437          	lui	s0,0xbbbbc
80001dc8:	bbb40413          	addi	s0,s0,-1093 # bbbbbbbb <imm12+0xbbbbc0eb>
80001dcc:	00c40463          	beq	s0,a2,80001dd4 <inst_205>
80001dd0:	6740306f          	j	80005444 <bad_trap>

80001dd4 <inst_205>:
80001dd4:	33333537          	lui	a0,0x33333
80001dd8:	33350513          	addi	a0,a0,819 # 33333333 <offset+0x33333253>
80001ddc:	00600593          	li	a1,6
80001de0:	00b56633          	or	a2,a0,a1
80001de4:	2ec32423          	sw	a2,744(t1)
80001de8:	33333437          	lui	s0,0x33333
80001dec:	33740413          	addi	s0,s0,823 # 33333337 <offset+0x33333257>
80001df0:	00c40463          	beq	s0,a2,80001df8 <inst_206>
80001df4:	6500306f          	j	80005444 <bad_trap>

80001df8 <inst_206>:
80001df8:	33333537          	lui	a0,0x33333
80001dfc:	33350513          	addi	a0,a0,819 # 33333333 <offset+0x33333253>
80001e00:	333335b7          	lui	a1,0x33333
80001e04:	33458593          	addi	a1,a1,820 # 33333334 <offset+0x33333254>
80001e08:	00b56633          	or	a2,a0,a1
80001e0c:	2ec32623          	sw	a2,748(t1)
80001e10:	33333437          	lui	s0,0x33333
80001e14:	33740413          	addi	s0,s0,823 # 33333337 <offset+0x33333257>
80001e18:	00c40463          	beq	s0,a2,80001e20 <inst_207>
80001e1c:	6280306f          	j	80005444 <bad_trap>

80001e20 <inst_207>:
80001e20:	33333537          	lui	a0,0x33333
80001e24:	33350513          	addi	a0,a0,819 # 33333333 <offset+0x33333253>
80001e28:	666665b7          	lui	a1,0x66666
80001e2c:	66758593          	addi	a1,a1,1639 # 66666667 <absimm+0x21374138>
80001e30:	00b56633          	or	a2,a0,a1
80001e34:	2ec32823          	sw	a2,752(t1)
80001e38:	77777437          	lui	s0,0x77777
80001e3c:	77740413          	addi	s0,s0,1911 # 77777777 <absimm+0x32485248>
80001e40:	00c40463          	beq	s0,a2,80001e48 <inst_208>
80001e44:	6000306f          	j	80005444 <bad_trap>

80001e48 <inst_208>:
80001e48:	33333537          	lui	a0,0x33333
80001e4c:	33350513          	addi	a0,a0,819 # 33333333 <offset+0x33333253>
80001e50:	ffff55b7          	lui	a1,0xffff5
80001e54:	afd58593          	addi	a1,a1,-1283 # ffff4afd <imm12+0xffff502d>
80001e58:	00b56633          	or	a2,a0,a1
80001e5c:	2ec32a23          	sw	a2,756(t1)
80001e60:	ffff8437          	lui	s0,0xffff8
80001e64:	bff40413          	addi	s0,s0,-1025 # ffff7bff <imm12+0xffff812f>
80001e68:	00c40463          	beq	s0,a2,80001e70 <inst_209>
80001e6c:	5d80306f          	j	80005444 <bad_trap>

80001e70 <inst_209>:
80001e70:	33333537          	lui	a0,0x33333
80001e74:	33350513          	addi	a0,a0,819 # 33333333 <offset+0x33333253>
80001e78:	0000b5b7          	lui	a1,0xb
80001e7c:	50558593          	addi	a1,a1,1285 # b505 <offset+0xb425>
80001e80:	00b56633          	or	a2,a0,a1
80001e84:	2ec32c23          	sw	a2,760(t1)
80001e88:	3333b437          	lui	s0,0x3333b
80001e8c:	73740413          	addi	s0,s0,1847 # 3333b737 <offset+0x3333b657>
80001e90:	00c40463          	beq	s0,a2,80001e98 <inst_210>
80001e94:	5b00306f          	j	80005444 <bad_trap>

80001e98 <inst_210>:
80001e98:	66666537          	lui	a0,0x66666
80001e9c:	66650513          	addi	a0,a0,1638 # 66666666 <absimm+0x21374137>
80001ea0:	00300593          	li	a1,3
80001ea4:	00b56633          	or	a2,a0,a1
80001ea8:	2ec32e23          	sw	a2,764(t1)
80001eac:	66666437          	lui	s0,0x66666
80001eb0:	66740413          	addi	s0,s0,1639 # 66666667 <absimm+0x21374138>
80001eb4:	00c40463          	beq	s0,a2,80001ebc <inst_211>
80001eb8:	58c0306f          	j	80005444 <bad_trap>

80001ebc <inst_211>:
80001ebc:	66666537          	lui	a0,0x66666
80001ec0:	66650513          	addi	a0,a0,1638 # 66666666 <absimm+0x21374137>
80001ec4:	555555b7          	lui	a1,0x55555
80001ec8:	55558593          	addi	a1,a1,1365 # 55555555 <absimm+0x10263026>
80001ecc:	00b56633          	or	a2,a0,a1
80001ed0:	30c32023          	sw	a2,768(t1)
80001ed4:	77777437          	lui	s0,0x77777
80001ed8:	77740413          	addi	s0,s0,1911 # 77777777 <absimm+0x32485248>
80001edc:	00c40463          	beq	s0,a2,80001ee4 <inst_212>
80001ee0:	5640306f          	j	80005444 <bad_trap>

80001ee4 <inst_212>:
80001ee4:	66666537          	lui	a0,0x66666
80001ee8:	66650513          	addi	a0,a0,1638 # 66666666 <absimm+0x21374137>
80001eec:	aaaab5b7          	lui	a1,0xaaaab
80001ef0:	aaa58593          	addi	a1,a1,-1366 # aaaaaaaa <imm12+0xaaaaafda>
80001ef4:	00b56633          	or	a2,a0,a1
80001ef8:	30c32223          	sw	a2,772(t1)
80001efc:	eeeef437          	lui	s0,0xeeeef
80001f00:	eee40413          	addi	s0,s0,-274 # eeeeeeee <imm12+0xeeeef41e>
80001f04:	00c40463          	beq	s0,a2,80001f0c <inst_213>
80001f08:	53c0306f          	j	80005444 <bad_trap>

80001f0c <inst_213>:
80001f0c:	66666537          	lui	a0,0x66666
80001f10:	66650513          	addi	a0,a0,1638 # 66666666 <absimm+0x21374137>
80001f14:	00500593          	li	a1,5
80001f18:	00b56633          	or	a2,a0,a1
80001f1c:	30c32423          	sw	a2,776(t1)
80001f20:	66666437          	lui	s0,0x66666
80001f24:	66740413          	addi	s0,s0,1639 # 66666667 <absimm+0x21374138>
80001f28:	00c40463          	beq	s0,a2,80001f30 <inst_214>
80001f2c:	5180306f          	j	80005444 <bad_trap>

80001f30 <inst_214>:
80001f30:	66666537          	lui	a0,0x66666
80001f34:	66650513          	addi	a0,a0,1638 # 66666666 <absimm+0x21374137>
80001f38:	333335b7          	lui	a1,0x33333
80001f3c:	33358593          	addi	a1,a1,819 # 33333333 <offset+0x33333253>
80001f40:	00b56633          	or	a2,a0,a1
80001f44:	30c32623          	sw	a2,780(t1)
80001f48:	77777437          	lui	s0,0x77777
80001f4c:	77740413          	addi	s0,s0,1911 # 77777777 <absimm+0x32485248>
80001f50:	00c40463          	beq	s0,a2,80001f58 <inst_215>
80001f54:	4f00306f          	j	80005444 <bad_trap>

80001f58 <inst_215>:
80001f58:	66666537          	lui	a0,0x66666
80001f5c:	66650513          	addi	a0,a0,1638 # 66666666 <absimm+0x21374137>
80001f60:	666665b7          	lui	a1,0x66666
80001f64:	66658593          	addi	a1,a1,1638 # 66666666 <absimm+0x21374137>
80001f68:	00b56633          	or	a2,a0,a1
80001f6c:	30c32823          	sw	a2,784(t1)
80001f70:	66666437          	lui	s0,0x66666
80001f74:	66640413          	addi	s0,s0,1638 # 66666666 <absimm+0x21374137>
80001f78:	00c40463          	beq	s0,a2,80001f80 <inst_216>
80001f7c:	4c80306f          	j	80005444 <bad_trap>

80001f80 <inst_216>:
80001f80:	66666537          	lui	a0,0x66666
80001f84:	66650513          	addi	a0,a0,1638 # 66666666 <absimm+0x21374137>
80001f88:	ffff55b7          	lui	a1,0xffff5
80001f8c:	afc58593          	addi	a1,a1,-1284 # ffff4afc <imm12+0xffff502c>
80001f90:	00b56633          	or	a2,a0,a1
80001f94:	30c32a23          	sw	a2,788(t1)
80001f98:	ffff7437          	lui	s0,0xffff7
80001f9c:	efe40413          	addi	s0,s0,-258 # ffff6efe <imm12+0xffff742e>
80001fa0:	00c40463          	beq	s0,a2,80001fa8 <inst_217>
80001fa4:	4a00306f          	j	80005444 <bad_trap>

80001fa8 <inst_217>:
80001fa8:	66666537          	lui	a0,0x66666
80001fac:	66650513          	addi	a0,a0,1638 # 66666666 <absimm+0x21374137>
80001fb0:	0000b5b7          	lui	a1,0xb
80001fb4:	50458593          	addi	a1,a1,1284 # b504 <offset+0xb424>
80001fb8:	00b56633          	or	a2,a0,a1
80001fbc:	30c32c23          	sw	a2,792(t1)
80001fc0:	6666f437          	lui	s0,0x6666f
80001fc4:	76640413          	addi	s0,s0,1894 # 6666f766 <absimm+0x2137d237>
80001fc8:	00c40463          	beq	s0,a2,80001fd0 <inst_218>
80001fcc:	4780306f          	j	80005444 <bad_trap>

80001fd0 <inst_218>:
80001fd0:	66666537          	lui	a0,0x66666
80001fd4:	66650513          	addi	a0,a0,1638 # 66666666 <absimm+0x21374137>
80001fd8:	00200593          	li	a1,2
80001fdc:	00b56633          	or	a2,a0,a1
80001fe0:	30c32e23          	sw	a2,796(t1)
80001fe4:	66666437          	lui	s0,0x66666
80001fe8:	66640413          	addi	s0,s0,1638 # 66666666 <absimm+0x21374137>
80001fec:	00c40463          	beq	s0,a2,80001ff4 <inst_219>
80001ff0:	4540306f          	j	80005444 <bad_trap>

80001ff4 <inst_219>:
80001ff4:	66666537          	lui	a0,0x66666
80001ff8:	66650513          	addi	a0,a0,1638 # 66666666 <absimm+0x21374137>
80001ffc:	555555b7          	lui	a1,0x55555
80002000:	55458593          	addi	a1,a1,1364 # 55555554 <absimm+0x10263025>
80002004:	00b56633          	or	a2,a0,a1
80002008:	32c32023          	sw	a2,800(t1)
8000200c:	77777437          	lui	s0,0x77777
80002010:	77640413          	addi	s0,s0,1910 # 77777776 <absimm+0x32485247>
80002014:	00c40463          	beq	s0,a2,8000201c <inst_220>
80002018:	42c0306f          	j	80005444 <bad_trap>

8000201c <inst_220>:
8000201c:	66666537          	lui	a0,0x66666
80002020:	66650513          	addi	a0,a0,1638 # 66666666 <absimm+0x21374137>
80002024:	00000593          	li	a1,0
80002028:	00b56633          	or	a2,a0,a1
8000202c:	32c32223          	sw	a2,804(t1)
80002030:	66666437          	lui	s0,0x66666
80002034:	66640413          	addi	s0,s0,1638 # 66666666 <absimm+0x21374137>
80002038:	00c40463          	beq	s0,a2,80002040 <inst_221>
8000203c:	4080306f          	j	80005444 <bad_trap>

80002040 <inst_221>:
80002040:	66666537          	lui	a0,0x66666
80002044:	66650513          	addi	a0,a0,1638 # 66666666 <absimm+0x21374137>
80002048:	00400593          	li	a1,4
8000204c:	00b56633          	or	a2,a0,a1
80002050:	32c32423          	sw	a2,808(t1)
80002054:	66666437          	lui	s0,0x66666
80002058:	66640413          	addi	s0,s0,1638 # 66666666 <absimm+0x21374137>
8000205c:	00c40463          	beq	s0,a2,80002064 <inst_222>
80002060:	3e40306f          	j	80005444 <bad_trap>

80002064 <inst_222>:
80002064:	66666537          	lui	a0,0x66666
80002068:	66650513          	addi	a0,a0,1638 # 66666666 <absimm+0x21374137>
8000206c:	333335b7          	lui	a1,0x33333
80002070:	33258593          	addi	a1,a1,818 # 33333332 <offset+0x33333252>
80002074:	00b56633          	or	a2,a0,a1
80002078:	32c32623          	sw	a2,812(t1)
8000207c:	77777437          	lui	s0,0x77777
80002080:	77640413          	addi	s0,s0,1910 # 77777776 <absimm+0x32485247>
80002084:	00c40463          	beq	s0,a2,8000208c <inst_223>
80002088:	3bc0306f          	j	80005444 <bad_trap>

8000208c <inst_223>:
8000208c:	66666537          	lui	a0,0x66666
80002090:	66650513          	addi	a0,a0,1638 # 66666666 <absimm+0x21374137>
80002094:	666665b7          	lui	a1,0x66666
80002098:	66558593          	addi	a1,a1,1637 # 66666665 <absimm+0x21374136>
8000209c:	00b56633          	or	a2,a0,a1
800020a0:	32c32823          	sw	a2,816(t1)
800020a4:	66666437          	lui	s0,0x66666
800020a8:	66740413          	addi	s0,s0,1639 # 66666667 <absimm+0x21374138>
800020ac:	00c40463          	beq	s0,a2,800020b4 <inst_224>
800020b0:	3940306f          	j	80005444 <bad_trap>

800020b4 <inst_224>:
800020b4:	66666537          	lui	a0,0x66666
800020b8:	66650513          	addi	a0,a0,1638 # 66666666 <absimm+0x21374137>
800020bc:	0000b5b7          	lui	a1,0xb
800020c0:	50358593          	addi	a1,a1,1283 # b503 <offset+0xb423>
800020c4:	00b56633          	or	a2,a0,a1
800020c8:	32c32a23          	sw	a2,820(t1)
800020cc:	6666f437          	lui	s0,0x6666f
800020d0:	76740413          	addi	s0,s0,1895 # 6666f767 <absimm+0x2137d238>
800020d4:	00c40463          	beq	s0,a2,800020dc <inst_225>
800020d8:	36c0306f          	j	80005444 <bad_trap>

800020dc <inst_225>:
800020dc:	66666537          	lui	a0,0x66666
800020e0:	66650513          	addi	a0,a0,1638 # 66666666 <absimm+0x21374137>
800020e4:	555555b7          	lui	a1,0x55555
800020e8:	55658593          	addi	a1,a1,1366 # 55555556 <absimm+0x10263027>
800020ec:	00b56633          	or	a2,a0,a1
800020f0:	32c32c23          	sw	a2,824(t1)
800020f4:	77777437          	lui	s0,0x77777
800020f8:	77640413          	addi	s0,s0,1910 # 77777776 <absimm+0x32485247>
800020fc:	00c40463          	beq	s0,a2,80002104 <inst_226>
80002100:	3440306f          	j	80005444 <bad_trap>

80002104 <inst_226>:
80002104:	66666537          	lui	a0,0x66666
80002108:	66650513          	addi	a0,a0,1638 # 66666666 <absimm+0x21374137>
8000210c:	aaaab5b7          	lui	a1,0xaaaab
80002110:	aab58593          	addi	a1,a1,-1365 # aaaaaaab <imm12+0xaaaaafdb>
80002114:	00b56633          	or	a2,a0,a1
80002118:	32c32e23          	sw	a2,828(t1)
8000211c:	eeeef437          	lui	s0,0xeeeef
80002120:	eef40413          	addi	s0,s0,-273 # eeeeeeef <imm12+0xeeeef41f>
80002124:	00c40463          	beq	s0,a2,8000212c <inst_227>
80002128:	31c0306f          	j	80005444 <bad_trap>

8000212c <inst_227>:
8000212c:	66666537          	lui	a0,0x66666
80002130:	66650513          	addi	a0,a0,1638 # 66666666 <absimm+0x21374137>
80002134:	00600593          	li	a1,6
80002138:	00b56633          	or	a2,a0,a1
8000213c:	34c32023          	sw	a2,832(t1)
80002140:	66666437          	lui	s0,0x66666
80002144:	66640413          	addi	s0,s0,1638 # 66666666 <absimm+0x21374137>
80002148:	00c40463          	beq	s0,a2,80002150 <inst_228>
8000214c:	2f80306f          	j	80005444 <bad_trap>

80002150 <inst_228>:
80002150:	66666537          	lui	a0,0x66666
80002154:	66650513          	addi	a0,a0,1638 # 66666666 <absimm+0x21374137>
80002158:	333335b7          	lui	a1,0x33333
8000215c:	33458593          	addi	a1,a1,820 # 33333334 <offset+0x33333254>
80002160:	00b56633          	or	a2,a0,a1
80002164:	34c32223          	sw	a2,836(t1)
80002168:	77777437          	lui	s0,0x77777
8000216c:	77640413          	addi	s0,s0,1910 # 77777776 <absimm+0x32485247>
80002170:	00c40463          	beq	s0,a2,80002178 <inst_229>
80002174:	2d00306f          	j	80005444 <bad_trap>

80002178 <inst_229>:
80002178:	66666537          	lui	a0,0x66666
8000217c:	66650513          	addi	a0,a0,1638 # 66666666 <absimm+0x21374137>
80002180:	666665b7          	lui	a1,0x66666
80002184:	66758593          	addi	a1,a1,1639 # 66666667 <absimm+0x21374138>
80002188:	00b56633          	or	a2,a0,a1
8000218c:	34c32423          	sw	a2,840(t1)
80002190:	66666437          	lui	s0,0x66666
80002194:	66740413          	addi	s0,s0,1639 # 66666667 <absimm+0x21374138>
80002198:	00c40463          	beq	s0,a2,800021a0 <inst_230>
8000219c:	2a80306f          	j	80005444 <bad_trap>

800021a0 <inst_230>:
800021a0:	66666537          	lui	a0,0x66666
800021a4:	66650513          	addi	a0,a0,1638 # 66666666 <absimm+0x21374137>
800021a8:	ffff55b7          	lui	a1,0xffff5
800021ac:	afd58593          	addi	a1,a1,-1283 # ffff4afd <imm12+0xffff502d>
800021b0:	00b56633          	or	a2,a0,a1
800021b4:	34c32623          	sw	a2,844(t1)
800021b8:	ffff7437          	lui	s0,0xffff7
800021bc:	eff40413          	addi	s0,s0,-257 # ffff6eff <imm12+0xffff742f>
800021c0:	00c40463          	beq	s0,a2,800021c8 <inst_231>
800021c4:	2800306f          	j	80005444 <bad_trap>

800021c8 <inst_231>:
800021c8:	66666537          	lui	a0,0x66666
800021cc:	66650513          	addi	a0,a0,1638 # 66666666 <absimm+0x21374137>
800021d0:	0000b5b7          	lui	a1,0xb
800021d4:	50558593          	addi	a1,a1,1285 # b505 <offset+0xb425>
800021d8:	00b56633          	or	a2,a0,a1
800021dc:	34c32823          	sw	a2,848(t1)
800021e0:	6666f437          	lui	s0,0x6666f
800021e4:	76740413          	addi	s0,s0,1895 # 6666f767 <absimm+0x2137d238>
800021e8:	00c40463          	beq	s0,a2,800021f0 <inst_232>
800021ec:	2580306f          	j	80005444 <bad_trap>

800021f0 <inst_232>:
800021f0:	ffff5537          	lui	a0,0xffff5
800021f4:	afc50513          	addi	a0,a0,-1284 # ffff4afc <imm12+0xffff502c>
800021f8:	00300593          	li	a1,3
800021fc:	00b56633          	or	a2,a0,a1
80002200:	34c32a23          	sw	a2,852(t1)
80002204:	ffff5437          	lui	s0,0xffff5
80002208:	aff40413          	addi	s0,s0,-1281 # ffff4aff <imm12+0xffff502f>
8000220c:	00c40463          	beq	s0,a2,80002214 <inst_233>
80002210:	2340306f          	j	80005444 <bad_trap>

80002214 <inst_233>:
80002214:	ffff5537          	lui	a0,0xffff5
80002218:	afc50513          	addi	a0,a0,-1284 # ffff4afc <imm12+0xffff502c>
8000221c:	555555b7          	lui	a1,0x55555
80002220:	55558593          	addi	a1,a1,1365 # 55555555 <absimm+0x10263026>
80002224:	00b56633          	or	a2,a0,a1
80002228:	34c32c23          	sw	a2,856(t1)
8000222c:	ffff6437          	lui	s0,0xffff6
80002230:	ffd40413          	addi	s0,s0,-3 # ffff5ffd <imm12+0xffff652d>
80002234:	00c40463          	beq	s0,a2,8000223c <inst_234>
80002238:	20c0306f          	j	80005444 <bad_trap>

8000223c <inst_234>:
8000223c:	ffff5537          	lui	a0,0xffff5
80002240:	afc50513          	addi	a0,a0,-1284 # ffff4afc <imm12+0xffff502c>
80002244:	aaaab5b7          	lui	a1,0xaaaab
80002248:	aaa58593          	addi	a1,a1,-1366 # aaaaaaaa <imm12+0xaaaaafda>
8000224c:	00b56633          	or	a2,a0,a1
80002250:	34c32e23          	sw	a2,860(t1)
80002254:	fffff437          	lui	s0,0xfffff
80002258:	afe40413          	addi	s0,s0,-1282 # ffffeafe <imm12+0xfffff02e>
8000225c:	00c40463          	beq	s0,a2,80002264 <inst_235>
80002260:	1e40306f          	j	80005444 <bad_trap>

80002264 <inst_235>:
80002264:	ffff5537          	lui	a0,0xffff5
80002268:	afc50513          	addi	a0,a0,-1284 # ffff4afc <imm12+0xffff502c>
8000226c:	00500593          	li	a1,5
80002270:	00b56633          	or	a2,a0,a1
80002274:	36c32023          	sw	a2,864(t1)
80002278:	ffff5437          	lui	s0,0xffff5
8000227c:	afd40413          	addi	s0,s0,-1283 # ffff4afd <imm12+0xffff502d>
80002280:	00c40463          	beq	s0,a2,80002288 <inst_236>
80002284:	1c00306f          	j	80005444 <bad_trap>

80002288 <inst_236>:
80002288:	ffff5537          	lui	a0,0xffff5
8000228c:	afc50513          	addi	a0,a0,-1284 # ffff4afc <imm12+0xffff502c>
80002290:	333335b7          	lui	a1,0x33333
80002294:	33358593          	addi	a1,a1,819 # 33333333 <offset+0x33333253>
80002298:	00b56633          	or	a2,a0,a1
8000229c:	36c32223          	sw	a2,868(t1)
800022a0:	ffff8437          	lui	s0,0xffff8
800022a4:	bff40413          	addi	s0,s0,-1025 # ffff7bff <imm12+0xffff812f>
800022a8:	00c40463          	beq	s0,a2,800022b0 <inst_237>
800022ac:	1980306f          	j	80005444 <bad_trap>

800022b0 <inst_237>:
800022b0:	ffff5537          	lui	a0,0xffff5
800022b4:	afc50513          	addi	a0,a0,-1284 # ffff4afc <imm12+0xffff502c>
800022b8:	666665b7          	lui	a1,0x66666
800022bc:	66658593          	addi	a1,a1,1638 # 66666666 <absimm+0x21374137>
800022c0:	00b56633          	or	a2,a0,a1
800022c4:	36c32423          	sw	a2,872(t1)
800022c8:	ffff7437          	lui	s0,0xffff7
800022cc:	efe40413          	addi	s0,s0,-258 # ffff6efe <imm12+0xffff742e>
800022d0:	00c40463          	beq	s0,a2,800022d8 <inst_238>
800022d4:	1700306f          	j	80005444 <bad_trap>

800022d8 <inst_238>:
800022d8:	ffff5537          	lui	a0,0xffff5
800022dc:	afc50513          	addi	a0,a0,-1284 # ffff4afc <imm12+0xffff502c>
800022e0:	ffff55b7          	lui	a1,0xffff5
800022e4:	afc58593          	addi	a1,a1,-1284 # ffff4afc <imm12+0xffff502c>
800022e8:	00b56633          	or	a2,a0,a1
800022ec:	36c32623          	sw	a2,876(t1)
800022f0:	ffff5437          	lui	s0,0xffff5
800022f4:	afc40413          	addi	s0,s0,-1284 # ffff4afc <imm12+0xffff502c>
800022f8:	00c40463          	beq	s0,a2,80002300 <inst_239>
800022fc:	1480306f          	j	80005444 <bad_trap>

80002300 <inst_239>:
80002300:	ffff5537          	lui	a0,0xffff5
80002304:	afc50513          	addi	a0,a0,-1284 # ffff4afc <imm12+0xffff502c>
80002308:	0000b5b7          	lui	a1,0xb
8000230c:	50458593          	addi	a1,a1,1284 # b504 <offset+0xb424>
80002310:	00b56633          	or	a2,a0,a1
80002314:	36c32823          	sw	a2,880(t1)
80002318:	ffc00413          	li	s0,-4
8000231c:	00c40463          	beq	s0,a2,80002324 <inst_240>
80002320:	1240306f          	j	80005444 <bad_trap>

80002324 <inst_240>:
80002324:	ffff5537          	lui	a0,0xffff5
80002328:	afc50513          	addi	a0,a0,-1284 # ffff4afc <imm12+0xffff502c>
8000232c:	00200593          	li	a1,2
80002330:	00b56633          	or	a2,a0,a1
80002334:	36c32a23          	sw	a2,884(t1)
80002338:	ffff5437          	lui	s0,0xffff5
8000233c:	afe40413          	addi	s0,s0,-1282 # ffff4afe <imm12+0xffff502e>
80002340:	00c40463          	beq	s0,a2,80002348 <inst_241>
80002344:	1000306f          	j	80005444 <bad_trap>

80002348 <inst_241>:
80002348:	ffff5537          	lui	a0,0xffff5
8000234c:	afc50513          	addi	a0,a0,-1284 # ffff4afc <imm12+0xffff502c>
80002350:	555555b7          	lui	a1,0x55555
80002354:	55458593          	addi	a1,a1,1364 # 55555554 <absimm+0x10263025>
80002358:	00b56633          	or	a2,a0,a1
8000235c:	36c32c23          	sw	a2,888(t1)
80002360:	ffff6437          	lui	s0,0xffff6
80002364:	ffc40413          	addi	s0,s0,-4 # ffff5ffc <imm12+0xffff652c>
80002368:	00c40463          	beq	s0,a2,80002370 <inst_242>
8000236c:	0d80306f          	j	80005444 <bad_trap>

80002370 <inst_242>:
80002370:	ffff5537          	lui	a0,0xffff5
80002374:	afc50513          	addi	a0,a0,-1284 # ffff4afc <imm12+0xffff502c>
80002378:	00000593          	li	a1,0
8000237c:	00b56633          	or	a2,a0,a1
80002380:	36c32e23          	sw	a2,892(t1)
80002384:	ffff5437          	lui	s0,0xffff5
80002388:	afc40413          	addi	s0,s0,-1284 # ffff4afc <imm12+0xffff502c>
8000238c:	00c40463          	beq	s0,a2,80002394 <inst_243>
80002390:	0b40306f          	j	80005444 <bad_trap>

80002394 <inst_243>:
80002394:	ffff5537          	lui	a0,0xffff5
80002398:	afc50513          	addi	a0,a0,-1284 # ffff4afc <imm12+0xffff502c>
8000239c:	00400593          	li	a1,4
800023a0:	00b56633          	or	a2,a0,a1
800023a4:	38c32023          	sw	a2,896(t1)
800023a8:	ffff5437          	lui	s0,0xffff5
800023ac:	afc40413          	addi	s0,s0,-1284 # ffff4afc <imm12+0xffff502c>
800023b0:	00c40463          	beq	s0,a2,800023b8 <inst_244>
800023b4:	0900306f          	j	80005444 <bad_trap>

800023b8 <inst_244>:
800023b8:	ffff5537          	lui	a0,0xffff5
800023bc:	afc50513          	addi	a0,a0,-1284 # ffff4afc <imm12+0xffff502c>
800023c0:	333335b7          	lui	a1,0x33333
800023c4:	33258593          	addi	a1,a1,818 # 33333332 <offset+0x33333252>
800023c8:	00b56633          	or	a2,a0,a1
800023cc:	38c32223          	sw	a2,900(t1)
800023d0:	ffff8437          	lui	s0,0xffff8
800023d4:	bfe40413          	addi	s0,s0,-1026 # ffff7bfe <imm12+0xffff812e>
800023d8:	00c40463          	beq	s0,a2,800023e0 <inst_245>
800023dc:	0680306f          	j	80005444 <bad_trap>

800023e0 <inst_245>:
800023e0:	ffff5537          	lui	a0,0xffff5
800023e4:	afc50513          	addi	a0,a0,-1284 # ffff4afc <imm12+0xffff502c>
800023e8:	666665b7          	lui	a1,0x66666
800023ec:	66558593          	addi	a1,a1,1637 # 66666665 <absimm+0x21374136>
800023f0:	00b56633          	or	a2,a0,a1
800023f4:	38c32423          	sw	a2,904(t1)
800023f8:	ffff7437          	lui	s0,0xffff7
800023fc:	efd40413          	addi	s0,s0,-259 # ffff6efd <imm12+0xffff742d>
80002400:	00c40463          	beq	s0,a2,80002408 <inst_246>
80002404:	0400306f          	j	80005444 <bad_trap>

80002408 <inst_246>:
80002408:	ffff5537          	lui	a0,0xffff5
8000240c:	afc50513          	addi	a0,a0,-1284 # ffff4afc <imm12+0xffff502c>
80002410:	0000b5b7          	lui	a1,0xb
80002414:	50358593          	addi	a1,a1,1283 # b503 <offset+0xb423>
80002418:	00b56633          	or	a2,a0,a1
8000241c:	38c32623          	sw	a2,908(t1)
80002420:	fff00413          	li	s0,-1
80002424:	00c40463          	beq	s0,a2,8000242c <inst_247>
80002428:	01c0306f          	j	80005444 <bad_trap>

8000242c <inst_247>:
8000242c:	ffff5537          	lui	a0,0xffff5
80002430:	afc50513          	addi	a0,a0,-1284 # ffff4afc <imm12+0xffff502c>
80002434:	555555b7          	lui	a1,0x55555
80002438:	55658593          	addi	a1,a1,1366 # 55555556 <absimm+0x10263027>
8000243c:	00b56633          	or	a2,a0,a1
80002440:	38c32823          	sw	a2,912(t1)
80002444:	ffff6437          	lui	s0,0xffff6
80002448:	ffe40413          	addi	s0,s0,-2 # ffff5ffe <imm12+0xffff652e>
8000244c:	00c40463          	beq	s0,a2,80002454 <inst_248>
80002450:	7f50206f          	j	80005444 <bad_trap>

80002454 <inst_248>:
80002454:	ffff5537          	lui	a0,0xffff5
80002458:	afc50513          	addi	a0,a0,-1284 # ffff4afc <imm12+0xffff502c>
8000245c:	aaaab5b7          	lui	a1,0xaaaab
80002460:	aab58593          	addi	a1,a1,-1365 # aaaaaaab <imm12+0xaaaaafdb>
80002464:	00b56633          	or	a2,a0,a1
80002468:	38c32a23          	sw	a2,916(t1)
8000246c:	fffff437          	lui	s0,0xfffff
80002470:	aff40413          	addi	s0,s0,-1281 # ffffeaff <imm12+0xfffff02f>
80002474:	00c40463          	beq	s0,a2,8000247c <inst_249>
80002478:	7cd0206f          	j	80005444 <bad_trap>

8000247c <inst_249>:
8000247c:	ffff5537          	lui	a0,0xffff5
80002480:	afc50513          	addi	a0,a0,-1284 # ffff4afc <imm12+0xffff502c>
80002484:	00600593          	li	a1,6
80002488:	00b56633          	or	a2,a0,a1
8000248c:	38c32c23          	sw	a2,920(t1)
80002490:	ffff5437          	lui	s0,0xffff5
80002494:	afe40413          	addi	s0,s0,-1282 # ffff4afe <imm12+0xffff502e>
80002498:	00c40463          	beq	s0,a2,800024a0 <inst_250>
8000249c:	7a90206f          	j	80005444 <bad_trap>

800024a0 <inst_250>:
800024a0:	ffff5537          	lui	a0,0xffff5
800024a4:	afc50513          	addi	a0,a0,-1284 # ffff4afc <imm12+0xffff502c>
800024a8:	333335b7          	lui	a1,0x33333
800024ac:	33458593          	addi	a1,a1,820 # 33333334 <offset+0x33333254>
800024b0:	00b56633          	or	a2,a0,a1
800024b4:	38c32e23          	sw	a2,924(t1)
800024b8:	ffff8437          	lui	s0,0xffff8
800024bc:	bfc40413          	addi	s0,s0,-1028 # ffff7bfc <imm12+0xffff812c>
800024c0:	00c40463          	beq	s0,a2,800024c8 <inst_251>
800024c4:	7810206f          	j	80005444 <bad_trap>

800024c8 <inst_251>:
800024c8:	ffff5537          	lui	a0,0xffff5
800024cc:	afc50513          	addi	a0,a0,-1284 # ffff4afc <imm12+0xffff502c>
800024d0:	666665b7          	lui	a1,0x66666
800024d4:	66758593          	addi	a1,a1,1639 # 66666667 <absimm+0x21374138>
800024d8:	00b56633          	or	a2,a0,a1
800024dc:	3ac32023          	sw	a2,928(t1)
800024e0:	ffff7437          	lui	s0,0xffff7
800024e4:	eff40413          	addi	s0,s0,-257 # ffff6eff <imm12+0xffff742f>
800024e8:	00c40463          	beq	s0,a2,800024f0 <inst_252>
800024ec:	7590206f          	j	80005444 <bad_trap>

800024f0 <inst_252>:
800024f0:	ffff5537          	lui	a0,0xffff5
800024f4:	afc50513          	addi	a0,a0,-1284 # ffff4afc <imm12+0xffff502c>
800024f8:	ffff55b7          	lui	a1,0xffff5
800024fc:	afd58593          	addi	a1,a1,-1283 # ffff4afd <imm12+0xffff502d>
80002500:	00b56633          	or	a2,a0,a1
80002504:	3ac32223          	sw	a2,932(t1)
80002508:	ffff5437          	lui	s0,0xffff5
8000250c:	afd40413          	addi	s0,s0,-1283 # ffff4afd <imm12+0xffff502d>
80002510:	00c40463          	beq	s0,a2,80002518 <inst_253>
80002514:	7310206f          	j	80005444 <bad_trap>

80002518 <inst_253>:
80002518:	ffff5537          	lui	a0,0xffff5
8000251c:	afc50513          	addi	a0,a0,-1284 # ffff4afc <imm12+0xffff502c>
80002520:	0000b5b7          	lui	a1,0xb
80002524:	50558593          	addi	a1,a1,1285 # b505 <offset+0xb425>
80002528:	00b56633          	or	a2,a0,a1
8000252c:	3ac32423          	sw	a2,936(t1)
80002530:	ffd00413          	li	s0,-3
80002534:	00c40463          	beq	s0,a2,8000253c <inst_254>
80002538:	70d0206f          	j	80005444 <bad_trap>

8000253c <inst_254>:
8000253c:	0000b537          	lui	a0,0xb
80002540:	50450513          	addi	a0,a0,1284 # b504 <offset+0xb424>
80002544:	00300593          	li	a1,3
80002548:	00b56633          	or	a2,a0,a1
8000254c:	3ac32623          	sw	a2,940(t1)
80002550:	0000b437          	lui	s0,0xb
80002554:	50740413          	addi	s0,s0,1287 # b507 <offset+0xb427>
80002558:	00c40463          	beq	s0,a2,80002560 <inst_255>
8000255c:	6e90206f          	j	80005444 <bad_trap>

80002560 <inst_255>:
80002560:	0000b537          	lui	a0,0xb
80002564:	50450513          	addi	a0,a0,1284 # b504 <offset+0xb424>
80002568:	555555b7          	lui	a1,0x55555
8000256c:	55558593          	addi	a1,a1,1365 # 55555555 <absimm+0x10263026>
80002570:	00b56633          	or	a2,a0,a1
80002574:	3ac32823          	sw	a2,944(t1)
80002578:	5555f437          	lui	s0,0x5555f
8000257c:	55540413          	addi	s0,s0,1365 # 5555f555 <absimm+0x1026d026>
80002580:	00c40463          	beq	s0,a2,80002588 <inst_256>
80002584:	6c10206f          	j	80005444 <bad_trap>

80002588 <inst_256>:
80002588:	0000b537          	lui	a0,0xb
8000258c:	50450513          	addi	a0,a0,1284 # b504 <offset+0xb424>
80002590:	aaaab5b7          	lui	a1,0xaaaab
80002594:	aaa58593          	addi	a1,a1,-1366 # aaaaaaaa <imm12+0xaaaaafda>
80002598:	00b56633          	or	a2,a0,a1
8000259c:	3ac32a23          	sw	a2,948(t1)
800025a0:	aaaac437          	lui	s0,0xaaaac
800025a4:	fae40413          	addi	s0,s0,-82 # aaaabfae <imm12+0xaaaac4de>
800025a8:	00c40463          	beq	s0,a2,800025b0 <inst_257>
800025ac:	6990206f          	j	80005444 <bad_trap>

800025b0 <inst_257>:
800025b0:	0000b537          	lui	a0,0xb
800025b4:	50450513          	addi	a0,a0,1284 # b504 <offset+0xb424>
800025b8:	00500593          	li	a1,5
800025bc:	00b56633          	or	a2,a0,a1
800025c0:	3ac32c23          	sw	a2,952(t1)
800025c4:	0000b437          	lui	s0,0xb
800025c8:	50540413          	addi	s0,s0,1285 # b505 <offset+0xb425>
800025cc:	00c40463          	beq	s0,a2,800025d4 <inst_258>
800025d0:	6750206f          	j	80005444 <bad_trap>

800025d4 <inst_258>:
800025d4:	0000b537          	lui	a0,0xb
800025d8:	50450513          	addi	a0,a0,1284 # b504 <offset+0xb424>
800025dc:	333335b7          	lui	a1,0x33333
800025e0:	33358593          	addi	a1,a1,819 # 33333333 <offset+0x33333253>
800025e4:	00b56633          	or	a2,a0,a1
800025e8:	3ac32e23          	sw	a2,956(t1)
800025ec:	3333b437          	lui	s0,0x3333b
800025f0:	73740413          	addi	s0,s0,1847 # 3333b737 <offset+0x3333b657>
800025f4:	00c40463          	beq	s0,a2,800025fc <inst_259>
800025f8:	64d0206f          	j	80005444 <bad_trap>

800025fc <inst_259>:
800025fc:	0000b537          	lui	a0,0xb
80002600:	50450513          	addi	a0,a0,1284 # b504 <offset+0xb424>
80002604:	666665b7          	lui	a1,0x66666
80002608:	66658593          	addi	a1,a1,1638 # 66666666 <absimm+0x21374137>
8000260c:	00b56633          	or	a2,a0,a1
80002610:	3cc32023          	sw	a2,960(t1)
80002614:	6666f437          	lui	s0,0x6666f
80002618:	76640413          	addi	s0,s0,1894 # 6666f766 <absimm+0x2137d237>
8000261c:	00c40463          	beq	s0,a2,80002624 <inst_260>
80002620:	6250206f          	j	80005444 <bad_trap>

80002624 <inst_260>:
80002624:	0000b537          	lui	a0,0xb
80002628:	50450513          	addi	a0,a0,1284 # b504 <offset+0xb424>
8000262c:	ffff55b7          	lui	a1,0xffff5
80002630:	afc58593          	addi	a1,a1,-1284 # ffff4afc <imm12+0xffff502c>
80002634:	00b56633          	or	a2,a0,a1
80002638:	3cc32223          	sw	a2,964(t1)
8000263c:	ffc00413          	li	s0,-4
80002640:	00c40463          	beq	s0,a2,80002648 <inst_261>
80002644:	6010206f          	j	80005444 <bad_trap>

80002648 <inst_261>:
80002648:	0000b537          	lui	a0,0xb
8000264c:	50450513          	addi	a0,a0,1284 # b504 <offset+0xb424>
80002650:	0000b5b7          	lui	a1,0xb
80002654:	50458593          	addi	a1,a1,1284 # b504 <offset+0xb424>
80002658:	00b56633          	or	a2,a0,a1
8000265c:	3cc32423          	sw	a2,968(t1)
80002660:	0000b437          	lui	s0,0xb
80002664:	50440413          	addi	s0,s0,1284 # b504 <offset+0xb424>
80002668:	00c40463          	beq	s0,a2,80002670 <inst_262>
8000266c:	5d90206f          	j	80005444 <bad_trap>

80002670 <inst_262>:
80002670:	0000b537          	lui	a0,0xb
80002674:	50450513          	addi	a0,a0,1284 # b504 <offset+0xb424>
80002678:	00200593          	li	a1,2
8000267c:	00b56633          	or	a2,a0,a1
80002680:	3cc32623          	sw	a2,972(t1)
80002684:	0000b437          	lui	s0,0xb
80002688:	50640413          	addi	s0,s0,1286 # b506 <offset+0xb426>
8000268c:	00c40463          	beq	s0,a2,80002694 <inst_263>
80002690:	5b50206f          	j	80005444 <bad_trap>

80002694 <inst_263>:
80002694:	0000b537          	lui	a0,0xb
80002698:	50450513          	addi	a0,a0,1284 # b504 <offset+0xb424>
8000269c:	555555b7          	lui	a1,0x55555
800026a0:	55458593          	addi	a1,a1,1364 # 55555554 <absimm+0x10263025>
800026a4:	00b56633          	or	a2,a0,a1
800026a8:	3cc32823          	sw	a2,976(t1)
800026ac:	5555f437          	lui	s0,0x5555f
800026b0:	55440413          	addi	s0,s0,1364 # 5555f554 <absimm+0x1026d025>
800026b4:	00c40463          	beq	s0,a2,800026bc <inst_264>
800026b8:	58d0206f          	j	80005444 <bad_trap>

800026bc <inst_264>:
800026bc:	0000b537          	lui	a0,0xb
800026c0:	50450513          	addi	a0,a0,1284 # b504 <offset+0xb424>
800026c4:	00000593          	li	a1,0
800026c8:	00b56633          	or	a2,a0,a1
800026cc:	3cc32a23          	sw	a2,980(t1)
800026d0:	0000b437          	lui	s0,0xb
800026d4:	50440413          	addi	s0,s0,1284 # b504 <offset+0xb424>
800026d8:	00c40463          	beq	s0,a2,800026e0 <inst_265>
800026dc:	5690206f          	j	80005444 <bad_trap>

800026e0 <inst_265>:
800026e0:	0000b537          	lui	a0,0xb
800026e4:	50450513          	addi	a0,a0,1284 # b504 <offset+0xb424>
800026e8:	00400593          	li	a1,4
800026ec:	00b56633          	or	a2,a0,a1
800026f0:	3cc32c23          	sw	a2,984(t1)
800026f4:	0000b437          	lui	s0,0xb
800026f8:	50440413          	addi	s0,s0,1284 # b504 <offset+0xb424>
800026fc:	00c40463          	beq	s0,a2,80002704 <inst_266>
80002700:	5450206f          	j	80005444 <bad_trap>

80002704 <inst_266>:
80002704:	0000b537          	lui	a0,0xb
80002708:	50450513          	addi	a0,a0,1284 # b504 <offset+0xb424>
8000270c:	333335b7          	lui	a1,0x33333
80002710:	33258593          	addi	a1,a1,818 # 33333332 <offset+0x33333252>
80002714:	00b56633          	or	a2,a0,a1
80002718:	3cc32e23          	sw	a2,988(t1)
8000271c:	3333b437          	lui	s0,0x3333b
80002720:	73640413          	addi	s0,s0,1846 # 3333b736 <offset+0x3333b656>
80002724:	00c40463          	beq	s0,a2,8000272c <inst_267>
80002728:	51d0206f          	j	80005444 <bad_trap>

8000272c <inst_267>:
8000272c:	0000b537          	lui	a0,0xb
80002730:	50450513          	addi	a0,a0,1284 # b504 <offset+0xb424>
80002734:	666665b7          	lui	a1,0x66666
80002738:	66558593          	addi	a1,a1,1637 # 66666665 <absimm+0x21374136>
8000273c:	00b56633          	or	a2,a0,a1
80002740:	3ec32023          	sw	a2,992(t1)
80002744:	6666f437          	lui	s0,0x6666f
80002748:	76540413          	addi	s0,s0,1893 # 6666f765 <absimm+0x2137d236>
8000274c:	00c40463          	beq	s0,a2,80002754 <inst_268>
80002750:	4f50206f          	j	80005444 <bad_trap>

80002754 <inst_268>:
80002754:	0000b537          	lui	a0,0xb
80002758:	50450513          	addi	a0,a0,1284 # b504 <offset+0xb424>
8000275c:	0000b5b7          	lui	a1,0xb
80002760:	50358593          	addi	a1,a1,1283 # b503 <offset+0xb423>
80002764:	00b56633          	or	a2,a0,a1
80002768:	3ec32223          	sw	a2,996(t1)
8000276c:	0000b437          	lui	s0,0xb
80002770:	50740413          	addi	s0,s0,1287 # b507 <offset+0xb427>
80002774:	00c40463          	beq	s0,a2,8000277c <inst_269>
80002778:	4cd0206f          	j	80005444 <bad_trap>

8000277c <inst_269>:
8000277c:	0000b537          	lui	a0,0xb
80002780:	50450513          	addi	a0,a0,1284 # b504 <offset+0xb424>
80002784:	555555b7          	lui	a1,0x55555
80002788:	55658593          	addi	a1,a1,1366 # 55555556 <absimm+0x10263027>
8000278c:	00b56633          	or	a2,a0,a1
80002790:	3ec32423          	sw	a2,1000(t1)
80002794:	5555f437          	lui	s0,0x5555f
80002798:	55640413          	addi	s0,s0,1366 # 5555f556 <absimm+0x1026d027>
8000279c:	00c40463          	beq	s0,a2,800027a4 <inst_270>
800027a0:	4a50206f          	j	80005444 <bad_trap>

800027a4 <inst_270>:
800027a4:	0000b537          	lui	a0,0xb
800027a8:	50450513          	addi	a0,a0,1284 # b504 <offset+0xb424>
800027ac:	aaaab5b7          	lui	a1,0xaaaab
800027b0:	aab58593          	addi	a1,a1,-1365 # aaaaaaab <imm12+0xaaaaafdb>
800027b4:	00b56633          	or	a2,a0,a1
800027b8:	3ec32623          	sw	a2,1004(t1)
800027bc:	aaaac437          	lui	s0,0xaaaac
800027c0:	faf40413          	addi	s0,s0,-81 # aaaabfaf <imm12+0xaaaac4df>
800027c4:	00c40463          	beq	s0,a2,800027cc <inst_271>
800027c8:	47d0206f          	j	80005444 <bad_trap>

800027cc <inst_271>:
800027cc:	0000b537          	lui	a0,0xb
800027d0:	50450513          	addi	a0,a0,1284 # b504 <offset+0xb424>
800027d4:	00600593          	li	a1,6
800027d8:	00b56633          	or	a2,a0,a1
800027dc:	3ec32823          	sw	a2,1008(t1)
800027e0:	0000b437          	lui	s0,0xb
800027e4:	50640413          	addi	s0,s0,1286 # b506 <offset+0xb426>
800027e8:	00c40463          	beq	s0,a2,800027f0 <inst_272>
800027ec:	4590206f          	j	80005444 <bad_trap>

800027f0 <inst_272>:
800027f0:	0000b537          	lui	a0,0xb
800027f4:	50450513          	addi	a0,a0,1284 # b504 <offset+0xb424>
800027f8:	333335b7          	lui	a1,0x33333
800027fc:	33458593          	addi	a1,a1,820 # 33333334 <offset+0x33333254>
80002800:	00b56633          	or	a2,a0,a1
80002804:	3ec32a23          	sw	a2,1012(t1)
80002808:	3333b437          	lui	s0,0x3333b
8000280c:	73440413          	addi	s0,s0,1844 # 3333b734 <offset+0x3333b654>
80002810:	00c40463          	beq	s0,a2,80002818 <inst_273>
80002814:	4310206f          	j	80005444 <bad_trap>

80002818 <inst_273>:
80002818:	0000b537          	lui	a0,0xb
8000281c:	50450513          	addi	a0,a0,1284 # b504 <offset+0xb424>
80002820:	666665b7          	lui	a1,0x66666
80002824:	66758593          	addi	a1,a1,1639 # 66666667 <absimm+0x21374138>
80002828:	00b56633          	or	a2,a0,a1
8000282c:	3ec32c23          	sw	a2,1016(t1)
80002830:	6666f437          	lui	s0,0x6666f
80002834:	76740413          	addi	s0,s0,1895 # 6666f767 <absimm+0x2137d238>
80002838:	00c40463          	beq	s0,a2,80002840 <inst_274>
8000283c:	4090206f          	j	80005444 <bad_trap>

80002840 <inst_274>:
80002840:	0000b537          	lui	a0,0xb
80002844:	50450513          	addi	a0,a0,1284 # b504 <offset+0xb424>
80002848:	ffff55b7          	lui	a1,0xffff5
8000284c:	afd58593          	addi	a1,a1,-1283 # ffff4afd <imm12+0xffff502d>
80002850:	00b56633          	or	a2,a0,a1
80002854:	3ec32e23          	sw	a2,1020(t1)
80002858:	ffd00413          	li	s0,-3
8000285c:	00c40463          	beq	s0,a2,80002864 <inst_275>
80002860:	3e50206f          	j	80005444 <bad_trap>

80002864 <inst_275>:
80002864:	0000b537          	lui	a0,0xb
80002868:	50450513          	addi	a0,a0,1284 # b504 <offset+0xb424>
8000286c:	0000b5b7          	lui	a1,0xb
80002870:	50558593          	addi	a1,a1,1285 # b505 <offset+0xb425>
80002874:	00b56633          	or	a2,a0,a1
80002878:	40c32023          	sw	a2,1024(t1)
8000287c:	0000b437          	lui	s0,0xb
80002880:	50540413          	addi	s0,s0,1285 # b505 <offset+0xb425>
80002884:	00c40463          	beq	s0,a2,8000288c <inst_276>
80002888:	3bd0206f          	j	80005444 <bad_trap>

8000288c <inst_276>:
8000288c:	00200513          	li	a0,2
80002890:	00300593          	li	a1,3
80002894:	00b56633          	or	a2,a0,a1
80002898:	40c32223          	sw	a2,1028(t1)
8000289c:	00300413          	li	s0,3
800028a0:	00c40463          	beq	s0,a2,800028a8 <inst_277>
800028a4:	3a10206f          	j	80005444 <bad_trap>

800028a8 <inst_277>:
800028a8:	00200513          	li	a0,2
800028ac:	555555b7          	lui	a1,0x55555
800028b0:	55558593          	addi	a1,a1,1365 # 55555555 <absimm+0x10263026>
800028b4:	00b56633          	or	a2,a0,a1
800028b8:	40c32423          	sw	a2,1032(t1)
800028bc:	55555437          	lui	s0,0x55555
800028c0:	55740413          	addi	s0,s0,1367 # 55555557 <absimm+0x10263028>
800028c4:	00c40463          	beq	s0,a2,800028cc <inst_278>
800028c8:	37d0206f          	j	80005444 <bad_trap>

800028cc <inst_278>:
800028cc:	00200513          	li	a0,2
800028d0:	aaaab5b7          	lui	a1,0xaaaab
800028d4:	aaa58593          	addi	a1,a1,-1366 # aaaaaaaa <imm12+0xaaaaafda>
800028d8:	00b56633          	or	a2,a0,a1
800028dc:	40c32623          	sw	a2,1036(t1)
800028e0:	aaaab437          	lui	s0,0xaaaab
800028e4:	aaa40413          	addi	s0,s0,-1366 # aaaaaaaa <imm12+0xaaaaafda>
800028e8:	00c40463          	beq	s0,a2,800028f0 <inst_279>
800028ec:	3590206f          	j	80005444 <bad_trap>

800028f0 <inst_279>:
800028f0:	00200513          	li	a0,2
800028f4:	00500593          	li	a1,5
800028f8:	00b56633          	or	a2,a0,a1
800028fc:	40c32823          	sw	a2,1040(t1)
80002900:	00700413          	li	s0,7
80002904:	00c40463          	beq	s0,a2,8000290c <inst_280>
80002908:	33d0206f          	j	80005444 <bad_trap>

8000290c <inst_280>:
8000290c:	00200513          	li	a0,2
80002910:	333335b7          	lui	a1,0x33333
80002914:	33358593          	addi	a1,a1,819 # 33333333 <offset+0x33333253>
80002918:	00b56633          	or	a2,a0,a1
8000291c:	40c32a23          	sw	a2,1044(t1)
80002920:	33333437          	lui	s0,0x33333
80002924:	33340413          	addi	s0,s0,819 # 33333333 <offset+0x33333253>
80002928:	00c40463          	beq	s0,a2,80002930 <inst_281>
8000292c:	3190206f          	j	80005444 <bad_trap>

80002930 <inst_281>:
80002930:	00200513          	li	a0,2
80002934:	666665b7          	lui	a1,0x66666
80002938:	66658593          	addi	a1,a1,1638 # 66666666 <absimm+0x21374137>
8000293c:	00b56633          	or	a2,a0,a1
80002940:	40c32c23          	sw	a2,1048(t1)
80002944:	66666437          	lui	s0,0x66666
80002948:	66640413          	addi	s0,s0,1638 # 66666666 <absimm+0x21374137>
8000294c:	00c40463          	beq	s0,a2,80002954 <inst_282>
80002950:	2f50206f          	j	80005444 <bad_trap>

80002954 <inst_282>:
80002954:	00200513          	li	a0,2
80002958:	ffff55b7          	lui	a1,0xffff5
8000295c:	afc58593          	addi	a1,a1,-1284 # ffff4afc <imm12+0xffff502c>
80002960:	00b56633          	or	a2,a0,a1
80002964:	40c32e23          	sw	a2,1052(t1)
80002968:	ffff5437          	lui	s0,0xffff5
8000296c:	afe40413          	addi	s0,s0,-1282 # ffff4afe <imm12+0xffff502e>
80002970:	00c40463          	beq	s0,a2,80002978 <inst_283>
80002974:	2d10206f          	j	80005444 <bad_trap>

80002978 <inst_283>:
80002978:	00200513          	li	a0,2
8000297c:	0000b5b7          	lui	a1,0xb
80002980:	50458593          	addi	a1,a1,1284 # b504 <offset+0xb424>
80002984:	00b56633          	or	a2,a0,a1
80002988:	42c32023          	sw	a2,1056(t1)
8000298c:	0000b437          	lui	s0,0xb
80002990:	50640413          	addi	s0,s0,1286 # b506 <offset+0xb426>
80002994:	00c40463          	beq	s0,a2,8000299c <inst_284>
80002998:	2ad0206f          	j	80005444 <bad_trap>

8000299c <inst_284>:
8000299c:	00200513          	li	a0,2
800029a0:	00200593          	li	a1,2
800029a4:	00b56633          	or	a2,a0,a1
800029a8:	42c32223          	sw	a2,1060(t1)
800029ac:	00200413          	li	s0,2
800029b0:	00c40463          	beq	s0,a2,800029b8 <inst_285>
800029b4:	2910206f          	j	80005444 <bad_trap>

800029b8 <inst_285>:
800029b8:	00200513          	li	a0,2
800029bc:	555555b7          	lui	a1,0x55555
800029c0:	55458593          	addi	a1,a1,1364 # 55555554 <absimm+0x10263025>
800029c4:	00b56633          	or	a2,a0,a1
800029c8:	42c32423          	sw	a2,1064(t1)
800029cc:	55555437          	lui	s0,0x55555
800029d0:	55640413          	addi	s0,s0,1366 # 55555556 <absimm+0x10263027>
800029d4:	00c40463          	beq	s0,a2,800029dc <inst_286>
800029d8:	26d0206f          	j	80005444 <bad_trap>

800029dc <inst_286>:
800029dc:	00200513          	li	a0,2
800029e0:	00000593          	li	a1,0
800029e4:	00b56633          	or	a2,a0,a1
800029e8:	42c32623          	sw	a2,1068(t1)
800029ec:	00200413          	li	s0,2
800029f0:	00c40463          	beq	s0,a2,800029f8 <inst_287>
800029f4:	2510206f          	j	80005444 <bad_trap>

800029f8 <inst_287>:
800029f8:	00200513          	li	a0,2
800029fc:	00400593          	li	a1,4
80002a00:	00b56633          	or	a2,a0,a1
80002a04:	42c32823          	sw	a2,1072(t1)
80002a08:	00600413          	li	s0,6
80002a0c:	00c40463          	beq	s0,a2,80002a14 <inst_288>
80002a10:	2350206f          	j	80005444 <bad_trap>

80002a14 <inst_288>:
80002a14:	00200513          	li	a0,2
80002a18:	333335b7          	lui	a1,0x33333
80002a1c:	33258593          	addi	a1,a1,818 # 33333332 <offset+0x33333252>
80002a20:	00b56633          	or	a2,a0,a1
80002a24:	42c32a23          	sw	a2,1076(t1)
80002a28:	33333437          	lui	s0,0x33333
80002a2c:	33240413          	addi	s0,s0,818 # 33333332 <offset+0x33333252>
80002a30:	00c40463          	beq	s0,a2,80002a38 <inst_289>
80002a34:	2110206f          	j	80005444 <bad_trap>

80002a38 <inst_289>:
80002a38:	00200513          	li	a0,2
80002a3c:	666665b7          	lui	a1,0x66666
80002a40:	66558593          	addi	a1,a1,1637 # 66666665 <absimm+0x21374136>
80002a44:	00b56633          	or	a2,a0,a1
80002a48:	42c32c23          	sw	a2,1080(t1)
80002a4c:	66666437          	lui	s0,0x66666
80002a50:	66740413          	addi	s0,s0,1639 # 66666667 <absimm+0x21374138>
80002a54:	00c40463          	beq	s0,a2,80002a5c <inst_290>
80002a58:	1ed0206f          	j	80005444 <bad_trap>

80002a5c <inst_290>:
80002a5c:	00200513          	li	a0,2
80002a60:	0000b5b7          	lui	a1,0xb
80002a64:	50358593          	addi	a1,a1,1283 # b503 <offset+0xb423>
80002a68:	00b56633          	or	a2,a0,a1
80002a6c:	42c32e23          	sw	a2,1084(t1)
80002a70:	0000b437          	lui	s0,0xb
80002a74:	50340413          	addi	s0,s0,1283 # b503 <offset+0xb423>
80002a78:	00c40463          	beq	s0,a2,80002a80 <inst_291>
80002a7c:	1c90206f          	j	80005444 <bad_trap>

80002a80 <inst_291>:
80002a80:	00200513          	li	a0,2
80002a84:	555555b7          	lui	a1,0x55555
80002a88:	55658593          	addi	a1,a1,1366 # 55555556 <absimm+0x10263027>
80002a8c:	00b56633          	or	a2,a0,a1
80002a90:	44c32023          	sw	a2,1088(t1)
80002a94:	55555437          	lui	s0,0x55555
80002a98:	55640413          	addi	s0,s0,1366 # 55555556 <absimm+0x10263027>
80002a9c:	00c40463          	beq	s0,a2,80002aa4 <inst_292>
80002aa0:	1a50206f          	j	80005444 <bad_trap>

80002aa4 <inst_292>:
80002aa4:	00200513          	li	a0,2
80002aa8:	aaaab5b7          	lui	a1,0xaaaab
80002aac:	aab58593          	addi	a1,a1,-1365 # aaaaaaab <imm12+0xaaaaafdb>
80002ab0:	00b56633          	or	a2,a0,a1
80002ab4:	44c32223          	sw	a2,1092(t1)
80002ab8:	aaaab437          	lui	s0,0xaaaab
80002abc:	aab40413          	addi	s0,s0,-1365 # aaaaaaab <imm12+0xaaaaafdb>
80002ac0:	00c40463          	beq	s0,a2,80002ac8 <inst_293>
80002ac4:	1810206f          	j	80005444 <bad_trap>

80002ac8 <inst_293>:
80002ac8:	00200513          	li	a0,2
80002acc:	00600593          	li	a1,6
80002ad0:	00b56633          	or	a2,a0,a1
80002ad4:	44c32423          	sw	a2,1096(t1)
80002ad8:	00600413          	li	s0,6
80002adc:	00c40463          	beq	s0,a2,80002ae4 <inst_294>
80002ae0:	1650206f          	j	80005444 <bad_trap>

80002ae4 <inst_294>:
80002ae4:	00200513          	li	a0,2
80002ae8:	333335b7          	lui	a1,0x33333
80002aec:	33458593          	addi	a1,a1,820 # 33333334 <offset+0x33333254>
80002af0:	00b56633          	or	a2,a0,a1
80002af4:	44c32623          	sw	a2,1100(t1)
80002af8:	33333437          	lui	s0,0x33333
80002afc:	33640413          	addi	s0,s0,822 # 33333336 <offset+0x33333256>
80002b00:	00c40463          	beq	s0,a2,80002b08 <inst_295>
80002b04:	1410206f          	j	80005444 <bad_trap>

80002b08 <inst_295>:
80002b08:	00200513          	li	a0,2
80002b0c:	666665b7          	lui	a1,0x66666
80002b10:	66758593          	addi	a1,a1,1639 # 66666667 <absimm+0x21374138>
80002b14:	00b56633          	or	a2,a0,a1
80002b18:	44c32823          	sw	a2,1104(t1)
80002b1c:	66666437          	lui	s0,0x66666
80002b20:	66740413          	addi	s0,s0,1639 # 66666667 <absimm+0x21374138>
80002b24:	00c40463          	beq	s0,a2,80002b2c <inst_296>
80002b28:	11d0206f          	j	80005444 <bad_trap>

80002b2c <inst_296>:
80002b2c:	00200513          	li	a0,2
80002b30:	ffff55b7          	lui	a1,0xffff5
80002b34:	afd58593          	addi	a1,a1,-1283 # ffff4afd <imm12+0xffff502d>
80002b38:	00b56633          	or	a2,a0,a1
80002b3c:	44c32a23          	sw	a2,1108(t1)
80002b40:	ffff5437          	lui	s0,0xffff5
80002b44:	aff40413          	addi	s0,s0,-1281 # ffff4aff <imm12+0xffff502f>
80002b48:	00c40463          	beq	s0,a2,80002b50 <inst_297>
80002b4c:	0f90206f          	j	80005444 <bad_trap>

80002b50 <inst_297>:
80002b50:	00200513          	li	a0,2
80002b54:	0000b5b7          	lui	a1,0xb
80002b58:	50558593          	addi	a1,a1,1285 # b505 <offset+0xb425>
80002b5c:	00b56633          	or	a2,a0,a1
80002b60:	44c32c23          	sw	a2,1112(t1)
80002b64:	0000b437          	lui	s0,0xb
80002b68:	50740413          	addi	s0,s0,1287 # b507 <offset+0xb427>
80002b6c:	00c40463          	beq	s0,a2,80002b74 <inst_298>
80002b70:	0d50206f          	j	80005444 <bad_trap>

80002b74 <inst_298>:
80002b74:	55555537          	lui	a0,0x55555
80002b78:	55450513          	addi	a0,a0,1364 # 55555554 <absimm+0x10263025>
80002b7c:	00300593          	li	a1,3
80002b80:	00b56633          	or	a2,a0,a1
80002b84:	44c32e23          	sw	a2,1116(t1)
80002b88:	55555437          	lui	s0,0x55555
80002b8c:	55740413          	addi	s0,s0,1367 # 55555557 <absimm+0x10263028>
80002b90:	00c40463          	beq	s0,a2,80002b98 <inst_299>
80002b94:	0b10206f          	j	80005444 <bad_trap>

80002b98 <inst_299>:
80002b98:	55555537          	lui	a0,0x55555
80002b9c:	55450513          	addi	a0,a0,1364 # 55555554 <absimm+0x10263025>
80002ba0:	555555b7          	lui	a1,0x55555
80002ba4:	55558593          	addi	a1,a1,1365 # 55555555 <absimm+0x10263026>
80002ba8:	00b56633          	or	a2,a0,a1
80002bac:	46c32023          	sw	a2,1120(t1)
80002bb0:	55555437          	lui	s0,0x55555
80002bb4:	55540413          	addi	s0,s0,1365 # 55555555 <absimm+0x10263026>
80002bb8:	00c40463          	beq	s0,a2,80002bc0 <inst_300>
80002bbc:	0890206f          	j	80005444 <bad_trap>

80002bc0 <inst_300>:
80002bc0:	55555537          	lui	a0,0x55555
80002bc4:	55450513          	addi	a0,a0,1364 # 55555554 <absimm+0x10263025>
80002bc8:	aaaab5b7          	lui	a1,0xaaaab
80002bcc:	aaa58593          	addi	a1,a1,-1366 # aaaaaaaa <imm12+0xaaaaafda>
80002bd0:	00b56633          	or	a2,a0,a1
80002bd4:	46c32223          	sw	a2,1124(t1)
80002bd8:	ffe00413          	li	s0,-2
80002bdc:	00c40463          	beq	s0,a2,80002be4 <inst_301>
80002be0:	0650206f          	j	80005444 <bad_trap>

80002be4 <inst_301>:
80002be4:	55555537          	lui	a0,0x55555
80002be8:	55450513          	addi	a0,a0,1364 # 55555554 <absimm+0x10263025>
80002bec:	00500593          	li	a1,5
80002bf0:	00b56633          	or	a2,a0,a1
80002bf4:	46c32423          	sw	a2,1128(t1)
80002bf8:	55555437          	lui	s0,0x55555
80002bfc:	55540413          	addi	s0,s0,1365 # 55555555 <absimm+0x10263026>
80002c00:	00c40463          	beq	s0,a2,80002c08 <inst_302>
80002c04:	0410206f          	j	80005444 <bad_trap>

80002c08 <inst_302>:
80002c08:	55555537          	lui	a0,0x55555
80002c0c:	55450513          	addi	a0,a0,1364 # 55555554 <absimm+0x10263025>
80002c10:	333335b7          	lui	a1,0x33333
80002c14:	33358593          	addi	a1,a1,819 # 33333333 <offset+0x33333253>
80002c18:	00b56633          	or	a2,a0,a1
80002c1c:	46c32623          	sw	a2,1132(t1)
80002c20:	77777437          	lui	s0,0x77777
80002c24:	77740413          	addi	s0,s0,1911 # 77777777 <absimm+0x32485248>
80002c28:	00c40463          	beq	s0,a2,80002c30 <inst_303>
80002c2c:	0190206f          	j	80005444 <bad_trap>

80002c30 <inst_303>:
80002c30:	55555537          	lui	a0,0x55555
80002c34:	55450513          	addi	a0,a0,1364 # 55555554 <absimm+0x10263025>
80002c38:	666665b7          	lui	a1,0x66666
80002c3c:	66658593          	addi	a1,a1,1638 # 66666666 <absimm+0x21374137>
80002c40:	00b56633          	or	a2,a0,a1
80002c44:	46c32823          	sw	a2,1136(t1)
80002c48:	77777437          	lui	s0,0x77777
80002c4c:	77640413          	addi	s0,s0,1910 # 77777776 <absimm+0x32485247>
80002c50:	00c40463          	beq	s0,a2,80002c58 <inst_304>
80002c54:	7f00206f          	j	80005444 <bad_trap>

80002c58 <inst_304>:
80002c58:	55555537          	lui	a0,0x55555
80002c5c:	55450513          	addi	a0,a0,1364 # 55555554 <absimm+0x10263025>
80002c60:	ffff55b7          	lui	a1,0xffff5
80002c64:	afc58593          	addi	a1,a1,-1284 # ffff4afc <imm12+0xffff502c>
80002c68:	00b56633          	or	a2,a0,a1
80002c6c:	46c32a23          	sw	a2,1140(t1)
80002c70:	ffff6437          	lui	s0,0xffff6
80002c74:	ffc40413          	addi	s0,s0,-4 # ffff5ffc <imm12+0xffff652c>
80002c78:	00c40463          	beq	s0,a2,80002c80 <inst_305>
80002c7c:	7c80206f          	j	80005444 <bad_trap>

80002c80 <inst_305>:
80002c80:	55555537          	lui	a0,0x55555
80002c84:	55450513          	addi	a0,a0,1364 # 55555554 <absimm+0x10263025>
80002c88:	0000b5b7          	lui	a1,0xb
80002c8c:	50458593          	addi	a1,a1,1284 # b504 <offset+0xb424>
80002c90:	00b56633          	or	a2,a0,a1
80002c94:	46c32c23          	sw	a2,1144(t1)
80002c98:	5555f437          	lui	s0,0x5555f
80002c9c:	55440413          	addi	s0,s0,1364 # 5555f554 <absimm+0x1026d025>
80002ca0:	00c40463          	beq	s0,a2,80002ca8 <inst_306>
80002ca4:	7a00206f          	j	80005444 <bad_trap>

80002ca8 <inst_306>:
80002ca8:	55555537          	lui	a0,0x55555
80002cac:	55450513          	addi	a0,a0,1364 # 55555554 <absimm+0x10263025>
80002cb0:	00200593          	li	a1,2
80002cb4:	00b56633          	or	a2,a0,a1
80002cb8:	46c32e23          	sw	a2,1148(t1)
80002cbc:	55555437          	lui	s0,0x55555
80002cc0:	55640413          	addi	s0,s0,1366 # 55555556 <absimm+0x10263027>
80002cc4:	00c40463          	beq	s0,a2,80002ccc <inst_307>
80002cc8:	77c0206f          	j	80005444 <bad_trap>

80002ccc <inst_307>:
80002ccc:	55555537          	lui	a0,0x55555
80002cd0:	55450513          	addi	a0,a0,1364 # 55555554 <absimm+0x10263025>
80002cd4:	555555b7          	lui	a1,0x55555
80002cd8:	55458593          	addi	a1,a1,1364 # 55555554 <absimm+0x10263025>
80002cdc:	00b56633          	or	a2,a0,a1
80002ce0:	48c32023          	sw	a2,1152(t1)
80002ce4:	55555437          	lui	s0,0x55555
80002ce8:	55440413          	addi	s0,s0,1364 # 55555554 <absimm+0x10263025>
80002cec:	00c40463          	beq	s0,a2,80002cf4 <inst_308>
80002cf0:	7540206f          	j	80005444 <bad_trap>

80002cf4 <inst_308>:
80002cf4:	55555537          	lui	a0,0x55555
80002cf8:	55450513          	addi	a0,a0,1364 # 55555554 <absimm+0x10263025>
80002cfc:	00000593          	li	a1,0
80002d00:	00b56633          	or	a2,a0,a1
80002d04:	48c32223          	sw	a2,1156(t1)
80002d08:	55555437          	lui	s0,0x55555
80002d0c:	55440413          	addi	s0,s0,1364 # 55555554 <absimm+0x10263025>
80002d10:	00c40463          	beq	s0,a2,80002d18 <inst_309>
80002d14:	7300206f          	j	80005444 <bad_trap>

80002d18 <inst_309>:
80002d18:	55555537          	lui	a0,0x55555
80002d1c:	55450513          	addi	a0,a0,1364 # 55555554 <absimm+0x10263025>
80002d20:	00400593          	li	a1,4
80002d24:	00b56633          	or	a2,a0,a1
80002d28:	48c32423          	sw	a2,1160(t1)
80002d2c:	55555437          	lui	s0,0x55555
80002d30:	55440413          	addi	s0,s0,1364 # 55555554 <absimm+0x10263025>
80002d34:	00c40463          	beq	s0,a2,80002d3c <inst_310>
80002d38:	70c0206f          	j	80005444 <bad_trap>

80002d3c <inst_310>:
80002d3c:	55555537          	lui	a0,0x55555
80002d40:	55450513          	addi	a0,a0,1364 # 55555554 <absimm+0x10263025>
80002d44:	333335b7          	lui	a1,0x33333
80002d48:	33258593          	addi	a1,a1,818 # 33333332 <offset+0x33333252>
80002d4c:	00b56633          	or	a2,a0,a1
80002d50:	48c32623          	sw	a2,1164(t1)
80002d54:	77777437          	lui	s0,0x77777
80002d58:	77640413          	addi	s0,s0,1910 # 77777776 <absimm+0x32485247>
80002d5c:	00c40463          	beq	s0,a2,80002d64 <inst_311>
80002d60:	6e40206f          	j	80005444 <bad_trap>

80002d64 <inst_311>:
80002d64:	55555537          	lui	a0,0x55555
80002d68:	55450513          	addi	a0,a0,1364 # 55555554 <absimm+0x10263025>
80002d6c:	666665b7          	lui	a1,0x66666
80002d70:	66558593          	addi	a1,a1,1637 # 66666665 <absimm+0x21374136>
80002d74:	00b56633          	or	a2,a0,a1
80002d78:	48c32823          	sw	a2,1168(t1)
80002d7c:	77777437          	lui	s0,0x77777
80002d80:	77540413          	addi	s0,s0,1909 # 77777775 <absimm+0x32485246>
80002d84:	00c40463          	beq	s0,a2,80002d8c <inst_312>
80002d88:	6bc0206f          	j	80005444 <bad_trap>

80002d8c <inst_312>:
80002d8c:	55555537          	lui	a0,0x55555
80002d90:	55450513          	addi	a0,a0,1364 # 55555554 <absimm+0x10263025>
80002d94:	0000b5b7          	lui	a1,0xb
80002d98:	50358593          	addi	a1,a1,1283 # b503 <offset+0xb423>
80002d9c:	00b56633          	or	a2,a0,a1
80002da0:	48c32a23          	sw	a2,1172(t1)
80002da4:	5555f437          	lui	s0,0x5555f
80002da8:	55740413          	addi	s0,s0,1367 # 5555f557 <absimm+0x1026d028>
80002dac:	00c40463          	beq	s0,a2,80002db4 <inst_313>
80002db0:	6940206f          	j	80005444 <bad_trap>

80002db4 <inst_313>:
80002db4:	55555537          	lui	a0,0x55555
80002db8:	55450513          	addi	a0,a0,1364 # 55555554 <absimm+0x10263025>
80002dbc:	555555b7          	lui	a1,0x55555
80002dc0:	55658593          	addi	a1,a1,1366 # 55555556 <absimm+0x10263027>
80002dc4:	00b56633          	or	a2,a0,a1
80002dc8:	48c32c23          	sw	a2,1176(t1)
80002dcc:	55555437          	lui	s0,0x55555
80002dd0:	55640413          	addi	s0,s0,1366 # 55555556 <absimm+0x10263027>
80002dd4:	00c40463          	beq	s0,a2,80002ddc <inst_314>
80002dd8:	66c0206f          	j	80005444 <bad_trap>

80002ddc <inst_314>:
80002ddc:	55555537          	lui	a0,0x55555
80002de0:	55450513          	addi	a0,a0,1364 # 55555554 <absimm+0x10263025>
80002de4:	aaaab5b7          	lui	a1,0xaaaab
80002de8:	aab58593          	addi	a1,a1,-1365 # aaaaaaab <imm12+0xaaaaafdb>
80002dec:	00b56633          	or	a2,a0,a1
80002df0:	48c32e23          	sw	a2,1180(t1)
80002df4:	fff00413          	li	s0,-1
80002df8:	00c40463          	beq	s0,a2,80002e00 <inst_315>
80002dfc:	6480206f          	j	80005444 <bad_trap>

80002e00 <inst_315>:
80002e00:	55555537          	lui	a0,0x55555
80002e04:	55450513          	addi	a0,a0,1364 # 55555554 <absimm+0x10263025>
80002e08:	00600593          	li	a1,6
80002e0c:	00b56633          	or	a2,a0,a1
80002e10:	4ac32023          	sw	a2,1184(t1)
80002e14:	55555437          	lui	s0,0x55555
80002e18:	55640413          	addi	s0,s0,1366 # 55555556 <absimm+0x10263027>
80002e1c:	00c40463          	beq	s0,a2,80002e24 <inst_316>
80002e20:	6240206f          	j	80005444 <bad_trap>

80002e24 <inst_316>:
80002e24:	55555537          	lui	a0,0x55555
80002e28:	55450513          	addi	a0,a0,1364 # 55555554 <absimm+0x10263025>
80002e2c:	333335b7          	lui	a1,0x33333
80002e30:	33458593          	addi	a1,a1,820 # 33333334 <offset+0x33333254>
80002e34:	00b56633          	or	a2,a0,a1
80002e38:	4ac32223          	sw	a2,1188(t1)
80002e3c:	77777437          	lui	s0,0x77777
80002e40:	77440413          	addi	s0,s0,1908 # 77777774 <absimm+0x32485245>
80002e44:	00c40463          	beq	s0,a2,80002e4c <inst_317>
80002e48:	5fc0206f          	j	80005444 <bad_trap>

80002e4c <inst_317>:
80002e4c:	55555537          	lui	a0,0x55555
80002e50:	55450513          	addi	a0,a0,1364 # 55555554 <absimm+0x10263025>
80002e54:	666665b7          	lui	a1,0x66666
80002e58:	66758593          	addi	a1,a1,1639 # 66666667 <absimm+0x21374138>
80002e5c:	00b56633          	or	a2,a0,a1
80002e60:	4ac32423          	sw	a2,1192(t1)
80002e64:	77777437          	lui	s0,0x77777
80002e68:	77740413          	addi	s0,s0,1911 # 77777777 <absimm+0x32485248>
80002e6c:	00c40463          	beq	s0,a2,80002e74 <inst_318>
80002e70:	5d40206f          	j	80005444 <bad_trap>

80002e74 <inst_318>:
80002e74:	55555537          	lui	a0,0x55555
80002e78:	55450513          	addi	a0,a0,1364 # 55555554 <absimm+0x10263025>
80002e7c:	ffff55b7          	lui	a1,0xffff5
80002e80:	afd58593          	addi	a1,a1,-1283 # ffff4afd <imm12+0xffff502d>
80002e84:	00b56633          	or	a2,a0,a1
80002e88:	4ac32623          	sw	a2,1196(t1)
80002e8c:	ffff6437          	lui	s0,0xffff6
80002e90:	ffd40413          	addi	s0,s0,-3 # ffff5ffd <imm12+0xffff652d>
80002e94:	00c40463          	beq	s0,a2,80002e9c <inst_319>
80002e98:	5ac0206f          	j	80005444 <bad_trap>

80002e9c <inst_319>:
80002e9c:	55555537          	lui	a0,0x55555
80002ea0:	55450513          	addi	a0,a0,1364 # 55555554 <absimm+0x10263025>
80002ea4:	0000b5b7          	lui	a1,0xb
80002ea8:	50558593          	addi	a1,a1,1285 # b505 <offset+0xb425>
80002eac:	00b56633          	or	a2,a0,a1
80002eb0:	4ac32823          	sw	a2,1200(t1)
80002eb4:	5555f437          	lui	s0,0x5555f
80002eb8:	55540413          	addi	s0,s0,1365 # 5555f555 <absimm+0x1026d026>
80002ebc:	00c40463          	beq	s0,a2,80002ec4 <inst_320>
80002ec0:	5840206f          	j	80005444 <bad_trap>

80002ec4 <inst_320>:
80002ec4:	00000513          	li	a0,0
80002ec8:	00300593          	li	a1,3
80002ecc:	00b56633          	or	a2,a0,a1
80002ed0:	4ac32a23          	sw	a2,1204(t1)
80002ed4:	00300413          	li	s0,3
80002ed8:	00c40463          	beq	s0,a2,80002ee0 <inst_321>
80002edc:	5680206f          	j	80005444 <bad_trap>

80002ee0 <inst_321>:
80002ee0:	00000513          	li	a0,0
80002ee4:	555555b7          	lui	a1,0x55555
80002ee8:	55558593          	addi	a1,a1,1365 # 55555555 <absimm+0x10263026>
80002eec:	00b56633          	or	a2,a0,a1
80002ef0:	4ac32c23          	sw	a2,1208(t1)
80002ef4:	55555437          	lui	s0,0x55555
80002ef8:	55540413          	addi	s0,s0,1365 # 55555555 <absimm+0x10263026>
80002efc:	00c40463          	beq	s0,a2,80002f04 <inst_322>
80002f00:	5440206f          	j	80005444 <bad_trap>

80002f04 <inst_322>:
80002f04:	00000513          	li	a0,0
80002f08:	aaaab5b7          	lui	a1,0xaaaab
80002f0c:	aaa58593          	addi	a1,a1,-1366 # aaaaaaaa <imm12+0xaaaaafda>
80002f10:	00b56633          	or	a2,a0,a1
80002f14:	4ac32e23          	sw	a2,1212(t1)
80002f18:	aaaab437          	lui	s0,0xaaaab
80002f1c:	aaa40413          	addi	s0,s0,-1366 # aaaaaaaa <imm12+0xaaaaafda>
80002f20:	00c40463          	beq	s0,a2,80002f28 <inst_323>
80002f24:	5200206f          	j	80005444 <bad_trap>

80002f28 <inst_323>:
80002f28:	00000513          	li	a0,0
80002f2c:	00500593          	li	a1,5
80002f30:	00b56633          	or	a2,a0,a1
80002f34:	4cc32023          	sw	a2,1216(t1)
80002f38:	00500413          	li	s0,5
80002f3c:	00c40463          	beq	s0,a2,80002f44 <inst_324>
80002f40:	5040206f          	j	80005444 <bad_trap>

80002f44 <inst_324>:
80002f44:	00000513          	li	a0,0
80002f48:	333335b7          	lui	a1,0x33333
80002f4c:	33358593          	addi	a1,a1,819 # 33333333 <offset+0x33333253>
80002f50:	00b56633          	or	a2,a0,a1
80002f54:	4cc32223          	sw	a2,1220(t1)
80002f58:	33333437          	lui	s0,0x33333
80002f5c:	33340413          	addi	s0,s0,819 # 33333333 <offset+0x33333253>
80002f60:	00c40463          	beq	s0,a2,80002f68 <inst_325>
80002f64:	4e00206f          	j	80005444 <bad_trap>

80002f68 <inst_325>:
80002f68:	00000513          	li	a0,0
80002f6c:	666665b7          	lui	a1,0x66666
80002f70:	66658593          	addi	a1,a1,1638 # 66666666 <absimm+0x21374137>
80002f74:	00b56633          	or	a2,a0,a1
80002f78:	4cc32423          	sw	a2,1224(t1)
80002f7c:	66666437          	lui	s0,0x66666
80002f80:	66640413          	addi	s0,s0,1638 # 66666666 <absimm+0x21374137>
80002f84:	00c40463          	beq	s0,a2,80002f8c <inst_326>
80002f88:	4bc0206f          	j	80005444 <bad_trap>

80002f8c <inst_326>:
80002f8c:	00000513          	li	a0,0
80002f90:	ffff55b7          	lui	a1,0xffff5
80002f94:	afc58593          	addi	a1,a1,-1284 # ffff4afc <imm12+0xffff502c>
80002f98:	00b56633          	or	a2,a0,a1
80002f9c:	4cc32623          	sw	a2,1228(t1)
80002fa0:	ffff5437          	lui	s0,0xffff5
80002fa4:	afc40413          	addi	s0,s0,-1284 # ffff4afc <imm12+0xffff502c>
80002fa8:	00c40463          	beq	s0,a2,80002fb0 <inst_327>
80002fac:	4980206f          	j	80005444 <bad_trap>

80002fb0 <inst_327>:
80002fb0:	00000513          	li	a0,0
80002fb4:	0000b5b7          	lui	a1,0xb
80002fb8:	50458593          	addi	a1,a1,1284 # b504 <offset+0xb424>
80002fbc:	00b56633          	or	a2,a0,a1
80002fc0:	4cc32823          	sw	a2,1232(t1)
80002fc4:	0000b437          	lui	s0,0xb
80002fc8:	50440413          	addi	s0,s0,1284 # b504 <offset+0xb424>
80002fcc:	00c40463          	beq	s0,a2,80002fd4 <inst_328>
80002fd0:	4740206f          	j	80005444 <bad_trap>

80002fd4 <inst_328>:
80002fd4:	00000513          	li	a0,0
80002fd8:	00200593          	li	a1,2
80002fdc:	00b56633          	or	a2,a0,a1
80002fe0:	4cc32a23          	sw	a2,1236(t1)
80002fe4:	00200413          	li	s0,2
80002fe8:	00c40463          	beq	s0,a2,80002ff0 <inst_329>
80002fec:	4580206f          	j	80005444 <bad_trap>

80002ff0 <inst_329>:
80002ff0:	aaaab537          	lui	a0,0xaaaab
80002ff4:	aab50513          	addi	a0,a0,-1365 # aaaaaaab <imm12+0xaaaaafdb>
80002ff8:	aaaab5b7          	lui	a1,0xaaaab
80002ffc:	aab58593          	addi	a1,a1,-1365 # aaaaaaab <imm12+0xaaaaafdb>
80003000:	00b56633          	or	a2,a0,a1
80003004:	4cc32c23          	sw	a2,1240(t1)
80003008:	aaaab437          	lui	s0,0xaaaab
8000300c:	aab40413          	addi	s0,s0,-1365 # aaaaaaab <imm12+0xaaaaafdb>
80003010:	00c40463          	beq	s0,a2,80003018 <inst_330>
80003014:	4300206f          	j	80005444 <bad_trap>

80003018 <inst_330>:
80003018:	aaaab537          	lui	a0,0xaaaab
8000301c:	aab50513          	addi	a0,a0,-1365 # aaaaaaab <imm12+0xaaaaafdb>
80003020:	00600593          	li	a1,6
80003024:	00b56633          	or	a2,a0,a1
80003028:	4cc32e23          	sw	a2,1244(t1)
8000302c:	aaaab437          	lui	s0,0xaaaab
80003030:	aaf40413          	addi	s0,s0,-1361 # aaaaaaaf <imm12+0xaaaaafdf>
80003034:	00c40463          	beq	s0,a2,8000303c <inst_331>
80003038:	40c0206f          	j	80005444 <bad_trap>

8000303c <inst_331>:
8000303c:	aaaab537          	lui	a0,0xaaaab
80003040:	aab50513          	addi	a0,a0,-1365 # aaaaaaab <imm12+0xaaaaafdb>
80003044:	333335b7          	lui	a1,0x33333
80003048:	33458593          	addi	a1,a1,820 # 33333334 <offset+0x33333254>
8000304c:	00b56633          	or	a2,a0,a1
80003050:	4ec32023          	sw	a2,1248(t1)
80003054:	bbbbc437          	lui	s0,0xbbbbc
80003058:	bbf40413          	addi	s0,s0,-1089 # bbbbbbbf <imm12+0xbbbbc0ef>
8000305c:	00c40463          	beq	s0,a2,80003064 <inst_332>
80003060:	3e40206f          	j	80005444 <bad_trap>

80003064 <inst_332>:
80003064:	aaaab537          	lui	a0,0xaaaab
80003068:	aab50513          	addi	a0,a0,-1365 # aaaaaaab <imm12+0xaaaaafdb>
8000306c:	666665b7          	lui	a1,0x66666
80003070:	66758593          	addi	a1,a1,1639 # 66666667 <absimm+0x21374138>
80003074:	00b56633          	or	a2,a0,a1
80003078:	4ec32223          	sw	a2,1252(t1)
8000307c:	eeeef437          	lui	s0,0xeeeef
80003080:	eef40413          	addi	s0,s0,-273 # eeeeeeef <imm12+0xeeeef41f>
80003084:	00c40463          	beq	s0,a2,8000308c <inst_333>
80003088:	3bc0206f          	j	80005444 <bad_trap>

8000308c <inst_333>:
8000308c:	aaaab537          	lui	a0,0xaaaab
80003090:	aab50513          	addi	a0,a0,-1365 # aaaaaaab <imm12+0xaaaaafdb>
80003094:	ffff55b7          	lui	a1,0xffff5
80003098:	afd58593          	addi	a1,a1,-1283 # ffff4afd <imm12+0xffff502d>
8000309c:	00b56633          	or	a2,a0,a1
800030a0:	4ec32423          	sw	a2,1256(t1)
800030a4:	fffff437          	lui	s0,0xfffff
800030a8:	aff40413          	addi	s0,s0,-1281 # ffffeaff <imm12+0xfffff02f>
800030ac:	00c40463          	beq	s0,a2,800030b4 <inst_334>
800030b0:	3940206f          	j	80005444 <bad_trap>

800030b4 <inst_334>:
800030b4:	aaaab537          	lui	a0,0xaaaab
800030b8:	aab50513          	addi	a0,a0,-1365 # aaaaaaab <imm12+0xaaaaafdb>
800030bc:	0000b5b7          	lui	a1,0xb
800030c0:	50558593          	addi	a1,a1,1285 # b505 <offset+0xb425>
800030c4:	00b56633          	or	a2,a0,a1
800030c8:	4ec32623          	sw	a2,1260(t1)
800030cc:	aaaac437          	lui	s0,0xaaaac
800030d0:	faf40413          	addi	s0,s0,-81 # aaaabfaf <imm12+0xaaaac4df>
800030d4:	00c40463          	beq	s0,a2,800030dc <inst_335>
800030d8:	36c0206f          	j	80005444 <bad_trap>

800030dc <inst_335>:
800030dc:	00600513          	li	a0,6
800030e0:	00300593          	li	a1,3
800030e4:	00b56633          	or	a2,a0,a1
800030e8:	4ec32823          	sw	a2,1264(t1)
800030ec:	00700413          	li	s0,7
800030f0:	00c40463          	beq	s0,a2,800030f8 <inst_336>
800030f4:	3500206f          	j	80005444 <bad_trap>

800030f8 <inst_336>:
800030f8:	00600513          	li	a0,6
800030fc:	555555b7          	lui	a1,0x55555
80003100:	55558593          	addi	a1,a1,1365 # 55555555 <absimm+0x10263026>
80003104:	00b56633          	or	a2,a0,a1
80003108:	4ec32a23          	sw	a2,1268(t1)
8000310c:	55555437          	lui	s0,0x55555
80003110:	55740413          	addi	s0,s0,1367 # 55555557 <absimm+0x10263028>
80003114:	00c40463          	beq	s0,a2,8000311c <inst_337>
80003118:	32c0206f          	j	80005444 <bad_trap>

8000311c <inst_337>:
8000311c:	00600513          	li	a0,6
80003120:	aaaab5b7          	lui	a1,0xaaaab
80003124:	aaa58593          	addi	a1,a1,-1366 # aaaaaaaa <imm12+0xaaaaafda>
80003128:	00b56633          	or	a2,a0,a1
8000312c:	4ec32c23          	sw	a2,1272(t1)
80003130:	aaaab437          	lui	s0,0xaaaab
80003134:	aae40413          	addi	s0,s0,-1362 # aaaaaaae <imm12+0xaaaaafde>
80003138:	00c40463          	beq	s0,a2,80003140 <inst_338>
8000313c:	3080206f          	j	80005444 <bad_trap>

80003140 <inst_338>:
80003140:	00600513          	li	a0,6
80003144:	00500593          	li	a1,5
80003148:	00b56633          	or	a2,a0,a1
8000314c:	4ec32e23          	sw	a2,1276(t1)
80003150:	00700413          	li	s0,7
80003154:	00c40463          	beq	s0,a2,8000315c <inst_339>
80003158:	2ec0206f          	j	80005444 <bad_trap>

8000315c <inst_339>:
8000315c:	00600513          	li	a0,6
80003160:	333335b7          	lui	a1,0x33333
80003164:	33358593          	addi	a1,a1,819 # 33333333 <offset+0x33333253>
80003168:	00b56633          	or	a2,a0,a1
8000316c:	50c32023          	sw	a2,1280(t1)
80003170:	33333437          	lui	s0,0x33333
80003174:	33740413          	addi	s0,s0,823 # 33333337 <offset+0x33333257>
80003178:	00c40463          	beq	s0,a2,80003180 <inst_340>
8000317c:	2c80206f          	j	80005444 <bad_trap>

80003180 <inst_340>:
80003180:	00600513          	li	a0,6
80003184:	666665b7          	lui	a1,0x66666
80003188:	66658593          	addi	a1,a1,1638 # 66666666 <absimm+0x21374137>
8000318c:	00b56633          	or	a2,a0,a1
80003190:	50c32223          	sw	a2,1284(t1)
80003194:	66666437          	lui	s0,0x66666
80003198:	66640413          	addi	s0,s0,1638 # 66666666 <absimm+0x21374137>
8000319c:	00c40463          	beq	s0,a2,800031a4 <inst_341>
800031a0:	2a40206f          	j	80005444 <bad_trap>

800031a4 <inst_341>:
800031a4:	00600513          	li	a0,6
800031a8:	ffff55b7          	lui	a1,0xffff5
800031ac:	afc58593          	addi	a1,a1,-1284 # ffff4afc <imm12+0xffff502c>
800031b0:	00b56633          	or	a2,a0,a1
800031b4:	50c32423          	sw	a2,1288(t1)
800031b8:	ffff5437          	lui	s0,0xffff5
800031bc:	afe40413          	addi	s0,s0,-1282 # ffff4afe <imm12+0xffff502e>
800031c0:	00c40463          	beq	s0,a2,800031c8 <inst_342>
800031c4:	2800206f          	j	80005444 <bad_trap>

800031c8 <inst_342>:
800031c8:	00600513          	li	a0,6
800031cc:	0000b5b7          	lui	a1,0xb
800031d0:	50458593          	addi	a1,a1,1284 # b504 <offset+0xb424>
800031d4:	00b56633          	or	a2,a0,a1
800031d8:	50c32623          	sw	a2,1292(t1)
800031dc:	0000b437          	lui	s0,0xb
800031e0:	50640413          	addi	s0,s0,1286 # b506 <offset+0xb426>
800031e4:	00c40463          	beq	s0,a2,800031ec <inst_343>
800031e8:	25c0206f          	j	80005444 <bad_trap>

800031ec <inst_343>:
800031ec:	00600513          	li	a0,6
800031f0:	00200593          	li	a1,2
800031f4:	00b56633          	or	a2,a0,a1
800031f8:	50c32823          	sw	a2,1296(t1)
800031fc:	00600413          	li	s0,6
80003200:	00c40463          	beq	s0,a2,80003208 <inst_344>
80003204:	2400206f          	j	80005444 <bad_trap>

80003208 <inst_344>:
80003208:	00600513          	li	a0,6
8000320c:	555555b7          	lui	a1,0x55555
80003210:	55458593          	addi	a1,a1,1364 # 55555554 <absimm+0x10263025>
80003214:	00b56633          	or	a2,a0,a1
80003218:	50c32a23          	sw	a2,1300(t1)
8000321c:	55555437          	lui	s0,0x55555
80003220:	55640413          	addi	s0,s0,1366 # 55555556 <absimm+0x10263027>
80003224:	00c40463          	beq	s0,a2,8000322c <inst_345>
80003228:	21c0206f          	j	80005444 <bad_trap>

8000322c <inst_345>:
8000322c:	00600513          	li	a0,6
80003230:	00000593          	li	a1,0
80003234:	00b56633          	or	a2,a0,a1
80003238:	50c32c23          	sw	a2,1304(t1)
8000323c:	00600413          	li	s0,6
80003240:	00c40463          	beq	s0,a2,80003248 <inst_346>
80003244:	2000206f          	j	80005444 <bad_trap>

80003248 <inst_346>:
80003248:	00600513          	li	a0,6
8000324c:	00400593          	li	a1,4
80003250:	00b56633          	or	a2,a0,a1
80003254:	50c32e23          	sw	a2,1308(t1)
80003258:	00600413          	li	s0,6
8000325c:	00c40463          	beq	s0,a2,80003264 <inst_347>
80003260:	1e40206f          	j	80005444 <bad_trap>

80003264 <inst_347>:
80003264:	00600513          	li	a0,6
80003268:	333335b7          	lui	a1,0x33333
8000326c:	33258593          	addi	a1,a1,818 # 33333332 <offset+0x33333252>
80003270:	00b56633          	or	a2,a0,a1
80003274:	52c32023          	sw	a2,1312(t1)
80003278:	33333437          	lui	s0,0x33333
8000327c:	33640413          	addi	s0,s0,822 # 33333336 <offset+0x33333256>
80003280:	00c40463          	beq	s0,a2,80003288 <inst_348>
80003284:	1c00206f          	j	80005444 <bad_trap>

80003288 <inst_348>:
80003288:	00600513          	li	a0,6
8000328c:	666665b7          	lui	a1,0x66666
80003290:	66558593          	addi	a1,a1,1637 # 66666665 <absimm+0x21374136>
80003294:	00b56633          	or	a2,a0,a1
80003298:	52c32223          	sw	a2,1316(t1)
8000329c:	66666437          	lui	s0,0x66666
800032a0:	66740413          	addi	s0,s0,1639 # 66666667 <absimm+0x21374138>
800032a4:	00c40463          	beq	s0,a2,800032ac <inst_349>
800032a8:	19c0206f          	j	80005444 <bad_trap>

800032ac <inst_349>:
800032ac:	00600513          	li	a0,6
800032b0:	0000b5b7          	lui	a1,0xb
800032b4:	50358593          	addi	a1,a1,1283 # b503 <offset+0xb423>
800032b8:	00b56633          	or	a2,a0,a1
800032bc:	52c32423          	sw	a2,1320(t1)
800032c0:	0000b437          	lui	s0,0xb
800032c4:	50740413          	addi	s0,s0,1287 # b507 <offset+0xb427>
800032c8:	00c40463          	beq	s0,a2,800032d0 <inst_350>
800032cc:	1780206f          	j	80005444 <bad_trap>

800032d0 <inst_350>:
800032d0:	00600513          	li	a0,6
800032d4:	555555b7          	lui	a1,0x55555
800032d8:	55658593          	addi	a1,a1,1366 # 55555556 <absimm+0x10263027>
800032dc:	00b56633          	or	a2,a0,a1
800032e0:	52c32623          	sw	a2,1324(t1)
800032e4:	55555437          	lui	s0,0x55555
800032e8:	55640413          	addi	s0,s0,1366 # 55555556 <absimm+0x10263027>
800032ec:	00c40463          	beq	s0,a2,800032f4 <inst_351>
800032f0:	1540206f          	j	80005444 <bad_trap>

800032f4 <inst_351>:
800032f4:	00600513          	li	a0,6
800032f8:	aaaab5b7          	lui	a1,0xaaaab
800032fc:	aab58593          	addi	a1,a1,-1365 # aaaaaaab <imm12+0xaaaaafdb>
80003300:	00b56633          	or	a2,a0,a1
80003304:	52c32823          	sw	a2,1328(t1)
80003308:	aaaab437          	lui	s0,0xaaaab
8000330c:	aaf40413          	addi	s0,s0,-1361 # aaaaaaaf <imm12+0xaaaaafdf>
80003310:	00c40463          	beq	s0,a2,80003318 <inst_352>
80003314:	1300206f          	j	80005444 <bad_trap>

80003318 <inst_352>:
80003318:	00600513          	li	a0,6
8000331c:	00600593          	li	a1,6
80003320:	00b56633          	or	a2,a0,a1
80003324:	52c32a23          	sw	a2,1332(t1)
80003328:	00600413          	li	s0,6
8000332c:	00c40463          	beq	s0,a2,80003334 <inst_353>
80003330:	1140206f          	j	80005444 <bad_trap>

80003334 <inst_353>:
80003334:	00600513          	li	a0,6
80003338:	333335b7          	lui	a1,0x33333
8000333c:	33458593          	addi	a1,a1,820 # 33333334 <offset+0x33333254>
80003340:	00b56633          	or	a2,a0,a1
80003344:	52c32c23          	sw	a2,1336(t1)
80003348:	33333437          	lui	s0,0x33333
8000334c:	33640413          	addi	s0,s0,822 # 33333336 <offset+0x33333256>
80003350:	00c40463          	beq	s0,a2,80003358 <inst_354>
80003354:	0f00206f          	j	80005444 <bad_trap>

80003358 <inst_354>:
80003358:	00600513          	li	a0,6
8000335c:	666665b7          	lui	a1,0x66666
80003360:	66758593          	addi	a1,a1,1639 # 66666667 <absimm+0x21374138>
80003364:	00b56633          	or	a2,a0,a1
80003368:	52c32e23          	sw	a2,1340(t1)
8000336c:	66666437          	lui	s0,0x66666
80003370:	66740413          	addi	s0,s0,1639 # 66666667 <absimm+0x21374138>
80003374:	00c40463          	beq	s0,a2,8000337c <inst_355>
80003378:	0cc0206f          	j	80005444 <bad_trap>

8000337c <inst_355>:
8000337c:	00600513          	li	a0,6
80003380:	ffff55b7          	lui	a1,0xffff5
80003384:	afd58593          	addi	a1,a1,-1283 # ffff4afd <imm12+0xffff502d>
80003388:	00b56633          	or	a2,a0,a1
8000338c:	54c32023          	sw	a2,1344(t1)
80003390:	ffff5437          	lui	s0,0xffff5
80003394:	aff40413          	addi	s0,s0,-1281 # ffff4aff <imm12+0xffff502f>
80003398:	00c40463          	beq	s0,a2,800033a0 <inst_356>
8000339c:	0a80206f          	j	80005444 <bad_trap>

800033a0 <inst_356>:
800033a0:	00600513          	li	a0,6
800033a4:	0000b5b7          	lui	a1,0xb
800033a8:	50558593          	addi	a1,a1,1285 # b505 <offset+0xb425>
800033ac:	00b56633          	or	a2,a0,a1
800033b0:	54c32223          	sw	a2,1348(t1)
800033b4:	0000b437          	lui	s0,0xb
800033b8:	50740413          	addi	s0,s0,1287 # b507 <offset+0xb427>
800033bc:	00c40463          	beq	s0,a2,800033c4 <inst_357>
800033c0:	0840206f          	j	80005444 <bad_trap>

800033c4 <inst_357>:
800033c4:	33333537          	lui	a0,0x33333
800033c8:	33450513          	addi	a0,a0,820 # 33333334 <offset+0x33333254>
800033cc:	00300593          	li	a1,3
800033d0:	00b56633          	or	a2,a0,a1
800033d4:	54c32423          	sw	a2,1352(t1)
800033d8:	33333437          	lui	s0,0x33333
800033dc:	33740413          	addi	s0,s0,823 # 33333337 <offset+0x33333257>
800033e0:	00c40463          	beq	s0,a2,800033e8 <inst_358>
800033e4:	0600206f          	j	80005444 <bad_trap>

800033e8 <inst_358>:
800033e8:	33333537          	lui	a0,0x33333
800033ec:	33450513          	addi	a0,a0,820 # 33333334 <offset+0x33333254>
800033f0:	555555b7          	lui	a1,0x55555
800033f4:	55558593          	addi	a1,a1,1365 # 55555555 <absimm+0x10263026>
800033f8:	00b56633          	or	a2,a0,a1
800033fc:	54c32623          	sw	a2,1356(t1)
80003400:	77777437          	lui	s0,0x77777
80003404:	77540413          	addi	s0,s0,1909 # 77777775 <absimm+0x32485246>
80003408:	00c40463          	beq	s0,a2,80003410 <inst_359>
8000340c:	0380206f          	j	80005444 <bad_trap>

80003410 <inst_359>:
80003410:	33333537          	lui	a0,0x33333
80003414:	33450513          	addi	a0,a0,820 # 33333334 <offset+0x33333254>
80003418:	aaaab5b7          	lui	a1,0xaaaab
8000341c:	aaa58593          	addi	a1,a1,-1366 # aaaaaaaa <imm12+0xaaaaafda>
80003420:	00b56633          	or	a2,a0,a1
80003424:	54c32823          	sw	a2,1360(t1)
80003428:	bbbbc437          	lui	s0,0xbbbbc
8000342c:	bbe40413          	addi	s0,s0,-1090 # bbbbbbbe <imm12+0xbbbbc0ee>
80003430:	00c40463          	beq	s0,a2,80003438 <inst_360>
80003434:	0100206f          	j	80005444 <bad_trap>

80003438 <inst_360>:
80003438:	33333537          	lui	a0,0x33333
8000343c:	33450513          	addi	a0,a0,820 # 33333334 <offset+0x33333254>
80003440:	00500593          	li	a1,5
80003444:	00b56633          	or	a2,a0,a1
80003448:	54c32a23          	sw	a2,1364(t1)
8000344c:	33333437          	lui	s0,0x33333
80003450:	33540413          	addi	s0,s0,821 # 33333335 <offset+0x33333255>
80003454:	00c40463          	beq	s0,a2,8000345c <inst_361>
80003458:	7ed0106f          	j	80005444 <bad_trap>

8000345c <inst_361>:
8000345c:	33333537          	lui	a0,0x33333
80003460:	33450513          	addi	a0,a0,820 # 33333334 <offset+0x33333254>
80003464:	333335b7          	lui	a1,0x33333
80003468:	33358593          	addi	a1,a1,819 # 33333333 <offset+0x33333253>
8000346c:	00b56633          	or	a2,a0,a1
80003470:	54c32c23          	sw	a2,1368(t1)
80003474:	33333437          	lui	s0,0x33333
80003478:	33740413          	addi	s0,s0,823 # 33333337 <offset+0x33333257>
8000347c:	00c40463          	beq	s0,a2,80003484 <inst_362>
80003480:	7c50106f          	j	80005444 <bad_trap>

80003484 <inst_362>:
80003484:	33333537          	lui	a0,0x33333
80003488:	33450513          	addi	a0,a0,820 # 33333334 <offset+0x33333254>
8000348c:	666665b7          	lui	a1,0x66666
80003490:	66658593          	addi	a1,a1,1638 # 66666666 <absimm+0x21374137>
80003494:	00b56633          	or	a2,a0,a1
80003498:	54c32e23          	sw	a2,1372(t1)
8000349c:	77777437          	lui	s0,0x77777
800034a0:	77640413          	addi	s0,s0,1910 # 77777776 <absimm+0x32485247>
800034a4:	00c40463          	beq	s0,a2,800034ac <inst_363>
800034a8:	79d0106f          	j	80005444 <bad_trap>

800034ac <inst_363>:
800034ac:	33333537          	lui	a0,0x33333
800034b0:	33450513          	addi	a0,a0,820 # 33333334 <offset+0x33333254>
800034b4:	ffff55b7          	lui	a1,0xffff5
800034b8:	afc58593          	addi	a1,a1,-1284 # ffff4afc <imm12+0xffff502c>
800034bc:	00b56633          	or	a2,a0,a1
800034c0:	56c32023          	sw	a2,1376(t1)
800034c4:	ffff8437          	lui	s0,0xffff8
800034c8:	bfc40413          	addi	s0,s0,-1028 # ffff7bfc <imm12+0xffff812c>
800034cc:	00c40463          	beq	s0,a2,800034d4 <inst_364>
800034d0:	7750106f          	j	80005444 <bad_trap>

800034d4 <inst_364>:
800034d4:	33333537          	lui	a0,0x33333
800034d8:	33450513          	addi	a0,a0,820 # 33333334 <offset+0x33333254>
800034dc:	0000b5b7          	lui	a1,0xb
800034e0:	50458593          	addi	a1,a1,1284 # b504 <offset+0xb424>
800034e4:	00b56633          	or	a2,a0,a1
800034e8:	56c32223          	sw	a2,1380(t1)
800034ec:	3333b437          	lui	s0,0x3333b
800034f0:	73440413          	addi	s0,s0,1844 # 3333b734 <offset+0x3333b654>
800034f4:	00c40463          	beq	s0,a2,800034fc <inst_365>
800034f8:	74d0106f          	j	80005444 <bad_trap>

800034fc <inst_365>:
800034fc:	33333537          	lui	a0,0x33333
80003500:	33450513          	addi	a0,a0,820 # 33333334 <offset+0x33333254>
80003504:	00200593          	li	a1,2
80003508:	00b56633          	or	a2,a0,a1
8000350c:	56c32423          	sw	a2,1384(t1)
80003510:	33333437          	lui	s0,0x33333
80003514:	33640413          	addi	s0,s0,822 # 33333336 <offset+0x33333256>
80003518:	00c40463          	beq	s0,a2,80003520 <inst_366>
8000351c:	7290106f          	j	80005444 <bad_trap>

80003520 <inst_366>:
80003520:	33333537          	lui	a0,0x33333
80003524:	33450513          	addi	a0,a0,820 # 33333334 <offset+0x33333254>
80003528:	555555b7          	lui	a1,0x55555
8000352c:	55458593          	addi	a1,a1,1364 # 55555554 <absimm+0x10263025>
80003530:	00b56633          	or	a2,a0,a1
80003534:	56c32623          	sw	a2,1388(t1)
80003538:	77777437          	lui	s0,0x77777
8000353c:	77440413          	addi	s0,s0,1908 # 77777774 <absimm+0x32485245>
80003540:	00c40463          	beq	s0,a2,80003548 <inst_367>
80003544:	7010106f          	j	80005444 <bad_trap>

80003548 <inst_367>:
80003548:	33333537          	lui	a0,0x33333
8000354c:	33450513          	addi	a0,a0,820 # 33333334 <offset+0x33333254>
80003550:	00000593          	li	a1,0
80003554:	00b56633          	or	a2,a0,a1
80003558:	56c32823          	sw	a2,1392(t1)
8000355c:	33333437          	lui	s0,0x33333
80003560:	33440413          	addi	s0,s0,820 # 33333334 <offset+0x33333254>
80003564:	00c40463          	beq	s0,a2,8000356c <inst_368>
80003568:	6dd0106f          	j	80005444 <bad_trap>

8000356c <inst_368>:
8000356c:	33333537          	lui	a0,0x33333
80003570:	33450513          	addi	a0,a0,820 # 33333334 <offset+0x33333254>
80003574:	00400593          	li	a1,4
80003578:	00b56633          	or	a2,a0,a1
8000357c:	56c32a23          	sw	a2,1396(t1)
80003580:	33333437          	lui	s0,0x33333
80003584:	33440413          	addi	s0,s0,820 # 33333334 <offset+0x33333254>
80003588:	00c40463          	beq	s0,a2,80003590 <inst_369>
8000358c:	6b90106f          	j	80005444 <bad_trap>

80003590 <inst_369>:
80003590:	33333537          	lui	a0,0x33333
80003594:	33450513          	addi	a0,a0,820 # 33333334 <offset+0x33333254>
80003598:	333335b7          	lui	a1,0x33333
8000359c:	33258593          	addi	a1,a1,818 # 33333332 <offset+0x33333252>
800035a0:	00b56633          	or	a2,a0,a1
800035a4:	56c32c23          	sw	a2,1400(t1)
800035a8:	33333437          	lui	s0,0x33333
800035ac:	33640413          	addi	s0,s0,822 # 33333336 <offset+0x33333256>
800035b0:	00c40463          	beq	s0,a2,800035b8 <inst_370>
800035b4:	6910106f          	j	80005444 <bad_trap>

800035b8 <inst_370>:
800035b8:	33333537          	lui	a0,0x33333
800035bc:	33450513          	addi	a0,a0,820 # 33333334 <offset+0x33333254>
800035c0:	666665b7          	lui	a1,0x66666
800035c4:	66558593          	addi	a1,a1,1637 # 66666665 <absimm+0x21374136>
800035c8:	00b56633          	or	a2,a0,a1
800035cc:	56c32e23          	sw	a2,1404(t1)
800035d0:	77777437          	lui	s0,0x77777
800035d4:	77540413          	addi	s0,s0,1909 # 77777775 <absimm+0x32485246>
800035d8:	00c40463          	beq	s0,a2,800035e0 <inst_371>
800035dc:	6690106f          	j	80005444 <bad_trap>

800035e0 <inst_371>:
800035e0:	33333537          	lui	a0,0x33333
800035e4:	33450513          	addi	a0,a0,820 # 33333334 <offset+0x33333254>
800035e8:	0000b5b7          	lui	a1,0xb
800035ec:	50358593          	addi	a1,a1,1283 # b503 <offset+0xb423>
800035f0:	00b56633          	or	a2,a0,a1
800035f4:	58c32023          	sw	a2,1408(t1)
800035f8:	3333b437          	lui	s0,0x3333b
800035fc:	73740413          	addi	s0,s0,1847 # 3333b737 <offset+0x3333b657>
80003600:	00c40463          	beq	s0,a2,80003608 <inst_372>
80003604:	6410106f          	j	80005444 <bad_trap>

80003608 <inst_372>:
80003608:	33333537          	lui	a0,0x33333
8000360c:	33450513          	addi	a0,a0,820 # 33333334 <offset+0x33333254>
80003610:	555555b7          	lui	a1,0x55555
80003614:	55658593          	addi	a1,a1,1366 # 55555556 <absimm+0x10263027>
80003618:	00b56633          	or	a2,a0,a1
8000361c:	58c32223          	sw	a2,1412(t1)
80003620:	77777437          	lui	s0,0x77777
80003624:	77640413          	addi	s0,s0,1910 # 77777776 <absimm+0x32485247>
80003628:	00c40463          	beq	s0,a2,80003630 <inst_373>
8000362c:	6190106f          	j	80005444 <bad_trap>

80003630 <inst_373>:
80003630:	33333537          	lui	a0,0x33333
80003634:	33450513          	addi	a0,a0,820 # 33333334 <offset+0x33333254>
80003638:	aaaab5b7          	lui	a1,0xaaaab
8000363c:	aab58593          	addi	a1,a1,-1365 # aaaaaaab <imm12+0xaaaaafdb>
80003640:	00b56633          	or	a2,a0,a1
80003644:	58c32423          	sw	a2,1416(t1)
80003648:	bbbbc437          	lui	s0,0xbbbbc
8000364c:	bbf40413          	addi	s0,s0,-1089 # bbbbbbbf <imm12+0xbbbbc0ef>
80003650:	00c40463          	beq	s0,a2,80003658 <inst_374>
80003654:	5f10106f          	j	80005444 <bad_trap>

80003658 <inst_374>:
80003658:	33333537          	lui	a0,0x33333
8000365c:	33450513          	addi	a0,a0,820 # 33333334 <offset+0x33333254>
80003660:	00600593          	li	a1,6
80003664:	00b56633          	or	a2,a0,a1
80003668:	58c32623          	sw	a2,1420(t1)
8000366c:	33333437          	lui	s0,0x33333
80003670:	33640413          	addi	s0,s0,822 # 33333336 <offset+0x33333256>
80003674:	00c40463          	beq	s0,a2,8000367c <inst_375>
80003678:	5cd0106f          	j	80005444 <bad_trap>

8000367c <inst_375>:
8000367c:	33333537          	lui	a0,0x33333
80003680:	33450513          	addi	a0,a0,820 # 33333334 <offset+0x33333254>
80003684:	333335b7          	lui	a1,0x33333
80003688:	33458593          	addi	a1,a1,820 # 33333334 <offset+0x33333254>
8000368c:	00b56633          	or	a2,a0,a1
80003690:	58c32823          	sw	a2,1424(t1)
80003694:	33333437          	lui	s0,0x33333
80003698:	33440413          	addi	s0,s0,820 # 33333334 <offset+0x33333254>
8000369c:	00c40463          	beq	s0,a2,800036a4 <inst_376>
800036a0:	5a50106f          	j	80005444 <bad_trap>

800036a4 <inst_376>:
800036a4:	33333537          	lui	a0,0x33333
800036a8:	33450513          	addi	a0,a0,820 # 33333334 <offset+0x33333254>
800036ac:	666665b7          	lui	a1,0x66666
800036b0:	66758593          	addi	a1,a1,1639 # 66666667 <absimm+0x21374138>
800036b4:	00b56633          	or	a2,a0,a1
800036b8:	58c32a23          	sw	a2,1428(t1)
800036bc:	77777437          	lui	s0,0x77777
800036c0:	77740413          	addi	s0,s0,1911 # 77777777 <absimm+0x32485248>
800036c4:	00c40463          	beq	s0,a2,800036cc <inst_377>
800036c8:	57d0106f          	j	80005444 <bad_trap>

800036cc <inst_377>:
800036cc:	33333537          	lui	a0,0x33333
800036d0:	33450513          	addi	a0,a0,820 # 33333334 <offset+0x33333254>
800036d4:	ffff55b7          	lui	a1,0xffff5
800036d8:	afd58593          	addi	a1,a1,-1283 # ffff4afd <imm12+0xffff502d>
800036dc:	00b56633          	or	a2,a0,a1
800036e0:	58c32c23          	sw	a2,1432(t1)
800036e4:	ffff8437          	lui	s0,0xffff8
800036e8:	bfd40413          	addi	s0,s0,-1027 # ffff7bfd <imm12+0xffff812d>
800036ec:	00c40463          	beq	s0,a2,800036f4 <inst_378>
800036f0:	5550106f          	j	80005444 <bad_trap>

800036f4 <inst_378>:
800036f4:	33333537          	lui	a0,0x33333
800036f8:	33450513          	addi	a0,a0,820 # 33333334 <offset+0x33333254>
800036fc:	0000b5b7          	lui	a1,0xb
80003700:	50558593          	addi	a1,a1,1285 # b505 <offset+0xb425>
80003704:	00b56633          	or	a2,a0,a1
80003708:	58c32e23          	sw	a2,1436(t1)
8000370c:	3333b437          	lui	s0,0x3333b
80003710:	73540413          	addi	s0,s0,1845 # 3333b735 <offset+0x3333b655>
80003714:	00c40463          	beq	s0,a2,8000371c <inst_379>
80003718:	52d0106f          	j	80005444 <bad_trap>

8000371c <inst_379>:
8000371c:	66666537          	lui	a0,0x66666
80003720:	66750513          	addi	a0,a0,1639 # 66666667 <absimm+0x21374138>
80003724:	00300593          	li	a1,3
80003728:	00b56633          	or	a2,a0,a1
8000372c:	5ac32023          	sw	a2,1440(t1)
80003730:	66666437          	lui	s0,0x66666
80003734:	66740413          	addi	s0,s0,1639 # 66666667 <absimm+0x21374138>
80003738:	00c40463          	beq	s0,a2,80003740 <inst_380>
8000373c:	5090106f          	j	80005444 <bad_trap>

80003740 <inst_380>:
80003740:	66666537          	lui	a0,0x66666
80003744:	66750513          	addi	a0,a0,1639 # 66666667 <absimm+0x21374138>
80003748:	555555b7          	lui	a1,0x55555
8000374c:	55558593          	addi	a1,a1,1365 # 55555555 <absimm+0x10263026>
80003750:	00b56633          	or	a2,a0,a1
80003754:	5ac32223          	sw	a2,1444(t1)
80003758:	77777437          	lui	s0,0x77777
8000375c:	77740413          	addi	s0,s0,1911 # 77777777 <absimm+0x32485248>
80003760:	00c40463          	beq	s0,a2,80003768 <inst_381>
80003764:	4e10106f          	j	80005444 <bad_trap>

80003768 <inst_381>:
80003768:	66666537          	lui	a0,0x66666
8000376c:	66750513          	addi	a0,a0,1639 # 66666667 <absimm+0x21374138>
80003770:	aaaab5b7          	lui	a1,0xaaaab
80003774:	aaa58593          	addi	a1,a1,-1366 # aaaaaaaa <imm12+0xaaaaafda>
80003778:	00b56633          	or	a2,a0,a1
8000377c:	5ac32423          	sw	a2,1448(t1)
80003780:	eeeef437          	lui	s0,0xeeeef
80003784:	eef40413          	addi	s0,s0,-273 # eeeeeeef <imm12+0xeeeef41f>
80003788:	00c40463          	beq	s0,a2,80003790 <inst_382>
8000378c:	4b90106f          	j	80005444 <bad_trap>

80003790 <inst_382>:
80003790:	66666537          	lui	a0,0x66666
80003794:	66750513          	addi	a0,a0,1639 # 66666667 <absimm+0x21374138>
80003798:	00500593          	li	a1,5
8000379c:	00b56633          	or	a2,a0,a1
800037a0:	5ac32623          	sw	a2,1452(t1)
800037a4:	66666437          	lui	s0,0x66666
800037a8:	66740413          	addi	s0,s0,1639 # 66666667 <absimm+0x21374138>
800037ac:	00c40463          	beq	s0,a2,800037b4 <inst_383>
800037b0:	4950106f          	j	80005444 <bad_trap>

800037b4 <inst_383>:
800037b4:	66666537          	lui	a0,0x66666
800037b8:	66750513          	addi	a0,a0,1639 # 66666667 <absimm+0x21374138>
800037bc:	333335b7          	lui	a1,0x33333
800037c0:	33358593          	addi	a1,a1,819 # 33333333 <offset+0x33333253>
800037c4:	00b56633          	or	a2,a0,a1
800037c8:	5ac32823          	sw	a2,1456(t1)
800037cc:	77777437          	lui	s0,0x77777
800037d0:	77740413          	addi	s0,s0,1911 # 77777777 <absimm+0x32485248>
800037d4:	00c40463          	beq	s0,a2,800037dc <inst_384>
800037d8:	46d0106f          	j	80005444 <bad_trap>

800037dc <inst_384>:
800037dc:	66666537          	lui	a0,0x66666
800037e0:	66750513          	addi	a0,a0,1639 # 66666667 <absimm+0x21374138>
800037e4:	666665b7          	lui	a1,0x66666
800037e8:	66658593          	addi	a1,a1,1638 # 66666666 <absimm+0x21374137>
800037ec:	00b56633          	or	a2,a0,a1
800037f0:	5ac32a23          	sw	a2,1460(t1)
800037f4:	66666437          	lui	s0,0x66666
800037f8:	66740413          	addi	s0,s0,1639 # 66666667 <absimm+0x21374138>
800037fc:	00c40463          	beq	s0,a2,80003804 <inst_385>
80003800:	4450106f          	j	80005444 <bad_trap>

80003804 <inst_385>:
80003804:	66666537          	lui	a0,0x66666
80003808:	66750513          	addi	a0,a0,1639 # 66666667 <absimm+0x21374138>
8000380c:	ffff55b7          	lui	a1,0xffff5
80003810:	afc58593          	addi	a1,a1,-1284 # ffff4afc <imm12+0xffff502c>
80003814:	00b56633          	or	a2,a0,a1
80003818:	5ac32c23          	sw	a2,1464(t1)
8000381c:	ffff7437          	lui	s0,0xffff7
80003820:	eff40413          	addi	s0,s0,-257 # ffff6eff <imm12+0xffff742f>
80003824:	00c40463          	beq	s0,a2,8000382c <inst_386>
80003828:	41d0106f          	j	80005444 <bad_trap>

8000382c <inst_386>:
8000382c:	66666537          	lui	a0,0x66666
80003830:	66750513          	addi	a0,a0,1639 # 66666667 <absimm+0x21374138>
80003834:	0000b5b7          	lui	a1,0xb
80003838:	50458593          	addi	a1,a1,1284 # b504 <offset+0xb424>
8000383c:	00b56633          	or	a2,a0,a1
80003840:	5ac32e23          	sw	a2,1468(t1)
80003844:	6666f437          	lui	s0,0x6666f
80003848:	76740413          	addi	s0,s0,1895 # 6666f767 <absimm+0x2137d238>
8000384c:	00c40463          	beq	s0,a2,80003854 <inst_387>
80003850:	3f50106f          	j	80005444 <bad_trap>

80003854 <inst_387>:
80003854:	66666537          	lui	a0,0x66666
80003858:	66750513          	addi	a0,a0,1639 # 66666667 <absimm+0x21374138>
8000385c:	00200593          	li	a1,2
80003860:	00b56633          	or	a2,a0,a1
80003864:	5cc32023          	sw	a2,1472(t1)
80003868:	66666437          	lui	s0,0x66666
8000386c:	66740413          	addi	s0,s0,1639 # 66666667 <absimm+0x21374138>
80003870:	00c40463          	beq	s0,a2,80003878 <inst_388>
80003874:	3d10106f          	j	80005444 <bad_trap>

80003878 <inst_388>:
80003878:	66666537          	lui	a0,0x66666
8000387c:	66750513          	addi	a0,a0,1639 # 66666667 <absimm+0x21374138>
80003880:	555555b7          	lui	a1,0x55555
80003884:	55458593          	addi	a1,a1,1364 # 55555554 <absimm+0x10263025>
80003888:	00b56633          	or	a2,a0,a1
8000388c:	5cc32223          	sw	a2,1476(t1)
80003890:	77777437          	lui	s0,0x77777
80003894:	77740413          	addi	s0,s0,1911 # 77777777 <absimm+0x32485248>
80003898:	00c40463          	beq	s0,a2,800038a0 <inst_389>
8000389c:	3a90106f          	j	80005444 <bad_trap>

800038a0 <inst_389>:
800038a0:	66666537          	lui	a0,0x66666
800038a4:	66750513          	addi	a0,a0,1639 # 66666667 <absimm+0x21374138>
800038a8:	00000593          	li	a1,0
800038ac:	00b56633          	or	a2,a0,a1
800038b0:	5cc32423          	sw	a2,1480(t1)
800038b4:	66666437          	lui	s0,0x66666
800038b8:	66740413          	addi	s0,s0,1639 # 66666667 <absimm+0x21374138>
800038bc:	00c40463          	beq	s0,a2,800038c4 <inst_390>
800038c0:	3850106f          	j	80005444 <bad_trap>

800038c4 <inst_390>:
800038c4:	66666537          	lui	a0,0x66666
800038c8:	66750513          	addi	a0,a0,1639 # 66666667 <absimm+0x21374138>
800038cc:	00400593          	li	a1,4
800038d0:	00b56633          	or	a2,a0,a1
800038d4:	5cc32623          	sw	a2,1484(t1)
800038d8:	66666437          	lui	s0,0x66666
800038dc:	66740413          	addi	s0,s0,1639 # 66666667 <absimm+0x21374138>
800038e0:	00c40463          	beq	s0,a2,800038e8 <inst_391>
800038e4:	3610106f          	j	80005444 <bad_trap>

800038e8 <inst_391>:
800038e8:	66666537          	lui	a0,0x66666
800038ec:	66750513          	addi	a0,a0,1639 # 66666667 <absimm+0x21374138>
800038f0:	333335b7          	lui	a1,0x33333
800038f4:	33258593          	addi	a1,a1,818 # 33333332 <offset+0x33333252>
800038f8:	00b56633          	or	a2,a0,a1
800038fc:	5cc32823          	sw	a2,1488(t1)
80003900:	77777437          	lui	s0,0x77777
80003904:	77740413          	addi	s0,s0,1911 # 77777777 <absimm+0x32485248>
80003908:	00c40463          	beq	s0,a2,80003910 <inst_392>
8000390c:	3390106f          	j	80005444 <bad_trap>

80003910 <inst_392>:
80003910:	66666537          	lui	a0,0x66666
80003914:	66750513          	addi	a0,a0,1639 # 66666667 <absimm+0x21374138>
80003918:	666665b7          	lui	a1,0x66666
8000391c:	66558593          	addi	a1,a1,1637 # 66666665 <absimm+0x21374136>
80003920:	00b56633          	or	a2,a0,a1
80003924:	5cc32a23          	sw	a2,1492(t1)
80003928:	66666437          	lui	s0,0x66666
8000392c:	66740413          	addi	s0,s0,1639 # 66666667 <absimm+0x21374138>
80003930:	00c40463          	beq	s0,a2,80003938 <inst_393>
80003934:	3110106f          	j	80005444 <bad_trap>

80003938 <inst_393>:
80003938:	66666537          	lui	a0,0x66666
8000393c:	66750513          	addi	a0,a0,1639 # 66666667 <absimm+0x21374138>
80003940:	0000b5b7          	lui	a1,0xb
80003944:	50358593          	addi	a1,a1,1283 # b503 <offset+0xb423>
80003948:	00b56633          	or	a2,a0,a1
8000394c:	5cc32c23          	sw	a2,1496(t1)
80003950:	6666f437          	lui	s0,0x6666f
80003954:	76740413          	addi	s0,s0,1895 # 6666f767 <absimm+0x2137d238>
80003958:	00c40463          	beq	s0,a2,80003960 <inst_394>
8000395c:	2e90106f          	j	80005444 <bad_trap>

80003960 <inst_394>:
80003960:	66666537          	lui	a0,0x66666
80003964:	66750513          	addi	a0,a0,1639 # 66666667 <absimm+0x21374138>
80003968:	555555b7          	lui	a1,0x55555
8000396c:	55658593          	addi	a1,a1,1366 # 55555556 <absimm+0x10263027>
80003970:	00b56633          	or	a2,a0,a1
80003974:	5cc32e23          	sw	a2,1500(t1)
80003978:	77777437          	lui	s0,0x77777
8000397c:	77740413          	addi	s0,s0,1911 # 77777777 <absimm+0x32485248>
80003980:	00c40463          	beq	s0,a2,80003988 <inst_395>
80003984:	2c10106f          	j	80005444 <bad_trap>

80003988 <inst_395>:
80003988:	66666537          	lui	a0,0x66666
8000398c:	66750513          	addi	a0,a0,1639 # 66666667 <absimm+0x21374138>
80003990:	aaaab5b7          	lui	a1,0xaaaab
80003994:	aab58593          	addi	a1,a1,-1365 # aaaaaaab <imm12+0xaaaaafdb>
80003998:	00b56633          	or	a2,a0,a1
8000399c:	5ec32023          	sw	a2,1504(t1)
800039a0:	eeeef437          	lui	s0,0xeeeef
800039a4:	eef40413          	addi	s0,s0,-273 # eeeeeeef <imm12+0xeeeef41f>
800039a8:	00c40463          	beq	s0,a2,800039b0 <inst_396>
800039ac:	2990106f          	j	80005444 <bad_trap>

800039b0 <inst_396>:
800039b0:	66666537          	lui	a0,0x66666
800039b4:	66750513          	addi	a0,a0,1639 # 66666667 <absimm+0x21374138>
800039b8:	00600593          	li	a1,6
800039bc:	00b56633          	or	a2,a0,a1
800039c0:	5ec32223          	sw	a2,1508(t1)
800039c4:	66666437          	lui	s0,0x66666
800039c8:	66740413          	addi	s0,s0,1639 # 66666667 <absimm+0x21374138>
800039cc:	00c40463          	beq	s0,a2,800039d4 <inst_397>
800039d0:	2750106f          	j	80005444 <bad_trap>

800039d4 <inst_397>:
800039d4:	66666537          	lui	a0,0x66666
800039d8:	66750513          	addi	a0,a0,1639 # 66666667 <absimm+0x21374138>
800039dc:	333335b7          	lui	a1,0x33333
800039e0:	33458593          	addi	a1,a1,820 # 33333334 <offset+0x33333254>
800039e4:	00b56633          	or	a2,a0,a1
800039e8:	5ec32423          	sw	a2,1512(t1)
800039ec:	77777437          	lui	s0,0x77777
800039f0:	77740413          	addi	s0,s0,1911 # 77777777 <absimm+0x32485248>
800039f4:	00c40463          	beq	s0,a2,800039fc <inst_398>
800039f8:	24d0106f          	j	80005444 <bad_trap>

800039fc <inst_398>:
800039fc:	66666537          	lui	a0,0x66666
80003a00:	66750513          	addi	a0,a0,1639 # 66666667 <absimm+0x21374138>
80003a04:	666665b7          	lui	a1,0x66666
80003a08:	66758593          	addi	a1,a1,1639 # 66666667 <absimm+0x21374138>
80003a0c:	00b56633          	or	a2,a0,a1
80003a10:	5ec32623          	sw	a2,1516(t1)
80003a14:	66666437          	lui	s0,0x66666
80003a18:	66740413          	addi	s0,s0,1639 # 66666667 <absimm+0x21374138>
80003a1c:	00c40463          	beq	s0,a2,80003a24 <inst_399>
80003a20:	2250106f          	j	80005444 <bad_trap>

80003a24 <inst_399>:
80003a24:	66666537          	lui	a0,0x66666
80003a28:	66750513          	addi	a0,a0,1639 # 66666667 <absimm+0x21374138>
80003a2c:	ffff55b7          	lui	a1,0xffff5
80003a30:	afd58593          	addi	a1,a1,-1283 # ffff4afd <imm12+0xffff502d>
80003a34:	00b56633          	or	a2,a0,a1
80003a38:	5ec32823          	sw	a2,1520(t1)
80003a3c:	ffff7437          	lui	s0,0xffff7
80003a40:	eff40413          	addi	s0,s0,-257 # ffff6eff <imm12+0xffff742f>
80003a44:	00c40463          	beq	s0,a2,80003a4c <inst_400>
80003a48:	1fd0106f          	j	80005444 <bad_trap>

80003a4c <inst_400>:
80003a4c:	66666537          	lui	a0,0x66666
80003a50:	66750513          	addi	a0,a0,1639 # 66666667 <absimm+0x21374138>
80003a54:	0000b5b7          	lui	a1,0xb
80003a58:	50558593          	addi	a1,a1,1285 # b505 <offset+0xb425>
80003a5c:	00b56633          	or	a2,a0,a1
80003a60:	5ec32a23          	sw	a2,1524(t1)
80003a64:	6666f437          	lui	s0,0x6666f
80003a68:	76740413          	addi	s0,s0,1895 # 6666f767 <absimm+0x2137d238>
80003a6c:	00c40463          	beq	s0,a2,80003a74 <inst_401>
80003a70:	1d50106f          	j	80005444 <bad_trap>

80003a74 <inst_401>:
80003a74:	ffff5537          	lui	a0,0xffff5
80003a78:	afd50513          	addi	a0,a0,-1283 # ffff4afd <imm12+0xffff502d>
80003a7c:	00300593          	li	a1,3
80003a80:	00b56633          	or	a2,a0,a1
80003a84:	5ec32c23          	sw	a2,1528(t1)
80003a88:	ffff5437          	lui	s0,0xffff5
80003a8c:	aff40413          	addi	s0,s0,-1281 # ffff4aff <imm12+0xffff502f>
80003a90:	00c40463          	beq	s0,a2,80003a98 <inst_402>
80003a94:	1b10106f          	j	80005444 <bad_trap>

80003a98 <inst_402>:
80003a98:	ffff5537          	lui	a0,0xffff5
80003a9c:	afd50513          	addi	a0,a0,-1283 # ffff4afd <imm12+0xffff502d>
80003aa0:	555555b7          	lui	a1,0x55555
80003aa4:	55558593          	addi	a1,a1,1365 # 55555555 <absimm+0x10263026>
80003aa8:	00b56633          	or	a2,a0,a1
80003aac:	5ec32e23          	sw	a2,1532(t1)
80003ab0:	ffff6437          	lui	s0,0xffff6
80003ab4:	ffd40413          	addi	s0,s0,-3 # ffff5ffd <imm12+0xffff652d>
80003ab8:	00c40463          	beq	s0,a2,80003ac0 <inst_403>
80003abc:	1890106f          	j	80005444 <bad_trap>

80003ac0 <inst_403>:
80003ac0:	ffff5537          	lui	a0,0xffff5
80003ac4:	afd50513          	addi	a0,a0,-1283 # ffff4afd <imm12+0xffff502d>
80003ac8:	aaaab5b7          	lui	a1,0xaaaab
80003acc:	aaa58593          	addi	a1,a1,-1366 # aaaaaaaa <imm12+0xaaaaafda>
80003ad0:	00b56633          	or	a2,a0,a1
80003ad4:	60c32023          	sw	a2,1536(t1)
80003ad8:	fffff437          	lui	s0,0xfffff
80003adc:	aff40413          	addi	s0,s0,-1281 # ffffeaff <imm12+0xfffff02f>
80003ae0:	00c40463          	beq	s0,a2,80003ae8 <inst_404>
80003ae4:	1610106f          	j	80005444 <bad_trap>

80003ae8 <inst_404>:
80003ae8:	ffff5537          	lui	a0,0xffff5
80003aec:	afd50513          	addi	a0,a0,-1283 # ffff4afd <imm12+0xffff502d>
80003af0:	00500593          	li	a1,5
80003af4:	00b56633          	or	a2,a0,a1
80003af8:	60c32223          	sw	a2,1540(t1)
80003afc:	ffff5437          	lui	s0,0xffff5
80003b00:	afd40413          	addi	s0,s0,-1283 # ffff4afd <imm12+0xffff502d>
80003b04:	00c40463          	beq	s0,a2,80003b0c <inst_405>
80003b08:	13d0106f          	j	80005444 <bad_trap>

80003b0c <inst_405>:
80003b0c:	ffff5537          	lui	a0,0xffff5
80003b10:	afd50513          	addi	a0,a0,-1283 # ffff4afd <imm12+0xffff502d>
80003b14:	333335b7          	lui	a1,0x33333
80003b18:	33358593          	addi	a1,a1,819 # 33333333 <offset+0x33333253>
80003b1c:	00b56633          	or	a2,a0,a1
80003b20:	60c32423          	sw	a2,1544(t1)
80003b24:	ffff8437          	lui	s0,0xffff8
80003b28:	bff40413          	addi	s0,s0,-1025 # ffff7bff <imm12+0xffff812f>
80003b2c:	00c40463          	beq	s0,a2,80003b34 <inst_406>
80003b30:	1150106f          	j	80005444 <bad_trap>

80003b34 <inst_406>:
80003b34:	ffff5537          	lui	a0,0xffff5
80003b38:	afd50513          	addi	a0,a0,-1283 # ffff4afd <imm12+0xffff502d>
80003b3c:	666665b7          	lui	a1,0x66666
80003b40:	66658593          	addi	a1,a1,1638 # 66666666 <absimm+0x21374137>
80003b44:	00b56633          	or	a2,a0,a1
80003b48:	60c32623          	sw	a2,1548(t1)
80003b4c:	ffff7437          	lui	s0,0xffff7
80003b50:	eff40413          	addi	s0,s0,-257 # ffff6eff <imm12+0xffff742f>
80003b54:	00c40463          	beq	s0,a2,80003b5c <inst_407>
80003b58:	0ed0106f          	j	80005444 <bad_trap>

80003b5c <inst_407>:
80003b5c:	ffff5537          	lui	a0,0xffff5
80003b60:	afd50513          	addi	a0,a0,-1283 # ffff4afd <imm12+0xffff502d>
80003b64:	ffff55b7          	lui	a1,0xffff5
80003b68:	afc58593          	addi	a1,a1,-1284 # ffff4afc <imm12+0xffff502c>
80003b6c:	00b56633          	or	a2,a0,a1
80003b70:	60c32823          	sw	a2,1552(t1)
80003b74:	ffff5437          	lui	s0,0xffff5
80003b78:	afd40413          	addi	s0,s0,-1283 # ffff4afd <imm12+0xffff502d>
80003b7c:	00c40463          	beq	s0,a2,80003b84 <inst_408>
80003b80:	0c50106f          	j	80005444 <bad_trap>

80003b84 <inst_408>:
80003b84:	ffff5537          	lui	a0,0xffff5
80003b88:	afd50513          	addi	a0,a0,-1283 # ffff4afd <imm12+0xffff502d>
80003b8c:	0000b5b7          	lui	a1,0xb
80003b90:	50458593          	addi	a1,a1,1284 # b504 <offset+0xb424>
80003b94:	00b56633          	or	a2,a0,a1
80003b98:	60c32a23          	sw	a2,1556(t1)
80003b9c:	ffd00413          	li	s0,-3
80003ba0:	00c40463          	beq	s0,a2,80003ba8 <inst_409>
80003ba4:	0a10106f          	j	80005444 <bad_trap>

80003ba8 <inst_409>:
80003ba8:	ffff5537          	lui	a0,0xffff5
80003bac:	afd50513          	addi	a0,a0,-1283 # ffff4afd <imm12+0xffff502d>
80003bb0:	00200593          	li	a1,2
80003bb4:	00b56633          	or	a2,a0,a1
80003bb8:	60c32c23          	sw	a2,1560(t1)
80003bbc:	ffff5437          	lui	s0,0xffff5
80003bc0:	aff40413          	addi	s0,s0,-1281 # ffff4aff <imm12+0xffff502f>
80003bc4:	00c40463          	beq	s0,a2,80003bcc <inst_410>
80003bc8:	07d0106f          	j	80005444 <bad_trap>

80003bcc <inst_410>:
80003bcc:	ffff5537          	lui	a0,0xffff5
80003bd0:	afd50513          	addi	a0,a0,-1283 # ffff4afd <imm12+0xffff502d>
80003bd4:	555555b7          	lui	a1,0x55555
80003bd8:	55458593          	addi	a1,a1,1364 # 55555554 <absimm+0x10263025>
80003bdc:	00b56633          	or	a2,a0,a1
80003be0:	60c32e23          	sw	a2,1564(t1)
80003be4:	ffff6437          	lui	s0,0xffff6
80003be8:	ffd40413          	addi	s0,s0,-3 # ffff5ffd <imm12+0xffff652d>
80003bec:	00c40463          	beq	s0,a2,80003bf4 <inst_411>
80003bf0:	0550106f          	j	80005444 <bad_trap>

80003bf4 <inst_411>:
80003bf4:	ffff5537          	lui	a0,0xffff5
80003bf8:	afd50513          	addi	a0,a0,-1283 # ffff4afd <imm12+0xffff502d>
80003bfc:	00000593          	li	a1,0
80003c00:	00b56633          	or	a2,a0,a1
80003c04:	62c32023          	sw	a2,1568(t1)
80003c08:	ffff5437          	lui	s0,0xffff5
80003c0c:	afd40413          	addi	s0,s0,-1283 # ffff4afd <imm12+0xffff502d>
80003c10:	00c40463          	beq	s0,a2,80003c18 <inst_412>
80003c14:	0310106f          	j	80005444 <bad_trap>

80003c18 <inst_412>:
80003c18:	ffff5537          	lui	a0,0xffff5
80003c1c:	afd50513          	addi	a0,a0,-1283 # ffff4afd <imm12+0xffff502d>
80003c20:	00400593          	li	a1,4
80003c24:	00b56633          	or	a2,a0,a1
80003c28:	62c32223          	sw	a2,1572(t1)
80003c2c:	ffff5437          	lui	s0,0xffff5
80003c30:	afd40413          	addi	s0,s0,-1283 # ffff4afd <imm12+0xffff502d>
80003c34:	00c40463          	beq	s0,a2,80003c3c <inst_413>
80003c38:	00d0106f          	j	80005444 <bad_trap>

80003c3c <inst_413>:
80003c3c:	ffff5537          	lui	a0,0xffff5
80003c40:	afd50513          	addi	a0,a0,-1283 # ffff4afd <imm12+0xffff502d>
80003c44:	333335b7          	lui	a1,0x33333
80003c48:	33258593          	addi	a1,a1,818 # 33333332 <offset+0x33333252>
80003c4c:	00b56633          	or	a2,a0,a1
80003c50:	62c32423          	sw	a2,1576(t1)
80003c54:	ffff8437          	lui	s0,0xffff8
80003c58:	bff40413          	addi	s0,s0,-1025 # ffff7bff <imm12+0xffff812f>
80003c5c:	00c40463          	beq	s0,a2,80003c64 <inst_414>
80003c60:	7e40106f          	j	80005444 <bad_trap>

80003c64 <inst_414>:
80003c64:	ffff5537          	lui	a0,0xffff5
80003c68:	afd50513          	addi	a0,a0,-1283 # ffff4afd <imm12+0xffff502d>
80003c6c:	666665b7          	lui	a1,0x66666
80003c70:	66558593          	addi	a1,a1,1637 # 66666665 <absimm+0x21374136>
80003c74:	00b56633          	or	a2,a0,a1
80003c78:	62c32623          	sw	a2,1580(t1)
80003c7c:	ffff7437          	lui	s0,0xffff7
80003c80:	efd40413          	addi	s0,s0,-259 # ffff6efd <imm12+0xffff742d>
80003c84:	00c40463          	beq	s0,a2,80003c8c <inst_415>
80003c88:	7bc0106f          	j	80005444 <bad_trap>

80003c8c <inst_415>:
80003c8c:	ffff5537          	lui	a0,0xffff5
80003c90:	afd50513          	addi	a0,a0,-1283 # ffff4afd <imm12+0xffff502d>
80003c94:	0000b5b7          	lui	a1,0xb
80003c98:	50358593          	addi	a1,a1,1283 # b503 <offset+0xb423>
80003c9c:	00b56633          	or	a2,a0,a1
80003ca0:	62c32823          	sw	a2,1584(t1)
80003ca4:	fff00413          	li	s0,-1
80003ca8:	00c40463          	beq	s0,a2,80003cb0 <inst_416>
80003cac:	7980106f          	j	80005444 <bad_trap>

80003cb0 <inst_416>:
80003cb0:	ffff5537          	lui	a0,0xffff5
80003cb4:	afd50513          	addi	a0,a0,-1283 # ffff4afd <imm12+0xffff502d>
80003cb8:	555555b7          	lui	a1,0x55555
80003cbc:	55658593          	addi	a1,a1,1366 # 55555556 <absimm+0x10263027>
80003cc0:	00b56633          	or	a2,a0,a1
80003cc4:	62c32a23          	sw	a2,1588(t1)
80003cc8:	ffff6437          	lui	s0,0xffff6
80003ccc:	fff40413          	addi	s0,s0,-1 # ffff5fff <imm12+0xffff652f>
80003cd0:	00c40463          	beq	s0,a2,80003cd8 <inst_417>
80003cd4:	7700106f          	j	80005444 <bad_trap>

80003cd8 <inst_417>:
80003cd8:	ffff5537          	lui	a0,0xffff5
80003cdc:	afd50513          	addi	a0,a0,-1283 # ffff4afd <imm12+0xffff502d>
80003ce0:	aaaab5b7          	lui	a1,0xaaaab
80003ce4:	aab58593          	addi	a1,a1,-1365 # aaaaaaab <imm12+0xaaaaafdb>
80003ce8:	00b56633          	or	a2,a0,a1
80003cec:	62c32c23          	sw	a2,1592(t1)
80003cf0:	fffff437          	lui	s0,0xfffff
80003cf4:	aff40413          	addi	s0,s0,-1281 # ffffeaff <imm12+0xfffff02f>
80003cf8:	00c40463          	beq	s0,a2,80003d00 <inst_418>
80003cfc:	7480106f          	j	80005444 <bad_trap>

80003d00 <inst_418>:
80003d00:	ffff5537          	lui	a0,0xffff5
80003d04:	afd50513          	addi	a0,a0,-1283 # ffff4afd <imm12+0xffff502d>
80003d08:	00600593          	li	a1,6
80003d0c:	00b56633          	or	a2,a0,a1
80003d10:	62c32e23          	sw	a2,1596(t1)
80003d14:	ffff5437          	lui	s0,0xffff5
80003d18:	aff40413          	addi	s0,s0,-1281 # ffff4aff <imm12+0xffff502f>
80003d1c:	00c40463          	beq	s0,a2,80003d24 <inst_419>
80003d20:	7240106f          	j	80005444 <bad_trap>

80003d24 <inst_419>:
80003d24:	ffff5537          	lui	a0,0xffff5
80003d28:	afd50513          	addi	a0,a0,-1283 # ffff4afd <imm12+0xffff502d>
80003d2c:	333335b7          	lui	a1,0x33333
80003d30:	33458593          	addi	a1,a1,820 # 33333334 <offset+0x33333254>
80003d34:	00b56633          	or	a2,a0,a1
80003d38:	64c32023          	sw	a2,1600(t1)
80003d3c:	ffff8437          	lui	s0,0xffff8
80003d40:	bfd40413          	addi	s0,s0,-1027 # ffff7bfd <imm12+0xffff812d>
80003d44:	00c40463          	beq	s0,a2,80003d4c <inst_420>
80003d48:	6fc0106f          	j	80005444 <bad_trap>

80003d4c <inst_420>:
80003d4c:	ffff5537          	lui	a0,0xffff5
80003d50:	afd50513          	addi	a0,a0,-1283 # ffff4afd <imm12+0xffff502d>
80003d54:	666665b7          	lui	a1,0x66666
80003d58:	66758593          	addi	a1,a1,1639 # 66666667 <absimm+0x21374138>
80003d5c:	00b56633          	or	a2,a0,a1
80003d60:	64c32223          	sw	a2,1604(t1)
80003d64:	ffff7437          	lui	s0,0xffff7
80003d68:	eff40413          	addi	s0,s0,-257 # ffff6eff <imm12+0xffff742f>
80003d6c:	00c40463          	beq	s0,a2,80003d74 <inst_421>
80003d70:	6d40106f          	j	80005444 <bad_trap>

80003d74 <inst_421>:
80003d74:	ffff5537          	lui	a0,0xffff5
80003d78:	afd50513          	addi	a0,a0,-1283 # ffff4afd <imm12+0xffff502d>
80003d7c:	ffff55b7          	lui	a1,0xffff5
80003d80:	afd58593          	addi	a1,a1,-1283 # ffff4afd <imm12+0xffff502d>
80003d84:	00b56633          	or	a2,a0,a1
80003d88:	64c32423          	sw	a2,1608(t1)
80003d8c:	ffff5437          	lui	s0,0xffff5
80003d90:	afd40413          	addi	s0,s0,-1283 # ffff4afd <imm12+0xffff502d>
80003d94:	00c40463          	beq	s0,a2,80003d9c <inst_422>
80003d98:	6ac0106f          	j	80005444 <bad_trap>

80003d9c <inst_422>:
80003d9c:	ffff5537          	lui	a0,0xffff5
80003da0:	afd50513          	addi	a0,a0,-1283 # ffff4afd <imm12+0xffff502d>
80003da4:	0000b5b7          	lui	a1,0xb
80003da8:	50558593          	addi	a1,a1,1285 # b505 <offset+0xb425>
80003dac:	00b56633          	or	a2,a0,a1
80003db0:	64c32623          	sw	a2,1612(t1)
80003db4:	ffd00413          	li	s0,-3
80003db8:	00c40463          	beq	s0,a2,80003dc0 <inst_423>
80003dbc:	6880106f          	j	80005444 <bad_trap>

80003dc0 <inst_423>:
80003dc0:	0000b537          	lui	a0,0xb
80003dc4:	50550513          	addi	a0,a0,1285 # b505 <offset+0xb425>
80003dc8:	00300593          	li	a1,3
80003dcc:	00b56633          	or	a2,a0,a1
80003dd0:	64c32823          	sw	a2,1616(t1)
80003dd4:	0000b437          	lui	s0,0xb
80003dd8:	50740413          	addi	s0,s0,1287 # b507 <offset+0xb427>
80003ddc:	00c40463          	beq	s0,a2,80003de4 <inst_424>
80003de0:	6640106f          	j	80005444 <bad_trap>

80003de4 <inst_424>:
80003de4:	0000b537          	lui	a0,0xb
80003de8:	50550513          	addi	a0,a0,1285 # b505 <offset+0xb425>
80003dec:	555555b7          	lui	a1,0x55555
80003df0:	55558593          	addi	a1,a1,1365 # 55555555 <absimm+0x10263026>
80003df4:	00b56633          	or	a2,a0,a1
80003df8:	64c32a23          	sw	a2,1620(t1)
80003dfc:	5555f437          	lui	s0,0x5555f
80003e00:	55540413          	addi	s0,s0,1365 # 5555f555 <absimm+0x1026d026>
80003e04:	00c40463          	beq	s0,a2,80003e0c <inst_425>
80003e08:	63c0106f          	j	80005444 <bad_trap>

80003e0c <inst_425>:
80003e0c:	0000b537          	lui	a0,0xb
80003e10:	50550513          	addi	a0,a0,1285 # b505 <offset+0xb425>
80003e14:	aaaab5b7          	lui	a1,0xaaaab
80003e18:	aaa58593          	addi	a1,a1,-1366 # aaaaaaaa <imm12+0xaaaaafda>
80003e1c:	00b56633          	or	a2,a0,a1
80003e20:	64c32c23          	sw	a2,1624(t1)
80003e24:	aaaac437          	lui	s0,0xaaaac
80003e28:	faf40413          	addi	s0,s0,-81 # aaaabfaf <imm12+0xaaaac4df>
80003e2c:	00c40463          	beq	s0,a2,80003e34 <inst_426>
80003e30:	6140106f          	j	80005444 <bad_trap>

80003e34 <inst_426>:
80003e34:	0000b537          	lui	a0,0xb
80003e38:	50550513          	addi	a0,a0,1285 # b505 <offset+0xb425>
80003e3c:	00500593          	li	a1,5
80003e40:	00b56633          	or	a2,a0,a1
80003e44:	64c32e23          	sw	a2,1628(t1)
80003e48:	0000b437          	lui	s0,0xb
80003e4c:	50540413          	addi	s0,s0,1285 # b505 <offset+0xb425>
80003e50:	00c40463          	beq	s0,a2,80003e58 <inst_427>
80003e54:	5f00106f          	j	80005444 <bad_trap>

80003e58 <inst_427>:
80003e58:	0000b537          	lui	a0,0xb
80003e5c:	50550513          	addi	a0,a0,1285 # b505 <offset+0xb425>
80003e60:	333335b7          	lui	a1,0x33333
80003e64:	33358593          	addi	a1,a1,819 # 33333333 <offset+0x33333253>
80003e68:	00b56633          	or	a2,a0,a1
80003e6c:	66c32023          	sw	a2,1632(t1)
80003e70:	3333b437          	lui	s0,0x3333b
80003e74:	73740413          	addi	s0,s0,1847 # 3333b737 <offset+0x3333b657>
80003e78:	00c40463          	beq	s0,a2,80003e80 <inst_428>
80003e7c:	5c80106f          	j	80005444 <bad_trap>

80003e80 <inst_428>:
80003e80:	0000b537          	lui	a0,0xb
80003e84:	50550513          	addi	a0,a0,1285 # b505 <offset+0xb425>
80003e88:	666665b7          	lui	a1,0x66666
80003e8c:	66658593          	addi	a1,a1,1638 # 66666666 <absimm+0x21374137>
80003e90:	00b56633          	or	a2,a0,a1
80003e94:	66c32223          	sw	a2,1636(t1)
80003e98:	6666f437          	lui	s0,0x6666f
80003e9c:	76740413          	addi	s0,s0,1895 # 6666f767 <absimm+0x2137d238>
80003ea0:	00c40463          	beq	s0,a2,80003ea8 <inst_429>
80003ea4:	5a00106f          	j	80005444 <bad_trap>

80003ea8 <inst_429>:
80003ea8:	0000b537          	lui	a0,0xb
80003eac:	50550513          	addi	a0,a0,1285 # b505 <offset+0xb425>
80003eb0:	ffff55b7          	lui	a1,0xffff5
80003eb4:	afc58593          	addi	a1,a1,-1284 # ffff4afc <imm12+0xffff502c>
80003eb8:	00b56633          	or	a2,a0,a1
80003ebc:	66c32423          	sw	a2,1640(t1)
80003ec0:	ffd00413          	li	s0,-3
80003ec4:	00c40463          	beq	s0,a2,80003ecc <inst_430>
80003ec8:	57c0106f          	j	80005444 <bad_trap>

80003ecc <inst_430>:
80003ecc:	0000b537          	lui	a0,0xb
80003ed0:	50550513          	addi	a0,a0,1285 # b505 <offset+0xb425>
80003ed4:	0000b5b7          	lui	a1,0xb
80003ed8:	50458593          	addi	a1,a1,1284 # b504 <offset+0xb424>
80003edc:	00b56633          	or	a2,a0,a1
80003ee0:	66c32623          	sw	a2,1644(t1)
80003ee4:	0000b437          	lui	s0,0xb
80003ee8:	50540413          	addi	s0,s0,1285 # b505 <offset+0xb425>
80003eec:	00c40463          	beq	s0,a2,80003ef4 <inst_431>
80003ef0:	5540106f          	j	80005444 <bad_trap>

80003ef4 <inst_431>:
80003ef4:	0000b537          	lui	a0,0xb
80003ef8:	50550513          	addi	a0,a0,1285 # b505 <offset+0xb425>
80003efc:	00200593          	li	a1,2
80003f00:	00b56633          	or	a2,a0,a1
80003f04:	66c32823          	sw	a2,1648(t1)
80003f08:	0000b437          	lui	s0,0xb
80003f0c:	50740413          	addi	s0,s0,1287 # b507 <offset+0xb427>
80003f10:	00c40463          	beq	s0,a2,80003f18 <inst_432>
80003f14:	5300106f          	j	80005444 <bad_trap>

80003f18 <inst_432>:
80003f18:	0000b537          	lui	a0,0xb
80003f1c:	50550513          	addi	a0,a0,1285 # b505 <offset+0xb425>
80003f20:	555555b7          	lui	a1,0x55555
80003f24:	55458593          	addi	a1,a1,1364 # 55555554 <absimm+0x10263025>
80003f28:	00b56633          	or	a2,a0,a1
80003f2c:	66c32a23          	sw	a2,1652(t1)
80003f30:	5555f437          	lui	s0,0x5555f
80003f34:	55540413          	addi	s0,s0,1365 # 5555f555 <absimm+0x1026d026>
80003f38:	00c40463          	beq	s0,a2,80003f40 <inst_433>
80003f3c:	5080106f          	j	80005444 <bad_trap>

80003f40 <inst_433>:
80003f40:	0000b537          	lui	a0,0xb
80003f44:	50550513          	addi	a0,a0,1285 # b505 <offset+0xb425>
80003f48:	00000593          	li	a1,0
80003f4c:	00b56633          	or	a2,a0,a1
80003f50:	66c32c23          	sw	a2,1656(t1)
80003f54:	0000b437          	lui	s0,0xb
80003f58:	50540413          	addi	s0,s0,1285 # b505 <offset+0xb425>
80003f5c:	00c40463          	beq	s0,a2,80003f64 <inst_434>
80003f60:	4e40106f          	j	80005444 <bad_trap>

80003f64 <inst_434>:
80003f64:	0000b537          	lui	a0,0xb
80003f68:	50550513          	addi	a0,a0,1285 # b505 <offset+0xb425>
80003f6c:	00400593          	li	a1,4
80003f70:	00b56633          	or	a2,a0,a1
80003f74:	66c32e23          	sw	a2,1660(t1)
80003f78:	0000b437          	lui	s0,0xb
80003f7c:	50540413          	addi	s0,s0,1285 # b505 <offset+0xb425>
80003f80:	00c40463          	beq	s0,a2,80003f88 <inst_435>
80003f84:	4c00106f          	j	80005444 <bad_trap>

80003f88 <inst_435>:
80003f88:	0000b537          	lui	a0,0xb
80003f8c:	50550513          	addi	a0,a0,1285 # b505 <offset+0xb425>
80003f90:	333335b7          	lui	a1,0x33333
80003f94:	33258593          	addi	a1,a1,818 # 33333332 <offset+0x33333252>
80003f98:	00b56633          	or	a2,a0,a1
80003f9c:	68c32023          	sw	a2,1664(t1)
80003fa0:	3333b437          	lui	s0,0x3333b
80003fa4:	73740413          	addi	s0,s0,1847 # 3333b737 <offset+0x3333b657>
80003fa8:	00c40463          	beq	s0,a2,80003fb0 <inst_436>
80003fac:	4980106f          	j	80005444 <bad_trap>

80003fb0 <inst_436>:
80003fb0:	0000b537          	lui	a0,0xb
80003fb4:	50550513          	addi	a0,a0,1285 # b505 <offset+0xb425>
80003fb8:	666665b7          	lui	a1,0x66666
80003fbc:	66558593          	addi	a1,a1,1637 # 66666665 <absimm+0x21374136>
80003fc0:	00b56633          	or	a2,a0,a1
80003fc4:	68c32223          	sw	a2,1668(t1)
80003fc8:	6666f437          	lui	s0,0x6666f
80003fcc:	76540413          	addi	s0,s0,1893 # 6666f765 <absimm+0x2137d236>
80003fd0:	00c40463          	beq	s0,a2,80003fd8 <inst_437>
80003fd4:	4700106f          	j	80005444 <bad_trap>

80003fd8 <inst_437>:
80003fd8:	0000b537          	lui	a0,0xb
80003fdc:	50550513          	addi	a0,a0,1285 # b505 <offset+0xb425>
80003fe0:	0000b5b7          	lui	a1,0xb
80003fe4:	50358593          	addi	a1,a1,1283 # b503 <offset+0xb423>
80003fe8:	00b56633          	or	a2,a0,a1
80003fec:	68c32423          	sw	a2,1672(t1)
80003ff0:	0000b437          	lui	s0,0xb
80003ff4:	50740413          	addi	s0,s0,1287 # b507 <offset+0xb427>
80003ff8:	00c40463          	beq	s0,a2,80004000 <inst_438>
80003ffc:	4480106f          	j	80005444 <bad_trap>

80004000 <inst_438>:
80004000:	0000b537          	lui	a0,0xb
80004004:	50550513          	addi	a0,a0,1285 # b505 <offset+0xb425>
80004008:	555555b7          	lui	a1,0x55555
8000400c:	55658593          	addi	a1,a1,1366 # 55555556 <absimm+0x10263027>
80004010:	00b56633          	or	a2,a0,a1
80004014:	68c32623          	sw	a2,1676(t1)
80004018:	5555f437          	lui	s0,0x5555f
8000401c:	55740413          	addi	s0,s0,1367 # 5555f557 <absimm+0x1026d028>
80004020:	00c40463          	beq	s0,a2,80004028 <inst_439>
80004024:	4200106f          	j	80005444 <bad_trap>

80004028 <inst_439>:
80004028:	0000b537          	lui	a0,0xb
8000402c:	50550513          	addi	a0,a0,1285 # b505 <offset+0xb425>
80004030:	aaaab5b7          	lui	a1,0xaaaab
80004034:	aab58593          	addi	a1,a1,-1365 # aaaaaaab <imm12+0xaaaaafdb>
80004038:	00b56633          	or	a2,a0,a1
8000403c:	68c32823          	sw	a2,1680(t1)
80004040:	aaaac437          	lui	s0,0xaaaac
80004044:	faf40413          	addi	s0,s0,-81 # aaaabfaf <imm12+0xaaaac4df>
80004048:	00c40463          	beq	s0,a2,80004050 <inst_440>
8000404c:	3f80106f          	j	80005444 <bad_trap>

80004050 <inst_440>:
80004050:	0000b537          	lui	a0,0xb
80004054:	50550513          	addi	a0,a0,1285 # b505 <offset+0xb425>
80004058:	00600593          	li	a1,6
8000405c:	00b56633          	or	a2,a0,a1
80004060:	68c32a23          	sw	a2,1684(t1)
80004064:	0000b437          	lui	s0,0xb
80004068:	50740413          	addi	s0,s0,1287 # b507 <offset+0xb427>
8000406c:	00c40463          	beq	s0,a2,80004074 <inst_441>
80004070:	3d40106f          	j	80005444 <bad_trap>

80004074 <inst_441>:
80004074:	0000b537          	lui	a0,0xb
80004078:	50550513          	addi	a0,a0,1285 # b505 <offset+0xb425>
8000407c:	333335b7          	lui	a1,0x33333
80004080:	33458593          	addi	a1,a1,820 # 33333334 <offset+0x33333254>
80004084:	00b56633          	or	a2,a0,a1
80004088:	68c32c23          	sw	a2,1688(t1)
8000408c:	3333b437          	lui	s0,0x3333b
80004090:	73540413          	addi	s0,s0,1845 # 3333b735 <offset+0x3333b655>
80004094:	00c40463          	beq	s0,a2,8000409c <inst_442>
80004098:	3ac0106f          	j	80005444 <bad_trap>

8000409c <inst_442>:
8000409c:	0000b537          	lui	a0,0xb
800040a0:	50550513          	addi	a0,a0,1285 # b505 <offset+0xb425>
800040a4:	666665b7          	lui	a1,0x66666
800040a8:	66758593          	addi	a1,a1,1639 # 66666667 <absimm+0x21374138>
800040ac:	00b56633          	or	a2,a0,a1
800040b0:	68c32e23          	sw	a2,1692(t1)
800040b4:	6666f437          	lui	s0,0x6666f
800040b8:	76740413          	addi	s0,s0,1895 # 6666f767 <absimm+0x2137d238>
800040bc:	00c40463          	beq	s0,a2,800040c4 <inst_443>
800040c0:	3840106f          	j	80005444 <bad_trap>

800040c4 <inst_443>:
800040c4:	0000b537          	lui	a0,0xb
800040c8:	50550513          	addi	a0,a0,1285 # b505 <offset+0xb425>
800040cc:	ffff55b7          	lui	a1,0xffff5
800040d0:	afd58593          	addi	a1,a1,-1283 # ffff4afd <imm12+0xffff502d>
800040d4:	00b56633          	or	a2,a0,a1
800040d8:	6ac32023          	sw	a2,1696(t1)
800040dc:	ffd00413          	li	s0,-3
800040e0:	00c40463          	beq	s0,a2,800040e8 <inst_444>
800040e4:	3600106f          	j	80005444 <bad_trap>

800040e8 <inst_444>:
800040e8:	0000b537          	lui	a0,0xb
800040ec:	50550513          	addi	a0,a0,1285 # b505 <offset+0xb425>
800040f0:	0000b5b7          	lui	a1,0xb
800040f4:	50558593          	addi	a1,a1,1285 # b505 <offset+0xb425>
800040f8:	00b56633          	or	a2,a0,a1
800040fc:	6ac32223          	sw	a2,1700(t1)
80004100:	0000b437          	lui	s0,0xb
80004104:	50540413          	addi	s0,s0,1285 # b505 <offset+0xb425>
80004108:	00c40463          	beq	s0,a2,80004110 <inst_445>
8000410c:	3380106f          	j	80005444 <bad_trap>

80004110 <inst_445>:
80004110:	00000513          	li	a0,0
80004114:	555555b7          	lui	a1,0x55555
80004118:	55458593          	addi	a1,a1,1364 # 55555554 <absimm+0x10263025>
8000411c:	00b56633          	or	a2,a0,a1
80004120:	6ac32423          	sw	a2,1704(t1)
80004124:	55555437          	lui	s0,0x55555
80004128:	55440413          	addi	s0,s0,1364 # 55555554 <absimm+0x10263025>
8000412c:	00c40463          	beq	s0,a2,80004134 <inst_446>
80004130:	3140106f          	j	80005444 <bad_trap>

80004134 <inst_446>:
80004134:	00000513          	li	a0,0
80004138:	00000593          	li	a1,0
8000413c:	00b56633          	or	a2,a0,a1
80004140:	6ac32623          	sw	a2,1708(t1)
80004144:	00000413          	li	s0,0
80004148:	00c40463          	beq	s0,a2,80004150 <inst_447>
8000414c:	2f80106f          	j	80005444 <bad_trap>

80004150 <inst_447>:
80004150:	00000513          	li	a0,0
80004154:	00400593          	li	a1,4
80004158:	00b56633          	or	a2,a0,a1
8000415c:	6ac32823          	sw	a2,1712(t1)
80004160:	00400413          	li	s0,4
80004164:	00c40463          	beq	s0,a2,8000416c <inst_448>
80004168:	2dc0106f          	j	80005444 <bad_trap>

8000416c <inst_448>:
8000416c:	00000513          	li	a0,0
80004170:	333335b7          	lui	a1,0x33333
80004174:	33258593          	addi	a1,a1,818 # 33333332 <offset+0x33333252>
80004178:	00b56633          	or	a2,a0,a1
8000417c:	6ac32a23          	sw	a2,1716(t1)
80004180:	33333437          	lui	s0,0x33333
80004184:	33240413          	addi	s0,s0,818 # 33333332 <offset+0x33333252>
80004188:	00c40463          	beq	s0,a2,80004190 <inst_449>
8000418c:	2b80106f          	j	80005444 <bad_trap>

80004190 <inst_449>:
80004190:	00000513          	li	a0,0
80004194:	666665b7          	lui	a1,0x66666
80004198:	66558593          	addi	a1,a1,1637 # 66666665 <absimm+0x21374136>
8000419c:	00b56633          	or	a2,a0,a1
800041a0:	6ac32c23          	sw	a2,1720(t1)
800041a4:	66666437          	lui	s0,0x66666
800041a8:	66540413          	addi	s0,s0,1637 # 66666665 <absimm+0x21374136>
800041ac:	00c40463          	beq	s0,a2,800041b4 <inst_450>
800041b0:	2940106f          	j	80005444 <bad_trap>

800041b4 <inst_450>:
800041b4:	00000513          	li	a0,0
800041b8:	0000b5b7          	lui	a1,0xb
800041bc:	50358593          	addi	a1,a1,1283 # b503 <offset+0xb423>
800041c0:	00b56633          	or	a2,a0,a1
800041c4:	6ac32e23          	sw	a2,1724(t1)
800041c8:	0000b437          	lui	s0,0xb
800041cc:	50340413          	addi	s0,s0,1283 # b503 <offset+0xb423>
800041d0:	00c40463          	beq	s0,a2,800041d8 <inst_451>
800041d4:	2700106f          	j	80005444 <bad_trap>

800041d8 <inst_451>:
800041d8:	00000513          	li	a0,0
800041dc:	555555b7          	lui	a1,0x55555
800041e0:	55658593          	addi	a1,a1,1366 # 55555556 <absimm+0x10263027>
800041e4:	00b56633          	or	a2,a0,a1
800041e8:	6cc32023          	sw	a2,1728(t1)
800041ec:	55555437          	lui	s0,0x55555
800041f0:	55640413          	addi	s0,s0,1366 # 55555556 <absimm+0x10263027>
800041f4:	00c40463          	beq	s0,a2,800041fc <inst_452>
800041f8:	24c0106f          	j	80005444 <bad_trap>

800041fc <inst_452>:
800041fc:	00000513          	li	a0,0
80004200:	aaaab5b7          	lui	a1,0xaaaab
80004204:	aab58593          	addi	a1,a1,-1365 # aaaaaaab <imm12+0xaaaaafdb>
80004208:	00b56633          	or	a2,a0,a1
8000420c:	6cc32223          	sw	a2,1732(t1)
80004210:	aaaab437          	lui	s0,0xaaaab
80004214:	aab40413          	addi	s0,s0,-1365 # aaaaaaab <imm12+0xaaaaafdb>
80004218:	00c40463          	beq	s0,a2,80004220 <inst_453>
8000421c:	2280106f          	j	80005444 <bad_trap>

80004220 <inst_453>:
80004220:	00000513          	li	a0,0
80004224:	00600593          	li	a1,6
80004228:	00b56633          	or	a2,a0,a1
8000422c:	6cc32423          	sw	a2,1736(t1)
80004230:	00600413          	li	s0,6
80004234:	00c40463          	beq	s0,a2,8000423c <inst_454>
80004238:	20c0106f          	j	80005444 <bad_trap>

8000423c <inst_454>:
8000423c:	00000513          	li	a0,0
80004240:	333335b7          	lui	a1,0x33333
80004244:	33458593          	addi	a1,a1,820 # 33333334 <offset+0x33333254>
80004248:	00b56633          	or	a2,a0,a1
8000424c:	6cc32623          	sw	a2,1740(t1)
80004250:	33333437          	lui	s0,0x33333
80004254:	33440413          	addi	s0,s0,820 # 33333334 <offset+0x33333254>
80004258:	00c40463          	beq	s0,a2,80004260 <inst_455>
8000425c:	1e80106f          	j	80005444 <bad_trap>

80004260 <inst_455>:
80004260:	00000513          	li	a0,0
80004264:	666665b7          	lui	a1,0x66666
80004268:	66758593          	addi	a1,a1,1639 # 66666667 <absimm+0x21374138>
8000426c:	00b56633          	or	a2,a0,a1
80004270:	6cc32823          	sw	a2,1744(t1)
80004274:	66666437          	lui	s0,0x66666
80004278:	66740413          	addi	s0,s0,1639 # 66666667 <absimm+0x21374138>
8000427c:	00c40463          	beq	s0,a2,80004284 <inst_456>
80004280:	1c40106f          	j	80005444 <bad_trap>

80004284 <inst_456>:
80004284:	00000513          	li	a0,0
80004288:	ffff55b7          	lui	a1,0xffff5
8000428c:	afd58593          	addi	a1,a1,-1283 # ffff4afd <imm12+0xffff502d>
80004290:	00b56633          	or	a2,a0,a1
80004294:	6cc32a23          	sw	a2,1748(t1)
80004298:	ffff5437          	lui	s0,0xffff5
8000429c:	afd40413          	addi	s0,s0,-1283 # ffff4afd <imm12+0xffff502d>
800042a0:	00c40463          	beq	s0,a2,800042a8 <inst_457>
800042a4:	1a00106f          	j	80005444 <bad_trap>

800042a8 <inst_457>:
800042a8:	00000513          	li	a0,0
800042ac:	0000b5b7          	lui	a1,0xb
800042b0:	50558593          	addi	a1,a1,1285 # b505 <offset+0xb425>
800042b4:	00b56633          	or	a2,a0,a1
800042b8:	6cc32c23          	sw	a2,1752(t1)
800042bc:	0000b437          	lui	s0,0xb
800042c0:	50540413          	addi	s0,s0,1285 # b505 <offset+0xb425>
800042c4:	00c40463          	beq	s0,a2,800042cc <inst_458>
800042c8:	17c0106f          	j	80005444 <bad_trap>

800042cc <inst_458>:
800042cc:	00400513          	li	a0,4
800042d0:	00300593          	li	a1,3
800042d4:	00b56633          	or	a2,a0,a1
800042d8:	6cc32e23          	sw	a2,1756(t1)
800042dc:	00700413          	li	s0,7
800042e0:	00c40463          	beq	s0,a2,800042e8 <inst_459>
800042e4:	1600106f          	j	80005444 <bad_trap>

800042e8 <inst_459>:
800042e8:	00400513          	li	a0,4
800042ec:	555555b7          	lui	a1,0x55555
800042f0:	55558593          	addi	a1,a1,1365 # 55555555 <absimm+0x10263026>
800042f4:	00b56633          	or	a2,a0,a1
800042f8:	6ec32023          	sw	a2,1760(t1)
800042fc:	55555437          	lui	s0,0x55555
80004300:	55540413          	addi	s0,s0,1365 # 55555555 <absimm+0x10263026>
80004304:	00c40463          	beq	s0,a2,8000430c <inst_460>
80004308:	13c0106f          	j	80005444 <bad_trap>

8000430c <inst_460>:
8000430c:	00400513          	li	a0,4
80004310:	aaaab5b7          	lui	a1,0xaaaab
80004314:	aaa58593          	addi	a1,a1,-1366 # aaaaaaaa <imm12+0xaaaaafda>
80004318:	00b56633          	or	a2,a0,a1
8000431c:	6ec32223          	sw	a2,1764(t1)
80004320:	aaaab437          	lui	s0,0xaaaab
80004324:	aae40413          	addi	s0,s0,-1362 # aaaaaaae <imm12+0xaaaaafde>
80004328:	00c40463          	beq	s0,a2,80004330 <inst_461>
8000432c:	1180106f          	j	80005444 <bad_trap>

80004330 <inst_461>:
80004330:	00400513          	li	a0,4
80004334:	00500593          	li	a1,5
80004338:	00b56633          	or	a2,a0,a1
8000433c:	6ec32423          	sw	a2,1768(t1)
80004340:	00500413          	li	s0,5
80004344:	00c40463          	beq	s0,a2,8000434c <inst_462>
80004348:	0fc0106f          	j	80005444 <bad_trap>

8000434c <inst_462>:
8000434c:	00400513          	li	a0,4
80004350:	333335b7          	lui	a1,0x33333
80004354:	33358593          	addi	a1,a1,819 # 33333333 <offset+0x33333253>
80004358:	00b56633          	or	a2,a0,a1
8000435c:	6ec32623          	sw	a2,1772(t1)
80004360:	33333437          	lui	s0,0x33333
80004364:	33740413          	addi	s0,s0,823 # 33333337 <offset+0x33333257>
80004368:	00c40463          	beq	s0,a2,80004370 <inst_463>
8000436c:	0d80106f          	j	80005444 <bad_trap>

80004370 <inst_463>:
80004370:	00400513          	li	a0,4
80004374:	666665b7          	lui	a1,0x66666
80004378:	66658593          	addi	a1,a1,1638 # 66666666 <absimm+0x21374137>
8000437c:	00b56633          	or	a2,a0,a1
80004380:	6ec32823          	sw	a2,1776(t1)
80004384:	66666437          	lui	s0,0x66666
80004388:	66640413          	addi	s0,s0,1638 # 66666666 <absimm+0x21374137>
8000438c:	00c40463          	beq	s0,a2,80004394 <inst_464>
80004390:	0b40106f          	j	80005444 <bad_trap>

80004394 <inst_464>:
80004394:	00400513          	li	a0,4
80004398:	ffff55b7          	lui	a1,0xffff5
8000439c:	afc58593          	addi	a1,a1,-1284 # ffff4afc <imm12+0xffff502c>
800043a0:	00b56633          	or	a2,a0,a1
800043a4:	6ec32a23          	sw	a2,1780(t1)
800043a8:	ffff5437          	lui	s0,0xffff5
800043ac:	afc40413          	addi	s0,s0,-1284 # ffff4afc <imm12+0xffff502c>
800043b0:	00c40463          	beq	s0,a2,800043b8 <inst_465>
800043b4:	0900106f          	j	80005444 <bad_trap>

800043b8 <inst_465>:
800043b8:	00400513          	li	a0,4
800043bc:	0000b5b7          	lui	a1,0xb
800043c0:	50458593          	addi	a1,a1,1284 # b504 <offset+0xb424>
800043c4:	00b56633          	or	a2,a0,a1
800043c8:	6ec32c23          	sw	a2,1784(t1)
800043cc:	0000b437          	lui	s0,0xb
800043d0:	50440413          	addi	s0,s0,1284 # b504 <offset+0xb424>
800043d4:	00c40463          	beq	s0,a2,800043dc <inst_466>
800043d8:	06c0106f          	j	80005444 <bad_trap>

800043dc <inst_466>:
800043dc:	00400513          	li	a0,4
800043e0:	00200593          	li	a1,2
800043e4:	00b56633          	or	a2,a0,a1
800043e8:	6ec32e23          	sw	a2,1788(t1)
800043ec:	00600413          	li	s0,6
800043f0:	00c40463          	beq	s0,a2,800043f8 <inst_467>
800043f4:	0500106f          	j	80005444 <bad_trap>

800043f8 <inst_467>:
800043f8:	00400513          	li	a0,4
800043fc:	555555b7          	lui	a1,0x55555
80004400:	55458593          	addi	a1,a1,1364 # 55555554 <absimm+0x10263025>
80004404:	00b56633          	or	a2,a0,a1
80004408:	70c32023          	sw	a2,1792(t1)
8000440c:	55555437          	lui	s0,0x55555
80004410:	55440413          	addi	s0,s0,1364 # 55555554 <absimm+0x10263025>
80004414:	00c40463          	beq	s0,a2,8000441c <inst_468>
80004418:	02c0106f          	j	80005444 <bad_trap>

8000441c <inst_468>:
8000441c:	00400513          	li	a0,4
80004420:	00000593          	li	a1,0
80004424:	00b56633          	or	a2,a0,a1
80004428:	70c32223          	sw	a2,1796(t1)
8000442c:	00400413          	li	s0,4
80004430:	00c40463          	beq	s0,a2,80004438 <inst_469>
80004434:	0100106f          	j	80005444 <bad_trap>

80004438 <inst_469>:
80004438:	00400513          	li	a0,4
8000443c:	00400593          	li	a1,4
80004440:	00b56633          	or	a2,a0,a1
80004444:	70c32423          	sw	a2,1800(t1)
80004448:	00400413          	li	s0,4
8000444c:	00c40463          	beq	s0,a2,80004454 <inst_470>
80004450:	7f50006f          	j	80005444 <bad_trap>

80004454 <inst_470>:
80004454:	00400513          	li	a0,4
80004458:	333335b7          	lui	a1,0x33333
8000445c:	33258593          	addi	a1,a1,818 # 33333332 <offset+0x33333252>
80004460:	00b56633          	or	a2,a0,a1
80004464:	70c32623          	sw	a2,1804(t1)
80004468:	33333437          	lui	s0,0x33333
8000446c:	33640413          	addi	s0,s0,822 # 33333336 <offset+0x33333256>
80004470:	7cc41ae3          	bne	s0,a2,80005444 <bad_trap>

80004474 <inst_471>:
80004474:	00400513          	li	a0,4
80004478:	666665b7          	lui	a1,0x66666
8000447c:	66558593          	addi	a1,a1,1637 # 66666665 <absimm+0x21374136>
80004480:	00b56633          	or	a2,a0,a1
80004484:	70c32823          	sw	a2,1808(t1)
80004488:	66666437          	lui	s0,0x66666
8000448c:	66540413          	addi	s0,s0,1637 # 66666665 <absimm+0x21374136>
80004490:	7ac41ae3          	bne	s0,a2,80005444 <bad_trap>

80004494 <inst_472>:
80004494:	00400513          	li	a0,4
80004498:	0000b5b7          	lui	a1,0xb
8000449c:	50358593          	addi	a1,a1,1283 # b503 <offset+0xb423>
800044a0:	00b56633          	or	a2,a0,a1
800044a4:	70c32a23          	sw	a2,1812(t1)
800044a8:	0000b437          	lui	s0,0xb
800044ac:	50740413          	addi	s0,s0,1287 # b507 <offset+0xb427>
800044b0:	78c41ae3          	bne	s0,a2,80005444 <bad_trap>

800044b4 <inst_473>:
800044b4:	00400513          	li	a0,4
800044b8:	555555b7          	lui	a1,0x55555
800044bc:	55658593          	addi	a1,a1,1366 # 55555556 <absimm+0x10263027>
800044c0:	00b56633          	or	a2,a0,a1
800044c4:	70c32c23          	sw	a2,1816(t1)
800044c8:	55555437          	lui	s0,0x55555
800044cc:	55640413          	addi	s0,s0,1366 # 55555556 <absimm+0x10263027>
800044d0:	76c41ae3          	bne	s0,a2,80005444 <bad_trap>

800044d4 <inst_474>:
800044d4:	00400513          	li	a0,4
800044d8:	aaaab5b7          	lui	a1,0xaaaab
800044dc:	aab58593          	addi	a1,a1,-1365 # aaaaaaab <imm12+0xaaaaafdb>
800044e0:	00b56633          	or	a2,a0,a1
800044e4:	70c32e23          	sw	a2,1820(t1)
800044e8:	aaaab437          	lui	s0,0xaaaab
800044ec:	aaf40413          	addi	s0,s0,-1361 # aaaaaaaf <imm12+0xaaaaafdf>
800044f0:	74c41ae3          	bne	s0,a2,80005444 <bad_trap>

800044f4 <inst_475>:
800044f4:	00400513          	li	a0,4
800044f8:	00600593          	li	a1,6
800044fc:	00b56633          	or	a2,a0,a1
80004500:	72c32023          	sw	a2,1824(t1)
80004504:	00600413          	li	s0,6
80004508:	72c41ee3          	bne	s0,a2,80005444 <bad_trap>

8000450c <inst_476>:
8000450c:	00400513          	li	a0,4
80004510:	333335b7          	lui	a1,0x33333
80004514:	33458593          	addi	a1,a1,820 # 33333334 <offset+0x33333254>
80004518:	00b56633          	or	a2,a0,a1
8000451c:	72c32223          	sw	a2,1828(t1)
80004520:	33333437          	lui	s0,0x33333
80004524:	33440413          	addi	s0,s0,820 # 33333334 <offset+0x33333254>
80004528:	70c41ee3          	bne	s0,a2,80005444 <bad_trap>

8000452c <inst_477>:
8000452c:	00400513          	li	a0,4
80004530:	666665b7          	lui	a1,0x66666
80004534:	66758593          	addi	a1,a1,1639 # 66666667 <absimm+0x21374138>
80004538:	00b56633          	or	a2,a0,a1
8000453c:	72c32423          	sw	a2,1832(t1)
80004540:	66666437          	lui	s0,0x66666
80004544:	66740413          	addi	s0,s0,1639 # 66666667 <absimm+0x21374138>
80004548:	6ec41ee3          	bne	s0,a2,80005444 <bad_trap>

8000454c <inst_478>:
8000454c:	00400513          	li	a0,4
80004550:	ffff55b7          	lui	a1,0xffff5
80004554:	afd58593          	addi	a1,a1,-1283 # ffff4afd <imm12+0xffff502d>
80004558:	00b56633          	or	a2,a0,a1
8000455c:	72c32623          	sw	a2,1836(t1)
80004560:	ffff5437          	lui	s0,0xffff5
80004564:	afd40413          	addi	s0,s0,-1283 # ffff4afd <imm12+0xffff502d>
80004568:	6cc41ee3          	bne	s0,a2,80005444 <bad_trap>

8000456c <inst_479>:
8000456c:	00400513          	li	a0,4
80004570:	0000b5b7          	lui	a1,0xb
80004574:	50558593          	addi	a1,a1,1285 # b505 <offset+0xb425>
80004578:	00b56633          	or	a2,a0,a1
8000457c:	72c32823          	sw	a2,1840(t1)
80004580:	0000b437          	lui	s0,0xb
80004584:	50540413          	addi	s0,s0,1285 # b505 <offset+0xb425>
80004588:	6ac41ee3          	bne	s0,a2,80005444 <bad_trap>

8000458c <inst_480>:
8000458c:	33333537          	lui	a0,0x33333
80004590:	33250513          	addi	a0,a0,818 # 33333332 <offset+0x33333252>
80004594:	00300593          	li	a1,3
80004598:	00b56633          	or	a2,a0,a1
8000459c:	72c32a23          	sw	a2,1844(t1)
800045a0:	33333437          	lui	s0,0x33333
800045a4:	33340413          	addi	s0,s0,819 # 33333333 <offset+0x33333253>
800045a8:	68c41ee3          	bne	s0,a2,80005444 <bad_trap>

800045ac <inst_481>:
800045ac:	33333537          	lui	a0,0x33333
800045b0:	33250513          	addi	a0,a0,818 # 33333332 <offset+0x33333252>
800045b4:	555555b7          	lui	a1,0x55555
800045b8:	55558593          	addi	a1,a1,1365 # 55555555 <absimm+0x10263026>
800045bc:	00b56633          	or	a2,a0,a1
800045c0:	72c32c23          	sw	a2,1848(t1)
800045c4:	77777437          	lui	s0,0x77777
800045c8:	77740413          	addi	s0,s0,1911 # 77777777 <absimm+0x32485248>
800045cc:	66c41ce3          	bne	s0,a2,80005444 <bad_trap>

800045d0 <inst_482>:
800045d0:	33333537          	lui	a0,0x33333
800045d4:	33250513          	addi	a0,a0,818 # 33333332 <offset+0x33333252>
800045d8:	aaaab5b7          	lui	a1,0xaaaab
800045dc:	aaa58593          	addi	a1,a1,-1366 # aaaaaaaa <imm12+0xaaaaafda>
800045e0:	00b56633          	or	a2,a0,a1
800045e4:	72c32e23          	sw	a2,1852(t1)
800045e8:	bbbbc437          	lui	s0,0xbbbbc
800045ec:	bba40413          	addi	s0,s0,-1094 # bbbbbbba <imm12+0xbbbbc0ea>
800045f0:	64c41ae3          	bne	s0,a2,80005444 <bad_trap>

800045f4 <inst_483>:
800045f4:	33333537          	lui	a0,0x33333
800045f8:	33250513          	addi	a0,a0,818 # 33333332 <offset+0x33333252>
800045fc:	00500593          	li	a1,5
80004600:	00b56633          	or	a2,a0,a1
80004604:	74c32023          	sw	a2,1856(t1)
80004608:	33333437          	lui	s0,0x33333
8000460c:	33740413          	addi	s0,s0,823 # 33333337 <offset+0x33333257>
80004610:	62c41ae3          	bne	s0,a2,80005444 <bad_trap>

80004614 <inst_484>:
80004614:	33333537          	lui	a0,0x33333
80004618:	33250513          	addi	a0,a0,818 # 33333332 <offset+0x33333252>
8000461c:	333335b7          	lui	a1,0x33333
80004620:	33358593          	addi	a1,a1,819 # 33333333 <offset+0x33333253>
80004624:	00b56633          	or	a2,a0,a1
80004628:	74c32223          	sw	a2,1860(t1)
8000462c:	33333437          	lui	s0,0x33333
80004630:	33340413          	addi	s0,s0,819 # 33333333 <offset+0x33333253>
80004634:	60c418e3          	bne	s0,a2,80005444 <bad_trap>

80004638 <inst_485>:
80004638:	33333537          	lui	a0,0x33333
8000463c:	33250513          	addi	a0,a0,818 # 33333332 <offset+0x33333252>
80004640:	666665b7          	lui	a1,0x66666
80004644:	66658593          	addi	a1,a1,1638 # 66666666 <absimm+0x21374137>
80004648:	00b56633          	or	a2,a0,a1
8000464c:	74c32423          	sw	a2,1864(t1)
80004650:	77777437          	lui	s0,0x77777
80004654:	77640413          	addi	s0,s0,1910 # 77777776 <absimm+0x32485247>
80004658:	5ec416e3          	bne	s0,a2,80005444 <bad_trap>

8000465c <inst_486>:
8000465c:	33333537          	lui	a0,0x33333
80004660:	33250513          	addi	a0,a0,818 # 33333332 <offset+0x33333252>
80004664:	ffff55b7          	lui	a1,0xffff5
80004668:	afc58593          	addi	a1,a1,-1284 # ffff4afc <imm12+0xffff502c>
8000466c:	00b56633          	or	a2,a0,a1
80004670:	74c32623          	sw	a2,1868(t1)
80004674:	ffff8437          	lui	s0,0xffff8
80004678:	bfe40413          	addi	s0,s0,-1026 # ffff7bfe <imm12+0xffff812e>
8000467c:	5cc414e3          	bne	s0,a2,80005444 <bad_trap>

80004680 <inst_487>:
80004680:	33333537          	lui	a0,0x33333
80004684:	33250513          	addi	a0,a0,818 # 33333332 <offset+0x33333252>
80004688:	0000b5b7          	lui	a1,0xb
8000468c:	50458593          	addi	a1,a1,1284 # b504 <offset+0xb424>
80004690:	00b56633          	or	a2,a0,a1
80004694:	74c32823          	sw	a2,1872(t1)
80004698:	3333b437          	lui	s0,0x3333b
8000469c:	73640413          	addi	s0,s0,1846 # 3333b736 <offset+0x3333b656>
800046a0:	5ac412e3          	bne	s0,a2,80005444 <bad_trap>

800046a4 <inst_488>:
800046a4:	33333537          	lui	a0,0x33333
800046a8:	33250513          	addi	a0,a0,818 # 33333332 <offset+0x33333252>
800046ac:	00200593          	li	a1,2
800046b0:	00b56633          	or	a2,a0,a1
800046b4:	74c32a23          	sw	a2,1876(t1)
800046b8:	33333437          	lui	s0,0x33333
800046bc:	33240413          	addi	s0,s0,818 # 33333332 <offset+0x33333252>
800046c0:	58c412e3          	bne	s0,a2,80005444 <bad_trap>

800046c4 <inst_489>:
800046c4:	33333537          	lui	a0,0x33333
800046c8:	33250513          	addi	a0,a0,818 # 33333332 <offset+0x33333252>
800046cc:	555555b7          	lui	a1,0x55555
800046d0:	55458593          	addi	a1,a1,1364 # 55555554 <absimm+0x10263025>
800046d4:	00b56633          	or	a2,a0,a1
800046d8:	74c32c23          	sw	a2,1880(t1)
800046dc:	77777437          	lui	s0,0x77777
800046e0:	77640413          	addi	s0,s0,1910 # 77777776 <absimm+0x32485247>
800046e4:	56c410e3          	bne	s0,a2,80005444 <bad_trap>

800046e8 <inst_490>:
800046e8:	33333537          	lui	a0,0x33333
800046ec:	33250513          	addi	a0,a0,818 # 33333332 <offset+0x33333252>
800046f0:	00000593          	li	a1,0
800046f4:	00b56633          	or	a2,a0,a1
800046f8:	74c32e23          	sw	a2,1884(t1)
800046fc:	33333437          	lui	s0,0x33333
80004700:	33240413          	addi	s0,s0,818 # 33333332 <offset+0x33333252>
80004704:	54c410e3          	bne	s0,a2,80005444 <bad_trap>

80004708 <inst_491>:
80004708:	33333537          	lui	a0,0x33333
8000470c:	33250513          	addi	a0,a0,818 # 33333332 <offset+0x33333252>
80004710:	00400593          	li	a1,4
80004714:	00b56633          	or	a2,a0,a1
80004718:	76c32023          	sw	a2,1888(t1)
8000471c:	33333437          	lui	s0,0x33333
80004720:	33640413          	addi	s0,s0,822 # 33333336 <offset+0x33333256>
80004724:	52c410e3          	bne	s0,a2,80005444 <bad_trap>

80004728 <inst_492>:
80004728:	33333537          	lui	a0,0x33333
8000472c:	33250513          	addi	a0,a0,818 # 33333332 <offset+0x33333252>
80004730:	333335b7          	lui	a1,0x33333
80004734:	33258593          	addi	a1,a1,818 # 33333332 <offset+0x33333252>
80004738:	00b56633          	or	a2,a0,a1
8000473c:	76c32223          	sw	a2,1892(t1)
80004740:	33333437          	lui	s0,0x33333
80004744:	33240413          	addi	s0,s0,818 # 33333332 <offset+0x33333252>
80004748:	4ec41ee3          	bne	s0,a2,80005444 <bad_trap>

8000474c <inst_493>:
8000474c:	33333537          	lui	a0,0x33333
80004750:	33250513          	addi	a0,a0,818 # 33333332 <offset+0x33333252>
80004754:	666665b7          	lui	a1,0x66666
80004758:	66558593          	addi	a1,a1,1637 # 66666665 <absimm+0x21374136>
8000475c:	00b56633          	or	a2,a0,a1
80004760:	76c32423          	sw	a2,1896(t1)
80004764:	77777437          	lui	s0,0x77777
80004768:	77740413          	addi	s0,s0,1911 # 77777777 <absimm+0x32485248>
8000476c:	4cc41ce3          	bne	s0,a2,80005444 <bad_trap>

80004770 <inst_494>:
80004770:	33333537          	lui	a0,0x33333
80004774:	33250513          	addi	a0,a0,818 # 33333332 <offset+0x33333252>
80004778:	0000b5b7          	lui	a1,0xb
8000477c:	50358593          	addi	a1,a1,1283 # b503 <offset+0xb423>
80004780:	00b56633          	or	a2,a0,a1
80004784:	76c32623          	sw	a2,1900(t1)
80004788:	3333b437          	lui	s0,0x3333b
8000478c:	73340413          	addi	s0,s0,1843 # 3333b733 <offset+0x3333b653>
80004790:	4ac41ae3          	bne	s0,a2,80005444 <bad_trap>

80004794 <inst_495>:
80004794:	33333537          	lui	a0,0x33333
80004798:	33250513          	addi	a0,a0,818 # 33333332 <offset+0x33333252>
8000479c:	555555b7          	lui	a1,0x55555
800047a0:	55658593          	addi	a1,a1,1366 # 55555556 <absimm+0x10263027>
800047a4:	00b56633          	or	a2,a0,a1
800047a8:	76c32823          	sw	a2,1904(t1)
800047ac:	77777437          	lui	s0,0x77777
800047b0:	77640413          	addi	s0,s0,1910 # 77777776 <absimm+0x32485247>
800047b4:	48c418e3          	bne	s0,a2,80005444 <bad_trap>

800047b8 <inst_496>:
800047b8:	33333537          	lui	a0,0x33333
800047bc:	33250513          	addi	a0,a0,818 # 33333332 <offset+0x33333252>
800047c0:	aaaab5b7          	lui	a1,0xaaaab
800047c4:	aab58593          	addi	a1,a1,-1365 # aaaaaaab <imm12+0xaaaaafdb>
800047c8:	00b56633          	or	a2,a0,a1
800047cc:	76c32a23          	sw	a2,1908(t1)
800047d0:	bbbbc437          	lui	s0,0xbbbbc
800047d4:	bbb40413          	addi	s0,s0,-1093 # bbbbbbbb <imm12+0xbbbbc0eb>
800047d8:	46c416e3          	bne	s0,a2,80005444 <bad_trap>

800047dc <inst_497>:
800047dc:	33333537          	lui	a0,0x33333
800047e0:	33250513          	addi	a0,a0,818 # 33333332 <offset+0x33333252>
800047e4:	00600593          	li	a1,6
800047e8:	00b56633          	or	a2,a0,a1
800047ec:	76c32c23          	sw	a2,1912(t1)
800047f0:	33333437          	lui	s0,0x33333
800047f4:	33640413          	addi	s0,s0,822 # 33333336 <offset+0x33333256>
800047f8:	44c416e3          	bne	s0,a2,80005444 <bad_trap>

800047fc <inst_498>:
800047fc:	33333537          	lui	a0,0x33333
80004800:	33250513          	addi	a0,a0,818 # 33333332 <offset+0x33333252>
80004804:	333335b7          	lui	a1,0x33333
80004808:	33458593          	addi	a1,a1,820 # 33333334 <offset+0x33333254>
8000480c:	00b56633          	or	a2,a0,a1
80004810:	76c32e23          	sw	a2,1916(t1)
80004814:	33333437          	lui	s0,0x33333
80004818:	33640413          	addi	s0,s0,822 # 33333336 <offset+0x33333256>
8000481c:	42c414e3          	bne	s0,a2,80005444 <bad_trap>

80004820 <inst_499>:
80004820:	33333537          	lui	a0,0x33333
80004824:	33250513          	addi	a0,a0,818 # 33333332 <offset+0x33333252>
80004828:	666665b7          	lui	a1,0x66666
8000482c:	66758593          	addi	a1,a1,1639 # 66666667 <absimm+0x21374138>
80004830:	00b56633          	or	a2,a0,a1
80004834:	78c32023          	sw	a2,1920(t1)
80004838:	77777437          	lui	s0,0x77777
8000483c:	77740413          	addi	s0,s0,1911 # 77777777 <absimm+0x32485248>
80004840:	40c412e3          	bne	s0,a2,80005444 <bad_trap>

80004844 <inst_500>:
80004844:	33333537          	lui	a0,0x33333
80004848:	33250513          	addi	a0,a0,818 # 33333332 <offset+0x33333252>
8000484c:	ffff55b7          	lui	a1,0xffff5
80004850:	afd58593          	addi	a1,a1,-1283 # ffff4afd <imm12+0xffff502d>
80004854:	00b56633          	or	a2,a0,a1
80004858:	78c32223          	sw	a2,1924(t1)
8000485c:	ffff8437          	lui	s0,0xffff8
80004860:	bff40413          	addi	s0,s0,-1025 # ffff7bff <imm12+0xffff812f>
80004864:	3ec410e3          	bne	s0,a2,80005444 <bad_trap>

80004868 <inst_501>:
80004868:	33333537          	lui	a0,0x33333
8000486c:	33250513          	addi	a0,a0,818 # 33333332 <offset+0x33333252>
80004870:	0000b5b7          	lui	a1,0xb
80004874:	50558593          	addi	a1,a1,1285 # b505 <offset+0xb425>
80004878:	00b56633          	or	a2,a0,a1
8000487c:	78c32423          	sw	a2,1928(t1)
80004880:	3333b437          	lui	s0,0x3333b
80004884:	73740413          	addi	s0,s0,1847 # 3333b737 <offset+0x3333b657>
80004888:	3ac41ee3          	bne	s0,a2,80005444 <bad_trap>

8000488c <inst_502>:
8000488c:	66666537          	lui	a0,0x66666
80004890:	66550513          	addi	a0,a0,1637 # 66666665 <absimm+0x21374136>
80004894:	00300593          	li	a1,3
80004898:	00b56633          	or	a2,a0,a1
8000489c:	78c32623          	sw	a2,1932(t1)
800048a0:	66666437          	lui	s0,0x66666
800048a4:	66740413          	addi	s0,s0,1639 # 66666667 <absimm+0x21374138>
800048a8:	38c41ee3          	bne	s0,a2,80005444 <bad_trap>

800048ac <inst_503>:
800048ac:	66666537          	lui	a0,0x66666
800048b0:	66550513          	addi	a0,a0,1637 # 66666665 <absimm+0x21374136>
800048b4:	555555b7          	lui	a1,0x55555
800048b8:	55558593          	addi	a1,a1,1365 # 55555555 <absimm+0x10263026>
800048bc:	00b56633          	or	a2,a0,a1
800048c0:	78c32823          	sw	a2,1936(t1)
800048c4:	77777437          	lui	s0,0x77777
800048c8:	77540413          	addi	s0,s0,1909 # 77777775 <absimm+0x32485246>
800048cc:	36c41ce3          	bne	s0,a2,80005444 <bad_trap>

800048d0 <inst_504>:
800048d0:	66666537          	lui	a0,0x66666
800048d4:	66550513          	addi	a0,a0,1637 # 66666665 <absimm+0x21374136>
800048d8:	aaaab5b7          	lui	a1,0xaaaab
800048dc:	aaa58593          	addi	a1,a1,-1366 # aaaaaaaa <imm12+0xaaaaafda>
800048e0:	00b56633          	or	a2,a0,a1
800048e4:	78c32a23          	sw	a2,1940(t1)
800048e8:	eeeef437          	lui	s0,0xeeeef
800048ec:	eef40413          	addi	s0,s0,-273 # eeeeeeef <imm12+0xeeeef41f>
800048f0:	34c41ae3          	bne	s0,a2,80005444 <bad_trap>

800048f4 <inst_505>:
800048f4:	66666537          	lui	a0,0x66666
800048f8:	66550513          	addi	a0,a0,1637 # 66666665 <absimm+0x21374136>
800048fc:	00500593          	li	a1,5
80004900:	00b56633          	or	a2,a0,a1
80004904:	78c32c23          	sw	a2,1944(t1)
80004908:	66666437          	lui	s0,0x66666
8000490c:	66540413          	addi	s0,s0,1637 # 66666665 <absimm+0x21374136>
80004910:	32c41ae3          	bne	s0,a2,80005444 <bad_trap>

80004914 <inst_506>:
80004914:	66666537          	lui	a0,0x66666
80004918:	66550513          	addi	a0,a0,1637 # 66666665 <absimm+0x21374136>
8000491c:	333335b7          	lui	a1,0x33333
80004920:	33358593          	addi	a1,a1,819 # 33333333 <offset+0x33333253>
80004924:	00b56633          	or	a2,a0,a1
80004928:	78c32e23          	sw	a2,1948(t1)
8000492c:	77777437          	lui	s0,0x77777
80004930:	77740413          	addi	s0,s0,1911 # 77777777 <absimm+0x32485248>
80004934:	30c418e3          	bne	s0,a2,80005444 <bad_trap>

80004938 <inst_507>:
80004938:	66666537          	lui	a0,0x66666
8000493c:	66550513          	addi	a0,a0,1637 # 66666665 <absimm+0x21374136>
80004940:	666665b7          	lui	a1,0x66666
80004944:	66658593          	addi	a1,a1,1638 # 66666666 <absimm+0x21374137>
80004948:	00b56633          	or	a2,a0,a1
8000494c:	7ac32023          	sw	a2,1952(t1)
80004950:	66666437          	lui	s0,0x66666
80004954:	66740413          	addi	s0,s0,1639 # 66666667 <absimm+0x21374138>
80004958:	2ec416e3          	bne	s0,a2,80005444 <bad_trap>

8000495c <inst_508>:
8000495c:	66666537          	lui	a0,0x66666
80004960:	66550513          	addi	a0,a0,1637 # 66666665 <absimm+0x21374136>
80004964:	ffff55b7          	lui	a1,0xffff5
80004968:	afc58593          	addi	a1,a1,-1284 # ffff4afc <imm12+0xffff502c>
8000496c:	00b56633          	or	a2,a0,a1
80004970:	7ac32223          	sw	a2,1956(t1)
80004974:	ffff7437          	lui	s0,0xffff7
80004978:	efd40413          	addi	s0,s0,-259 # ffff6efd <imm12+0xffff742d>
8000497c:	2cc414e3          	bne	s0,a2,80005444 <bad_trap>

80004980 <inst_509>:
80004980:	66666537          	lui	a0,0x66666
80004984:	66550513          	addi	a0,a0,1637 # 66666665 <absimm+0x21374136>
80004988:	0000b5b7          	lui	a1,0xb
8000498c:	50458593          	addi	a1,a1,1284 # b504 <offset+0xb424>
80004990:	00b56633          	or	a2,a0,a1
80004994:	7ac32423          	sw	a2,1960(t1)
80004998:	6666f437          	lui	s0,0x6666f
8000499c:	76540413          	addi	s0,s0,1893 # 6666f765 <absimm+0x2137d236>
800049a0:	2ac412e3          	bne	s0,a2,80005444 <bad_trap>

800049a4 <inst_510>:
800049a4:	66666537          	lui	a0,0x66666
800049a8:	66550513          	addi	a0,a0,1637 # 66666665 <absimm+0x21374136>
800049ac:	00200593          	li	a1,2
800049b0:	00b56633          	or	a2,a0,a1
800049b4:	7ac32623          	sw	a2,1964(t1)
800049b8:	66666437          	lui	s0,0x66666
800049bc:	66740413          	addi	s0,s0,1639 # 66666667 <absimm+0x21374138>
800049c0:	28c412e3          	bne	s0,a2,80005444 <bad_trap>

800049c4 <inst_511>:
800049c4:	66666537          	lui	a0,0x66666
800049c8:	66550513          	addi	a0,a0,1637 # 66666665 <absimm+0x21374136>
800049cc:	555555b7          	lui	a1,0x55555
800049d0:	55458593          	addi	a1,a1,1364 # 55555554 <absimm+0x10263025>
800049d4:	00b56633          	or	a2,a0,a1
800049d8:	7ac32823          	sw	a2,1968(t1)
800049dc:	77777437          	lui	s0,0x77777
800049e0:	77540413          	addi	s0,s0,1909 # 77777775 <absimm+0x32485246>
800049e4:	26c410e3          	bne	s0,a2,80005444 <bad_trap>

800049e8 <inst_512>:
800049e8:	66666537          	lui	a0,0x66666
800049ec:	66550513          	addi	a0,a0,1637 # 66666665 <absimm+0x21374136>
800049f0:	00000593          	li	a1,0
800049f4:	00b56633          	or	a2,a0,a1
800049f8:	7ac32a23          	sw	a2,1972(t1)
800049fc:	66666437          	lui	s0,0x66666
80004a00:	66540413          	addi	s0,s0,1637 # 66666665 <absimm+0x21374136>
80004a04:	24c410e3          	bne	s0,a2,80005444 <bad_trap>

80004a08 <inst_513>:
80004a08:	66666537          	lui	a0,0x66666
80004a0c:	66550513          	addi	a0,a0,1637 # 66666665 <absimm+0x21374136>
80004a10:	00400593          	li	a1,4
80004a14:	00b56633          	or	a2,a0,a1
80004a18:	7ac32c23          	sw	a2,1976(t1)
80004a1c:	66666437          	lui	s0,0x66666
80004a20:	66540413          	addi	s0,s0,1637 # 66666665 <absimm+0x21374136>
80004a24:	22c410e3          	bne	s0,a2,80005444 <bad_trap>

80004a28 <inst_514>:
80004a28:	66666537          	lui	a0,0x66666
80004a2c:	66550513          	addi	a0,a0,1637 # 66666665 <absimm+0x21374136>
80004a30:	333335b7          	lui	a1,0x33333
80004a34:	33258593          	addi	a1,a1,818 # 33333332 <offset+0x33333252>
80004a38:	00b56633          	or	a2,a0,a1
80004a3c:	7ac32e23          	sw	a2,1980(t1)
80004a40:	77777437          	lui	s0,0x77777
80004a44:	77740413          	addi	s0,s0,1911 # 77777777 <absimm+0x32485248>
80004a48:	1ec41ee3          	bne	s0,a2,80005444 <bad_trap>

80004a4c <inst_515>:
80004a4c:	66666537          	lui	a0,0x66666
80004a50:	66550513          	addi	a0,a0,1637 # 66666665 <absimm+0x21374136>
80004a54:	666665b7          	lui	a1,0x66666
80004a58:	66558593          	addi	a1,a1,1637 # 66666665 <absimm+0x21374136>
80004a5c:	00b56633          	or	a2,a0,a1
80004a60:	7cc32023          	sw	a2,1984(t1)
80004a64:	66666437          	lui	s0,0x66666
80004a68:	66540413          	addi	s0,s0,1637 # 66666665 <absimm+0x21374136>
80004a6c:	1cc41ce3          	bne	s0,a2,80005444 <bad_trap>

80004a70 <inst_516>:
80004a70:	66666537          	lui	a0,0x66666
80004a74:	66550513          	addi	a0,a0,1637 # 66666665 <absimm+0x21374136>
80004a78:	0000b5b7          	lui	a1,0xb
80004a7c:	50358593          	addi	a1,a1,1283 # b503 <offset+0xb423>
80004a80:	00b56633          	or	a2,a0,a1
80004a84:	7cc32223          	sw	a2,1988(t1)
80004a88:	6666f437          	lui	s0,0x6666f
80004a8c:	76740413          	addi	s0,s0,1895 # 6666f767 <absimm+0x2137d238>
80004a90:	1ac41ae3          	bne	s0,a2,80005444 <bad_trap>

80004a94 <inst_517>:
80004a94:	66666537          	lui	a0,0x66666
80004a98:	66550513          	addi	a0,a0,1637 # 66666665 <absimm+0x21374136>
80004a9c:	555555b7          	lui	a1,0x55555
80004aa0:	55658593          	addi	a1,a1,1366 # 55555556 <absimm+0x10263027>
80004aa4:	00b56633          	or	a2,a0,a1
80004aa8:	7cc32423          	sw	a2,1992(t1)
80004aac:	77777437          	lui	s0,0x77777
80004ab0:	77740413          	addi	s0,s0,1911 # 77777777 <absimm+0x32485248>
80004ab4:	18c418e3          	bne	s0,a2,80005444 <bad_trap>

80004ab8 <inst_518>:
80004ab8:	66666537          	lui	a0,0x66666
80004abc:	66550513          	addi	a0,a0,1637 # 66666665 <absimm+0x21374136>
80004ac0:	aaaab5b7          	lui	a1,0xaaaab
80004ac4:	aab58593          	addi	a1,a1,-1365 # aaaaaaab <imm12+0xaaaaafdb>
80004ac8:	00b56633          	or	a2,a0,a1
80004acc:	7cc32623          	sw	a2,1996(t1)
80004ad0:	eeeef437          	lui	s0,0xeeeef
80004ad4:	eef40413          	addi	s0,s0,-273 # eeeeeeef <imm12+0xeeeef41f>
80004ad8:	16c416e3          	bne	s0,a2,80005444 <bad_trap>

80004adc <inst_519>:
80004adc:	66666537          	lui	a0,0x66666
80004ae0:	66550513          	addi	a0,a0,1637 # 66666665 <absimm+0x21374136>
80004ae4:	00600593          	li	a1,6
80004ae8:	00b56633          	or	a2,a0,a1
80004aec:	7cc32823          	sw	a2,2000(t1)
80004af0:	66666437          	lui	s0,0x66666
80004af4:	66740413          	addi	s0,s0,1639 # 66666667 <absimm+0x21374138>
80004af8:	14c416e3          	bne	s0,a2,80005444 <bad_trap>

80004afc <inst_520>:
80004afc:	66666537          	lui	a0,0x66666
80004b00:	66550513          	addi	a0,a0,1637 # 66666665 <absimm+0x21374136>
80004b04:	333335b7          	lui	a1,0x33333
80004b08:	33458593          	addi	a1,a1,820 # 33333334 <offset+0x33333254>
80004b0c:	00b56633          	or	a2,a0,a1
80004b10:	7cc32a23          	sw	a2,2004(t1)
80004b14:	77777437          	lui	s0,0x77777
80004b18:	77540413          	addi	s0,s0,1909 # 77777775 <absimm+0x32485246>
80004b1c:	12c414e3          	bne	s0,a2,80005444 <bad_trap>

80004b20 <inst_521>:
80004b20:	66666537          	lui	a0,0x66666
80004b24:	66550513          	addi	a0,a0,1637 # 66666665 <absimm+0x21374136>
80004b28:	666665b7          	lui	a1,0x66666
80004b2c:	66758593          	addi	a1,a1,1639 # 66666667 <absimm+0x21374138>
80004b30:	00b56633          	or	a2,a0,a1
80004b34:	7cc32c23          	sw	a2,2008(t1)
80004b38:	66666437          	lui	s0,0x66666
80004b3c:	66740413          	addi	s0,s0,1639 # 66666667 <absimm+0x21374138>
80004b40:	10c412e3          	bne	s0,a2,80005444 <bad_trap>

80004b44 <inst_522>:
80004b44:	66666537          	lui	a0,0x66666
80004b48:	66550513          	addi	a0,a0,1637 # 66666665 <absimm+0x21374136>
80004b4c:	ffff55b7          	lui	a1,0xffff5
80004b50:	afd58593          	addi	a1,a1,-1283 # ffff4afd <imm12+0xffff502d>
80004b54:	00b56633          	or	a2,a0,a1
80004b58:	7cc32e23          	sw	a2,2012(t1)
80004b5c:	ffff7437          	lui	s0,0xffff7
80004b60:	efd40413          	addi	s0,s0,-259 # ffff6efd <imm12+0xffff742d>
80004b64:	0ec410e3          	bne	s0,a2,80005444 <bad_trap>

80004b68 <inst_523>:
80004b68:	66666537          	lui	a0,0x66666
80004b6c:	66550513          	addi	a0,a0,1637 # 66666665 <absimm+0x21374136>
80004b70:	0000b5b7          	lui	a1,0xb
80004b74:	50558593          	addi	a1,a1,1285 # b505 <offset+0xb425>
80004b78:	00b56633          	or	a2,a0,a1
80004b7c:	7ec32023          	sw	a2,2016(t1)
80004b80:	6666f437          	lui	s0,0x6666f
80004b84:	76540413          	addi	s0,s0,1893 # 6666f765 <absimm+0x2137d236>
80004b88:	0ac41ee3          	bne	s0,a2,80005444 <bad_trap>

80004b8c <inst_524>:
80004b8c:	0000b537          	lui	a0,0xb
80004b90:	50350513          	addi	a0,a0,1283 # b503 <offset+0xb423>
80004b94:	00300593          	li	a1,3
80004b98:	00b56633          	or	a2,a0,a1
80004b9c:	7ec32223          	sw	a2,2020(t1)
80004ba0:	0000b437          	lui	s0,0xb
80004ba4:	50340413          	addi	s0,s0,1283 # b503 <offset+0xb423>
80004ba8:	08c41ee3          	bne	s0,a2,80005444 <bad_trap>

80004bac <inst_525>:
80004bac:	0000b537          	lui	a0,0xb
80004bb0:	50350513          	addi	a0,a0,1283 # b503 <offset+0xb423>
80004bb4:	555555b7          	lui	a1,0x55555
80004bb8:	55558593          	addi	a1,a1,1365 # 55555555 <absimm+0x10263026>
80004bbc:	00b56633          	or	a2,a0,a1
80004bc0:	7ec32423          	sw	a2,2024(t1)
80004bc4:	5555f437          	lui	s0,0x5555f
80004bc8:	55740413          	addi	s0,s0,1367 # 5555f557 <absimm+0x1026d028>
80004bcc:	06c41ce3          	bne	s0,a2,80005444 <bad_trap>

80004bd0 <inst_526>:
80004bd0:	0000b537          	lui	a0,0xb
80004bd4:	50350513          	addi	a0,a0,1283 # b503 <offset+0xb423>
80004bd8:	aaaab5b7          	lui	a1,0xaaaab
80004bdc:	aaa58593          	addi	a1,a1,-1366 # aaaaaaaa <imm12+0xaaaaafda>
80004be0:	00b56633          	or	a2,a0,a1
80004be4:	7ec32623          	sw	a2,2028(t1)
80004be8:	aaaac437          	lui	s0,0xaaaac
80004bec:	fab40413          	addi	s0,s0,-85 # aaaabfab <imm12+0xaaaac4db>
80004bf0:	04c41ae3          	bne	s0,a2,80005444 <bad_trap>

80004bf4 <inst_527>:
80004bf4:	0000b537          	lui	a0,0xb
80004bf8:	50350513          	addi	a0,a0,1283 # b503 <offset+0xb423>
80004bfc:	00500593          	li	a1,5
80004c00:	00b56633          	or	a2,a0,a1
80004c04:	7ec32823          	sw	a2,2032(t1)
80004c08:	0000b437          	lui	s0,0xb
80004c0c:	50740413          	addi	s0,s0,1287 # b507 <offset+0xb427>
80004c10:	02c41ae3          	bne	s0,a2,80005444 <bad_trap>

80004c14 <inst_528>:
80004c14:	0000b537          	lui	a0,0xb
80004c18:	50350513          	addi	a0,a0,1283 # b503 <offset+0xb423>
80004c1c:	333335b7          	lui	a1,0x33333
80004c20:	33358593          	addi	a1,a1,819 # 33333333 <offset+0x33333253>
80004c24:	00b56633          	or	a2,a0,a1
80004c28:	7ec32a23          	sw	a2,2036(t1)
80004c2c:	3333b437          	lui	s0,0x3333b
80004c30:	73340413          	addi	s0,s0,1843 # 3333b733 <offset+0x3333b653>
80004c34:	00c418e3          	bne	s0,a2,80005444 <bad_trap>

80004c38 <inst_529>:
80004c38:	0000b537          	lui	a0,0xb
80004c3c:	50350513          	addi	a0,a0,1283 # b503 <offset+0xb423>
80004c40:	666665b7          	lui	a1,0x66666
80004c44:	66658593          	addi	a1,a1,1638 # 66666666 <absimm+0x21374137>
80004c48:	00b56633          	or	a2,a0,a1
80004c4c:	7ec32c23          	sw	a2,2040(t1)
80004c50:	6666f437          	lui	s0,0x6666f
80004c54:	76740413          	addi	s0,s0,1895 # 6666f767 <absimm+0x2137d238>
80004c58:	7ec41663          	bne	s0,a2,80005444 <bad_trap>

80004c5c <inst_530>:
80004c5c:	0000b537          	lui	a0,0xb
80004c60:	50350513          	addi	a0,a0,1283 # b503 <offset+0xb423>
80004c64:	ffff55b7          	lui	a1,0xffff5
80004c68:	afc58593          	addi	a1,a1,-1284 # ffff4afc <imm12+0xffff502c>
80004c6c:	00b56633          	or	a2,a0,a1
80004c70:	7ec32e23          	sw	a2,2044(t1)
80004c74:	fff00413          	li	s0,-1
80004c78:	7cc41663          	bne	s0,a2,80005444 <bad_trap>
80004c7c:	00000013          	nop
80004c80:	00003317          	auipc	t1,0x3
80004c84:	bd030313          	addi	t1,t1,-1072 # 80007850 <signature_x6_1>
80004c88:	00000013          	nop
80004c8c:	00000013          	nop
80004c90:	00000013          	nop
80004c94:	00000013          	nop
80004c98:	00000013          	nop
80004c9c:	00000013          	nop

80004ca0 <inst_531>:
80004ca0:	0000b537          	lui	a0,0xb
80004ca4:	50350513          	addi	a0,a0,1283 # b503 <offset+0xb423>
80004ca8:	0000b5b7          	lui	a1,0xb
80004cac:	50458593          	addi	a1,a1,1284 # b504 <offset+0xb424>
80004cb0:	00b56633          	or	a2,a0,a1
80004cb4:	00c32023          	sw	a2,0(t1)
80004cb8:	0000b437          	lui	s0,0xb
80004cbc:	50740413          	addi	s0,s0,1287 # b507 <offset+0xb427>
80004cc0:	78c41263          	bne	s0,a2,80005444 <bad_trap>

80004cc4 <inst_532>:
80004cc4:	0000b537          	lui	a0,0xb
80004cc8:	50350513          	addi	a0,a0,1283 # b503 <offset+0xb423>
80004ccc:	00200593          	li	a1,2
80004cd0:	00b56633          	or	a2,a0,a1
80004cd4:	00c32223          	sw	a2,4(t1)
80004cd8:	0000b437          	lui	s0,0xb
80004cdc:	50340413          	addi	s0,s0,1283 # b503 <offset+0xb423>
80004ce0:	76c41263          	bne	s0,a2,80005444 <bad_trap>

80004ce4 <inst_533>:
80004ce4:	0000b537          	lui	a0,0xb
80004ce8:	50350513          	addi	a0,a0,1283 # b503 <offset+0xb423>
80004cec:	555555b7          	lui	a1,0x55555
80004cf0:	55458593          	addi	a1,a1,1364 # 55555554 <absimm+0x10263025>
80004cf4:	00b56633          	or	a2,a0,a1
80004cf8:	00c32423          	sw	a2,8(t1)
80004cfc:	5555f437          	lui	s0,0x5555f
80004d00:	55740413          	addi	s0,s0,1367 # 5555f557 <absimm+0x1026d028>
80004d04:	74c41063          	bne	s0,a2,80005444 <bad_trap>

80004d08 <inst_534>:
80004d08:	0000b537          	lui	a0,0xb
80004d0c:	50350513          	addi	a0,a0,1283 # b503 <offset+0xb423>
80004d10:	00000593          	li	a1,0
80004d14:	00b56633          	or	a2,a0,a1
80004d18:	00c32623          	sw	a2,12(t1)
80004d1c:	0000b437          	lui	s0,0xb
80004d20:	50340413          	addi	s0,s0,1283 # b503 <offset+0xb423>
80004d24:	72c41063          	bne	s0,a2,80005444 <bad_trap>

80004d28 <inst_535>:
80004d28:	0000b537          	lui	a0,0xb
80004d2c:	50350513          	addi	a0,a0,1283 # b503 <offset+0xb423>
80004d30:	00400593          	li	a1,4
80004d34:	00b56633          	or	a2,a0,a1
80004d38:	00c32823          	sw	a2,16(t1)
80004d3c:	0000b437          	lui	s0,0xb
80004d40:	50740413          	addi	s0,s0,1287 # b507 <offset+0xb427>
80004d44:	70c41063          	bne	s0,a2,80005444 <bad_trap>

80004d48 <inst_536>:
80004d48:	0000b537          	lui	a0,0xb
80004d4c:	50350513          	addi	a0,a0,1283 # b503 <offset+0xb423>
80004d50:	333335b7          	lui	a1,0x33333
80004d54:	33258593          	addi	a1,a1,818 # 33333332 <offset+0x33333252>
80004d58:	00b56633          	or	a2,a0,a1
80004d5c:	00c32a23          	sw	a2,20(t1)
80004d60:	3333b437          	lui	s0,0x3333b
80004d64:	73340413          	addi	s0,s0,1843 # 3333b733 <offset+0x3333b653>
80004d68:	6cc41e63          	bne	s0,a2,80005444 <bad_trap>

80004d6c <inst_537>:
80004d6c:	0000b537          	lui	a0,0xb
80004d70:	50350513          	addi	a0,a0,1283 # b503 <offset+0xb423>
80004d74:	666665b7          	lui	a1,0x66666
80004d78:	66558593          	addi	a1,a1,1637 # 66666665 <absimm+0x21374136>
80004d7c:	00b56633          	or	a2,a0,a1
80004d80:	00c32c23          	sw	a2,24(t1)
80004d84:	6666f437          	lui	s0,0x6666f
80004d88:	76740413          	addi	s0,s0,1895 # 6666f767 <absimm+0x2137d238>
80004d8c:	6ac41c63          	bne	s0,a2,80005444 <bad_trap>

80004d90 <inst_538>:
80004d90:	0000b537          	lui	a0,0xb
80004d94:	50350513          	addi	a0,a0,1283 # b503 <offset+0xb423>
80004d98:	0000b5b7          	lui	a1,0xb
80004d9c:	50358593          	addi	a1,a1,1283 # b503 <offset+0xb423>
80004da0:	00b56633          	or	a2,a0,a1
80004da4:	00c32e23          	sw	a2,28(t1)
80004da8:	0000b437          	lui	s0,0xb
80004dac:	50340413          	addi	s0,s0,1283 # b503 <offset+0xb423>
80004db0:	68c41a63          	bne	s0,a2,80005444 <bad_trap>

80004db4 <inst_539>:
80004db4:	0000b537          	lui	a0,0xb
80004db8:	50350513          	addi	a0,a0,1283 # b503 <offset+0xb423>
80004dbc:	555555b7          	lui	a1,0x55555
80004dc0:	55658593          	addi	a1,a1,1366 # 55555556 <absimm+0x10263027>
80004dc4:	00b56633          	or	a2,a0,a1
80004dc8:	02c32023          	sw	a2,32(t1)
80004dcc:	5555f437          	lui	s0,0x5555f
80004dd0:	55740413          	addi	s0,s0,1367 # 5555f557 <absimm+0x1026d028>
80004dd4:	66c41863          	bne	s0,a2,80005444 <bad_trap>

80004dd8 <inst_540>:
80004dd8:	0000b537          	lui	a0,0xb
80004ddc:	50350513          	addi	a0,a0,1283 # b503 <offset+0xb423>
80004de0:	aaaab5b7          	lui	a1,0xaaaab
80004de4:	aab58593          	addi	a1,a1,-1365 # aaaaaaab <imm12+0xaaaaafdb>
80004de8:	00b56633          	or	a2,a0,a1
80004dec:	02c32223          	sw	a2,36(t1)
80004df0:	aaaac437          	lui	s0,0xaaaac
80004df4:	fab40413          	addi	s0,s0,-85 # aaaabfab <imm12+0xaaaac4db>
80004df8:	64c41663          	bne	s0,a2,80005444 <bad_trap>

80004dfc <inst_541>:
80004dfc:	0000b537          	lui	a0,0xb
80004e00:	50350513          	addi	a0,a0,1283 # b503 <offset+0xb423>
80004e04:	00600593          	li	a1,6
80004e08:	00b56633          	or	a2,a0,a1
80004e0c:	02c32423          	sw	a2,40(t1)
80004e10:	0000b437          	lui	s0,0xb
80004e14:	50740413          	addi	s0,s0,1287 # b507 <offset+0xb427>
80004e18:	62c41663          	bne	s0,a2,80005444 <bad_trap>

80004e1c <inst_542>:
80004e1c:	0000b537          	lui	a0,0xb
80004e20:	50350513          	addi	a0,a0,1283 # b503 <offset+0xb423>
80004e24:	333335b7          	lui	a1,0x33333
80004e28:	33458593          	addi	a1,a1,820 # 33333334 <offset+0x33333254>
80004e2c:	00b56633          	or	a2,a0,a1
80004e30:	02c32623          	sw	a2,44(t1)
80004e34:	3333b437          	lui	s0,0x3333b
80004e38:	73740413          	addi	s0,s0,1847 # 3333b737 <offset+0x3333b657>
80004e3c:	60c41463          	bne	s0,a2,80005444 <bad_trap>

80004e40 <inst_543>:
80004e40:	0000b537          	lui	a0,0xb
80004e44:	50350513          	addi	a0,a0,1283 # b503 <offset+0xb423>
80004e48:	666665b7          	lui	a1,0x66666
80004e4c:	66758593          	addi	a1,a1,1639 # 66666667 <absimm+0x21374138>
80004e50:	00b56633          	or	a2,a0,a1
80004e54:	02c32823          	sw	a2,48(t1)
80004e58:	6666f437          	lui	s0,0x6666f
80004e5c:	76740413          	addi	s0,s0,1895 # 6666f767 <absimm+0x2137d238>
80004e60:	5ec41263          	bne	s0,a2,80005444 <bad_trap>

80004e64 <inst_544>:
80004e64:	0000b537          	lui	a0,0xb
80004e68:	50350513          	addi	a0,a0,1283 # b503 <offset+0xb423>
80004e6c:	ffff55b7          	lui	a1,0xffff5
80004e70:	afd58593          	addi	a1,a1,-1283 # ffff4afd <imm12+0xffff502d>
80004e74:	00b56633          	or	a2,a0,a1
80004e78:	02c32a23          	sw	a2,52(t1)
80004e7c:	fff00413          	li	s0,-1
80004e80:	5cc41263          	bne	s0,a2,80005444 <bad_trap>

80004e84 <inst_545>:
80004e84:	0000b537          	lui	a0,0xb
80004e88:	50350513          	addi	a0,a0,1283 # b503 <offset+0xb423>
80004e8c:	0000b5b7          	lui	a1,0xb
80004e90:	50558593          	addi	a1,a1,1285 # b505 <offset+0xb425>
80004e94:	00b56633          	or	a2,a0,a1
80004e98:	02c32c23          	sw	a2,56(t1)
80004e9c:	0000b437          	lui	s0,0xb
80004ea0:	50740413          	addi	s0,s0,1287 # b507 <offset+0xb427>
80004ea4:	5ac41063          	bne	s0,a2,80005444 <bad_trap>

80004ea8 <inst_546>:
80004ea8:	55555537          	lui	a0,0x55555
80004eac:	55650513          	addi	a0,a0,1366 # 55555556 <absimm+0x10263027>
80004eb0:	00300593          	li	a1,3
80004eb4:	00b56633          	or	a2,a0,a1
80004eb8:	02c32e23          	sw	a2,60(t1)
80004ebc:	55555437          	lui	s0,0x55555
80004ec0:	55740413          	addi	s0,s0,1367 # 55555557 <absimm+0x10263028>
80004ec4:	58c41063          	bne	s0,a2,80005444 <bad_trap>

80004ec8 <inst_547>:
80004ec8:	55555537          	lui	a0,0x55555
80004ecc:	55650513          	addi	a0,a0,1366 # 55555556 <absimm+0x10263027>
80004ed0:	555555b7          	lui	a1,0x55555
80004ed4:	55558593          	addi	a1,a1,1365 # 55555555 <absimm+0x10263026>
80004ed8:	00b56633          	or	a2,a0,a1
80004edc:	04c32023          	sw	a2,64(t1)
80004ee0:	55555437          	lui	s0,0x55555
80004ee4:	55740413          	addi	s0,s0,1367 # 55555557 <absimm+0x10263028>
80004ee8:	54c41e63          	bne	s0,a2,80005444 <bad_trap>

80004eec <inst_548>:
80004eec:	55555537          	lui	a0,0x55555
80004ef0:	55650513          	addi	a0,a0,1366 # 55555556 <absimm+0x10263027>
80004ef4:	aaaab5b7          	lui	a1,0xaaaab
80004ef8:	aaa58593          	addi	a1,a1,-1366 # aaaaaaaa <imm12+0xaaaaafda>
80004efc:	00b56633          	or	a2,a0,a1
80004f00:	04c32223          	sw	a2,68(t1)
80004f04:	ffe00413          	li	s0,-2
80004f08:	52c41e63          	bne	s0,a2,80005444 <bad_trap>

80004f0c <inst_549>:
80004f0c:	55555537          	lui	a0,0x55555
80004f10:	55650513          	addi	a0,a0,1366 # 55555556 <absimm+0x10263027>
80004f14:	00500593          	li	a1,5
80004f18:	00b56633          	or	a2,a0,a1
80004f1c:	04c32423          	sw	a2,72(t1)
80004f20:	55555437          	lui	s0,0x55555
80004f24:	55740413          	addi	s0,s0,1367 # 55555557 <absimm+0x10263028>
80004f28:	50c41e63          	bne	s0,a2,80005444 <bad_trap>

80004f2c <inst_550>:
80004f2c:	55555537          	lui	a0,0x55555
80004f30:	55650513          	addi	a0,a0,1366 # 55555556 <absimm+0x10263027>
80004f34:	333335b7          	lui	a1,0x33333
80004f38:	33358593          	addi	a1,a1,819 # 33333333 <offset+0x33333253>
80004f3c:	00b56633          	or	a2,a0,a1
80004f40:	04c32623          	sw	a2,76(t1)
80004f44:	77777437          	lui	s0,0x77777
80004f48:	77740413          	addi	s0,s0,1911 # 77777777 <absimm+0x32485248>
80004f4c:	4ec41c63          	bne	s0,a2,80005444 <bad_trap>

80004f50 <inst_551>:
80004f50:	55555537          	lui	a0,0x55555
80004f54:	55650513          	addi	a0,a0,1366 # 55555556 <absimm+0x10263027>
80004f58:	666665b7          	lui	a1,0x66666
80004f5c:	66658593          	addi	a1,a1,1638 # 66666666 <absimm+0x21374137>
80004f60:	00b56633          	or	a2,a0,a1
80004f64:	04c32823          	sw	a2,80(t1)
80004f68:	77777437          	lui	s0,0x77777
80004f6c:	77640413          	addi	s0,s0,1910 # 77777776 <absimm+0x32485247>
80004f70:	4cc41a63          	bne	s0,a2,80005444 <bad_trap>

80004f74 <inst_552>:
80004f74:	55555537          	lui	a0,0x55555
80004f78:	55650513          	addi	a0,a0,1366 # 55555556 <absimm+0x10263027>
80004f7c:	ffff55b7          	lui	a1,0xffff5
80004f80:	afc58593          	addi	a1,a1,-1284 # ffff4afc <imm12+0xffff502c>
80004f84:	00b56633          	or	a2,a0,a1
80004f88:	04c32a23          	sw	a2,84(t1)
80004f8c:	ffff6437          	lui	s0,0xffff6
80004f90:	ffe40413          	addi	s0,s0,-2 # ffff5ffe <imm12+0xffff652e>
80004f94:	4ac41863          	bne	s0,a2,80005444 <bad_trap>

80004f98 <inst_553>:
80004f98:	55555537          	lui	a0,0x55555
80004f9c:	55650513          	addi	a0,a0,1366 # 55555556 <absimm+0x10263027>
80004fa0:	0000b5b7          	lui	a1,0xb
80004fa4:	50458593          	addi	a1,a1,1284 # b504 <offset+0xb424>
80004fa8:	00b56633          	or	a2,a0,a1
80004fac:	04c32c23          	sw	a2,88(t1)
80004fb0:	5555f437          	lui	s0,0x5555f
80004fb4:	55640413          	addi	s0,s0,1366 # 5555f556 <absimm+0x1026d027>
80004fb8:	48c41663          	bne	s0,a2,80005444 <bad_trap>

80004fbc <inst_554>:
80004fbc:	55555537          	lui	a0,0x55555
80004fc0:	55650513          	addi	a0,a0,1366 # 55555556 <absimm+0x10263027>
80004fc4:	00200593          	li	a1,2
80004fc8:	00b56633          	or	a2,a0,a1
80004fcc:	04c32e23          	sw	a2,92(t1)
80004fd0:	55555437          	lui	s0,0x55555
80004fd4:	55640413          	addi	s0,s0,1366 # 55555556 <absimm+0x10263027>
80004fd8:	46c41663          	bne	s0,a2,80005444 <bad_trap>

80004fdc <inst_555>:
80004fdc:	55555537          	lui	a0,0x55555
80004fe0:	55650513          	addi	a0,a0,1366 # 55555556 <absimm+0x10263027>
80004fe4:	555555b7          	lui	a1,0x55555
80004fe8:	55458593          	addi	a1,a1,1364 # 55555554 <absimm+0x10263025>
80004fec:	00b56633          	or	a2,a0,a1
80004ff0:	06c32023          	sw	a2,96(t1)
80004ff4:	55555437          	lui	s0,0x55555
80004ff8:	55640413          	addi	s0,s0,1366 # 55555556 <absimm+0x10263027>
80004ffc:	44c41463          	bne	s0,a2,80005444 <bad_trap>

80005000 <inst_556>:
80005000:	55555537          	lui	a0,0x55555
80005004:	55650513          	addi	a0,a0,1366 # 55555556 <absimm+0x10263027>
80005008:	00000593          	li	a1,0
8000500c:	00b56633          	or	a2,a0,a1
80005010:	06c32223          	sw	a2,100(t1)
80005014:	55555437          	lui	s0,0x55555
80005018:	55640413          	addi	s0,s0,1366 # 55555556 <absimm+0x10263027>
8000501c:	42c41463          	bne	s0,a2,80005444 <bad_trap>

80005020 <inst_557>:
80005020:	55555537          	lui	a0,0x55555
80005024:	55650513          	addi	a0,a0,1366 # 55555556 <absimm+0x10263027>
80005028:	00400593          	li	a1,4
8000502c:	00b56633          	or	a2,a0,a1
80005030:	06c32423          	sw	a2,104(t1)
80005034:	55555437          	lui	s0,0x55555
80005038:	55640413          	addi	s0,s0,1366 # 55555556 <absimm+0x10263027>
8000503c:	40c41463          	bne	s0,a2,80005444 <bad_trap>

80005040 <inst_558>:
80005040:	55555537          	lui	a0,0x55555
80005044:	55650513          	addi	a0,a0,1366 # 55555556 <absimm+0x10263027>
80005048:	333335b7          	lui	a1,0x33333
8000504c:	33258593          	addi	a1,a1,818 # 33333332 <offset+0x33333252>
80005050:	00b56633          	or	a2,a0,a1
80005054:	06c32623          	sw	a2,108(t1)
80005058:	77777437          	lui	s0,0x77777
8000505c:	77640413          	addi	s0,s0,1910 # 77777776 <absimm+0x32485247>
80005060:	3ec41263          	bne	s0,a2,80005444 <bad_trap>

80005064 <inst_559>:
80005064:	55555537          	lui	a0,0x55555
80005068:	55650513          	addi	a0,a0,1366 # 55555556 <absimm+0x10263027>
8000506c:	666665b7          	lui	a1,0x66666
80005070:	66558593          	addi	a1,a1,1637 # 66666665 <absimm+0x21374136>
80005074:	00b56633          	or	a2,a0,a1
80005078:	06c32823          	sw	a2,112(t1)
8000507c:	77777437          	lui	s0,0x77777
80005080:	77740413          	addi	s0,s0,1911 # 77777777 <absimm+0x32485248>
80005084:	3cc41063          	bne	s0,a2,80005444 <bad_trap>

80005088 <inst_560>:
80005088:	55555537          	lui	a0,0x55555
8000508c:	55650513          	addi	a0,a0,1366 # 55555556 <absimm+0x10263027>
80005090:	0000b5b7          	lui	a1,0xb
80005094:	50358593          	addi	a1,a1,1283 # b503 <offset+0xb423>
80005098:	00b56633          	or	a2,a0,a1
8000509c:	06c32a23          	sw	a2,116(t1)
800050a0:	5555f437          	lui	s0,0x5555f
800050a4:	55740413          	addi	s0,s0,1367 # 5555f557 <absimm+0x1026d028>
800050a8:	38c41e63          	bne	s0,a2,80005444 <bad_trap>

800050ac <inst_561>:
800050ac:	55555537          	lui	a0,0x55555
800050b0:	55650513          	addi	a0,a0,1366 # 55555556 <absimm+0x10263027>
800050b4:	555555b7          	lui	a1,0x55555
800050b8:	55658593          	addi	a1,a1,1366 # 55555556 <absimm+0x10263027>
800050bc:	00b56633          	or	a2,a0,a1
800050c0:	06c32c23          	sw	a2,120(t1)
800050c4:	55555437          	lui	s0,0x55555
800050c8:	55640413          	addi	s0,s0,1366 # 55555556 <absimm+0x10263027>
800050cc:	36c41c63          	bne	s0,a2,80005444 <bad_trap>

800050d0 <inst_562>:
800050d0:	55555537          	lui	a0,0x55555
800050d4:	55650513          	addi	a0,a0,1366 # 55555556 <absimm+0x10263027>
800050d8:	aaaab5b7          	lui	a1,0xaaaab
800050dc:	aab58593          	addi	a1,a1,-1365 # aaaaaaab <imm12+0xaaaaafdb>
800050e0:	00b56633          	or	a2,a0,a1
800050e4:	06c32e23          	sw	a2,124(t1)
800050e8:	fff00413          	li	s0,-1
800050ec:	34c41c63          	bne	s0,a2,80005444 <bad_trap>

800050f0 <inst_563>:
800050f0:	55555537          	lui	a0,0x55555
800050f4:	55650513          	addi	a0,a0,1366 # 55555556 <absimm+0x10263027>
800050f8:	00600593          	li	a1,6
800050fc:	00b56633          	or	a2,a0,a1
80005100:	08c32023          	sw	a2,128(t1)
80005104:	55555437          	lui	s0,0x55555
80005108:	55640413          	addi	s0,s0,1366 # 55555556 <absimm+0x10263027>
8000510c:	32c41c63          	bne	s0,a2,80005444 <bad_trap>

80005110 <inst_564>:
80005110:	55555537          	lui	a0,0x55555
80005114:	55650513          	addi	a0,a0,1366 # 55555556 <absimm+0x10263027>
80005118:	333335b7          	lui	a1,0x33333
8000511c:	33458593          	addi	a1,a1,820 # 33333334 <offset+0x33333254>
80005120:	00b56633          	or	a2,a0,a1
80005124:	08c32223          	sw	a2,132(t1)
80005128:	77777437          	lui	s0,0x77777
8000512c:	77640413          	addi	s0,s0,1910 # 77777776 <absimm+0x32485247>
80005130:	30c41a63          	bne	s0,a2,80005444 <bad_trap>

80005134 <inst_565>:
80005134:	55555537          	lui	a0,0x55555
80005138:	55650513          	addi	a0,a0,1366 # 55555556 <absimm+0x10263027>
8000513c:	666665b7          	lui	a1,0x66666
80005140:	66758593          	addi	a1,a1,1639 # 66666667 <absimm+0x21374138>
80005144:	00b56633          	or	a2,a0,a1
80005148:	08c32423          	sw	a2,136(t1)
8000514c:	77777437          	lui	s0,0x77777
80005150:	77740413          	addi	s0,s0,1911 # 77777777 <absimm+0x32485248>
80005154:	2ec41863          	bne	s0,a2,80005444 <bad_trap>

80005158 <inst_566>:
80005158:	55555537          	lui	a0,0x55555
8000515c:	55650513          	addi	a0,a0,1366 # 55555556 <absimm+0x10263027>
80005160:	ffff55b7          	lui	a1,0xffff5
80005164:	afd58593          	addi	a1,a1,-1283 # ffff4afd <imm12+0xffff502d>
80005168:	00b56633          	or	a2,a0,a1
8000516c:	08c32623          	sw	a2,140(t1)
80005170:	ffff6437          	lui	s0,0xffff6
80005174:	fff40413          	addi	s0,s0,-1 # ffff5fff <imm12+0xffff652f>
80005178:	2cc41663          	bne	s0,a2,80005444 <bad_trap>

8000517c <inst_567>:
8000517c:	55555537          	lui	a0,0x55555
80005180:	55650513          	addi	a0,a0,1366 # 55555556 <absimm+0x10263027>
80005184:	0000b5b7          	lui	a1,0xb
80005188:	50558593          	addi	a1,a1,1285 # b505 <offset+0xb425>
8000518c:	00b56633          	or	a2,a0,a1
80005190:	08c32823          	sw	a2,144(t1)
80005194:	5555f437          	lui	s0,0x5555f
80005198:	55740413          	addi	s0,s0,1367 # 5555f557 <absimm+0x1026d028>
8000519c:	2ac41463          	bne	s0,a2,80005444 <bad_trap>

800051a0 <inst_568>:
800051a0:	aaaab537          	lui	a0,0xaaaab
800051a4:	aab50513          	addi	a0,a0,-1365 # aaaaaaab <imm12+0xaaaaafdb>
800051a8:	00300593          	li	a1,3
800051ac:	00b56633          	or	a2,a0,a1
800051b0:	08c32a23          	sw	a2,148(t1)
800051b4:	aaaab437          	lui	s0,0xaaaab
800051b8:	aab40413          	addi	s0,s0,-1365 # aaaaaaab <imm12+0xaaaaafdb>
800051bc:	28c41463          	bne	s0,a2,80005444 <bad_trap>

800051c0 <inst_569>:
800051c0:	aaaab537          	lui	a0,0xaaaab
800051c4:	aab50513          	addi	a0,a0,-1365 # aaaaaaab <imm12+0xaaaaafdb>
800051c8:	555555b7          	lui	a1,0x55555
800051cc:	55558593          	addi	a1,a1,1365 # 55555555 <absimm+0x10263026>
800051d0:	00b56633          	or	a2,a0,a1
800051d4:	08c32c23          	sw	a2,152(t1)
800051d8:	fff00413          	li	s0,-1
800051dc:	26c41463          	bne	s0,a2,80005444 <bad_trap>

800051e0 <inst_570>:
800051e0:	aaaab537          	lui	a0,0xaaaab
800051e4:	aab50513          	addi	a0,a0,-1365 # aaaaaaab <imm12+0xaaaaafdb>
800051e8:	aaaab5b7          	lui	a1,0xaaaab
800051ec:	aaa58593          	addi	a1,a1,-1366 # aaaaaaaa <imm12+0xaaaaafda>
800051f0:	00b56633          	or	a2,a0,a1
800051f4:	08c32e23          	sw	a2,156(t1)
800051f8:	aaaab437          	lui	s0,0xaaaab
800051fc:	aab40413          	addi	s0,s0,-1365 # aaaaaaab <imm12+0xaaaaafdb>
80005200:	24c41263          	bne	s0,a2,80005444 <bad_trap>

80005204 <inst_571>:
80005204:	aaaab537          	lui	a0,0xaaaab
80005208:	aab50513          	addi	a0,a0,-1365 # aaaaaaab <imm12+0xaaaaafdb>
8000520c:	00500593          	li	a1,5
80005210:	00b56633          	or	a2,a0,a1
80005214:	0ac32023          	sw	a2,160(t1)
80005218:	aaaab437          	lui	s0,0xaaaab
8000521c:	aaf40413          	addi	s0,s0,-1361 # aaaaaaaf <imm12+0xaaaaafdf>
80005220:	22c41263          	bne	s0,a2,80005444 <bad_trap>

80005224 <inst_572>:
80005224:	aaaab537          	lui	a0,0xaaaab
80005228:	aab50513          	addi	a0,a0,-1365 # aaaaaaab <imm12+0xaaaaafdb>
8000522c:	333335b7          	lui	a1,0x33333
80005230:	33358593          	addi	a1,a1,819 # 33333333 <offset+0x33333253>
80005234:	00b56633          	or	a2,a0,a1
80005238:	0ac32223          	sw	a2,164(t1)
8000523c:	bbbbc437          	lui	s0,0xbbbbc
80005240:	bbb40413          	addi	s0,s0,-1093 # bbbbbbbb <imm12+0xbbbbc0eb>
80005244:	20c41063          	bne	s0,a2,80005444 <bad_trap>

80005248 <inst_573>:
80005248:	aaaab537          	lui	a0,0xaaaab
8000524c:	aab50513          	addi	a0,a0,-1365 # aaaaaaab <imm12+0xaaaaafdb>
80005250:	666665b7          	lui	a1,0x66666
80005254:	66658593          	addi	a1,a1,1638 # 66666666 <absimm+0x21374137>
80005258:	00b56633          	or	a2,a0,a1
8000525c:	0ac32423          	sw	a2,168(t1)
80005260:	eeeef437          	lui	s0,0xeeeef
80005264:	eef40413          	addi	s0,s0,-273 # eeeeeeef <imm12+0xeeeef41f>
80005268:	1cc41e63          	bne	s0,a2,80005444 <bad_trap>

8000526c <inst_574>:
8000526c:	aaaab537          	lui	a0,0xaaaab
80005270:	aab50513          	addi	a0,a0,-1365 # aaaaaaab <imm12+0xaaaaafdb>
80005274:	ffff55b7          	lui	a1,0xffff5
80005278:	afc58593          	addi	a1,a1,-1284 # ffff4afc <imm12+0xffff502c>
8000527c:	00b56633          	or	a2,a0,a1
80005280:	0ac32623          	sw	a2,172(t1)
80005284:	fffff437          	lui	s0,0xfffff
80005288:	aff40413          	addi	s0,s0,-1281 # ffffeaff <imm12+0xfffff02f>
8000528c:	1ac41c63          	bne	s0,a2,80005444 <bad_trap>

80005290 <inst_575>:
80005290:	aaaab537          	lui	a0,0xaaaab
80005294:	aab50513          	addi	a0,a0,-1365 # aaaaaaab <imm12+0xaaaaafdb>
80005298:	0000b5b7          	lui	a1,0xb
8000529c:	50458593          	addi	a1,a1,1284 # b504 <offset+0xb424>
800052a0:	00b56633          	or	a2,a0,a1
800052a4:	0ac32823          	sw	a2,176(t1)
800052a8:	aaaac437          	lui	s0,0xaaaac
800052ac:	faf40413          	addi	s0,s0,-81 # aaaabfaf <imm12+0xaaaac4df>
800052b0:	18c41a63          	bne	s0,a2,80005444 <bad_trap>

800052b4 <inst_576>:
800052b4:	aaaab537          	lui	a0,0xaaaab
800052b8:	aab50513          	addi	a0,a0,-1365 # aaaaaaab <imm12+0xaaaaafdb>
800052bc:	00200593          	li	a1,2
800052c0:	00b56633          	or	a2,a0,a1
800052c4:	0ac32a23          	sw	a2,180(t1)
800052c8:	aaaab437          	lui	s0,0xaaaab
800052cc:	aab40413          	addi	s0,s0,-1365 # aaaaaaab <imm12+0xaaaaafdb>
800052d0:	16c41a63          	bne	s0,a2,80005444 <bad_trap>

800052d4 <inst_577>:
800052d4:	aaaab537          	lui	a0,0xaaaab
800052d8:	aab50513          	addi	a0,a0,-1365 # aaaaaaab <imm12+0xaaaaafdb>
800052dc:	555555b7          	lui	a1,0x55555
800052e0:	55458593          	addi	a1,a1,1364 # 55555554 <absimm+0x10263025>
800052e4:	00b56633          	or	a2,a0,a1
800052e8:	0ac32c23          	sw	a2,184(t1)
800052ec:	fff00413          	li	s0,-1
800052f0:	14c41a63          	bne	s0,a2,80005444 <bad_trap>

800052f4 <inst_578>:
800052f4:	aaaab537          	lui	a0,0xaaaab
800052f8:	aab50513          	addi	a0,a0,-1365 # aaaaaaab <imm12+0xaaaaafdb>
800052fc:	00000593          	li	a1,0
80005300:	00b56633          	or	a2,a0,a1
80005304:	0ac32e23          	sw	a2,188(t1)
80005308:	aaaab437          	lui	s0,0xaaaab
8000530c:	aab40413          	addi	s0,s0,-1365 # aaaaaaab <imm12+0xaaaaafdb>
80005310:	12c41a63          	bne	s0,a2,80005444 <bad_trap>

80005314 <inst_579>:
80005314:	aaaab537          	lui	a0,0xaaaab
80005318:	aab50513          	addi	a0,a0,-1365 # aaaaaaab <imm12+0xaaaaafdb>
8000531c:	00400593          	li	a1,4
80005320:	00b56633          	or	a2,a0,a1
80005324:	0cc32023          	sw	a2,192(t1)
80005328:	aaaab437          	lui	s0,0xaaaab
8000532c:	aaf40413          	addi	s0,s0,-1361 # aaaaaaaf <imm12+0xaaaaafdf>
80005330:	10c41a63          	bne	s0,a2,80005444 <bad_trap>

80005334 <inst_580>:
80005334:	aaaab537          	lui	a0,0xaaaab
80005338:	aab50513          	addi	a0,a0,-1365 # aaaaaaab <imm12+0xaaaaafdb>
8000533c:	333335b7          	lui	a1,0x33333
80005340:	33258593          	addi	a1,a1,818 # 33333332 <offset+0x33333252>
80005344:	00b56633          	or	a2,a0,a1
80005348:	0cc32223          	sw	a2,196(t1)
8000534c:	bbbbc437          	lui	s0,0xbbbbc
80005350:	bbb40413          	addi	s0,s0,-1093 # bbbbbbbb <imm12+0xbbbbc0eb>
80005354:	0ec41863          	bne	s0,a2,80005444 <bad_trap>

80005358 <inst_581>:
80005358:	aaaab537          	lui	a0,0xaaaab
8000535c:	aab50513          	addi	a0,a0,-1365 # aaaaaaab <imm12+0xaaaaafdb>
80005360:	666665b7          	lui	a1,0x66666
80005364:	66558593          	addi	a1,a1,1637 # 66666665 <absimm+0x21374136>
80005368:	00b56633          	or	a2,a0,a1
8000536c:	0cc32423          	sw	a2,200(t1)
80005370:	eeeef437          	lui	s0,0xeeeef
80005374:	eef40413          	addi	s0,s0,-273 # eeeeeeef <imm12+0xeeeef41f>
80005378:	0cc41663          	bne	s0,a2,80005444 <bad_trap>

8000537c <inst_582>:
8000537c:	aaaab537          	lui	a0,0xaaaab
80005380:	aab50513          	addi	a0,a0,-1365 # aaaaaaab <imm12+0xaaaaafdb>
80005384:	0000b5b7          	lui	a1,0xb
80005388:	50358593          	addi	a1,a1,1283 # b503 <offset+0xb423>
8000538c:	00b56633          	or	a2,a0,a1
80005390:	0cc32623          	sw	a2,204(t1)
80005394:	aaaac437          	lui	s0,0xaaaac
80005398:	fab40413          	addi	s0,s0,-85 # aaaabfab <imm12+0xaaaac4db>
8000539c:	0ac41463          	bne	s0,a2,80005444 <bad_trap>

800053a0 <inst_583>:
800053a0:	aaaab537          	lui	a0,0xaaaab
800053a4:	aab50513          	addi	a0,a0,-1365 # aaaaaaab <imm12+0xaaaaafdb>
800053a8:	555555b7          	lui	a1,0x55555
800053ac:	55658593          	addi	a1,a1,1366 # 55555556 <absimm+0x10263027>
800053b0:	00b56633          	or	a2,a0,a1
800053b4:	0cc32823          	sw	a2,208(t1)
800053b8:	fff00413          	li	s0,-1
800053bc:	08c41463          	bne	s0,a2,80005444 <bad_trap>

800053c0 <inst_584>:
800053c0:	00200513          	li	a0,2
800053c4:	fffff5b7          	lui	a1,0xfffff
800053c8:	7ff58593          	addi	a1,a1,2047 # fffff7ff <imm12+0xfffffd2f>
800053cc:	00b56633          	or	a2,a0,a1
800053d0:	0cc32a23          	sw	a2,212(t1)
800053d4:	fffff437          	lui	s0,0xfffff
800053d8:	7ff40413          	addi	s0,s0,2047 # fffff7ff <imm12+0xfffffd2f>
800053dc:	06c41463          	bne	s0,a2,80005444 <bad_trap>

800053e0 <inst_585>:
800053e0:	f0000537          	lui	a0,0xf0000
800053e4:	fff50513          	addi	a0,a0,-1 # efffffff <imm12+0xf000052f>
800053e8:	bff00593          	li	a1,-1025
800053ec:	00b56633          	or	a2,a0,a1
800053f0:	0cc32c23          	sw	a2,216(t1)
800053f4:	fff00413          	li	s0,-1
800053f8:	04c41663          	bne	s0,a2,80005444 <bad_trap>

800053fc <inst_586>:
800053fc:	33333537          	lui	a0,0x33333
80005400:	33250513          	addi	a0,a0,818 # 33333332 <offset+0x33333252>
80005404:	002005b7          	lui	a1,0x200
80005408:	00b56633          	or	a2,a0,a1
8000540c:	0cc32e23          	sw	a2,220(t1)
80005410:	33333437          	lui	s0,0x33333
80005414:	33240413          	addi	s0,s0,818 # 33333332 <offset+0x33333252>
80005418:	02c41663          	bne	s0,a2,80005444 <bad_trap>

8000541c <cleanup_epilogs>:
8000541c:	0200006f          	j	8000543c <exit_cleanup>

80005420 <abort_tests>:
80005420:	17812483          	lw	s1,376(sp)
80005424:	18012303          	lw	t1,384(sp)
80005428:	00930333          	add	t1,t1,s1
8000542c:	bad0e337          	lui	t1,0xbad0e
80005430:	ad030313          	addi	t1,t1,-1328 # bad0dad0 <imm12+0xbad0e000>
80005434:	fe64ae23          	sw	t1,-4(s1) # 3fffc <offset+0x3ff1c>
80005438:	0040006f          	j	8000543c <exit_cleanup>

8000543c <exit_cleanup>:
8000543c:	00000513          	li	a0,0
80005440:	01c000ef          	jal	ra,8000545c <halt>

80005444 <bad_trap>:
80005444:	00100513          	li	a0,1
80005448:	014000ef          	jal	ra,8000545c <halt>
	...

8000545c <halt>:
8000545c:	0000006f          	j	8000545c <halt>

80005460 <_trm_init>:
80005460:	ff010113          	addi	sp,sp,-16
80005464:	00000517          	auipc	a0,0x0
80005468:	01450513          	addi	a0,a0,20 # 80005478 <_etext>
8000546c:	00112623          	sw	ra,12(sp)
80005470:	ba1fa0ef          	jal	ra,80000010 <main>
80005474:	0000006f          	j	80005474 <_trm_init+0x14>
