
test/ori-riscv32-ni.elf:     file format elf32-littleriscv


Disassembly of section .text:

80000000 <_start>:
80000000:	00000413          	li	s0,0
80000004:	00016117          	auipc	sp,0x16
80000008:	ffc10113          	addi	sp,sp,-4 # 80016000 <_end>
8000000c:	71d030ef          	jal	ra,80003f28 <_trm_init>

80000010 <main>:
80000010:	010000ef          	jal	ra,80000020 <rvtest_entry_point>
80000014:	00000513          	li	a0,0
80000018:	00008067          	ret
8000001c:	0000                	unimp
	...

80000020 <rvtest_entry_point>:
80000020:	7d5c0837          	lui	a6,0x7d5c0
80000024:	ddb80813          	addi	a6,a6,-549 # 7d5bfddb <absimm+0x382cd8ac>
80000028:	00785893          	srli	a7,a6,0x7
8000002c:	01985793          	srli	a5,a6,0x19
80000030:	00f8e8b3          	or	a7,a7,a5
80000034:	0078d913          	srli	s2,a7,0x7
80000038:	0198d793          	srli	a5,a7,0x19
8000003c:	00f96933          	or	s2,s2,a5
80000040:	00795993          	srli	s3,s2,0x7
80000044:	01995793          	srli	a5,s2,0x19
80000048:	00f9e9b3          	or	s3,s3,a5
8000004c:	0079da13          	srli	s4,s3,0x7
80000050:	0199d793          	srli	a5,s3,0x19
80000054:	00fa6a33          	or	s4,s4,a5
80000058:	007a5a93          	srli	s5,s4,0x7
8000005c:	019a5793          	srli	a5,s4,0x19
80000060:	00faeab3          	or	s5,s5,a5
80000064:	007adb13          	srli	s6,s5,0x7
80000068:	019ad793          	srli	a5,s5,0x19
8000006c:	00fb6b33          	or	s6,s6,a5
80000070:	007b5b93          	srli	s7,s6,0x7
80000074:	019b5793          	srli	a5,s6,0x19
80000078:	00fbebb3          	or	s7,s7,a5
8000007c:	007bdc13          	srli	s8,s7,0x7
80000080:	019bd793          	srli	a5,s7,0x19
80000084:	00fc6c33          	or	s8,s8,a5
80000088:	007c5c93          	srli	s9,s8,0x7
8000008c:	019c5793          	srli	a5,s8,0x19
80000090:	00fcecb3          	or	s9,s9,a5
80000094:	007cdd13          	srli	s10,s9,0x7
80000098:	019cd793          	srli	a5,s9,0x19
8000009c:	00fd6d33          	or	s10,s10,a5
800000a0:	007d5d93          	srli	s11,s10,0x7
800000a4:	019d5793          	srli	a5,s10,0x19
800000a8:	00fdedb3          	or	s11,s11,a5
800000ac:	007dde13          	srli	t3,s11,0x7
800000b0:	019dd793          	srli	a5,s11,0x19
800000b4:	00fe6e33          	or	t3,t3,a5
800000b8:	007e5e93          	srli	t4,t3,0x7
800000bc:	019e5793          	srli	a5,t3,0x19
800000c0:	00feeeb3          	or	t4,t4,a5
800000c4:	007edf13          	srli	t5,t4,0x7
800000c8:	019ed793          	srli	a5,t4,0x19
800000cc:	00ff6f33          	or	t5,t5,a5
800000d0:	feedc0b7          	lui	ra,0xfeedc
800000d4:	ead08093          	addi	ra,ra,-339 # feedbead <imm12+0xfeedc3dd>
800000d8:	0070d113          	srli	sp,ra,0x7
800000dc:	0190d793          	srli	a5,ra,0x19
800000e0:	00f16133          	or	sp,sp,a5
800000e4:	00715193          	srli	gp,sp,0x7
800000e8:	01915793          	srli	a5,sp,0x19
800000ec:	00f1e1b3          	or	gp,gp,a5
800000f0:	0071d213          	srli	tp,gp,0x7
800000f4:	0191d793          	srli	a5,gp,0x19
800000f8:	00f26233          	or	tp,tp,a5
800000fc:	00725293          	srli	t0,tp,0x7
80000100:	01925793          	srli	a5,tp,0x19
80000104:	00f2e2b3          	or	t0,t0,a5
80000108:	0072d313          	srli	t1,t0,0x7
8000010c:	0192d793          	srli	a5,t0,0x19
80000110:	00f36333          	or	t1,t1,a5
80000114:	00735393          	srli	t2,t1,0x7
80000118:	01935793          	srli	a5,t1,0x19
8000011c:	00f3e3b3          	or	t2,t2,a5
80000120:	0073d413          	srli	s0,t2,0x7
80000124:	0193d793          	srli	a5,t2,0x19
80000128:	00f46433          	or	s0,s0,a5
8000012c:	00745493          	srli	s1,s0,0x7
80000130:	01945793          	srli	a5,s0,0x19
80000134:	00f4e4b3          	or	s1,s1,a5
80000138:	0074d513          	srli	a0,s1,0x7
8000013c:	0194d793          	srli	a5,s1,0x19
80000140:	00f56533          	or	a0,a0,a5
80000144:	00755593          	srli	a1,a0,0x7
80000148:	01955793          	srli	a5,a0,0x19
8000014c:	00f5e5b3          	or	a1,a1,a5
80000150:	0075d613          	srli	a2,a1,0x7
80000154:	0195d793          	srli	a5,a1,0x19
80000158:	00f66633          	or	a2,a2,a5
8000015c:	00765693          	srli	a3,a2,0x7
80000160:	01965793          	srli	a5,a2,0x19
80000164:	00f6e6b3          	or	a3,a3,a5

80000168 <rvtest_code_begin>:
80000168:	00000013          	nop
8000016c:	00000013          	nop
80000170:	00000013          	nop
80000174:	00000013          	nop
80000178:	00000013          	nop
8000017c:	00000013          	nop
80000180:	00005117          	auipc	sp,0x5
80000184:	e8410113          	addi	sp,sp,-380 # 80005004 <signature_x2_0>
80000188:	00000013          	nop
8000018c:	00000013          	nop
80000190:	00000013          	nop
80000194:	00000013          	nop
80000198:	00000013          	nop
8000019c:	00000013          	nop

800001a0 <inst_0>:
800001a0:	dff00293          	li	t0,-513
800001a4:	8002eb13          	ori	s6,t0,-2048
800001a8:	01612023          	sw	s6,0(sp)
800001ac:	dff00493          	li	s1,-513
800001b0:	01648463          	beq	s1,s6,800001b8 <inst_1>
800001b4:	5610306f          	j	80003f14 <bad_trap>

800001b8 <inst_1>:
800001b8:	00000d93          	li	s11,0
800001bc:	000ded93          	ori	s11,s11,0
800001c0:	01b12223          	sw	s11,4(sp)
800001c4:	00000493          	li	s1,0
800001c8:	01b48463          	beq	s1,s11,800001d0 <inst_2>
800001cc:	5490306f          	j	80003f14 <bad_trap>

800001d0 <inst_2>:
800001d0:	333338b7          	lui	a7,0x33333
800001d4:	33488893          	addi	a7,a7,820 # 33333334 <offset+0x333332cc>
800001d8:	7ff8e413          	ori	s0,a7,2047
800001dc:	00812423          	sw	s0,8(sp)
800001e0:	333334b7          	lui	s1,0x33333
800001e4:	7ff48493          	addi	s1,s1,2047 # 333337ff <offset+0x33333797>
800001e8:	00848463          	beq	s1,s0,800001f0 <inst_3>
800001ec:	5290306f          	j	80003f14 <bad_trap>

800001f0 <inst_3>:
800001f0:	ffff5a37          	lui	s4,0xffff5
800001f4:	afca0a13          	addi	s4,s4,-1284 # ffff4afc <imm12+0xffff502c>
800001f8:	001a6093          	ori	ra,s4,1
800001fc:	00112623          	sw	ra,12(sp)
80000200:	ffff54b7          	lui	s1,0xffff5
80000204:	afd48493          	addi	s1,s1,-1283 # ffff4afd <imm12+0xffff502d>
80000208:	00148463          	beq	s1,ra,80000210 <inst_4>
8000020c:	5090306f          	j	80003f14 <bad_trap>

80000210 <inst_4>:
80000210:	80000637          	lui	a2,0x80000
80000214:	02d66993          	ori	s3,a2,45
80000218:	01312823          	sw	s3,16(sp)
8000021c:	800004b7          	lui	s1,0x80000
80000220:	02d48493          	addi	s1,s1,45 # 8000002d <imm12+0x8000055d>
80000224:	01348463          	beq	s1,s3,8000022c <inst_5>
80000228:	4ed0306f          	j	80003f14 <bad_trap>

8000022c <inst_5>:
8000022c:	80000437          	lui	s0,0x80000
80000230:	fff40413          	addi	s0,s0,-1 # 7fffffff <imm12+0x8000052f>
80000234:	55546193          	ori	gp,s0,1365
80000238:	00312a23          	sw	gp,20(sp)
8000023c:	800004b7          	lui	s1,0x80000
80000240:	fff48493          	addi	s1,s1,-1 # 7fffffff <imm12+0x8000052f>
80000244:	00348463          	beq	s1,gp,8000024c <inst_6>
80000248:	4cd0306f          	j	80003f14 <bad_trap>

8000024c <inst_6>:
8000024c:	00100e13          	li	t3,1
80000250:	667e6d13          	ori	s10,t3,1639
80000254:	01a12c23          	sw	s10,24(sp)
80000258:	66700493          	li	s1,1639
8000025c:	01a48463          	beq	s1,s10,80000264 <inst_7>
80000260:	4b50306f          	j	80003f14 <bad_trap>

80000264 <inst_7>:
80000264:	00700813          	li	a6,7
80000268:	ff986b93          	ori	s7,a6,-7
8000026c:	01712e23          	sw	s7,28(sp)
80000270:	fff00493          	li	s1,-1
80000274:	01748463          	beq	s1,s7,8000027c <inst_8>
80000278:	49d0306f          	j	80003f14 <bad_trap>

8000027c <inst_8>:
8000027c:	00040cb7          	lui	s9,0x40
80000280:	002cef93          	ori	t6,s9,2
80000284:	03f12023          	sw	t6,32(sp)
80000288:	000404b7          	lui	s1,0x40
8000028c:	00248493          	addi	s1,s1,2 # 40002 <offset+0x3ff9a>
80000290:	01f48463          	beq	s1,t6,80000298 <inst_9>
80000294:	4810306f          	j	80003f14 <bad_trap>

80000298 <inst_9>:
80000298:	20000bb7          	lui	s7,0x20000
8000029c:	004be593          	ori	a1,s7,4
800002a0:	02b12223          	sw	a1,36(sp)
800002a4:	200004b7          	lui	s1,0x20000
800002a8:	00448493          	addi	s1,s1,4 # 20000004 <offset+0x1fffff9c>
800002ac:	00b48463          	beq	s1,a1,800002b4 <inst_10>
800002b0:	4650306f          	j	80003f14 <bad_trap>

800002b4 <inst_10>:
800002b4:	dff00713          	li	a4,-513
800002b8:	00876893          	ori	a7,a4,8
800002bc:	03112423          	sw	a7,40(sp)
800002c0:	dff00493          	li	s1,-513
800002c4:	01148463          	beq	s1,a7,800002cc <inst_11>
800002c8:	44d0306f          	j	80003f14 <bad_trap>

800002cc <inst_11>:
800002cc:	00200f93          	li	t6,2
800002d0:	010fe393          	ori	t2,t6,16
800002d4:	02712623          	sw	t2,44(sp)
800002d8:	01200493          	li	s1,18
800002dc:	00748463          	beq	s1,t2,800002e4 <inst_12>
800002e0:	4350306f          	j	80003f14 <bad_trap>

800002e4 <inst_12>:
800002e4:	00008ab7          	lui	s5,0x8
800002e8:	020ae213          	ori	tp,s5,32
800002ec:	02412823          	sw	tp,48(sp)
800002f0:	000084b7          	lui	s1,0x8
800002f4:	02048493          	addi	s1,s1,32 # 8020 <offset+0x7fb8>
800002f8:	00448463          	beq	s1,tp,80000300 <inst_13>
800002fc:	4190306f          	j	80003f14 <bad_trap>

80000300 <inst_13>:
80000300:	000017b7          	lui	a5,0x1
80000304:	80078793          	addi	a5,a5,-2048 # 800 <offset+0x798>
80000308:	0407e293          	ori	t0,a5,64
8000030c:	02512a23          	sw	t0,52(sp)
80000310:	000014b7          	lui	s1,0x1
80000314:	84048493          	addi	s1,s1,-1984 # 840 <offset+0x7d8>
80000318:	00548463          	beq	s1,t0,80000320 <inst_14>
8000031c:	3f90306f          	j	80003f14 <bad_trap>

80000320 <inst_14>:
80000320:	fffc0f37          	lui	t5,0xfffc0
80000324:	ffff0f13          	addi	t5,t5,-1 # fffbffff <imm12+0xfffc052f>
80000328:	080f6c93          	ori	s9,t5,128
8000032c:	03912c23          	sw	s9,56(sp)
80000330:	fffc04b7          	lui	s1,0xfffc0
80000334:	fff48493          	addi	s1,s1,-1 # fffbffff <imm12+0xfffc052f>
80000338:	01948463          	beq	s1,s9,80000340 <inst_15>
8000033c:	3d90306f          	j	80003f14 <bad_trap>

80000340 <inst_15>:
80000340:	ffb00593          	li	a1,-5
80000344:	1005ef13          	ori	t5,a1,256
80000348:	03e12e23          	sw	t5,60(sp)
8000034c:	ffb00493          	li	s1,-5
80000350:	01e48463          	beq	s1,t5,80000358 <inst_16>
80000354:	3c10306f          	j	80003f14 <bad_trap>

80000358 <inst_16>:
80000358:	fff80237          	lui	tp,0xfff80
8000035c:	fff20213          	addi	tp,tp,-1 # fff7ffff <imm12+0xfff8052f>
80000360:	20026513          	ori	a0,tp,512
80000364:	04a12023          	sw	a0,64(sp)
80000368:	fff804b7          	lui	s1,0xfff80
8000036c:	fff48493          	addi	s1,s1,-1 # fff7ffff <imm12+0xfff8052f>
80000370:	00a48463          	beq	s1,a0,80000378 <inst_17>
80000374:	3a10306f          	j	80003f14 <bad_trap>

80000378 <inst_17>:
80000378:	c00006b7          	lui	a3,0xc0000
8000037c:	fff68693          	addi	a3,a3,-1 # bfffffff <imm12+0xc000052f>
80000380:	4006e013          	ori	zero,a3,1024
80000384:	04012223          	sw	zero,68(sp)
80000388:	00000493          	li	s1,0
8000038c:	00048463          	beqz	s1,80000394 <inst_18>
80000390:	3850306f          	j	80003f14 <bad_trap>

80000394 <inst_18>:
80000394:	fdf00d13          	li	s10,-33
80000398:	ffed6313          	ori	t1,s10,-2
8000039c:	04612423          	sw	t1,72(sp)
800003a0:	fff00493          	li	s1,-1
800003a4:	00648463          	beq	s1,t1,800003ac <inst_19>
800003a8:	36d0306f          	j	80003f14 <bad_trap>

800003ac <inst_19>:
800003ac:	0000b9b7          	lui	s3,0xb
800003b0:	50398993          	addi	s3,s3,1283 # b503 <offset+0xb49b>
800003b4:	ffd9e913          	ori	s2,s3,-3
800003b8:	05212623          	sw	s2,76(sp)
800003bc:	fff00493          	li	s1,-1
800003c0:	01248463          	beq	s1,s2,800003c8 <inst_20>
800003c4:	3510306f          	j	80003f14 <bad_trap>

800003c8 <inst_20>:
800003c8:	100003b7          	lui	t2,0x10000
800003cc:	ffb3ea93          	ori	s5,t2,-5
800003d0:	05512823          	sw	s5,80(sp)
800003d4:	ffb00293          	li	t0,-5
800003d8:	01528463          	beq	t0,s5,800003e0 <inst_21>
800003dc:	3390306f          	j	80003f14 <bad_trap>

800003e0 <inst_21>:
800003e0:	fff80c37          	lui	s8,0xfff80
800003e4:	fffc0c13          	addi	s8,s8,-1 # fff7ffff <imm12+0xfff8052f>
800003e8:	ff7c6813          	ori	a6,s8,-9
800003ec:	05012a23          	sw	a6,84(sp)
800003f0:	fff00293          	li	t0,-1
800003f4:	01028463          	beq	t0,a6,800003fc <inst_21+0x1c>
800003f8:	31d0306f          	j	80003f14 <bad_trap>
800003fc:	00000013          	nop
80000400:	00005217          	auipc	tp,0x5
80000404:	c5c20213          	addi	tp,tp,-932 # 8000505c <signature_x4_0>
80000408:	00000013          	nop
8000040c:	00000013          	nop
80000410:	00000013          	nop
80000414:	00000013          	nop
80000418:	00000013          	nop
8000041c:	00000013          	nop

80000420 <inst_22>:
80000420:	00000013          	nop
80000424:	fef06493          	ori	s1,zero,-17
80000428:	00922023          	sw	s1,0(tp) # 0 <_entry_offset>
8000042c:	fef00293          	li	t0,-17
80000430:	00928463          	beq	t0,s1,80000438 <inst_23>
80000434:	2e10306f          	j	80003f14 <bad_trap>

80000438 <inst_23>:
80000438:	000021b7          	lui	gp,0x2
8000043c:	fdf1ee13          	ori	t3,gp,-33
80000440:	01c22223          	sw	t3,4(tp) # 4 <MMODE_SIG+0x1>
80000444:	fdf00293          	li	t0,-33
80000448:	01c28463          	beq	t0,t3,80000450 <inst_24>
8000044c:	2c90306f          	j	80003f14 <bad_trap>

80000450 <inst_24>:
80000450:	555550b7          	lui	ra,0x55555
80000454:	55608093          	addi	ra,ra,1366 # 55555556 <absimm+0x10263027>
80000458:	fbf0e793          	ori	a5,ra,-65
8000045c:	00f22423          	sw	a5,8(tp) # 8 <MMODE_SIG+0x5>
80000460:	fff00293          	li	t0,-1
80000464:	00f28463          	beq	t0,a5,8000046c <inst_25>
80000468:	2ad0306f          	j	80003f14 <bad_trap>

8000046c <inst_25>:
8000046c:	ffff5937          	lui	s2,0xffff5
80000470:	afc90913          	addi	s2,s2,-1284 # ffff4afc <imm12+0xffff502c>
80000474:	f7f96113          	ori	sp,s2,-129
80000478:	00222623          	sw	sp,12(tp) # c <MMODE_SIG+0x9>
8000047c:	fff00293          	li	t0,-1
80000480:	00228463          	beq	t0,sp,80000488 <inst_26>
80000484:	2910306f          	j	80003f14 <bad_trap>

80000488 <inst_26>:
80000488:	aaaabb37          	lui	s6,0xaaaab
8000048c:	aaab0b13          	addi	s6,s6,-1366 # aaaaaaaa <imm12+0xaaaaafda>
80000490:	effb6a13          	ori	s4,s6,-257
80000494:	01422823          	sw	s4,16(tp) # 10 <MMODE_SIG+0xd>
80000498:	eff00293          	li	t0,-257
8000049c:	01428463          	beq	t0,s4,800004a4 <inst_27>
800004a0:	2750306f          	j	80003f14 <bad_trap>

800004a4 <inst_27>:
800004a4:	01000337          	lui	t1,0x1000
800004a8:	dff36693          	ori	a3,t1,-513
800004ac:	00d22a23          	sw	a3,20(tp) # 14 <MMODE_SIG+0x11>
800004b0:	dff00293          	li	t0,-513
800004b4:	00d28463          	beq	t0,a3,800004bc <inst_28>
800004b8:	25d0306f          	j	80003f14 <bad_trap>

800004bc <inst_28>:
800004bc:	20000eb7          	lui	t4,0x20000
800004c0:	bffee713          	ori	a4,t4,-1025
800004c4:	00e22c23          	sw	a4,24(tp) # 18 <MMODE_SIG+0x15>
800004c8:	bff00293          	li	t0,-1025
800004cc:	00e28463          	beq	t0,a4,800004d4 <inst_29>
800004d0:	2450306f          	j	80003f14 <bad_trap>

800004d4 <inst_29>:
800004d4:	ffff5137          	lui	sp,0xffff5
800004d8:	afc10113          	addi	sp,sp,-1284 # ffff4afc <imm12+0xffff502c>
800004dc:	aaa16613          	ori	a2,sp,-1366
800004e0:	00c22e23          	sw	a2,28(tp) # 1c <MMODE_SIG+0x19>
800004e4:	afe00293          	li	t0,-1282
800004e8:	00c28463          	beq	t0,a2,800004f0 <inst_30>
800004ec:	2290306f          	j	80003f14 <bad_trap>

800004f0 <inst_30>:
800004f0:	00400493          	li	s1,4
800004f4:	0054ec13          	ori	s8,s1,5
800004f8:	03822023          	sw	s8,32(tp) # 20 <MMODE_SIG+0x1d>
800004fc:	00500293          	li	t0,5
80000500:	01828463          	beq	t0,s8,80000508 <inst_31>
80000504:	2110306f          	j	80003f14 <bad_trap>

80000508 <inst_31>:
80000508:	00800513          	li	a0,8
8000050c:	00656e93          	ori	t4,a0,6
80000510:	03d22223          	sw	t4,36(tp) # 24 <MMODE_SIG+0x21>
80000514:	00e00293          	li	t0,14
80000518:	01d28463          	beq	t0,t4,80000520 <inst_32>
8000051c:	1f90306f          	j	80003f14 <bad_trap>

80000520 <inst_32>:
80000520:	01000513          	li	a0,16
80000524:	20056593          	ori	a1,a0,512
80000528:	02b22423          	sw	a1,40(tp) # 28 <MMODE_SIG+0x25>
8000052c:	21000293          	li	t0,528
80000530:	00b28463          	beq	t0,a1,80000538 <inst_33>
80000534:	1e10306f          	j	80003f14 <bad_trap>

80000538 <inst_33>:
80000538:	02000513          	li	a0,32
8000053c:	02c56593          	ori	a1,a0,44
80000540:	02b22623          	sw	a1,44(tp) # 2c <MMODE_SIG+0x29>
80000544:	02c00293          	li	t0,44
80000548:	00b28463          	beq	t0,a1,80000550 <inst_34>
8000054c:	1c90306f          	j	80003f14 <bad_trap>

80000550 <inst_34>:
80000550:	04000513          	li	a0,64
80000554:	00356593          	ori	a1,a0,3
80000558:	02b22823          	sw	a1,48(tp) # 30 <MMODE_SIG+0x2d>
8000055c:	04300293          	li	t0,67
80000560:	00b28463          	beq	t0,a1,80000568 <inst_35>
80000564:	1b10306f          	j	80003f14 <bad_trap>

80000568 <inst_35>:
80000568:	08000513          	li	a0,128
8000056c:	02056593          	ori	a1,a0,32
80000570:	02b22a23          	sw	a1,52(tp) # 34 <MMODE_SIG+0x31>
80000574:	0a000293          	li	t0,160
80000578:	00b28463          	beq	t0,a1,80000580 <inst_36>
8000057c:	1990306f          	j	80003f14 <bad_trap>

80000580 <inst_36>:
80000580:	10000513          	li	a0,256
80000584:	fbf56593          	ori	a1,a0,-65
80000588:	02b22c23          	sw	a1,56(tp) # 38 <MMODE_SIG+0x35>
8000058c:	fbf00293          	li	t0,-65
80000590:	00b28463          	beq	t0,a1,80000598 <inst_37>
80000594:	1810306f          	j	80003f14 <bad_trap>

80000598 <inst_37>:
80000598:	20000513          	li	a0,512
8000059c:	ffa56593          	ori	a1,a0,-6
800005a0:	02b22e23          	sw	a1,60(tp) # 3c <MMODE_SIG+0x39>
800005a4:	ffa00293          	li	t0,-6
800005a8:	00b28463          	beq	t0,a1,800005b0 <inst_38>
800005ac:	1690306f          	j	80003f14 <bad_trap>

800005b0 <inst_38>:
800005b0:	40000513          	li	a0,1024
800005b4:	fd356593          	ori	a1,a0,-45
800005b8:	04b22023          	sw	a1,64(tp) # 40 <MMODE_SIG+0x3d>
800005bc:	fd300293          	li	t0,-45
800005c0:	00b28463          	beq	t0,a1,800005c8 <inst_39>
800005c4:	1510306f          	j	80003f14 <bad_trap>

800005c8 <inst_39>:
800005c8:	00001537          	lui	a0,0x1
800005cc:	00556593          	ori	a1,a0,5
800005d0:	04b22223          	sw	a1,68(tp) # 44 <MMODE_SIG+0x41>
800005d4:	000012b7          	lui	t0,0x1
800005d8:	00528293          	addi	t0,t0,5 # 1005 <offset+0xf9d>
800005dc:	00b28463          	beq	t0,a1,800005e4 <inst_40>
800005e0:	1350306f          	j	80003f14 <bad_trap>

800005e4 <inst_40>:
800005e4:	00004537          	lui	a0,0x4
800005e8:	66556593          	ori	a1,a0,1637
800005ec:	04b22423          	sw	a1,72(tp) # 48 <MMODE_SIG+0x45>
800005f0:	000042b7          	lui	t0,0x4
800005f4:	66528293          	addi	t0,t0,1637 # 4665 <offset+0x45fd>
800005f8:	00b28463          	beq	t0,a1,80000600 <inst_41>
800005fc:	1190306f          	j	80003f14 <bad_trap>

80000600 <inst_41>:
80000600:	00010537          	lui	a0,0x10
80000604:	00956593          	ori	a1,a0,9
80000608:	04b22623          	sw	a1,76(tp) # 4c <MMODE_SIG+0x49>
8000060c:	000102b7          	lui	t0,0x10
80000610:	00928293          	addi	t0,t0,9 # 10009 <offset+0xffa1>
80000614:	00b28463          	beq	t0,a1,8000061c <inst_42>
80000618:	0fd0306f          	j	80003f14 <bad_trap>

8000061c <inst_42>:
8000061c:	00020537          	lui	a0,0x20
80000620:	20056593          	ori	a1,a0,512
80000624:	04b22823          	sw	a1,80(tp) # 50 <MMODE_SIG+0x4d>
80000628:	000202b7          	lui	t0,0x20
8000062c:	20028293          	addi	t0,t0,512 # 20200 <offset+0x20198>
80000630:	00b28463          	beq	t0,a1,80000638 <inst_43>
80000634:	0e10306f          	j	80003f14 <bad_trap>

80000638 <inst_43>:
80000638:	00080537          	lui	a0,0x80
8000063c:	00056593          	ori	a1,a0,0
80000640:	04b22a23          	sw	a1,84(tp) # 54 <MMODE_SIG+0x51>
80000644:	000802b7          	lui	t0,0x80
80000648:	00b28463          	beq	t0,a1,80000650 <inst_44>
8000064c:	0c90306f          	j	80003f14 <bad_trap>

80000650 <inst_44>:
80000650:	00100537          	lui	a0,0x100
80000654:	20056593          	ori	a1,a0,512
80000658:	04b22c23          	sw	a1,88(tp) # 58 <MMODE_SIG+0x55>
8000065c:	001002b7          	lui	t0,0x100
80000660:	20028293          	addi	t0,t0,512 # 100200 <offset+0x100198>
80000664:	00b28463          	beq	t0,a1,8000066c <inst_45>
80000668:	0ad0306f          	j	80003f14 <bad_trap>

8000066c <inst_45>:
8000066c:	00200537          	lui	a0,0x200
80000670:	fd456593          	ori	a1,a0,-44
80000674:	04b22e23          	sw	a1,92(tp) # 5c <MMODE_SIG+0x59>
80000678:	fd400293          	li	t0,-44
8000067c:	00b28463          	beq	t0,a1,80000684 <inst_46>
80000680:	0950306f          	j	80003f14 <bad_trap>

80000684 <inst_46>:
80000684:	00400537          	lui	a0,0x400
80000688:	dff56593          	ori	a1,a0,-513
8000068c:	06b22023          	sw	a1,96(tp) # 60 <MMODE_SIG+0x5d>
80000690:	dff00293          	li	t0,-513
80000694:	00b28463          	beq	t0,a1,8000069c <inst_47>
80000698:	07d0306f          	j	80003f14 <bad_trap>

8000069c <inst_47>:
8000069c:	00800537          	lui	a0,0x800
800006a0:	08056593          	ori	a1,a0,128
800006a4:	06b22223          	sw	a1,100(tp) # 64 <MMODE_SIG+0x61>
800006a8:	008002b7          	lui	t0,0x800
800006ac:	08028293          	addi	t0,t0,128 # 800080 <offset+0x800018>
800006b0:	00b28463          	beq	t0,a1,800006b8 <inst_48>
800006b4:	0610306f          	j	80003f14 <bad_trap>

800006b8 <inst_48>:
800006b8:	02000537          	lui	a0,0x2000
800006bc:	fdf56593          	ori	a1,a0,-33
800006c0:	06b22423          	sw	a1,104(tp) # 68 <offset>
800006c4:	fdf00293          	li	t0,-33
800006c8:	00b28463          	beq	t0,a1,800006d0 <inst_49>
800006cc:	0490306f          	j	80003f14 <bad_trap>

800006d0 <inst_49>:
800006d0:	04000537          	lui	a0,0x4000
800006d4:	01056593          	ori	a1,a0,16
800006d8:	06b22623          	sw	a1,108(tp) # 6c <offset+0x4>
800006dc:	040002b7          	lui	t0,0x4000
800006e0:	01028293          	addi	t0,t0,16 # 4000010 <offset+0x3ffffa8>
800006e4:	00b28463          	beq	t0,a1,800006ec <inst_50>
800006e8:	02d0306f          	j	80003f14 <bad_trap>

800006ec <inst_50>:
800006ec:	08000537          	lui	a0,0x8000
800006f0:	55456593          	ori	a1,a0,1364
800006f4:	06b22823          	sw	a1,112(tp) # 70 <offset+0x8>
800006f8:	080002b7          	lui	t0,0x8000
800006fc:	55428293          	addi	t0,t0,1364 # 8000554 <offset+0x80004ec>
80000700:	00b28463          	beq	t0,a1,80000708 <inst_51>
80000704:	0110306f          	j	80003f14 <bad_trap>

80000708 <inst_51>:
80000708:	40000537          	lui	a0,0x40000
8000070c:	ffa56593          	ori	a1,a0,-6
80000710:	06b22a23          	sw	a1,116(tp) # 74 <offset+0xc>
80000714:	ffa00293          	li	t0,-6
80000718:	00b28463          	beq	t0,a1,80000720 <inst_52>
8000071c:	7f80306f          	j	80003f14 <bad_trap>

80000720 <inst_52>:
80000720:	ffe00513          	li	a0,-2
80000724:	fbf56593          	ori	a1,a0,-65
80000728:	06b22c23          	sw	a1,120(tp) # 78 <offset+0x10>
8000072c:	fff00293          	li	t0,-1
80000730:	00b28463          	beq	t0,a1,80000738 <inst_53>
80000734:	7e00306f          	j	80003f14 <bad_trap>

80000738 <inst_53>:
80000738:	ffd00513          	li	a0,-3
8000073c:	ff756593          	ori	a1,a0,-9
80000740:	06b22e23          	sw	a1,124(tp) # 7c <offset+0x14>
80000744:	fff00293          	li	t0,-1
80000748:	00b28463          	beq	t0,a1,80000750 <inst_54>
8000074c:	7c80306f          	j	80003f14 <bad_trap>

80000750 <inst_54>:
80000750:	ff700513          	li	a0,-9
80000754:	80056593          	ori	a1,a0,-2048
80000758:	08b22023          	sw	a1,128(tp) # 80 <offset+0x18>
8000075c:	ff700293          	li	t0,-9
80000760:	00b28463          	beq	t0,a1,80000768 <inst_55>
80000764:	7b00306f          	j	80003f14 <bad_trap>

80000768 <inst_55>:
80000768:	fef00513          	li	a0,-17
8000076c:	fd356593          	ori	a1,a0,-45
80000770:	08b22223          	sw	a1,132(tp) # 84 <offset+0x1c>
80000774:	fff00293          	li	t0,-1
80000778:	00b28463          	beq	t0,a1,80000780 <inst_56>
8000077c:	7980306f          	j	80003f14 <bad_trap>

80000780 <inst_56>:
80000780:	fbf00513          	li	a0,-65
80000784:	aaa56593          	ori	a1,a0,-1366
80000788:	08b22423          	sw	a1,136(tp) # 88 <offset+0x20>
8000078c:	fbf00293          	li	t0,-65
80000790:	00b28463          	beq	t0,a1,80000798 <inst_57>
80000794:	7800306f          	j	80003f14 <bad_trap>

80000798 <inst_57>:
80000798:	f7f00513          	li	a0,-129
8000079c:	66556593          	ori	a1,a0,1637
800007a0:	08b22623          	sw	a1,140(tp) # 8c <offset+0x24>
800007a4:	f7f00293          	li	t0,-129
800007a8:	00b28463          	beq	t0,a1,800007b0 <inst_58>
800007ac:	7680306f          	j	80003f14 <bad_trap>

800007b0 <inst_58>:
800007b0:	eff00513          	li	a0,-257
800007b4:	66656593          	ori	a1,a0,1638
800007b8:	08b22823          	sw	a1,144(tp) # 90 <offset+0x28>
800007bc:	eff00293          	li	t0,-257
800007c0:	00b28463          	beq	t0,a1,800007c8 <inst_59>
800007c4:	7500306f          	j	80003f14 <bad_trap>

800007c8 <inst_59>:
800007c8:	bff00513          	li	a0,-1025
800007cc:	66656593          	ori	a1,a0,1638
800007d0:	08b22a23          	sw	a1,148(tp) # 94 <offset+0x2c>
800007d4:	fff00293          	li	t0,-1
800007d8:	00b28463          	beq	t0,a1,800007e0 <inst_60>
800007dc:	7380306f          	j	80003f14 <bad_trap>

800007e0 <inst_60>:
800007e0:	fffff537          	lui	a0,0xfffff
800007e4:	7ff50513          	addi	a0,a0,2047 # fffff7ff <imm12+0xfffffd2f>
800007e8:	7ff56593          	ori	a1,a0,2047
800007ec:	08b22c23          	sw	a1,152(tp) # 98 <offset+0x30>
800007f0:	fffff2b7          	lui	t0,0xfffff
800007f4:	7ff28293          	addi	t0,t0,2047 # fffff7ff <imm12+0xfffffd2f>
800007f8:	00b28463          	beq	t0,a1,80000800 <inst_61>
800007fc:	7180306f          	j	80003f14 <bad_trap>

80000800 <inst_61>:
80000800:	fffff537          	lui	a0,0xfffff
80000804:	fff50513          	addi	a0,a0,-1 # ffffefff <imm12+0xfffff52f>
80000808:	00756593          	ori	a1,a0,7
8000080c:	08b22e23          	sw	a1,156(tp) # 9c <offset+0x34>
80000810:	fffff2b7          	lui	t0,0xfffff
80000814:	fff28293          	addi	t0,t0,-1 # ffffefff <imm12+0xfffff52f>
80000818:	00b28463          	beq	t0,a1,80000820 <inst_62>
8000081c:	6f80306f          	j	80003f14 <bad_trap>

80000820 <inst_62>:
80000820:	ffffe537          	lui	a0,0xffffe
80000824:	fff50513          	addi	a0,a0,-1 # ffffdfff <imm12+0xffffe52f>
80000828:	fdf56593          	ori	a1,a0,-33
8000082c:	0ab22023          	sw	a1,160(tp) # a0 <offset+0x38>
80000830:	fff00293          	li	t0,-1
80000834:	00b28463          	beq	t0,a1,8000083c <inst_63>
80000838:	6dc0306f          	j	80003f14 <bad_trap>

8000083c <inst_63>:
8000083c:	ffff8537          	lui	a0,0xffff8
80000840:	fff50513          	addi	a0,a0,-1 # ffff7fff <imm12+0xffff852f>
80000844:	02d56593          	ori	a1,a0,45
80000848:	0ab22223          	sw	a1,164(tp) # a4 <offset+0x3c>
8000084c:	ffff82b7          	lui	t0,0xffff8
80000850:	fff28293          	addi	t0,t0,-1 # ffff7fff <imm12+0xffff852f>
80000854:	00b28463          	beq	t0,a1,8000085c <inst_64>
80000858:	6bc0306f          	j	80003f14 <bad_trap>

8000085c <inst_64>:
8000085c:	ffff0537          	lui	a0,0xffff0
80000860:	fff50513          	addi	a0,a0,-1 # fffeffff <imm12+0xffff052f>
80000864:	33256593          	ori	a1,a0,818
80000868:	0ab22423          	sw	a1,168(tp) # a8 <offset+0x40>
8000086c:	ffff02b7          	lui	t0,0xffff0
80000870:	fff28293          	addi	t0,t0,-1 # fffeffff <imm12+0xffff052f>
80000874:	00b28463          	beq	t0,a1,8000087c <inst_65>
80000878:	69c0306f          	j	80003f14 <bad_trap>

8000087c <inst_65>:
8000087c:	fffe0537          	lui	a0,0xfffe0
80000880:	fff50513          	addi	a0,a0,-1 # fffdffff <imm12+0xfffe052f>
80000884:	ff656593          	ori	a1,a0,-10
80000888:	0ab22623          	sw	a1,172(tp) # ac <offset+0x44>
8000088c:	fff00293          	li	t0,-1
80000890:	00b28463          	beq	t0,a1,80000898 <inst_66>
80000894:	6800306f          	j	80003f14 <bad_trap>

80000898 <inst_66>:
80000898:	fff00537          	lui	a0,0xfff00
8000089c:	fff50513          	addi	a0,a0,-1 # ffefffff <imm12+0xfff0052f>
800008a0:	00656593          	ori	a1,a0,6
800008a4:	0ab22823          	sw	a1,176(tp) # b0 <offset+0x48>
800008a8:	fff002b7          	lui	t0,0xfff00
800008ac:	fff28293          	addi	t0,t0,-1 # ffefffff <imm12+0xfff0052f>
800008b0:	00b28463          	beq	t0,a1,800008b8 <inst_67>
800008b4:	6600306f          	j	80003f14 <bad_trap>

800008b8 <inst_67>:
800008b8:	ffe00537          	lui	a0,0xffe00
800008bc:	fff50513          	addi	a0,a0,-1 # ffdfffff <imm12+0xffe0052f>
800008c0:	c0056593          	ori	a1,a0,-1024
800008c4:	0ab22a23          	sw	a1,180(tp) # b4 <offset+0x4c>
800008c8:	fff00293          	li	t0,-1
800008cc:	00b28463          	beq	t0,a1,800008d4 <inst_68>
800008d0:	6440306f          	j	80003f14 <bad_trap>

800008d4 <inst_68>:
800008d4:	ffc00537          	lui	a0,0xffc00
800008d8:	fff50513          	addi	a0,a0,-1 # ffbfffff <imm12+0xffc0052f>
800008dc:	fd456593          	ori	a1,a0,-44
800008e0:	0ab22c23          	sw	a1,184(tp) # b8 <offset+0x50>
800008e4:	fff00293          	li	t0,-1
800008e8:	00b28463          	beq	t0,a1,800008f0 <inst_69>
800008ec:	6280306f          	j	80003f14 <bad_trap>

800008f0 <inst_69>:
800008f0:	ff800537          	lui	a0,0xff800
800008f4:	fff50513          	addi	a0,a0,-1 # ff7fffff <imm12+0xff80052f>
800008f8:	ff656593          	ori	a1,a0,-10
800008fc:	0ab22e23          	sw	a1,188(tp) # bc <offset+0x54>
80000900:	fff00293          	li	t0,-1
80000904:	00b28463          	beq	t0,a1,8000090c <inst_70>
80000908:	60c0306f          	j	80003f14 <bad_trap>

8000090c <inst_70>:
8000090c:	ff000537          	lui	a0,0xff000
80000910:	fff50513          	addi	a0,a0,-1 # feffffff <imm12+0xff00052f>
80000914:	3ff56593          	ori	a1,a0,1023
80000918:	0cb22023          	sw	a1,192(tp) # c0 <offset+0x58>
8000091c:	ff0002b7          	lui	t0,0xff000
80000920:	fff28293          	addi	t0,t0,-1 # feffffff <imm12+0xff00052f>
80000924:	00b28463          	beq	t0,a1,8000092c <inst_71>
80000928:	5ec0306f          	j	80003f14 <bad_trap>

8000092c <inst_71>:
8000092c:	fe000537          	lui	a0,0xfe000
80000930:	fff50513          	addi	a0,a0,-1 # fdffffff <imm12+0xfe00052f>
80000934:	ff856593          	ori	a1,a0,-8
80000938:	0cb22223          	sw	a1,196(tp) # c4 <offset+0x5c>
8000093c:	fff00293          	li	t0,-1
80000940:	00b28463          	beq	t0,a1,80000948 <inst_72>
80000944:	5d00306f          	j	80003f14 <bad_trap>

80000948 <inst_72>:
80000948:	fc000537          	lui	a0,0xfc000
8000094c:	fff50513          	addi	a0,a0,-1 # fbffffff <imm12+0xfc00052f>
80000950:	00456593          	ori	a1,a0,4
80000954:	0cb22423          	sw	a1,200(tp) # c8 <offset+0x60>
80000958:	fc0002b7          	lui	t0,0xfc000
8000095c:	fff28293          	addi	t0,t0,-1 # fbffffff <imm12+0xfc00052f>
80000960:	00b28463          	beq	t0,a1,80000968 <inst_73>
80000964:	5b00306f          	j	80003f14 <bad_trap>

80000968 <inst_73>:
80000968:	f8000537          	lui	a0,0xf8000
8000096c:	fff50513          	addi	a0,a0,-1 # f7ffffff <imm12+0xf800052f>
80000970:	ffa56593          	ori	a1,a0,-6
80000974:	0cb22623          	sw	a1,204(tp) # cc <offset+0x64>
80000978:	fff00293          	li	t0,-1
8000097c:	00b28463          	beq	t0,a1,80000984 <inst_74>
80000980:	5940306f          	j	80003f14 <bad_trap>

80000984 <inst_74>:
80000984:	f0000537          	lui	a0,0xf0000
80000988:	fff50513          	addi	a0,a0,-1 # efffffff <imm12+0xf000052f>
8000098c:	ff956593          	ori	a1,a0,-7
80000990:	0cb22823          	sw	a1,208(tp) # d0 <offset+0x68>
80000994:	fff00293          	li	t0,-1
80000998:	00b28463          	beq	t0,a1,800009a0 <inst_75>
8000099c:	5780306f          	j	80003f14 <bad_trap>

800009a0 <inst_75>:
800009a0:	e0000537          	lui	a0,0xe0000
800009a4:	fff50513          	addi	a0,a0,-1 # dfffffff <imm12+0xe000052f>
800009a8:	55456593          	ori	a1,a0,1364
800009ac:	0cb22a23          	sw	a1,212(tp) # d4 <offset+0x6c>
800009b0:	e00002b7          	lui	t0,0xe0000
800009b4:	fff28293          	addi	t0,t0,-1 # dfffffff <imm12+0xe000052f>
800009b8:	00b28463          	beq	t0,a1,800009c0 <inst_76>
800009bc:	5580306f          	j	80003f14 <bad_trap>

800009c0 <inst_76>:
800009c0:	55555537          	lui	a0,0x55555
800009c4:	55550513          	addi	a0,a0,1365 # 55555555 <absimm+0x10263026>
800009c8:	eff56593          	ori	a1,a0,-257
800009cc:	0cb22c23          	sw	a1,216(tp) # d8 <offset+0x70>
800009d0:	fff00293          	li	t0,-1
800009d4:	00b28463          	beq	t0,a1,800009dc <inst_77>
800009d8:	53c0306f          	j	80003f14 <bad_trap>

800009dc <inst_77>:
800009dc:	00300513          	li	a0,3
800009e0:	00356593          	ori	a1,a0,3
800009e4:	0cb22e23          	sw	a1,220(tp) # dc <offset+0x74>
800009e8:	00300293          	li	t0,3
800009ec:	00b28463          	beq	t0,a1,800009f4 <inst_78>
800009f0:	5240306f          	j	80003f14 <bad_trap>

800009f4 <inst_78>:
800009f4:	00300513          	li	a0,3
800009f8:	55556593          	ori	a1,a0,1365
800009fc:	0eb22023          	sw	a1,224(tp) # e0 <offset+0x78>
80000a00:	55700293          	li	t0,1367
80000a04:	00b28463          	beq	t0,a1,80000a0c <inst_79>
80000a08:	50c0306f          	j	80003f14 <bad_trap>

80000a0c <inst_79>:
80000a0c:	00300513          	li	a0,3
80000a10:	aaa56593          	ori	a1,a0,-1366
80000a14:	0eb22223          	sw	a1,228(tp) # e4 <offset+0x7c>
80000a18:	aab00293          	li	t0,-1365
80000a1c:	00b28463          	beq	t0,a1,80000a24 <inst_80>
80000a20:	4f40306f          	j	80003f14 <bad_trap>

80000a24 <inst_80>:
80000a24:	00300513          	li	a0,3
80000a28:	00556593          	ori	a1,a0,5
80000a2c:	0eb22423          	sw	a1,232(tp) # e8 <offset+0x80>
80000a30:	00700293          	li	t0,7
80000a34:	00b28463          	beq	t0,a1,80000a3c <inst_81>
80000a38:	4dc0306f          	j	80003f14 <bad_trap>

80000a3c <inst_81>:
80000a3c:	00300513          	li	a0,3
80000a40:	33356593          	ori	a1,a0,819
80000a44:	0eb22623          	sw	a1,236(tp) # ec <offset+0x84>
80000a48:	33300293          	li	t0,819
80000a4c:	00b28463          	beq	t0,a1,80000a54 <inst_82>
80000a50:	4c40306f          	j	80003f14 <bad_trap>

80000a54 <inst_82>:
80000a54:	00300513          	li	a0,3
80000a58:	66656593          	ori	a1,a0,1638
80000a5c:	0eb22823          	sw	a1,240(tp) # f0 <offset+0x88>
80000a60:	66700293          	li	t0,1639
80000a64:	00b28463          	beq	t0,a1,80000a6c <inst_83>
80000a68:	4ac0306f          	j	80003f14 <bad_trap>

80000a6c <inst_83>:
80000a6c:	00300513          	li	a0,3
80000a70:	fd356593          	ori	a1,a0,-45
80000a74:	0eb22a23          	sw	a1,244(tp) # f4 <offset+0x8c>
80000a78:	fd300293          	li	t0,-45
80000a7c:	00b28463          	beq	t0,a1,80000a84 <inst_84>
80000a80:	4940306f          	j	80003f14 <bad_trap>

80000a84 <inst_84>:
80000a84:	00300513          	li	a0,3
80000a88:	02d56593          	ori	a1,a0,45
80000a8c:	0eb22c23          	sw	a1,248(tp) # f8 <offset+0x90>
80000a90:	02f00293          	li	t0,47
80000a94:	00b28463          	beq	t0,a1,80000a9c <inst_85>
80000a98:	47c0306f          	j	80003f14 <bad_trap>

80000a9c <inst_85>:
80000a9c:	00300513          	li	a0,3
80000aa0:	00256593          	ori	a1,a0,2
80000aa4:	0eb22e23          	sw	a1,252(tp) # fc <offset+0x94>
80000aa8:	00300293          	li	t0,3
80000aac:	00b28463          	beq	t0,a1,80000ab4 <inst_86>
80000ab0:	4640306f          	j	80003f14 <bad_trap>

80000ab4 <inst_86>:
80000ab4:	00300513          	li	a0,3
80000ab8:	55456593          	ori	a1,a0,1364
80000abc:	10b22023          	sw	a1,256(tp) # 100 <offset+0x98>
80000ac0:	55700293          	li	t0,1367
80000ac4:	00b28463          	beq	t0,a1,80000acc <inst_87>
80000ac8:	44c0306f          	j	80003f14 <bad_trap>

80000acc <inst_87>:
80000acc:	00300513          	li	a0,3
80000ad0:	00056593          	ori	a1,a0,0
80000ad4:	10b22223          	sw	a1,260(tp) # 104 <offset+0x9c>
80000ad8:	00300293          	li	t0,3
80000adc:	00b28463          	beq	t0,a1,80000ae4 <inst_88>
80000ae0:	4340306f          	j	80003f14 <bad_trap>

80000ae4 <inst_88>:
80000ae4:	00300513          	li	a0,3
80000ae8:	00456593          	ori	a1,a0,4
80000aec:	10b22423          	sw	a1,264(tp) # 108 <offset+0xa0>
80000af0:	00700293          	li	t0,7
80000af4:	00b28463          	beq	t0,a1,80000afc <inst_89>
80000af8:	41c0306f          	j	80003f14 <bad_trap>

80000afc <inst_89>:
80000afc:	00300513          	li	a0,3
80000b00:	33256593          	ori	a1,a0,818
80000b04:	10b22623          	sw	a1,268(tp) # 10c <offset+0xa4>
80000b08:	33300293          	li	t0,819
80000b0c:	00b28463          	beq	t0,a1,80000b14 <inst_90>
80000b10:	4040306f          	j	80003f14 <bad_trap>

80000b14 <inst_90>:
80000b14:	00300513          	li	a0,3
80000b18:	66556593          	ori	a1,a0,1637
80000b1c:	10b22823          	sw	a1,272(tp) # 110 <offset+0xa8>
80000b20:	66700293          	li	t0,1639
80000b24:	00b28463          	beq	t0,a1,80000b2c <inst_91>
80000b28:	3ec0306f          	j	80003f14 <bad_trap>

80000b2c <inst_91>:
80000b2c:	00300513          	li	a0,3
80000b30:	02c56593          	ori	a1,a0,44
80000b34:	10b22a23          	sw	a1,276(tp) # 114 <offset+0xac>
80000b38:	02f00293          	li	t0,47
80000b3c:	00b28463          	beq	t0,a1,80000b44 <inst_92>
80000b40:	3d40306f          	j	80003f14 <bad_trap>

80000b44 <inst_92>:
80000b44:	00300513          	li	a0,3
80000b48:	55656593          	ori	a1,a0,1366
80000b4c:	10b22c23          	sw	a1,280(tp) # 118 <offset+0xb0>
80000b50:	55700293          	li	t0,1367
80000b54:	00b28463          	beq	t0,a1,80000b5c <inst_93>
80000b58:	3bc0306f          	j	80003f14 <bad_trap>

80000b5c <inst_93>:
80000b5c:	00300513          	li	a0,3
80000b60:	aab56593          	ori	a1,a0,-1365
80000b64:	10b22e23          	sw	a1,284(tp) # 11c <offset+0xb4>
80000b68:	aab00293          	li	t0,-1365
80000b6c:	00b28463          	beq	t0,a1,80000b74 <inst_94>
80000b70:	3a40306f          	j	80003f14 <bad_trap>

80000b74 <inst_94>:
80000b74:	00300513          	li	a0,3
80000b78:	00656593          	ori	a1,a0,6
80000b7c:	12b22023          	sw	a1,288(tp) # 120 <offset+0xb8>
80000b80:	00700293          	li	t0,7
80000b84:	00b28463          	beq	t0,a1,80000b8c <inst_95>
80000b88:	38c0306f          	j	80003f14 <bad_trap>

80000b8c <inst_95>:
80000b8c:	00300513          	li	a0,3
80000b90:	33456593          	ori	a1,a0,820
80000b94:	12b22223          	sw	a1,292(tp) # 124 <offset+0xbc>
80000b98:	33700293          	li	t0,823
80000b9c:	00b28463          	beq	t0,a1,80000ba4 <inst_96>
80000ba0:	3740306f          	j	80003f14 <bad_trap>

80000ba4 <inst_96>:
80000ba4:	00300513          	li	a0,3
80000ba8:	66756593          	ori	a1,a0,1639
80000bac:	12b22423          	sw	a1,296(tp) # 128 <offset+0xc0>
80000bb0:	66700293          	li	t0,1639
80000bb4:	00b28463          	beq	t0,a1,80000bbc <inst_97>
80000bb8:	35c0306f          	j	80003f14 <bad_trap>

80000bbc <inst_97>:
80000bbc:	00300513          	li	a0,3
80000bc0:	fd456593          	ori	a1,a0,-44
80000bc4:	12b22623          	sw	a1,300(tp) # 12c <offset+0xc4>
80000bc8:	fd700293          	li	t0,-41
80000bcc:	00b28463          	beq	t0,a1,80000bd4 <inst_98>
80000bd0:	3440306f          	j	80003f14 <bad_trap>

80000bd4 <inst_98>:
80000bd4:	00300513          	li	a0,3
80000bd8:	02e56593          	ori	a1,a0,46
80000bdc:	12b22823          	sw	a1,304(tp) # 130 <offset+0xc8>
80000be0:	02f00293          	li	t0,47
80000be4:	00b28463          	beq	t0,a1,80000bec <inst_99>
80000be8:	32c0306f          	j	80003f14 <bad_trap>

80000bec <inst_99>:
80000bec:	55555537          	lui	a0,0x55555
80000bf0:	55550513          	addi	a0,a0,1365 # 55555555 <absimm+0x10263026>
80000bf4:	00356593          	ori	a1,a0,3
80000bf8:	12b22a23          	sw	a1,308(tp) # 134 <offset+0xcc>
80000bfc:	555552b7          	lui	t0,0x55555
80000c00:	55728293          	addi	t0,t0,1367 # 55555557 <absimm+0x10263028>
80000c04:	00b28463          	beq	t0,a1,80000c0c <inst_100>
80000c08:	30c0306f          	j	80003f14 <bad_trap>

80000c0c <inst_100>:
80000c0c:	55555537          	lui	a0,0x55555
80000c10:	55550513          	addi	a0,a0,1365 # 55555555 <absimm+0x10263026>
80000c14:	55556593          	ori	a1,a0,1365
80000c18:	12b22c23          	sw	a1,312(tp) # 138 <offset+0xd0>
80000c1c:	555552b7          	lui	t0,0x55555
80000c20:	55528293          	addi	t0,t0,1365 # 55555555 <absimm+0x10263026>
80000c24:	00b28463          	beq	t0,a1,80000c2c <inst_101>
80000c28:	2ec0306f          	j	80003f14 <bad_trap>

80000c2c <inst_101>:
80000c2c:	55555537          	lui	a0,0x55555
80000c30:	55550513          	addi	a0,a0,1365 # 55555555 <absimm+0x10263026>
80000c34:	aaa56593          	ori	a1,a0,-1366
80000c38:	12b22e23          	sw	a1,316(tp) # 13c <offset+0xd4>
80000c3c:	fff00293          	li	t0,-1
80000c40:	00b28463          	beq	t0,a1,80000c48 <inst_102>
80000c44:	2d00306f          	j	80003f14 <bad_trap>

80000c48 <inst_102>:
80000c48:	55555537          	lui	a0,0x55555
80000c4c:	55550513          	addi	a0,a0,1365 # 55555555 <absimm+0x10263026>
80000c50:	00556593          	ori	a1,a0,5
80000c54:	14b22023          	sw	a1,320(tp) # 140 <offset+0xd8>
80000c58:	555552b7          	lui	t0,0x55555
80000c5c:	55528293          	addi	t0,t0,1365 # 55555555 <absimm+0x10263026>
80000c60:	00b28463          	beq	t0,a1,80000c68 <inst_103>
80000c64:	2b00306f          	j	80003f14 <bad_trap>

80000c68 <inst_103>:
80000c68:	55555537          	lui	a0,0x55555
80000c6c:	55550513          	addi	a0,a0,1365 # 55555555 <absimm+0x10263026>
80000c70:	33356593          	ori	a1,a0,819
80000c74:	14b22223          	sw	a1,324(tp) # 144 <offset+0xdc>
80000c78:	555552b7          	lui	t0,0x55555
80000c7c:	77728293          	addi	t0,t0,1911 # 55555777 <absimm+0x10263248>
80000c80:	00b28463          	beq	t0,a1,80000c88 <inst_104>
80000c84:	2900306f          	j	80003f14 <bad_trap>

80000c88 <inst_104>:
80000c88:	55555537          	lui	a0,0x55555
80000c8c:	55550513          	addi	a0,a0,1365 # 55555555 <absimm+0x10263026>
80000c90:	66656593          	ori	a1,a0,1638
80000c94:	14b22423          	sw	a1,328(tp) # 148 <offset+0xe0>
80000c98:	555552b7          	lui	t0,0x55555
80000c9c:	77728293          	addi	t0,t0,1911 # 55555777 <absimm+0x10263248>
80000ca0:	00b28463          	beq	t0,a1,80000ca8 <inst_105>
80000ca4:	2700306f          	j	80003f14 <bad_trap>

80000ca8 <inst_105>:
80000ca8:	55555537          	lui	a0,0x55555
80000cac:	55550513          	addi	a0,a0,1365 # 55555555 <absimm+0x10263026>
80000cb0:	fd356593          	ori	a1,a0,-45
80000cb4:	14b22623          	sw	a1,332(tp) # 14c <offset+0xe4>
80000cb8:	fd700293          	li	t0,-41
80000cbc:	00b28463          	beq	t0,a1,80000cc4 <inst_106>
80000cc0:	2540306f          	j	80003f14 <bad_trap>

80000cc4 <inst_106>:
80000cc4:	55555537          	lui	a0,0x55555
80000cc8:	55550513          	addi	a0,a0,1365 # 55555555 <absimm+0x10263026>
80000ccc:	02d56593          	ori	a1,a0,45
80000cd0:	14b22823          	sw	a1,336(tp) # 150 <offset+0xe8>
80000cd4:	555552b7          	lui	t0,0x55555
80000cd8:	57d28293          	addi	t0,t0,1405 # 5555557d <absimm+0x1026304e>
80000cdc:	00b28463          	beq	t0,a1,80000ce4 <inst_107>
80000ce0:	2340306f          	j	80003f14 <bad_trap>

80000ce4 <inst_107>:
80000ce4:	55555537          	lui	a0,0x55555
80000ce8:	55550513          	addi	a0,a0,1365 # 55555555 <absimm+0x10263026>
80000cec:	00256593          	ori	a1,a0,2
80000cf0:	14b22a23          	sw	a1,340(tp) # 154 <offset+0xec>
80000cf4:	555552b7          	lui	t0,0x55555
80000cf8:	55728293          	addi	t0,t0,1367 # 55555557 <absimm+0x10263028>
80000cfc:	00b28463          	beq	t0,a1,80000d04 <inst_108>
80000d00:	2140306f          	j	80003f14 <bad_trap>

80000d04 <inst_108>:
80000d04:	55555537          	lui	a0,0x55555
80000d08:	55550513          	addi	a0,a0,1365 # 55555555 <absimm+0x10263026>
80000d0c:	55456593          	ori	a1,a0,1364
80000d10:	14b22c23          	sw	a1,344(tp) # 158 <offset+0xf0>
80000d14:	555552b7          	lui	t0,0x55555
80000d18:	55528293          	addi	t0,t0,1365 # 55555555 <absimm+0x10263026>
80000d1c:	00b28463          	beq	t0,a1,80000d24 <inst_109>
80000d20:	1f40306f          	j	80003f14 <bad_trap>

80000d24 <inst_109>:
80000d24:	55555537          	lui	a0,0x55555
80000d28:	55550513          	addi	a0,a0,1365 # 55555555 <absimm+0x10263026>
80000d2c:	00056593          	ori	a1,a0,0
80000d30:	14b22e23          	sw	a1,348(tp) # 15c <offset+0xf4>
80000d34:	555552b7          	lui	t0,0x55555
80000d38:	55528293          	addi	t0,t0,1365 # 55555555 <absimm+0x10263026>
80000d3c:	00b28463          	beq	t0,a1,80000d44 <inst_110>
80000d40:	1d40306f          	j	80003f14 <bad_trap>

80000d44 <inst_110>:
80000d44:	55555537          	lui	a0,0x55555
80000d48:	55550513          	addi	a0,a0,1365 # 55555555 <absimm+0x10263026>
80000d4c:	00456593          	ori	a1,a0,4
80000d50:	16b22023          	sw	a1,352(tp) # 160 <offset+0xf8>
80000d54:	555552b7          	lui	t0,0x55555
80000d58:	55528293          	addi	t0,t0,1365 # 55555555 <absimm+0x10263026>
80000d5c:	00b28463          	beq	t0,a1,80000d64 <inst_111>
80000d60:	1b40306f          	j	80003f14 <bad_trap>

80000d64 <inst_111>:
80000d64:	55555537          	lui	a0,0x55555
80000d68:	55550513          	addi	a0,a0,1365 # 55555555 <absimm+0x10263026>
80000d6c:	33256593          	ori	a1,a0,818
80000d70:	16b22223          	sw	a1,356(tp) # 164 <offset+0xfc>
80000d74:	555552b7          	lui	t0,0x55555
80000d78:	77728293          	addi	t0,t0,1911 # 55555777 <absimm+0x10263248>
80000d7c:	00b28463          	beq	t0,a1,80000d84 <inst_112>
80000d80:	1940306f          	j	80003f14 <bad_trap>

80000d84 <inst_112>:
80000d84:	55555537          	lui	a0,0x55555
80000d88:	55550513          	addi	a0,a0,1365 # 55555555 <absimm+0x10263026>
80000d8c:	66556593          	ori	a1,a0,1637
80000d90:	16b22423          	sw	a1,360(tp) # 168 <offset+0x100>
80000d94:	555552b7          	lui	t0,0x55555
80000d98:	77528293          	addi	t0,t0,1909 # 55555775 <absimm+0x10263246>
80000d9c:	00b28463          	beq	t0,a1,80000da4 <inst_113>
80000da0:	1740306f          	j	80003f14 <bad_trap>

80000da4 <inst_113>:
80000da4:	55555537          	lui	a0,0x55555
80000da8:	55550513          	addi	a0,a0,1365 # 55555555 <absimm+0x10263026>
80000dac:	02c56593          	ori	a1,a0,44
80000db0:	16b22623          	sw	a1,364(tp) # 16c <offset+0x104>
80000db4:	555552b7          	lui	t0,0x55555
80000db8:	57d28293          	addi	t0,t0,1405 # 5555557d <absimm+0x1026304e>
80000dbc:	00b28463          	beq	t0,a1,80000dc4 <inst_114>
80000dc0:	1540306f          	j	80003f14 <bad_trap>

80000dc4 <inst_114>:
80000dc4:	55555537          	lui	a0,0x55555
80000dc8:	55550513          	addi	a0,a0,1365 # 55555555 <absimm+0x10263026>
80000dcc:	55656593          	ori	a1,a0,1366
80000dd0:	16b22823          	sw	a1,368(tp) # 170 <offset+0x108>
80000dd4:	555552b7          	lui	t0,0x55555
80000dd8:	55728293          	addi	t0,t0,1367 # 55555557 <absimm+0x10263028>
80000ddc:	00b28463          	beq	t0,a1,80000de4 <inst_115>
80000de0:	1340306f          	j	80003f14 <bad_trap>

80000de4 <inst_115>:
80000de4:	55555537          	lui	a0,0x55555
80000de8:	55550513          	addi	a0,a0,1365 # 55555555 <absimm+0x10263026>
80000dec:	aab56593          	ori	a1,a0,-1365
80000df0:	16b22a23          	sw	a1,372(tp) # 174 <offset+0x10c>
80000df4:	fff00293          	li	t0,-1
80000df8:	00b28463          	beq	t0,a1,80000e00 <inst_116>
80000dfc:	1180306f          	j	80003f14 <bad_trap>

80000e00 <inst_116>:
80000e00:	55555537          	lui	a0,0x55555
80000e04:	55550513          	addi	a0,a0,1365 # 55555555 <absimm+0x10263026>
80000e08:	00656593          	ori	a1,a0,6
80000e0c:	16b22c23          	sw	a1,376(tp) # 178 <offset+0x110>
80000e10:	555552b7          	lui	t0,0x55555
80000e14:	55728293          	addi	t0,t0,1367 # 55555557 <absimm+0x10263028>
80000e18:	00b28463          	beq	t0,a1,80000e20 <inst_117>
80000e1c:	0f80306f          	j	80003f14 <bad_trap>

80000e20 <inst_117>:
80000e20:	55555537          	lui	a0,0x55555
80000e24:	55550513          	addi	a0,a0,1365 # 55555555 <absimm+0x10263026>
80000e28:	33456593          	ori	a1,a0,820
80000e2c:	16b22e23          	sw	a1,380(tp) # 17c <offset+0x114>
80000e30:	555552b7          	lui	t0,0x55555
80000e34:	77528293          	addi	t0,t0,1909 # 55555775 <absimm+0x10263246>
80000e38:	00b28463          	beq	t0,a1,80000e40 <inst_118>
80000e3c:	0d80306f          	j	80003f14 <bad_trap>

80000e40 <inst_118>:
80000e40:	55555537          	lui	a0,0x55555
80000e44:	55550513          	addi	a0,a0,1365 # 55555555 <absimm+0x10263026>
80000e48:	66756593          	ori	a1,a0,1639
80000e4c:	18b22023          	sw	a1,384(tp) # 180 <offset+0x118>
80000e50:	555552b7          	lui	t0,0x55555
80000e54:	77728293          	addi	t0,t0,1911 # 55555777 <absimm+0x10263248>
80000e58:	00b28463          	beq	t0,a1,80000e60 <inst_119>
80000e5c:	0b80306f          	j	80003f14 <bad_trap>

80000e60 <inst_119>:
80000e60:	55555537          	lui	a0,0x55555
80000e64:	55550513          	addi	a0,a0,1365 # 55555555 <absimm+0x10263026>
80000e68:	fd456593          	ori	a1,a0,-44
80000e6c:	18b22223          	sw	a1,388(tp) # 184 <offset+0x11c>
80000e70:	fd500293          	li	t0,-43
80000e74:	00b28463          	beq	t0,a1,80000e7c <inst_120>
80000e78:	09c0306f          	j	80003f14 <bad_trap>

80000e7c <inst_120>:
80000e7c:	55555537          	lui	a0,0x55555
80000e80:	55550513          	addi	a0,a0,1365 # 55555555 <absimm+0x10263026>
80000e84:	02e56593          	ori	a1,a0,46
80000e88:	18b22423          	sw	a1,392(tp) # 188 <offset+0x120>
80000e8c:	555552b7          	lui	t0,0x55555
80000e90:	57f28293          	addi	t0,t0,1407 # 5555557f <absimm+0x10263050>
80000e94:	00b28463          	beq	t0,a1,80000e9c <inst_121>
80000e98:	07c0306f          	j	80003f14 <bad_trap>

80000e9c <inst_121>:
80000e9c:	aaaab537          	lui	a0,0xaaaab
80000ea0:	aaa50513          	addi	a0,a0,-1366 # aaaaaaaa <imm12+0xaaaaafda>
80000ea4:	00356593          	ori	a1,a0,3
80000ea8:	18b22623          	sw	a1,396(tp) # 18c <offset+0x124>
80000eac:	aaaab2b7          	lui	t0,0xaaaab
80000eb0:	aab28293          	addi	t0,t0,-1365 # aaaaaaab <imm12+0xaaaaafdb>
80000eb4:	00b28463          	beq	t0,a1,80000ebc <inst_122>
80000eb8:	05c0306f          	j	80003f14 <bad_trap>

80000ebc <inst_122>:
80000ebc:	aaaab537          	lui	a0,0xaaaab
80000ec0:	aaa50513          	addi	a0,a0,-1366 # aaaaaaaa <imm12+0xaaaaafda>
80000ec4:	55556593          	ori	a1,a0,1365
80000ec8:	18b22823          	sw	a1,400(tp) # 190 <offset+0x128>
80000ecc:	aaaab2b7          	lui	t0,0xaaaab
80000ed0:	fff28293          	addi	t0,t0,-1 # aaaaafff <imm12+0xaaaab52f>
80000ed4:	00b28463          	beq	t0,a1,80000edc <inst_123>
80000ed8:	03c0306f          	j	80003f14 <bad_trap>

80000edc <inst_123>:
80000edc:	aaaab537          	lui	a0,0xaaaab
80000ee0:	aaa50513          	addi	a0,a0,-1366 # aaaaaaaa <imm12+0xaaaaafda>
80000ee4:	aaa56593          	ori	a1,a0,-1366
80000ee8:	18b22a23          	sw	a1,404(tp) # 194 <offset+0x12c>
80000eec:	aaa00293          	li	t0,-1366
80000ef0:	00b28463          	beq	t0,a1,80000ef8 <inst_124>
80000ef4:	0200306f          	j	80003f14 <bad_trap>

80000ef8 <inst_124>:
80000ef8:	aaaab537          	lui	a0,0xaaaab
80000efc:	aaa50513          	addi	a0,a0,-1366 # aaaaaaaa <imm12+0xaaaaafda>
80000f00:	00556593          	ori	a1,a0,5
80000f04:	18b22c23          	sw	a1,408(tp) # 198 <offset+0x130>
80000f08:	aaaab2b7          	lui	t0,0xaaaab
80000f0c:	aaf28293          	addi	t0,t0,-1361 # aaaaaaaf <imm12+0xaaaaafdf>
80000f10:	00b28463          	beq	t0,a1,80000f18 <inst_125>
80000f14:	0000306f          	j	80003f14 <bad_trap>

80000f18 <inst_125>:
80000f18:	aaaab537          	lui	a0,0xaaaab
80000f1c:	aaa50513          	addi	a0,a0,-1366 # aaaaaaaa <imm12+0xaaaaafda>
80000f20:	33356593          	ori	a1,a0,819
80000f24:	18b22e23          	sw	a1,412(tp) # 19c <offset+0x134>
80000f28:	aaaab2b7          	lui	t0,0xaaaab
80000f2c:	bbb28293          	addi	t0,t0,-1093 # aaaaabbb <imm12+0xaaaab0eb>
80000f30:	00b28463          	beq	t0,a1,80000f38 <inst_126>
80000f34:	7e10206f          	j	80003f14 <bad_trap>

80000f38 <inst_126>:
80000f38:	aaaab537          	lui	a0,0xaaaab
80000f3c:	aaa50513          	addi	a0,a0,-1366 # aaaaaaaa <imm12+0xaaaaafda>
80000f40:	66656593          	ori	a1,a0,1638
80000f44:	1ab22023          	sw	a1,416(tp) # 1a0 <offset+0x138>
80000f48:	aaaab2b7          	lui	t0,0xaaaab
80000f4c:	eee28293          	addi	t0,t0,-274 # aaaaaeee <imm12+0xaaaab41e>
80000f50:	00b28463          	beq	t0,a1,80000f58 <inst_127>
80000f54:	7c10206f          	j	80003f14 <bad_trap>

80000f58 <inst_127>:
80000f58:	aaaab537          	lui	a0,0xaaaab
80000f5c:	aaa50513          	addi	a0,a0,-1366 # aaaaaaaa <imm12+0xaaaaafda>
80000f60:	fd356593          	ori	a1,a0,-45
80000f64:	1ab22223          	sw	a1,420(tp) # 1a4 <offset+0x13c>
80000f68:	ffb00293          	li	t0,-5
80000f6c:	00b28463          	beq	t0,a1,80000f74 <inst_128>
80000f70:	7a50206f          	j	80003f14 <bad_trap>

80000f74 <inst_128>:
80000f74:	aaaab537          	lui	a0,0xaaaab
80000f78:	aaa50513          	addi	a0,a0,-1366 # aaaaaaaa <imm12+0xaaaaafda>
80000f7c:	02d56593          	ori	a1,a0,45
80000f80:	1ab22423          	sw	a1,424(tp) # 1a8 <offset+0x140>
80000f84:	aaaab2b7          	lui	t0,0xaaaab
80000f88:	aaf28293          	addi	t0,t0,-1361 # aaaaaaaf <imm12+0xaaaaafdf>
80000f8c:	00b28463          	beq	t0,a1,80000f94 <inst_129>
80000f90:	7850206f          	j	80003f14 <bad_trap>

80000f94 <inst_129>:
80000f94:	aaaab537          	lui	a0,0xaaaab
80000f98:	aaa50513          	addi	a0,a0,-1366 # aaaaaaaa <imm12+0xaaaaafda>
80000f9c:	00256593          	ori	a1,a0,2
80000fa0:	1ab22623          	sw	a1,428(tp) # 1ac <offset+0x144>
80000fa4:	aaaab2b7          	lui	t0,0xaaaab
80000fa8:	aaa28293          	addi	t0,t0,-1366 # aaaaaaaa <imm12+0xaaaaafda>
80000fac:	00b28463          	beq	t0,a1,80000fb4 <inst_130>
80000fb0:	7650206f          	j	80003f14 <bad_trap>

80000fb4 <inst_130>:
80000fb4:	aaaab537          	lui	a0,0xaaaab
80000fb8:	aaa50513          	addi	a0,a0,-1366 # aaaaaaaa <imm12+0xaaaaafda>
80000fbc:	55456593          	ori	a1,a0,1364
80000fc0:	1ab22823          	sw	a1,432(tp) # 1b0 <offset+0x148>
80000fc4:	aaaab2b7          	lui	t0,0xaaaab
80000fc8:	ffe28293          	addi	t0,t0,-2 # aaaaaffe <imm12+0xaaaab52e>
80000fcc:	00b28463          	beq	t0,a1,80000fd4 <inst_131>
80000fd0:	7450206f          	j	80003f14 <bad_trap>

80000fd4 <inst_131>:
80000fd4:	aaaab537          	lui	a0,0xaaaab
80000fd8:	aaa50513          	addi	a0,a0,-1366 # aaaaaaaa <imm12+0xaaaaafda>
80000fdc:	00056593          	ori	a1,a0,0
80000fe0:	1ab22a23          	sw	a1,436(tp) # 1b4 <offset+0x14c>
80000fe4:	aaaab2b7          	lui	t0,0xaaaab
80000fe8:	aaa28293          	addi	t0,t0,-1366 # aaaaaaaa <imm12+0xaaaaafda>
80000fec:	00b28463          	beq	t0,a1,80000ff4 <inst_132>
80000ff0:	7250206f          	j	80003f14 <bad_trap>

80000ff4 <inst_132>:
80000ff4:	aaaab537          	lui	a0,0xaaaab
80000ff8:	aaa50513          	addi	a0,a0,-1366 # aaaaaaaa <imm12+0xaaaaafda>
80000ffc:	00456593          	ori	a1,a0,4
80001000:	1ab22c23          	sw	a1,440(tp) # 1b8 <offset+0x150>
80001004:	aaaab2b7          	lui	t0,0xaaaab
80001008:	aae28293          	addi	t0,t0,-1362 # aaaaaaae <imm12+0xaaaaafde>
8000100c:	00b28463          	beq	t0,a1,80001014 <inst_133>
80001010:	7050206f          	j	80003f14 <bad_trap>

80001014 <inst_133>:
80001014:	aaaab537          	lui	a0,0xaaaab
80001018:	aaa50513          	addi	a0,a0,-1366 # aaaaaaaa <imm12+0xaaaaafda>
8000101c:	33256593          	ori	a1,a0,818
80001020:	1ab22e23          	sw	a1,444(tp) # 1bc <offset+0x154>
80001024:	aaaab2b7          	lui	t0,0xaaaab
80001028:	bba28293          	addi	t0,t0,-1094 # aaaaabba <imm12+0xaaaab0ea>
8000102c:	00b28463          	beq	t0,a1,80001034 <inst_134>
80001030:	6e50206f          	j	80003f14 <bad_trap>

80001034 <inst_134>:
80001034:	aaaab537          	lui	a0,0xaaaab
80001038:	aaa50513          	addi	a0,a0,-1366 # aaaaaaaa <imm12+0xaaaaafda>
8000103c:	66556593          	ori	a1,a0,1637
80001040:	1cb22023          	sw	a1,448(tp) # 1c0 <offset+0x158>
80001044:	aaaab2b7          	lui	t0,0xaaaab
80001048:	eef28293          	addi	t0,t0,-273 # aaaaaeef <imm12+0xaaaab41f>
8000104c:	00b28463          	beq	t0,a1,80001054 <inst_135>
80001050:	6c50206f          	j	80003f14 <bad_trap>

80001054 <inst_135>:
80001054:	aaaab537          	lui	a0,0xaaaab
80001058:	aaa50513          	addi	a0,a0,-1366 # aaaaaaaa <imm12+0xaaaaafda>
8000105c:	02c56593          	ori	a1,a0,44
80001060:	1cb22223          	sw	a1,452(tp) # 1c4 <offset+0x15c>
80001064:	aaaab2b7          	lui	t0,0xaaaab
80001068:	aae28293          	addi	t0,t0,-1362 # aaaaaaae <imm12+0xaaaaafde>
8000106c:	00b28463          	beq	t0,a1,80001074 <inst_136>
80001070:	6a50206f          	j	80003f14 <bad_trap>

80001074 <inst_136>:
80001074:	aaaab537          	lui	a0,0xaaaab
80001078:	aaa50513          	addi	a0,a0,-1366 # aaaaaaaa <imm12+0xaaaaafda>
8000107c:	55656593          	ori	a1,a0,1366
80001080:	1cb22423          	sw	a1,456(tp) # 1c8 <offset+0x160>
80001084:	aaaab2b7          	lui	t0,0xaaaab
80001088:	ffe28293          	addi	t0,t0,-2 # aaaaaffe <imm12+0xaaaab52e>
8000108c:	00b28463          	beq	t0,a1,80001094 <inst_137>
80001090:	6850206f          	j	80003f14 <bad_trap>

80001094 <inst_137>:
80001094:	aaaab537          	lui	a0,0xaaaab
80001098:	aaa50513          	addi	a0,a0,-1366 # aaaaaaaa <imm12+0xaaaaafda>
8000109c:	aab56593          	ori	a1,a0,-1365
800010a0:	1cb22623          	sw	a1,460(tp) # 1cc <offset+0x164>
800010a4:	aab00293          	li	t0,-1365
800010a8:	00b28463          	beq	t0,a1,800010b0 <inst_138>
800010ac:	6690206f          	j	80003f14 <bad_trap>

800010b0 <inst_138>:
800010b0:	aaaab537          	lui	a0,0xaaaab
800010b4:	aaa50513          	addi	a0,a0,-1366 # aaaaaaaa <imm12+0xaaaaafda>
800010b8:	00656593          	ori	a1,a0,6
800010bc:	1cb22823          	sw	a1,464(tp) # 1d0 <offset+0x168>
800010c0:	aaaab2b7          	lui	t0,0xaaaab
800010c4:	aae28293          	addi	t0,t0,-1362 # aaaaaaae <imm12+0xaaaaafde>
800010c8:	00b28463          	beq	t0,a1,800010d0 <inst_139>
800010cc:	6490206f          	j	80003f14 <bad_trap>

800010d0 <inst_139>:
800010d0:	aaaab537          	lui	a0,0xaaaab
800010d4:	aaa50513          	addi	a0,a0,-1366 # aaaaaaaa <imm12+0xaaaaafda>
800010d8:	33456593          	ori	a1,a0,820
800010dc:	1cb22a23          	sw	a1,468(tp) # 1d4 <offset+0x16c>
800010e0:	aaaab2b7          	lui	t0,0xaaaab
800010e4:	bbe28293          	addi	t0,t0,-1090 # aaaaabbe <imm12+0xaaaab0ee>
800010e8:	00b28463          	beq	t0,a1,800010f0 <inst_140>
800010ec:	6290206f          	j	80003f14 <bad_trap>

800010f0 <inst_140>:
800010f0:	aaaab537          	lui	a0,0xaaaab
800010f4:	aaa50513          	addi	a0,a0,-1366 # aaaaaaaa <imm12+0xaaaaafda>
800010f8:	66756593          	ori	a1,a0,1639
800010fc:	1cb22c23          	sw	a1,472(tp) # 1d8 <offset+0x170>
80001100:	aaaab2b7          	lui	t0,0xaaaab
80001104:	eef28293          	addi	t0,t0,-273 # aaaaaeef <imm12+0xaaaab41f>
80001108:	00b28463          	beq	t0,a1,80001110 <inst_141>
8000110c:	6090206f          	j	80003f14 <bad_trap>

80001110 <inst_141>:
80001110:	aaaab537          	lui	a0,0xaaaab
80001114:	aaa50513          	addi	a0,a0,-1366 # aaaaaaaa <imm12+0xaaaaafda>
80001118:	fd456593          	ori	a1,a0,-44
8000111c:	1cb22e23          	sw	a1,476(tp) # 1dc <offset+0x174>
80001120:	ffe00293          	li	t0,-2
80001124:	00b28463          	beq	t0,a1,8000112c <inst_142>
80001128:	5ed0206f          	j	80003f14 <bad_trap>

8000112c <inst_142>:
8000112c:	aaaab537          	lui	a0,0xaaaab
80001130:	aaa50513          	addi	a0,a0,-1366 # aaaaaaaa <imm12+0xaaaaafda>
80001134:	02e56593          	ori	a1,a0,46
80001138:	1eb22023          	sw	a1,480(tp) # 1e0 <offset+0x178>
8000113c:	aaaab2b7          	lui	t0,0xaaaab
80001140:	aae28293          	addi	t0,t0,-1362 # aaaaaaae <imm12+0xaaaaafde>
80001144:	00b28463          	beq	t0,a1,8000114c <inst_143>
80001148:	5cd0206f          	j	80003f14 <bad_trap>

8000114c <inst_143>:
8000114c:	00500513          	li	a0,5
80001150:	00356593          	ori	a1,a0,3
80001154:	1eb22223          	sw	a1,484(tp) # 1e4 <offset+0x17c>
80001158:	00700293          	li	t0,7
8000115c:	00b28463          	beq	t0,a1,80001164 <inst_144>
80001160:	5b50206f          	j	80003f14 <bad_trap>

80001164 <inst_144>:
80001164:	00500513          	li	a0,5
80001168:	55556593          	ori	a1,a0,1365
8000116c:	1eb22423          	sw	a1,488(tp) # 1e8 <offset+0x180>
80001170:	55500293          	li	t0,1365
80001174:	00b28463          	beq	t0,a1,8000117c <inst_145>
80001178:	59d0206f          	j	80003f14 <bad_trap>

8000117c <inst_145>:
8000117c:	00500513          	li	a0,5
80001180:	aaa56593          	ori	a1,a0,-1366
80001184:	1eb22623          	sw	a1,492(tp) # 1ec <offset+0x184>
80001188:	aaf00293          	li	t0,-1361
8000118c:	00b28463          	beq	t0,a1,80001194 <inst_146>
80001190:	5850206f          	j	80003f14 <bad_trap>

80001194 <inst_146>:
80001194:	00500513          	li	a0,5
80001198:	00556593          	ori	a1,a0,5
8000119c:	1eb22823          	sw	a1,496(tp) # 1f0 <offset+0x188>
800011a0:	00500293          	li	t0,5
800011a4:	00b28463          	beq	t0,a1,800011ac <inst_147>
800011a8:	56d0206f          	j	80003f14 <bad_trap>

800011ac <inst_147>:
800011ac:	00500513          	li	a0,5
800011b0:	33356593          	ori	a1,a0,819
800011b4:	1eb22a23          	sw	a1,500(tp) # 1f4 <offset+0x18c>
800011b8:	33700293          	li	t0,823
800011bc:	00b28463          	beq	t0,a1,800011c4 <inst_148>
800011c0:	5550206f          	j	80003f14 <bad_trap>

800011c4 <inst_148>:
800011c4:	00500513          	li	a0,5
800011c8:	66656593          	ori	a1,a0,1638
800011cc:	1eb22c23          	sw	a1,504(tp) # 1f8 <offset+0x190>
800011d0:	66700293          	li	t0,1639
800011d4:	00b28463          	beq	t0,a1,800011dc <inst_149>
800011d8:	53d0206f          	j	80003f14 <bad_trap>

800011dc <inst_149>:
800011dc:	00500513          	li	a0,5
800011e0:	fd356593          	ori	a1,a0,-45
800011e4:	1eb22e23          	sw	a1,508(tp) # 1fc <offset+0x194>
800011e8:	fd700293          	li	t0,-41
800011ec:	00b28463          	beq	t0,a1,800011f4 <inst_150>
800011f0:	5250206f          	j	80003f14 <bad_trap>

800011f4 <inst_150>:
800011f4:	00500513          	li	a0,5
800011f8:	02d56593          	ori	a1,a0,45
800011fc:	20b22023          	sw	a1,512(tp) # 200 <offset+0x198>
80001200:	02d00293          	li	t0,45
80001204:	00b28463          	beq	t0,a1,8000120c <inst_151>
80001208:	50d0206f          	j	80003f14 <bad_trap>

8000120c <inst_151>:
8000120c:	00500513          	li	a0,5
80001210:	00256593          	ori	a1,a0,2
80001214:	20b22223          	sw	a1,516(tp) # 204 <offset+0x19c>
80001218:	00700293          	li	t0,7
8000121c:	00b28463          	beq	t0,a1,80001224 <inst_152>
80001220:	4f50206f          	j	80003f14 <bad_trap>

80001224 <inst_152>:
80001224:	00500513          	li	a0,5
80001228:	55456593          	ori	a1,a0,1364
8000122c:	20b22423          	sw	a1,520(tp) # 208 <offset+0x1a0>
80001230:	55500293          	li	t0,1365
80001234:	00b28463          	beq	t0,a1,8000123c <inst_153>
80001238:	4dd0206f          	j	80003f14 <bad_trap>

8000123c <inst_153>:
8000123c:	00500513          	li	a0,5
80001240:	00056593          	ori	a1,a0,0
80001244:	20b22623          	sw	a1,524(tp) # 20c <offset+0x1a4>
80001248:	00500293          	li	t0,5
8000124c:	00b28463          	beq	t0,a1,80001254 <inst_154>
80001250:	4c50206f          	j	80003f14 <bad_trap>

80001254 <inst_154>:
80001254:	00500513          	li	a0,5
80001258:	00456593          	ori	a1,a0,4
8000125c:	20b22823          	sw	a1,528(tp) # 210 <offset+0x1a8>
80001260:	00500293          	li	t0,5
80001264:	00b28463          	beq	t0,a1,8000126c <inst_155>
80001268:	4ad0206f          	j	80003f14 <bad_trap>

8000126c <inst_155>:
8000126c:	00500513          	li	a0,5
80001270:	33256593          	ori	a1,a0,818
80001274:	20b22a23          	sw	a1,532(tp) # 214 <offset+0x1ac>
80001278:	33700293          	li	t0,823
8000127c:	00b28463          	beq	t0,a1,80001284 <inst_156>
80001280:	4950206f          	j	80003f14 <bad_trap>

80001284 <inst_156>:
80001284:	00500513          	li	a0,5
80001288:	66556593          	ori	a1,a0,1637
8000128c:	20b22c23          	sw	a1,536(tp) # 218 <offset+0x1b0>
80001290:	66500293          	li	t0,1637
80001294:	00b28463          	beq	t0,a1,8000129c <inst_157>
80001298:	47d0206f          	j	80003f14 <bad_trap>

8000129c <inst_157>:
8000129c:	00500513          	li	a0,5
800012a0:	02c56593          	ori	a1,a0,44
800012a4:	20b22e23          	sw	a1,540(tp) # 21c <offset+0x1b4>
800012a8:	02d00293          	li	t0,45
800012ac:	00b28463          	beq	t0,a1,800012b4 <inst_158>
800012b0:	4650206f          	j	80003f14 <bad_trap>

800012b4 <inst_158>:
800012b4:	00500513          	li	a0,5
800012b8:	55656593          	ori	a1,a0,1366
800012bc:	22b22023          	sw	a1,544(tp) # 220 <offset+0x1b8>
800012c0:	55700293          	li	t0,1367
800012c4:	00b28463          	beq	t0,a1,800012cc <inst_159>
800012c8:	44d0206f          	j	80003f14 <bad_trap>

800012cc <inst_159>:
800012cc:	00500513          	li	a0,5
800012d0:	aab56593          	ori	a1,a0,-1365
800012d4:	22b22223          	sw	a1,548(tp) # 224 <offset+0x1bc>
800012d8:	aaf00293          	li	t0,-1361
800012dc:	00b28463          	beq	t0,a1,800012e4 <inst_160>
800012e0:	4350206f          	j	80003f14 <bad_trap>

800012e4 <inst_160>:
800012e4:	00500513          	li	a0,5
800012e8:	00656593          	ori	a1,a0,6
800012ec:	22b22423          	sw	a1,552(tp) # 228 <offset+0x1c0>
800012f0:	00700293          	li	t0,7
800012f4:	00b28463          	beq	t0,a1,800012fc <inst_161>
800012f8:	41d0206f          	j	80003f14 <bad_trap>

800012fc <inst_161>:
800012fc:	00500513          	li	a0,5
80001300:	33456593          	ori	a1,a0,820
80001304:	22b22623          	sw	a1,556(tp) # 22c <offset+0x1c4>
80001308:	33500293          	li	t0,821
8000130c:	00b28463          	beq	t0,a1,80001314 <inst_162>
80001310:	4050206f          	j	80003f14 <bad_trap>

80001314 <inst_162>:
80001314:	00500513          	li	a0,5
80001318:	66756593          	ori	a1,a0,1639
8000131c:	22b22823          	sw	a1,560(tp) # 230 <offset+0x1c8>
80001320:	66700293          	li	t0,1639
80001324:	00b28463          	beq	t0,a1,8000132c <inst_163>
80001328:	3ed0206f          	j	80003f14 <bad_trap>

8000132c <inst_163>:
8000132c:	00500513          	li	a0,5
80001330:	fd456593          	ori	a1,a0,-44
80001334:	22b22a23          	sw	a1,564(tp) # 234 <offset+0x1cc>
80001338:	fd500293          	li	t0,-43
8000133c:	00b28463          	beq	t0,a1,80001344 <inst_164>
80001340:	3d50206f          	j	80003f14 <bad_trap>

80001344 <inst_164>:
80001344:	00500513          	li	a0,5
80001348:	02e56593          	ori	a1,a0,46
8000134c:	22b22c23          	sw	a1,568(tp) # 238 <offset+0x1d0>
80001350:	02f00293          	li	t0,47
80001354:	00b28463          	beq	t0,a1,8000135c <inst_165>
80001358:	3bd0206f          	j	80003f14 <bad_trap>

8000135c <inst_165>:
8000135c:	33333537          	lui	a0,0x33333
80001360:	33350513          	addi	a0,a0,819 # 33333333 <offset+0x333332cb>
80001364:	00356593          	ori	a1,a0,3
80001368:	22b22e23          	sw	a1,572(tp) # 23c <offset+0x1d4>
8000136c:	333332b7          	lui	t0,0x33333
80001370:	33328293          	addi	t0,t0,819 # 33333333 <offset+0x333332cb>
80001374:	00b28463          	beq	t0,a1,8000137c <inst_166>
80001378:	39d0206f          	j	80003f14 <bad_trap>

8000137c <inst_166>:
8000137c:	33333537          	lui	a0,0x33333
80001380:	33350513          	addi	a0,a0,819 # 33333333 <offset+0x333332cb>
80001384:	55556593          	ori	a1,a0,1365
80001388:	24b22023          	sw	a1,576(tp) # 240 <offset+0x1d8>
8000138c:	333332b7          	lui	t0,0x33333
80001390:	77728293          	addi	t0,t0,1911 # 33333777 <offset+0x3333370f>
80001394:	00b28463          	beq	t0,a1,8000139c <inst_167>
80001398:	37d0206f          	j	80003f14 <bad_trap>

8000139c <inst_167>:
8000139c:	33333537          	lui	a0,0x33333
800013a0:	33350513          	addi	a0,a0,819 # 33333333 <offset+0x333332cb>
800013a4:	aaa56593          	ori	a1,a0,-1366
800013a8:	24b22223          	sw	a1,580(tp) # 244 <offset+0x1dc>
800013ac:	bbb00293          	li	t0,-1093
800013b0:	00b28463          	beq	t0,a1,800013b8 <inst_168>
800013b4:	3610206f          	j	80003f14 <bad_trap>

800013b8 <inst_168>:
800013b8:	33333537          	lui	a0,0x33333
800013bc:	33350513          	addi	a0,a0,819 # 33333333 <offset+0x333332cb>
800013c0:	00556593          	ori	a1,a0,5
800013c4:	24b22423          	sw	a1,584(tp) # 248 <offset+0x1e0>
800013c8:	333332b7          	lui	t0,0x33333
800013cc:	33728293          	addi	t0,t0,823 # 33333337 <offset+0x333332cf>
800013d0:	00b28463          	beq	t0,a1,800013d8 <inst_169>
800013d4:	3410206f          	j	80003f14 <bad_trap>

800013d8 <inst_169>:
800013d8:	33333537          	lui	a0,0x33333
800013dc:	33350513          	addi	a0,a0,819 # 33333333 <offset+0x333332cb>
800013e0:	33356593          	ori	a1,a0,819
800013e4:	24b22623          	sw	a1,588(tp) # 24c <offset+0x1e4>
800013e8:	333332b7          	lui	t0,0x33333
800013ec:	33328293          	addi	t0,t0,819 # 33333333 <offset+0x333332cb>
800013f0:	00b28463          	beq	t0,a1,800013f8 <inst_170>
800013f4:	3210206f          	j	80003f14 <bad_trap>

800013f8 <inst_170>:
800013f8:	33333537          	lui	a0,0x33333
800013fc:	33350513          	addi	a0,a0,819 # 33333333 <offset+0x333332cb>
80001400:	66656593          	ori	a1,a0,1638
80001404:	24b22823          	sw	a1,592(tp) # 250 <offset+0x1e8>
80001408:	333332b7          	lui	t0,0x33333
8000140c:	77728293          	addi	t0,t0,1911 # 33333777 <offset+0x3333370f>
80001410:	00b28463          	beq	t0,a1,80001418 <inst_171>
80001414:	3010206f          	j	80003f14 <bad_trap>

80001418 <inst_171>:
80001418:	33333537          	lui	a0,0x33333
8000141c:	33350513          	addi	a0,a0,819 # 33333333 <offset+0x333332cb>
80001420:	fd356593          	ori	a1,a0,-45
80001424:	24b22a23          	sw	a1,596(tp) # 254 <offset+0x1ec>
80001428:	ff300293          	li	t0,-13
8000142c:	00b28463          	beq	t0,a1,80001434 <inst_172>
80001430:	2e50206f          	j	80003f14 <bad_trap>

80001434 <inst_172>:
80001434:	33333537          	lui	a0,0x33333
80001438:	33350513          	addi	a0,a0,819 # 33333333 <offset+0x333332cb>
8000143c:	02d56593          	ori	a1,a0,45
80001440:	24b22c23          	sw	a1,600(tp) # 258 <offset+0x1f0>
80001444:	333332b7          	lui	t0,0x33333
80001448:	33f28293          	addi	t0,t0,831 # 3333333f <offset+0x333332d7>
8000144c:	00b28463          	beq	t0,a1,80001454 <inst_173>
80001450:	2c50206f          	j	80003f14 <bad_trap>

80001454 <inst_173>:
80001454:	33333537          	lui	a0,0x33333
80001458:	33350513          	addi	a0,a0,819 # 33333333 <offset+0x333332cb>
8000145c:	00256593          	ori	a1,a0,2
80001460:	24b22e23          	sw	a1,604(tp) # 25c <offset+0x1f4>
80001464:	333332b7          	lui	t0,0x33333
80001468:	33328293          	addi	t0,t0,819 # 33333333 <offset+0x333332cb>
8000146c:	00b28463          	beq	t0,a1,80001474 <inst_174>
80001470:	2a50206f          	j	80003f14 <bad_trap>

80001474 <inst_174>:
80001474:	33333537          	lui	a0,0x33333
80001478:	33350513          	addi	a0,a0,819 # 33333333 <offset+0x333332cb>
8000147c:	55456593          	ori	a1,a0,1364
80001480:	26b22023          	sw	a1,608(tp) # 260 <offset+0x1f8>
80001484:	333332b7          	lui	t0,0x33333
80001488:	77728293          	addi	t0,t0,1911 # 33333777 <offset+0x3333370f>
8000148c:	00b28463          	beq	t0,a1,80001494 <inst_175>
80001490:	2850206f          	j	80003f14 <bad_trap>

80001494 <inst_175>:
80001494:	33333537          	lui	a0,0x33333
80001498:	33350513          	addi	a0,a0,819 # 33333333 <offset+0x333332cb>
8000149c:	00056593          	ori	a1,a0,0
800014a0:	26b22223          	sw	a1,612(tp) # 264 <offset+0x1fc>
800014a4:	333332b7          	lui	t0,0x33333
800014a8:	33328293          	addi	t0,t0,819 # 33333333 <offset+0x333332cb>
800014ac:	00b28463          	beq	t0,a1,800014b4 <inst_176>
800014b0:	2650206f          	j	80003f14 <bad_trap>

800014b4 <inst_176>:
800014b4:	33333537          	lui	a0,0x33333
800014b8:	33350513          	addi	a0,a0,819 # 33333333 <offset+0x333332cb>
800014bc:	00456593          	ori	a1,a0,4
800014c0:	26b22423          	sw	a1,616(tp) # 268 <offset+0x200>
800014c4:	333332b7          	lui	t0,0x33333
800014c8:	33728293          	addi	t0,t0,823 # 33333337 <offset+0x333332cf>
800014cc:	00b28463          	beq	t0,a1,800014d4 <inst_177>
800014d0:	2450206f          	j	80003f14 <bad_trap>

800014d4 <inst_177>:
800014d4:	33333537          	lui	a0,0x33333
800014d8:	33350513          	addi	a0,a0,819 # 33333333 <offset+0x333332cb>
800014dc:	33256593          	ori	a1,a0,818
800014e0:	26b22623          	sw	a1,620(tp) # 26c <offset+0x204>
800014e4:	333332b7          	lui	t0,0x33333
800014e8:	33328293          	addi	t0,t0,819 # 33333333 <offset+0x333332cb>
800014ec:	00b28463          	beq	t0,a1,800014f4 <inst_178>
800014f0:	2250206f          	j	80003f14 <bad_trap>

800014f4 <inst_178>:
800014f4:	33333537          	lui	a0,0x33333
800014f8:	33350513          	addi	a0,a0,819 # 33333333 <offset+0x333332cb>
800014fc:	66556593          	ori	a1,a0,1637
80001500:	26b22823          	sw	a1,624(tp) # 270 <offset+0x208>
80001504:	333332b7          	lui	t0,0x33333
80001508:	77728293          	addi	t0,t0,1911 # 33333777 <offset+0x3333370f>
8000150c:	00b28463          	beq	t0,a1,80001514 <inst_179>
80001510:	2050206f          	j	80003f14 <bad_trap>

80001514 <inst_179>:
80001514:	33333537          	lui	a0,0x33333
80001518:	33350513          	addi	a0,a0,819 # 33333333 <offset+0x333332cb>
8000151c:	02c56593          	ori	a1,a0,44
80001520:	26b22a23          	sw	a1,628(tp) # 274 <offset+0x20c>
80001524:	333332b7          	lui	t0,0x33333
80001528:	33f28293          	addi	t0,t0,831 # 3333333f <offset+0x333332d7>
8000152c:	00b28463          	beq	t0,a1,80001534 <inst_180>
80001530:	1e50206f          	j	80003f14 <bad_trap>

80001534 <inst_180>:
80001534:	33333537          	lui	a0,0x33333
80001538:	33350513          	addi	a0,a0,819 # 33333333 <offset+0x333332cb>
8000153c:	55656593          	ori	a1,a0,1366
80001540:	26b22c23          	sw	a1,632(tp) # 278 <offset+0x210>
80001544:	333332b7          	lui	t0,0x33333
80001548:	77728293          	addi	t0,t0,1911 # 33333777 <offset+0x3333370f>
8000154c:	00b28463          	beq	t0,a1,80001554 <inst_181>
80001550:	1c50206f          	j	80003f14 <bad_trap>

80001554 <inst_181>:
80001554:	33333537          	lui	a0,0x33333
80001558:	33350513          	addi	a0,a0,819 # 33333333 <offset+0x333332cb>
8000155c:	aab56593          	ori	a1,a0,-1365
80001560:	26b22e23          	sw	a1,636(tp) # 27c <offset+0x214>
80001564:	bbb00293          	li	t0,-1093
80001568:	00b28463          	beq	t0,a1,80001570 <inst_182>
8000156c:	1a90206f          	j	80003f14 <bad_trap>

80001570 <inst_182>:
80001570:	33333537          	lui	a0,0x33333
80001574:	33350513          	addi	a0,a0,819 # 33333333 <offset+0x333332cb>
80001578:	00656593          	ori	a1,a0,6
8000157c:	28b22023          	sw	a1,640(tp) # 280 <offset+0x218>
80001580:	333332b7          	lui	t0,0x33333
80001584:	33728293          	addi	t0,t0,823 # 33333337 <offset+0x333332cf>
80001588:	00b28463          	beq	t0,a1,80001590 <inst_183>
8000158c:	1890206f          	j	80003f14 <bad_trap>

80001590 <inst_183>:
80001590:	33333537          	lui	a0,0x33333
80001594:	33350513          	addi	a0,a0,819 # 33333333 <offset+0x333332cb>
80001598:	33456593          	ori	a1,a0,820
8000159c:	28b22223          	sw	a1,644(tp) # 284 <offset+0x21c>
800015a0:	333332b7          	lui	t0,0x33333
800015a4:	33728293          	addi	t0,t0,823 # 33333337 <offset+0x333332cf>
800015a8:	00b28463          	beq	t0,a1,800015b0 <inst_184>
800015ac:	1690206f          	j	80003f14 <bad_trap>

800015b0 <inst_184>:
800015b0:	33333537          	lui	a0,0x33333
800015b4:	33350513          	addi	a0,a0,819 # 33333333 <offset+0x333332cb>
800015b8:	66756593          	ori	a1,a0,1639
800015bc:	28b22423          	sw	a1,648(tp) # 288 <offset+0x220>
800015c0:	333332b7          	lui	t0,0x33333
800015c4:	77728293          	addi	t0,t0,1911 # 33333777 <offset+0x3333370f>
800015c8:	00b28463          	beq	t0,a1,800015d0 <inst_185>
800015cc:	1490206f          	j	80003f14 <bad_trap>

800015d0 <inst_185>:
800015d0:	33333537          	lui	a0,0x33333
800015d4:	33350513          	addi	a0,a0,819 # 33333333 <offset+0x333332cb>
800015d8:	fd456593          	ori	a1,a0,-44
800015dc:	28b22623          	sw	a1,652(tp) # 28c <offset+0x224>
800015e0:	ff700293          	li	t0,-9
800015e4:	00b28463          	beq	t0,a1,800015ec <inst_186>
800015e8:	12d0206f          	j	80003f14 <bad_trap>

800015ec <inst_186>:
800015ec:	33333537          	lui	a0,0x33333
800015f0:	33350513          	addi	a0,a0,819 # 33333333 <offset+0x333332cb>
800015f4:	02e56593          	ori	a1,a0,46
800015f8:	28b22823          	sw	a1,656(tp) # 290 <offset+0x228>
800015fc:	333332b7          	lui	t0,0x33333
80001600:	33f28293          	addi	t0,t0,831 # 3333333f <offset+0x333332d7>
80001604:	00b28463          	beq	t0,a1,8000160c <inst_187>
80001608:	10d0206f          	j	80003f14 <bad_trap>

8000160c <inst_187>:
8000160c:	66666537          	lui	a0,0x66666
80001610:	66650513          	addi	a0,a0,1638 # 66666666 <absimm+0x21374137>
80001614:	00356593          	ori	a1,a0,3
80001618:	28b22a23          	sw	a1,660(tp) # 294 <offset+0x22c>
8000161c:	666662b7          	lui	t0,0x66666
80001620:	66728293          	addi	t0,t0,1639 # 66666667 <absimm+0x21374138>
80001624:	00b28463          	beq	t0,a1,8000162c <inst_188>
80001628:	0ed0206f          	j	80003f14 <bad_trap>

8000162c <inst_188>:
8000162c:	66666537          	lui	a0,0x66666
80001630:	66650513          	addi	a0,a0,1638 # 66666666 <absimm+0x21374137>
80001634:	55556593          	ori	a1,a0,1365
80001638:	28b22c23          	sw	a1,664(tp) # 298 <offset+0x230>
8000163c:	666662b7          	lui	t0,0x66666
80001640:	77728293          	addi	t0,t0,1911 # 66666777 <absimm+0x21374248>
80001644:	00b28463          	beq	t0,a1,8000164c <inst_189>
80001648:	0cd0206f          	j	80003f14 <bad_trap>

8000164c <inst_189>:
8000164c:	66666537          	lui	a0,0x66666
80001650:	66650513          	addi	a0,a0,1638 # 66666666 <absimm+0x21374137>
80001654:	aaa56593          	ori	a1,a0,-1366
80001658:	28b22e23          	sw	a1,668(tp) # 29c <offset+0x234>
8000165c:	eee00293          	li	t0,-274
80001660:	00b28463          	beq	t0,a1,80001668 <inst_190>
80001664:	0b10206f          	j	80003f14 <bad_trap>

80001668 <inst_190>:
80001668:	66666537          	lui	a0,0x66666
8000166c:	66650513          	addi	a0,a0,1638 # 66666666 <absimm+0x21374137>
80001670:	00556593          	ori	a1,a0,5
80001674:	2ab22023          	sw	a1,672(tp) # 2a0 <offset+0x238>
80001678:	666662b7          	lui	t0,0x66666
8000167c:	66728293          	addi	t0,t0,1639 # 66666667 <absimm+0x21374138>
80001680:	00b28463          	beq	t0,a1,80001688 <inst_191>
80001684:	0910206f          	j	80003f14 <bad_trap>

80001688 <inst_191>:
80001688:	66666537          	lui	a0,0x66666
8000168c:	66650513          	addi	a0,a0,1638 # 66666666 <absimm+0x21374137>
80001690:	33356593          	ori	a1,a0,819
80001694:	2ab22223          	sw	a1,676(tp) # 2a4 <offset+0x23c>
80001698:	666662b7          	lui	t0,0x66666
8000169c:	77728293          	addi	t0,t0,1911 # 66666777 <absimm+0x21374248>
800016a0:	00b28463          	beq	t0,a1,800016a8 <inst_192>
800016a4:	0710206f          	j	80003f14 <bad_trap>

800016a8 <inst_192>:
800016a8:	66666537          	lui	a0,0x66666
800016ac:	66650513          	addi	a0,a0,1638 # 66666666 <absimm+0x21374137>
800016b0:	66656593          	ori	a1,a0,1638
800016b4:	2ab22423          	sw	a1,680(tp) # 2a8 <offset+0x240>
800016b8:	666662b7          	lui	t0,0x66666
800016bc:	66628293          	addi	t0,t0,1638 # 66666666 <absimm+0x21374137>
800016c0:	00b28463          	beq	t0,a1,800016c8 <inst_193>
800016c4:	0510206f          	j	80003f14 <bad_trap>

800016c8 <inst_193>:
800016c8:	66666537          	lui	a0,0x66666
800016cc:	66650513          	addi	a0,a0,1638 # 66666666 <absimm+0x21374137>
800016d0:	fd356593          	ori	a1,a0,-45
800016d4:	2ab22623          	sw	a1,684(tp) # 2ac <offset+0x244>
800016d8:	ff700293          	li	t0,-9
800016dc:	00b28463          	beq	t0,a1,800016e4 <inst_194>
800016e0:	0350206f          	j	80003f14 <bad_trap>

800016e4 <inst_194>:
800016e4:	66666537          	lui	a0,0x66666
800016e8:	66650513          	addi	a0,a0,1638 # 66666666 <absimm+0x21374137>
800016ec:	02d56593          	ori	a1,a0,45
800016f0:	2ab22823          	sw	a1,688(tp) # 2b0 <offset+0x248>
800016f4:	666662b7          	lui	t0,0x66666
800016f8:	66f28293          	addi	t0,t0,1647 # 6666666f <absimm+0x21374140>
800016fc:	00b28463          	beq	t0,a1,80001704 <inst_195>
80001700:	0150206f          	j	80003f14 <bad_trap>

80001704 <inst_195>:
80001704:	66666537          	lui	a0,0x66666
80001708:	66650513          	addi	a0,a0,1638 # 66666666 <absimm+0x21374137>
8000170c:	00256593          	ori	a1,a0,2
80001710:	2ab22a23          	sw	a1,692(tp) # 2b4 <offset+0x24c>
80001714:	666662b7          	lui	t0,0x66666
80001718:	66628293          	addi	t0,t0,1638 # 66666666 <absimm+0x21374137>
8000171c:	00b28463          	beq	t0,a1,80001724 <inst_196>
80001720:	7f40206f          	j	80003f14 <bad_trap>

80001724 <inst_196>:
80001724:	66666537          	lui	a0,0x66666
80001728:	66650513          	addi	a0,a0,1638 # 66666666 <absimm+0x21374137>
8000172c:	55456593          	ori	a1,a0,1364
80001730:	2ab22c23          	sw	a1,696(tp) # 2b8 <offset+0x250>
80001734:	666662b7          	lui	t0,0x66666
80001738:	77628293          	addi	t0,t0,1910 # 66666776 <absimm+0x21374247>
8000173c:	00b28463          	beq	t0,a1,80001744 <inst_197>
80001740:	7d40206f          	j	80003f14 <bad_trap>

80001744 <inst_197>:
80001744:	66666537          	lui	a0,0x66666
80001748:	66650513          	addi	a0,a0,1638 # 66666666 <absimm+0x21374137>
8000174c:	00056593          	ori	a1,a0,0
80001750:	2ab22e23          	sw	a1,700(tp) # 2bc <offset+0x254>
80001754:	666662b7          	lui	t0,0x66666
80001758:	66628293          	addi	t0,t0,1638 # 66666666 <absimm+0x21374137>
8000175c:	00b28463          	beq	t0,a1,80001764 <inst_198>
80001760:	7b40206f          	j	80003f14 <bad_trap>

80001764 <inst_198>:
80001764:	66666537          	lui	a0,0x66666
80001768:	66650513          	addi	a0,a0,1638 # 66666666 <absimm+0x21374137>
8000176c:	00456593          	ori	a1,a0,4
80001770:	2cb22023          	sw	a1,704(tp) # 2c0 <offset+0x258>
80001774:	666662b7          	lui	t0,0x66666
80001778:	66628293          	addi	t0,t0,1638 # 66666666 <absimm+0x21374137>
8000177c:	00b28463          	beq	t0,a1,80001784 <inst_199>
80001780:	7940206f          	j	80003f14 <bad_trap>

80001784 <inst_199>:
80001784:	66666537          	lui	a0,0x66666
80001788:	66650513          	addi	a0,a0,1638 # 66666666 <absimm+0x21374137>
8000178c:	33256593          	ori	a1,a0,818
80001790:	2cb22223          	sw	a1,708(tp) # 2c4 <offset+0x25c>
80001794:	666662b7          	lui	t0,0x66666
80001798:	77628293          	addi	t0,t0,1910 # 66666776 <absimm+0x21374247>
8000179c:	00b28463          	beq	t0,a1,800017a4 <inst_200>
800017a0:	7740206f          	j	80003f14 <bad_trap>

800017a4 <inst_200>:
800017a4:	66666537          	lui	a0,0x66666
800017a8:	66650513          	addi	a0,a0,1638 # 66666666 <absimm+0x21374137>
800017ac:	66556593          	ori	a1,a0,1637
800017b0:	2cb22423          	sw	a1,712(tp) # 2c8 <offset+0x260>
800017b4:	666662b7          	lui	t0,0x66666
800017b8:	66728293          	addi	t0,t0,1639 # 66666667 <absimm+0x21374138>
800017bc:	00b28463          	beq	t0,a1,800017c4 <inst_201>
800017c0:	7540206f          	j	80003f14 <bad_trap>

800017c4 <inst_201>:
800017c4:	66666537          	lui	a0,0x66666
800017c8:	66650513          	addi	a0,a0,1638 # 66666666 <absimm+0x21374137>
800017cc:	02c56593          	ori	a1,a0,44
800017d0:	2cb22623          	sw	a1,716(tp) # 2cc <offset+0x264>
800017d4:	666662b7          	lui	t0,0x66666
800017d8:	66e28293          	addi	t0,t0,1646 # 6666666e <absimm+0x2137413f>
800017dc:	00b28463          	beq	t0,a1,800017e4 <inst_202>
800017e0:	7340206f          	j	80003f14 <bad_trap>

800017e4 <inst_202>:
800017e4:	66666537          	lui	a0,0x66666
800017e8:	66650513          	addi	a0,a0,1638 # 66666666 <absimm+0x21374137>
800017ec:	55656593          	ori	a1,a0,1366
800017f0:	2cb22823          	sw	a1,720(tp) # 2d0 <offset+0x268>
800017f4:	666662b7          	lui	t0,0x66666
800017f8:	77628293          	addi	t0,t0,1910 # 66666776 <absimm+0x21374247>
800017fc:	00b28463          	beq	t0,a1,80001804 <inst_203>
80001800:	7140206f          	j	80003f14 <bad_trap>

80001804 <inst_203>:
80001804:	66666537          	lui	a0,0x66666
80001808:	66650513          	addi	a0,a0,1638 # 66666666 <absimm+0x21374137>
8000180c:	aab56593          	ori	a1,a0,-1365
80001810:	2cb22a23          	sw	a1,724(tp) # 2d4 <offset+0x26c>
80001814:	eef00293          	li	t0,-273
80001818:	00b28463          	beq	t0,a1,80001820 <inst_204>
8000181c:	6f80206f          	j	80003f14 <bad_trap>

80001820 <inst_204>:
80001820:	66666537          	lui	a0,0x66666
80001824:	66650513          	addi	a0,a0,1638 # 66666666 <absimm+0x21374137>
80001828:	00656593          	ori	a1,a0,6
8000182c:	2cb22c23          	sw	a1,728(tp) # 2d8 <offset+0x270>
80001830:	666662b7          	lui	t0,0x66666
80001834:	66628293          	addi	t0,t0,1638 # 66666666 <absimm+0x21374137>
80001838:	00b28463          	beq	t0,a1,80001840 <inst_205>
8000183c:	6d80206f          	j	80003f14 <bad_trap>

80001840 <inst_205>:
80001840:	66666537          	lui	a0,0x66666
80001844:	66650513          	addi	a0,a0,1638 # 66666666 <absimm+0x21374137>
80001848:	33456593          	ori	a1,a0,820
8000184c:	2cb22e23          	sw	a1,732(tp) # 2dc <offset+0x274>
80001850:	666662b7          	lui	t0,0x66666
80001854:	77628293          	addi	t0,t0,1910 # 66666776 <absimm+0x21374247>
80001858:	00b28463          	beq	t0,a1,80001860 <inst_206>
8000185c:	6b80206f          	j	80003f14 <bad_trap>

80001860 <inst_206>:
80001860:	66666537          	lui	a0,0x66666
80001864:	66650513          	addi	a0,a0,1638 # 66666666 <absimm+0x21374137>
80001868:	66756593          	ori	a1,a0,1639
8000186c:	2eb22023          	sw	a1,736(tp) # 2e0 <offset+0x278>
80001870:	666662b7          	lui	t0,0x66666
80001874:	66728293          	addi	t0,t0,1639 # 66666667 <absimm+0x21374138>
80001878:	00b28463          	beq	t0,a1,80001880 <inst_207>
8000187c:	6980206f          	j	80003f14 <bad_trap>

80001880 <inst_207>:
80001880:	66666537          	lui	a0,0x66666
80001884:	66650513          	addi	a0,a0,1638 # 66666666 <absimm+0x21374137>
80001888:	fd456593          	ori	a1,a0,-44
8000188c:	2eb22223          	sw	a1,740(tp) # 2e4 <offset+0x27c>
80001890:	ff600293          	li	t0,-10
80001894:	00b28463          	beq	t0,a1,8000189c <inst_208>
80001898:	67c0206f          	j	80003f14 <bad_trap>

8000189c <inst_208>:
8000189c:	66666537          	lui	a0,0x66666
800018a0:	66650513          	addi	a0,a0,1638 # 66666666 <absimm+0x21374137>
800018a4:	02e56593          	ori	a1,a0,46
800018a8:	2eb22423          	sw	a1,744(tp) # 2e8 <offset+0x280>
800018ac:	666662b7          	lui	t0,0x66666
800018b0:	66e28293          	addi	t0,t0,1646 # 6666666e <absimm+0x2137413f>
800018b4:	00b28463          	beq	t0,a1,800018bc <inst_209>
800018b8:	65c0206f          	j	80003f14 <bad_trap>

800018bc <inst_209>:
800018bc:	ffff5537          	lui	a0,0xffff5
800018c0:	afc50513          	addi	a0,a0,-1284 # ffff4afc <imm12+0xffff502c>
800018c4:	00356593          	ori	a1,a0,3
800018c8:	2eb22623          	sw	a1,748(tp) # 2ec <offset+0x284>
800018cc:	ffff52b7          	lui	t0,0xffff5
800018d0:	aff28293          	addi	t0,t0,-1281 # ffff4aff <imm12+0xffff502f>
800018d4:	00b28463          	beq	t0,a1,800018dc <inst_210>
800018d8:	63c0206f          	j	80003f14 <bad_trap>

800018dc <inst_210>:
800018dc:	ffff5537          	lui	a0,0xffff5
800018e0:	afc50513          	addi	a0,a0,-1284 # ffff4afc <imm12+0xffff502c>
800018e4:	55556593          	ori	a1,a0,1365
800018e8:	2eb22823          	sw	a1,752(tp) # 2f0 <offset+0x288>
800018ec:	ffff52b7          	lui	t0,0xffff5
800018f0:	ffd28293          	addi	t0,t0,-3 # ffff4ffd <imm12+0xffff552d>
800018f4:	00b28463          	beq	t0,a1,800018fc <inst_211>
800018f8:	61c0206f          	j	80003f14 <bad_trap>

800018fc <inst_211>:
800018fc:	ffff5537          	lui	a0,0xffff5
80001900:	afc50513          	addi	a0,a0,-1284 # ffff4afc <imm12+0xffff502c>
80001904:	00556593          	ori	a1,a0,5
80001908:	2eb22a23          	sw	a1,756(tp) # 2f4 <offset+0x28c>
8000190c:	ffff52b7          	lui	t0,0xffff5
80001910:	afd28293          	addi	t0,t0,-1283 # ffff4afd <imm12+0xffff502d>
80001914:	00b28463          	beq	t0,a1,8000191c <inst_212>
80001918:	5fc0206f          	j	80003f14 <bad_trap>

8000191c <inst_212>:
8000191c:	ffff5537          	lui	a0,0xffff5
80001920:	afc50513          	addi	a0,a0,-1284 # ffff4afc <imm12+0xffff502c>
80001924:	33356593          	ori	a1,a0,819
80001928:	2eb22c23          	sw	a1,760(tp) # 2f8 <offset+0x290>
8000192c:	ffff52b7          	lui	t0,0xffff5
80001930:	bff28293          	addi	t0,t0,-1025 # ffff4bff <imm12+0xffff512f>
80001934:	00b28463          	beq	t0,a1,8000193c <inst_213>
80001938:	5dc0206f          	j	80003f14 <bad_trap>

8000193c <inst_213>:
8000193c:	ffff5537          	lui	a0,0xffff5
80001940:	afc50513          	addi	a0,a0,-1284 # ffff4afc <imm12+0xffff502c>
80001944:	66656593          	ori	a1,a0,1638
80001948:	2eb22e23          	sw	a1,764(tp) # 2fc <offset+0x294>
8000194c:	ffff52b7          	lui	t0,0xffff5
80001950:	efe28293          	addi	t0,t0,-258 # ffff4efe <imm12+0xffff542e>
80001954:	00b28463          	beq	t0,a1,8000195c <inst_214>
80001958:	5bc0206f          	j	80003f14 <bad_trap>

8000195c <inst_214>:
8000195c:	ffff5537          	lui	a0,0xffff5
80001960:	afc50513          	addi	a0,a0,-1284 # ffff4afc <imm12+0xffff502c>
80001964:	fd356593          	ori	a1,a0,-45
80001968:	30b22023          	sw	a1,768(tp) # 300 <offset+0x298>
8000196c:	fff00293          	li	t0,-1
80001970:	00b28463          	beq	t0,a1,80001978 <inst_215>
80001974:	5a00206f          	j	80003f14 <bad_trap>

80001978 <inst_215>:
80001978:	ffff5537          	lui	a0,0xffff5
8000197c:	afc50513          	addi	a0,a0,-1284 # ffff4afc <imm12+0xffff502c>
80001980:	02d56593          	ori	a1,a0,45
80001984:	30b22223          	sw	a1,772(tp) # 304 <offset+0x29c>
80001988:	ffff52b7          	lui	t0,0xffff5
8000198c:	afd28293          	addi	t0,t0,-1283 # ffff4afd <imm12+0xffff502d>
80001990:	00b28463          	beq	t0,a1,80001998 <inst_216>
80001994:	5800206f          	j	80003f14 <bad_trap>

80001998 <inst_216>:
80001998:	ffff5537          	lui	a0,0xffff5
8000199c:	afc50513          	addi	a0,a0,-1284 # ffff4afc <imm12+0xffff502c>
800019a0:	00256593          	ori	a1,a0,2
800019a4:	30b22423          	sw	a1,776(tp) # 308 <offset+0x2a0>
800019a8:	ffff52b7          	lui	t0,0xffff5
800019ac:	afe28293          	addi	t0,t0,-1282 # ffff4afe <imm12+0xffff502e>
800019b0:	00b28463          	beq	t0,a1,800019b8 <inst_217>
800019b4:	5600206f          	j	80003f14 <bad_trap>

800019b8 <inst_217>:
800019b8:	ffff5537          	lui	a0,0xffff5
800019bc:	afc50513          	addi	a0,a0,-1284 # ffff4afc <imm12+0xffff502c>
800019c0:	55456593          	ori	a1,a0,1364
800019c4:	30b22623          	sw	a1,780(tp) # 30c <offset+0x2a4>
800019c8:	ffff52b7          	lui	t0,0xffff5
800019cc:	ffc28293          	addi	t0,t0,-4 # ffff4ffc <imm12+0xffff552c>
800019d0:	00b28463          	beq	t0,a1,800019d8 <inst_218>
800019d4:	5400206f          	j	80003f14 <bad_trap>

800019d8 <inst_218>:
800019d8:	ffff5537          	lui	a0,0xffff5
800019dc:	afc50513          	addi	a0,a0,-1284 # ffff4afc <imm12+0xffff502c>
800019e0:	00056593          	ori	a1,a0,0
800019e4:	30b22823          	sw	a1,784(tp) # 310 <offset+0x2a8>
800019e8:	ffff52b7          	lui	t0,0xffff5
800019ec:	afc28293          	addi	t0,t0,-1284 # ffff4afc <imm12+0xffff502c>
800019f0:	00b28463          	beq	t0,a1,800019f8 <inst_219>
800019f4:	5200206f          	j	80003f14 <bad_trap>

800019f8 <inst_219>:
800019f8:	ffff5537          	lui	a0,0xffff5
800019fc:	afc50513          	addi	a0,a0,-1284 # ffff4afc <imm12+0xffff502c>
80001a00:	00456593          	ori	a1,a0,4
80001a04:	30b22a23          	sw	a1,788(tp) # 314 <offset+0x2ac>
80001a08:	ffff52b7          	lui	t0,0xffff5
80001a0c:	afc28293          	addi	t0,t0,-1284 # ffff4afc <imm12+0xffff502c>
80001a10:	00b28463          	beq	t0,a1,80001a18 <inst_220>
80001a14:	5000206f          	j	80003f14 <bad_trap>

80001a18 <inst_220>:
80001a18:	ffff5537          	lui	a0,0xffff5
80001a1c:	afc50513          	addi	a0,a0,-1284 # ffff4afc <imm12+0xffff502c>
80001a20:	33256593          	ori	a1,a0,818
80001a24:	30b22c23          	sw	a1,792(tp) # 318 <offset+0x2b0>
80001a28:	ffff52b7          	lui	t0,0xffff5
80001a2c:	bfe28293          	addi	t0,t0,-1026 # ffff4bfe <imm12+0xffff512e>
80001a30:	00b28463          	beq	t0,a1,80001a38 <inst_221>
80001a34:	4e00206f          	j	80003f14 <bad_trap>

80001a38 <inst_221>:
80001a38:	ffff5537          	lui	a0,0xffff5
80001a3c:	afc50513          	addi	a0,a0,-1284 # ffff4afc <imm12+0xffff502c>
80001a40:	66556593          	ori	a1,a0,1637
80001a44:	30b22e23          	sw	a1,796(tp) # 31c <offset+0x2b4>
80001a48:	ffff52b7          	lui	t0,0xffff5
80001a4c:	efd28293          	addi	t0,t0,-259 # ffff4efd <imm12+0xffff542d>
80001a50:	00b28463          	beq	t0,a1,80001a58 <inst_222>
80001a54:	4c00206f          	j	80003f14 <bad_trap>

80001a58 <inst_222>:
80001a58:	ffff5537          	lui	a0,0xffff5
80001a5c:	afc50513          	addi	a0,a0,-1284 # ffff4afc <imm12+0xffff502c>
80001a60:	02c56593          	ori	a1,a0,44
80001a64:	32b22023          	sw	a1,800(tp) # 320 <offset+0x2b8>
80001a68:	ffff52b7          	lui	t0,0xffff5
80001a6c:	afc28293          	addi	t0,t0,-1284 # ffff4afc <imm12+0xffff502c>
80001a70:	00b28463          	beq	t0,a1,80001a78 <inst_223>
80001a74:	4a00206f          	j	80003f14 <bad_trap>

80001a78 <inst_223>:
80001a78:	ffff5537          	lui	a0,0xffff5
80001a7c:	afc50513          	addi	a0,a0,-1284 # ffff4afc <imm12+0xffff502c>
80001a80:	55656593          	ori	a1,a0,1366
80001a84:	32b22223          	sw	a1,804(tp) # 324 <offset+0x2bc>
80001a88:	ffff52b7          	lui	t0,0xffff5
80001a8c:	ffe28293          	addi	t0,t0,-2 # ffff4ffe <imm12+0xffff552e>
80001a90:	00b28463          	beq	t0,a1,80001a98 <inst_224>
80001a94:	4800206f          	j	80003f14 <bad_trap>

80001a98 <inst_224>:
80001a98:	ffff5537          	lui	a0,0xffff5
80001a9c:	afc50513          	addi	a0,a0,-1284 # ffff4afc <imm12+0xffff502c>
80001aa0:	aab56593          	ori	a1,a0,-1365
80001aa4:	32b22423          	sw	a1,808(tp) # 328 <offset+0x2c0>
80001aa8:	aff00293          	li	t0,-1281
80001aac:	00b28463          	beq	t0,a1,80001ab4 <inst_225>
80001ab0:	4640206f          	j	80003f14 <bad_trap>

80001ab4 <inst_225>:
80001ab4:	ffff5537          	lui	a0,0xffff5
80001ab8:	afc50513          	addi	a0,a0,-1284 # ffff4afc <imm12+0xffff502c>
80001abc:	00656593          	ori	a1,a0,6
80001ac0:	32b22623          	sw	a1,812(tp) # 32c <offset+0x2c4>
80001ac4:	ffff52b7          	lui	t0,0xffff5
80001ac8:	afe28293          	addi	t0,t0,-1282 # ffff4afe <imm12+0xffff502e>
80001acc:	00b28463          	beq	t0,a1,80001ad4 <inst_226>
80001ad0:	4440206f          	j	80003f14 <bad_trap>

80001ad4 <inst_226>:
80001ad4:	ffff5537          	lui	a0,0xffff5
80001ad8:	afc50513          	addi	a0,a0,-1284 # ffff4afc <imm12+0xffff502c>
80001adc:	33456593          	ori	a1,a0,820
80001ae0:	32b22823          	sw	a1,816(tp) # 330 <offset+0x2c8>
80001ae4:	ffff52b7          	lui	t0,0xffff5
80001ae8:	bfc28293          	addi	t0,t0,-1028 # ffff4bfc <imm12+0xffff512c>
80001aec:	00b28463          	beq	t0,a1,80001af4 <inst_227>
80001af0:	4240206f          	j	80003f14 <bad_trap>

80001af4 <inst_227>:
80001af4:	ffff5537          	lui	a0,0xffff5
80001af8:	afc50513          	addi	a0,a0,-1284 # ffff4afc <imm12+0xffff502c>
80001afc:	66756593          	ori	a1,a0,1639
80001b00:	32b22a23          	sw	a1,820(tp) # 334 <offset+0x2cc>
80001b04:	ffff52b7          	lui	t0,0xffff5
80001b08:	eff28293          	addi	t0,t0,-257 # ffff4eff <imm12+0xffff542f>
80001b0c:	00b28463          	beq	t0,a1,80001b14 <inst_228>
80001b10:	4040206f          	j	80003f14 <bad_trap>

80001b14 <inst_228>:
80001b14:	ffff5537          	lui	a0,0xffff5
80001b18:	afc50513          	addi	a0,a0,-1284 # ffff4afc <imm12+0xffff502c>
80001b1c:	fd456593          	ori	a1,a0,-44
80001b20:	32b22c23          	sw	a1,824(tp) # 338 <offset+0x2d0>
80001b24:	ffc00293          	li	t0,-4
80001b28:	00b28463          	beq	t0,a1,80001b30 <inst_229>
80001b2c:	3e80206f          	j	80003f14 <bad_trap>

80001b30 <inst_229>:
80001b30:	ffff5537          	lui	a0,0xffff5
80001b34:	afc50513          	addi	a0,a0,-1284 # ffff4afc <imm12+0xffff502c>
80001b38:	02e56593          	ori	a1,a0,46
80001b3c:	32b22e23          	sw	a1,828(tp) # 33c <offset+0x2d4>
80001b40:	ffff52b7          	lui	t0,0xffff5
80001b44:	afe28293          	addi	t0,t0,-1282 # ffff4afe <imm12+0xffff502e>
80001b48:	00b28463          	beq	t0,a1,80001b50 <inst_230>
80001b4c:	3c80206f          	j	80003f14 <bad_trap>

80001b50 <inst_230>:
80001b50:	0000b537          	lui	a0,0xb
80001b54:	50450513          	addi	a0,a0,1284 # b504 <offset+0xb49c>
80001b58:	00356593          	ori	a1,a0,3
80001b5c:	34b22023          	sw	a1,832(tp) # 340 <offset+0x2d8>
80001b60:	0000b2b7          	lui	t0,0xb
80001b64:	50728293          	addi	t0,t0,1287 # b507 <offset+0xb49f>
80001b68:	00b28463          	beq	t0,a1,80001b70 <inst_231>
80001b6c:	3a80206f          	j	80003f14 <bad_trap>

80001b70 <inst_231>:
80001b70:	0000b537          	lui	a0,0xb
80001b74:	50450513          	addi	a0,a0,1284 # b504 <offset+0xb49c>
80001b78:	55556593          	ori	a1,a0,1365
80001b7c:	34b22223          	sw	a1,836(tp) # 344 <offset+0x2dc>
80001b80:	0000b2b7          	lui	t0,0xb
80001b84:	55528293          	addi	t0,t0,1365 # b555 <offset+0xb4ed>
80001b88:	00b28463          	beq	t0,a1,80001b90 <inst_232>
80001b8c:	3880206f          	j	80003f14 <bad_trap>

80001b90 <inst_232>:
80001b90:	0000b537          	lui	a0,0xb
80001b94:	50450513          	addi	a0,a0,1284 # b504 <offset+0xb49c>
80001b98:	aaa56593          	ori	a1,a0,-1366
80001b9c:	34b22423          	sw	a1,840(tp) # 348 <offset+0x2e0>
80001ba0:	fae00293          	li	t0,-82
80001ba4:	00b28463          	beq	t0,a1,80001bac <inst_233>
80001ba8:	36c0206f          	j	80003f14 <bad_trap>

80001bac <inst_233>:
80001bac:	0000b537          	lui	a0,0xb
80001bb0:	50450513          	addi	a0,a0,1284 # b504 <offset+0xb49c>
80001bb4:	00556593          	ori	a1,a0,5
80001bb8:	34b22623          	sw	a1,844(tp) # 34c <offset+0x2e4>
80001bbc:	0000b2b7          	lui	t0,0xb
80001bc0:	50528293          	addi	t0,t0,1285 # b505 <offset+0xb49d>
80001bc4:	00b28463          	beq	t0,a1,80001bcc <inst_234>
80001bc8:	34c0206f          	j	80003f14 <bad_trap>

80001bcc <inst_234>:
80001bcc:	0000b537          	lui	a0,0xb
80001bd0:	50450513          	addi	a0,a0,1284 # b504 <offset+0xb49c>
80001bd4:	33356593          	ori	a1,a0,819
80001bd8:	34b22823          	sw	a1,848(tp) # 350 <offset+0x2e8>
80001bdc:	0000b2b7          	lui	t0,0xb
80001be0:	73728293          	addi	t0,t0,1847 # b737 <offset+0xb6cf>
80001be4:	00b28463          	beq	t0,a1,80001bec <inst_235>
80001be8:	32c0206f          	j	80003f14 <bad_trap>

80001bec <inst_235>:
80001bec:	0000b537          	lui	a0,0xb
80001bf0:	50450513          	addi	a0,a0,1284 # b504 <offset+0xb49c>
80001bf4:	66656593          	ori	a1,a0,1638
80001bf8:	34b22a23          	sw	a1,852(tp) # 354 <offset+0x2ec>
80001bfc:	0000b2b7          	lui	t0,0xb
80001c00:	76628293          	addi	t0,t0,1894 # b766 <offset+0xb6fe>
80001c04:	00b28463          	beq	t0,a1,80001c0c <inst_236>
80001c08:	30c0206f          	j	80003f14 <bad_trap>

80001c0c <inst_236>:
80001c0c:	0000b537          	lui	a0,0xb
80001c10:	50450513          	addi	a0,a0,1284 # b504 <offset+0xb49c>
80001c14:	fd356593          	ori	a1,a0,-45
80001c18:	34b22c23          	sw	a1,856(tp) # 358 <offset+0x2f0>
80001c1c:	fd700293          	li	t0,-41
80001c20:	00b28463          	beq	t0,a1,80001c28 <inst_237>
80001c24:	2f00206f          	j	80003f14 <bad_trap>

80001c28 <inst_237>:
80001c28:	0000b537          	lui	a0,0xb
80001c2c:	50450513          	addi	a0,a0,1284 # b504 <offset+0xb49c>
80001c30:	02d56593          	ori	a1,a0,45
80001c34:	34b22e23          	sw	a1,860(tp) # 35c <offset+0x2f4>
80001c38:	0000b2b7          	lui	t0,0xb
80001c3c:	52d28293          	addi	t0,t0,1325 # b52d <offset+0xb4c5>
80001c40:	00b28463          	beq	t0,a1,80001c48 <inst_238>
80001c44:	2d00206f          	j	80003f14 <bad_trap>

80001c48 <inst_238>:
80001c48:	0000b537          	lui	a0,0xb
80001c4c:	50450513          	addi	a0,a0,1284 # b504 <offset+0xb49c>
80001c50:	00256593          	ori	a1,a0,2
80001c54:	36b22023          	sw	a1,864(tp) # 360 <offset+0x2f8>
80001c58:	0000b2b7          	lui	t0,0xb
80001c5c:	50628293          	addi	t0,t0,1286 # b506 <offset+0xb49e>
80001c60:	00b28463          	beq	t0,a1,80001c68 <inst_239>
80001c64:	2b00206f          	j	80003f14 <bad_trap>

80001c68 <inst_239>:
80001c68:	0000b537          	lui	a0,0xb
80001c6c:	50450513          	addi	a0,a0,1284 # b504 <offset+0xb49c>
80001c70:	55456593          	ori	a1,a0,1364
80001c74:	36b22223          	sw	a1,868(tp) # 364 <offset+0x2fc>
80001c78:	0000b2b7          	lui	t0,0xb
80001c7c:	55428293          	addi	t0,t0,1364 # b554 <offset+0xb4ec>
80001c80:	00b28463          	beq	t0,a1,80001c88 <inst_240>
80001c84:	2900206f          	j	80003f14 <bad_trap>

80001c88 <inst_240>:
80001c88:	0000b537          	lui	a0,0xb
80001c8c:	50450513          	addi	a0,a0,1284 # b504 <offset+0xb49c>
80001c90:	00056593          	ori	a1,a0,0
80001c94:	36b22423          	sw	a1,872(tp) # 368 <offset+0x300>
80001c98:	0000b2b7          	lui	t0,0xb
80001c9c:	50428293          	addi	t0,t0,1284 # b504 <offset+0xb49c>
80001ca0:	00b28463          	beq	t0,a1,80001ca8 <inst_241>
80001ca4:	2700206f          	j	80003f14 <bad_trap>

80001ca8 <inst_241>:
80001ca8:	0000b537          	lui	a0,0xb
80001cac:	50450513          	addi	a0,a0,1284 # b504 <offset+0xb49c>
80001cb0:	00456593          	ori	a1,a0,4
80001cb4:	36b22623          	sw	a1,876(tp) # 36c <offset+0x304>
80001cb8:	0000b2b7          	lui	t0,0xb
80001cbc:	50428293          	addi	t0,t0,1284 # b504 <offset+0xb49c>
80001cc0:	00b28463          	beq	t0,a1,80001cc8 <inst_242>
80001cc4:	2500206f          	j	80003f14 <bad_trap>

80001cc8 <inst_242>:
80001cc8:	0000b537          	lui	a0,0xb
80001ccc:	50450513          	addi	a0,a0,1284 # b504 <offset+0xb49c>
80001cd0:	33256593          	ori	a1,a0,818
80001cd4:	36b22823          	sw	a1,880(tp) # 370 <offset+0x308>
80001cd8:	0000b2b7          	lui	t0,0xb
80001cdc:	73628293          	addi	t0,t0,1846 # b736 <offset+0xb6ce>
80001ce0:	00b28463          	beq	t0,a1,80001ce8 <inst_243>
80001ce4:	2300206f          	j	80003f14 <bad_trap>

80001ce8 <inst_243>:
80001ce8:	0000b537          	lui	a0,0xb
80001cec:	50450513          	addi	a0,a0,1284 # b504 <offset+0xb49c>
80001cf0:	66556593          	ori	a1,a0,1637
80001cf4:	36b22a23          	sw	a1,884(tp) # 374 <offset+0x30c>
80001cf8:	0000b2b7          	lui	t0,0xb
80001cfc:	76528293          	addi	t0,t0,1893 # b765 <offset+0xb6fd>
80001d00:	00b28463          	beq	t0,a1,80001d08 <inst_244>
80001d04:	2100206f          	j	80003f14 <bad_trap>

80001d08 <inst_244>:
80001d08:	0000b537          	lui	a0,0xb
80001d0c:	50450513          	addi	a0,a0,1284 # b504 <offset+0xb49c>
80001d10:	02c56593          	ori	a1,a0,44
80001d14:	36b22c23          	sw	a1,888(tp) # 378 <offset+0x310>
80001d18:	0000b2b7          	lui	t0,0xb
80001d1c:	52c28293          	addi	t0,t0,1324 # b52c <offset+0xb4c4>
80001d20:	00b28463          	beq	t0,a1,80001d28 <inst_245>
80001d24:	1f00206f          	j	80003f14 <bad_trap>

80001d28 <inst_245>:
80001d28:	0000b537          	lui	a0,0xb
80001d2c:	50450513          	addi	a0,a0,1284 # b504 <offset+0xb49c>
80001d30:	55656593          	ori	a1,a0,1366
80001d34:	36b22e23          	sw	a1,892(tp) # 37c <offset+0x314>
80001d38:	0000b2b7          	lui	t0,0xb
80001d3c:	55628293          	addi	t0,t0,1366 # b556 <offset+0xb4ee>
80001d40:	00b28463          	beq	t0,a1,80001d48 <inst_246>
80001d44:	1d00206f          	j	80003f14 <bad_trap>

80001d48 <inst_246>:
80001d48:	0000b537          	lui	a0,0xb
80001d4c:	50450513          	addi	a0,a0,1284 # b504 <offset+0xb49c>
80001d50:	aab56593          	ori	a1,a0,-1365
80001d54:	38b22023          	sw	a1,896(tp) # 380 <offset+0x318>
80001d58:	faf00293          	li	t0,-81
80001d5c:	00b28463          	beq	t0,a1,80001d64 <inst_247>
80001d60:	1b40206f          	j	80003f14 <bad_trap>

80001d64 <inst_247>:
80001d64:	0000b537          	lui	a0,0xb
80001d68:	50450513          	addi	a0,a0,1284 # b504 <offset+0xb49c>
80001d6c:	00656593          	ori	a1,a0,6
80001d70:	38b22223          	sw	a1,900(tp) # 384 <offset+0x31c>
80001d74:	0000b2b7          	lui	t0,0xb
80001d78:	50628293          	addi	t0,t0,1286 # b506 <offset+0xb49e>
80001d7c:	00b28463          	beq	t0,a1,80001d84 <inst_248>
80001d80:	1940206f          	j	80003f14 <bad_trap>

80001d84 <inst_248>:
80001d84:	0000b537          	lui	a0,0xb
80001d88:	50450513          	addi	a0,a0,1284 # b504 <offset+0xb49c>
80001d8c:	33456593          	ori	a1,a0,820
80001d90:	38b22423          	sw	a1,904(tp) # 388 <offset+0x320>
80001d94:	0000b2b7          	lui	t0,0xb
80001d98:	73428293          	addi	t0,t0,1844 # b734 <offset+0xb6cc>
80001d9c:	00b28463          	beq	t0,a1,80001da4 <inst_249>
80001da0:	1740206f          	j	80003f14 <bad_trap>

80001da4 <inst_249>:
80001da4:	0000b537          	lui	a0,0xb
80001da8:	50450513          	addi	a0,a0,1284 # b504 <offset+0xb49c>
80001dac:	66756593          	ori	a1,a0,1639
80001db0:	38b22623          	sw	a1,908(tp) # 38c <offset+0x324>
80001db4:	0000b2b7          	lui	t0,0xb
80001db8:	76728293          	addi	t0,t0,1895 # b767 <offset+0xb6ff>
80001dbc:	00b28463          	beq	t0,a1,80001dc4 <inst_250>
80001dc0:	1540206f          	j	80003f14 <bad_trap>

80001dc4 <inst_250>:
80001dc4:	0000b537          	lui	a0,0xb
80001dc8:	50450513          	addi	a0,a0,1284 # b504 <offset+0xb49c>
80001dcc:	fd456593          	ori	a1,a0,-44
80001dd0:	38b22823          	sw	a1,912(tp) # 390 <offset+0x328>
80001dd4:	fd400293          	li	t0,-44
80001dd8:	00b28463          	beq	t0,a1,80001de0 <inst_251>
80001ddc:	1380206f          	j	80003f14 <bad_trap>

80001de0 <inst_251>:
80001de0:	0000b537          	lui	a0,0xb
80001de4:	50450513          	addi	a0,a0,1284 # b504 <offset+0xb49c>
80001de8:	02e56593          	ori	a1,a0,46
80001dec:	38b22a23          	sw	a1,916(tp) # 394 <offset+0x32c>
80001df0:	0000b2b7          	lui	t0,0xb
80001df4:	52e28293          	addi	t0,t0,1326 # b52e <offset+0xb4c6>
80001df8:	00b28463          	beq	t0,a1,80001e00 <inst_252>
80001dfc:	1180206f          	j	80003f14 <bad_trap>

80001e00 <inst_252>:
80001e00:	00200513          	li	a0,2
80001e04:	00356593          	ori	a1,a0,3
80001e08:	38b22c23          	sw	a1,920(tp) # 398 <offset+0x330>
80001e0c:	00300293          	li	t0,3
80001e10:	00b28463          	beq	t0,a1,80001e18 <inst_253>
80001e14:	1000206f          	j	80003f14 <bad_trap>

80001e18 <inst_253>:
80001e18:	00200513          	li	a0,2
80001e1c:	55556593          	ori	a1,a0,1365
80001e20:	38b22e23          	sw	a1,924(tp) # 39c <offset+0x334>
80001e24:	55700293          	li	t0,1367
80001e28:	00b28463          	beq	t0,a1,80001e30 <inst_254>
80001e2c:	0e80206f          	j	80003f14 <bad_trap>

80001e30 <inst_254>:
80001e30:	00200513          	li	a0,2
80001e34:	aaa56593          	ori	a1,a0,-1366
80001e38:	3ab22023          	sw	a1,928(tp) # 3a0 <offset+0x338>
80001e3c:	aaa00293          	li	t0,-1366
80001e40:	00b28463          	beq	t0,a1,80001e48 <inst_255>
80001e44:	0d00206f          	j	80003f14 <bad_trap>

80001e48 <inst_255>:
80001e48:	00200513          	li	a0,2
80001e4c:	00556593          	ori	a1,a0,5
80001e50:	3ab22223          	sw	a1,932(tp) # 3a4 <offset+0x33c>
80001e54:	00700293          	li	t0,7
80001e58:	00b28463          	beq	t0,a1,80001e60 <inst_256>
80001e5c:	0b80206f          	j	80003f14 <bad_trap>

80001e60 <inst_256>:
80001e60:	00200513          	li	a0,2
80001e64:	33356593          	ori	a1,a0,819
80001e68:	3ab22423          	sw	a1,936(tp) # 3a8 <offset+0x340>
80001e6c:	33300293          	li	t0,819
80001e70:	00b28463          	beq	t0,a1,80001e78 <inst_257>
80001e74:	0a00206f          	j	80003f14 <bad_trap>

80001e78 <inst_257>:
80001e78:	00200513          	li	a0,2
80001e7c:	66656593          	ori	a1,a0,1638
80001e80:	3ab22623          	sw	a1,940(tp) # 3ac <offset+0x344>
80001e84:	66600293          	li	t0,1638
80001e88:	00b28463          	beq	t0,a1,80001e90 <inst_258>
80001e8c:	0880206f          	j	80003f14 <bad_trap>

80001e90 <inst_258>:
80001e90:	00200513          	li	a0,2
80001e94:	fd356593          	ori	a1,a0,-45
80001e98:	3ab22823          	sw	a1,944(tp) # 3b0 <offset+0x348>
80001e9c:	fd300293          	li	t0,-45
80001ea0:	00b28463          	beq	t0,a1,80001ea8 <inst_259>
80001ea4:	0700206f          	j	80003f14 <bad_trap>

80001ea8 <inst_259>:
80001ea8:	00200513          	li	a0,2
80001eac:	02d56593          	ori	a1,a0,45
80001eb0:	3ab22a23          	sw	a1,948(tp) # 3b4 <offset+0x34c>
80001eb4:	02f00293          	li	t0,47
80001eb8:	00b28463          	beq	t0,a1,80001ec0 <inst_260>
80001ebc:	0580206f          	j	80003f14 <bad_trap>

80001ec0 <inst_260>:
80001ec0:	00200513          	li	a0,2
80001ec4:	00256593          	ori	a1,a0,2
80001ec8:	3ab22c23          	sw	a1,952(tp) # 3b8 <offset+0x350>
80001ecc:	00200293          	li	t0,2
80001ed0:	00b28463          	beq	t0,a1,80001ed8 <inst_261>
80001ed4:	0400206f          	j	80003f14 <bad_trap>

80001ed8 <inst_261>:
80001ed8:	00200513          	li	a0,2
80001edc:	55456593          	ori	a1,a0,1364
80001ee0:	3ab22e23          	sw	a1,956(tp) # 3bc <offset+0x354>
80001ee4:	55600293          	li	t0,1366
80001ee8:	00b28463          	beq	t0,a1,80001ef0 <inst_262>
80001eec:	0280206f          	j	80003f14 <bad_trap>

80001ef0 <inst_262>:
80001ef0:	00200513          	li	a0,2
80001ef4:	00056593          	ori	a1,a0,0
80001ef8:	3cb22023          	sw	a1,960(tp) # 3c0 <offset+0x358>
80001efc:	00200293          	li	t0,2
80001f00:	00b28463          	beq	t0,a1,80001f08 <inst_263>
80001f04:	0100206f          	j	80003f14 <bad_trap>

80001f08 <inst_263>:
80001f08:	00200513          	li	a0,2
80001f0c:	00456593          	ori	a1,a0,4
80001f10:	3cb22223          	sw	a1,964(tp) # 3c4 <offset+0x35c>
80001f14:	00600293          	li	t0,6
80001f18:	00b28463          	beq	t0,a1,80001f20 <inst_264>
80001f1c:	7f90106f          	j	80003f14 <bad_trap>

80001f20 <inst_264>:
80001f20:	00200513          	li	a0,2
80001f24:	33256593          	ori	a1,a0,818
80001f28:	3cb22423          	sw	a1,968(tp) # 3c8 <offset+0x360>
80001f2c:	33200293          	li	t0,818
80001f30:	00b28463          	beq	t0,a1,80001f38 <inst_265>
80001f34:	7e10106f          	j	80003f14 <bad_trap>

80001f38 <inst_265>:
80001f38:	00200513          	li	a0,2
80001f3c:	66556593          	ori	a1,a0,1637
80001f40:	3cb22623          	sw	a1,972(tp) # 3cc <offset+0x364>
80001f44:	66700293          	li	t0,1639
80001f48:	00b28463          	beq	t0,a1,80001f50 <inst_266>
80001f4c:	7c90106f          	j	80003f14 <bad_trap>

80001f50 <inst_266>:
80001f50:	00200513          	li	a0,2
80001f54:	02c56593          	ori	a1,a0,44
80001f58:	3cb22823          	sw	a1,976(tp) # 3d0 <offset+0x368>
80001f5c:	02e00293          	li	t0,46
80001f60:	00b28463          	beq	t0,a1,80001f68 <inst_267>
80001f64:	7b10106f          	j	80003f14 <bad_trap>

80001f68 <inst_267>:
80001f68:	00200513          	li	a0,2
80001f6c:	55656593          	ori	a1,a0,1366
80001f70:	3cb22a23          	sw	a1,980(tp) # 3d4 <offset+0x36c>
80001f74:	55600293          	li	t0,1366
80001f78:	00b28463          	beq	t0,a1,80001f80 <inst_268>
80001f7c:	7990106f          	j	80003f14 <bad_trap>

80001f80 <inst_268>:
80001f80:	00200513          	li	a0,2
80001f84:	aab56593          	ori	a1,a0,-1365
80001f88:	3cb22c23          	sw	a1,984(tp) # 3d8 <offset+0x370>
80001f8c:	aab00293          	li	t0,-1365
80001f90:	00b28463          	beq	t0,a1,80001f98 <inst_269>
80001f94:	7810106f          	j	80003f14 <bad_trap>

80001f98 <inst_269>:
80001f98:	00200513          	li	a0,2
80001f9c:	00656593          	ori	a1,a0,6
80001fa0:	3cb22e23          	sw	a1,988(tp) # 3dc <offset+0x374>
80001fa4:	00600293          	li	t0,6
80001fa8:	00b28463          	beq	t0,a1,80001fb0 <inst_270>
80001fac:	7690106f          	j	80003f14 <bad_trap>

80001fb0 <inst_270>:
80001fb0:	00200513          	li	a0,2
80001fb4:	33456593          	ori	a1,a0,820
80001fb8:	3eb22023          	sw	a1,992(tp) # 3e0 <offset+0x378>
80001fbc:	33600293          	li	t0,822
80001fc0:	00b28463          	beq	t0,a1,80001fc8 <inst_271>
80001fc4:	7510106f          	j	80003f14 <bad_trap>

80001fc8 <inst_271>:
80001fc8:	00200513          	li	a0,2
80001fcc:	66756593          	ori	a1,a0,1639
80001fd0:	3eb22223          	sw	a1,996(tp) # 3e4 <offset+0x37c>
80001fd4:	66700293          	li	t0,1639
80001fd8:	00b28463          	beq	t0,a1,80001fe0 <inst_272>
80001fdc:	7390106f          	j	80003f14 <bad_trap>

80001fe0 <inst_272>:
80001fe0:	00200513          	li	a0,2
80001fe4:	fd456593          	ori	a1,a0,-44
80001fe8:	3eb22423          	sw	a1,1000(tp) # 3e8 <offset+0x380>
80001fec:	fd600293          	li	t0,-42
80001ff0:	00b28463          	beq	t0,a1,80001ff8 <inst_273>
80001ff4:	7210106f          	j	80003f14 <bad_trap>

80001ff8 <inst_273>:
80001ff8:	00200513          	li	a0,2
80001ffc:	02e56593          	ori	a1,a0,46
80002000:	3eb22623          	sw	a1,1004(tp) # 3ec <offset+0x384>
80002004:	02e00293          	li	t0,46
80002008:	00b28463          	beq	t0,a1,80002010 <inst_274>
8000200c:	7090106f          	j	80003f14 <bad_trap>

80002010 <inst_274>:
80002010:	55555537          	lui	a0,0x55555
80002014:	55450513          	addi	a0,a0,1364 # 55555554 <absimm+0x10263025>
80002018:	00356593          	ori	a1,a0,3
8000201c:	3eb22823          	sw	a1,1008(tp) # 3f0 <offset+0x388>
80002020:	555552b7          	lui	t0,0x55555
80002024:	55728293          	addi	t0,t0,1367 # 55555557 <absimm+0x10263028>
80002028:	00b28463          	beq	t0,a1,80002030 <inst_275>
8000202c:	6e90106f          	j	80003f14 <bad_trap>

80002030 <inst_275>:
80002030:	55555537          	lui	a0,0x55555
80002034:	55450513          	addi	a0,a0,1364 # 55555554 <absimm+0x10263025>
80002038:	55556593          	ori	a1,a0,1365
8000203c:	3eb22a23          	sw	a1,1012(tp) # 3f4 <offset+0x38c>
80002040:	555552b7          	lui	t0,0x55555
80002044:	55528293          	addi	t0,t0,1365 # 55555555 <absimm+0x10263026>
80002048:	00b28463          	beq	t0,a1,80002050 <inst_276>
8000204c:	6c90106f          	j	80003f14 <bad_trap>

80002050 <inst_276>:
80002050:	55555537          	lui	a0,0x55555
80002054:	55450513          	addi	a0,a0,1364 # 55555554 <absimm+0x10263025>
80002058:	aaa56593          	ori	a1,a0,-1366
8000205c:	3eb22c23          	sw	a1,1016(tp) # 3f8 <offset+0x390>
80002060:	ffe00293          	li	t0,-2
80002064:	00b28463          	beq	t0,a1,8000206c <inst_277>
80002068:	6ad0106f          	j	80003f14 <bad_trap>

8000206c <inst_277>:
8000206c:	55555537          	lui	a0,0x55555
80002070:	55450513          	addi	a0,a0,1364 # 55555554 <absimm+0x10263025>
80002074:	00556593          	ori	a1,a0,5
80002078:	3eb22e23          	sw	a1,1020(tp) # 3fc <offset+0x394>
8000207c:	555552b7          	lui	t0,0x55555
80002080:	55528293          	addi	t0,t0,1365 # 55555555 <absimm+0x10263026>
80002084:	00b28463          	beq	t0,a1,8000208c <inst_278>
80002088:	68d0106f          	j	80003f14 <bad_trap>

8000208c <inst_278>:
8000208c:	55555537          	lui	a0,0x55555
80002090:	55450513          	addi	a0,a0,1364 # 55555554 <absimm+0x10263025>
80002094:	33356593          	ori	a1,a0,819
80002098:	40b22023          	sw	a1,1024(tp) # 400 <offset+0x398>
8000209c:	555552b7          	lui	t0,0x55555
800020a0:	77728293          	addi	t0,t0,1911 # 55555777 <absimm+0x10263248>
800020a4:	00b28463          	beq	t0,a1,800020ac <inst_279>
800020a8:	66d0106f          	j	80003f14 <bad_trap>

800020ac <inst_279>:
800020ac:	55555537          	lui	a0,0x55555
800020b0:	55450513          	addi	a0,a0,1364 # 55555554 <absimm+0x10263025>
800020b4:	66656593          	ori	a1,a0,1638
800020b8:	40b22223          	sw	a1,1028(tp) # 404 <offset+0x39c>
800020bc:	555552b7          	lui	t0,0x55555
800020c0:	77628293          	addi	t0,t0,1910 # 55555776 <absimm+0x10263247>
800020c4:	00b28463          	beq	t0,a1,800020cc <inst_280>
800020c8:	64d0106f          	j	80003f14 <bad_trap>

800020cc <inst_280>:
800020cc:	55555537          	lui	a0,0x55555
800020d0:	55450513          	addi	a0,a0,1364 # 55555554 <absimm+0x10263025>
800020d4:	fd356593          	ori	a1,a0,-45
800020d8:	40b22423          	sw	a1,1032(tp) # 408 <offset+0x3a0>
800020dc:	fd700293          	li	t0,-41
800020e0:	00b28463          	beq	t0,a1,800020e8 <inst_281>
800020e4:	6310106f          	j	80003f14 <bad_trap>

800020e8 <inst_281>:
800020e8:	55555537          	lui	a0,0x55555
800020ec:	55450513          	addi	a0,a0,1364 # 55555554 <absimm+0x10263025>
800020f0:	02d56593          	ori	a1,a0,45
800020f4:	40b22623          	sw	a1,1036(tp) # 40c <offset+0x3a4>
800020f8:	555552b7          	lui	t0,0x55555
800020fc:	57d28293          	addi	t0,t0,1405 # 5555557d <absimm+0x1026304e>
80002100:	00b28463          	beq	t0,a1,80002108 <inst_282>
80002104:	6110106f          	j	80003f14 <bad_trap>

80002108 <inst_282>:
80002108:	55555537          	lui	a0,0x55555
8000210c:	55450513          	addi	a0,a0,1364 # 55555554 <absimm+0x10263025>
80002110:	00256593          	ori	a1,a0,2
80002114:	40b22823          	sw	a1,1040(tp) # 410 <offset+0x3a8>
80002118:	555552b7          	lui	t0,0x55555
8000211c:	55628293          	addi	t0,t0,1366 # 55555556 <absimm+0x10263027>
80002120:	00b28463          	beq	t0,a1,80002128 <inst_283>
80002124:	5f10106f          	j	80003f14 <bad_trap>

80002128 <inst_283>:
80002128:	55555537          	lui	a0,0x55555
8000212c:	55450513          	addi	a0,a0,1364 # 55555554 <absimm+0x10263025>
80002130:	55456593          	ori	a1,a0,1364
80002134:	40b22a23          	sw	a1,1044(tp) # 414 <offset+0x3ac>
80002138:	555552b7          	lui	t0,0x55555
8000213c:	55428293          	addi	t0,t0,1364 # 55555554 <absimm+0x10263025>
80002140:	00b28463          	beq	t0,a1,80002148 <inst_284>
80002144:	5d10106f          	j	80003f14 <bad_trap>

80002148 <inst_284>:
80002148:	55555537          	lui	a0,0x55555
8000214c:	55450513          	addi	a0,a0,1364 # 55555554 <absimm+0x10263025>
80002150:	00056593          	ori	a1,a0,0
80002154:	40b22c23          	sw	a1,1048(tp) # 418 <offset+0x3b0>
80002158:	555552b7          	lui	t0,0x55555
8000215c:	55428293          	addi	t0,t0,1364 # 55555554 <absimm+0x10263025>
80002160:	00b28463          	beq	t0,a1,80002168 <inst_285>
80002164:	5b10106f          	j	80003f14 <bad_trap>

80002168 <inst_285>:
80002168:	55555537          	lui	a0,0x55555
8000216c:	55450513          	addi	a0,a0,1364 # 55555554 <absimm+0x10263025>
80002170:	00456593          	ori	a1,a0,4
80002174:	40b22e23          	sw	a1,1052(tp) # 41c <offset+0x3b4>
80002178:	555552b7          	lui	t0,0x55555
8000217c:	55428293          	addi	t0,t0,1364 # 55555554 <absimm+0x10263025>
80002180:	00b28463          	beq	t0,a1,80002188 <inst_286>
80002184:	5910106f          	j	80003f14 <bad_trap>

80002188 <inst_286>:
80002188:	55555537          	lui	a0,0x55555
8000218c:	55450513          	addi	a0,a0,1364 # 55555554 <absimm+0x10263025>
80002190:	33256593          	ori	a1,a0,818
80002194:	42b22023          	sw	a1,1056(tp) # 420 <offset+0x3b8>
80002198:	555552b7          	lui	t0,0x55555
8000219c:	77628293          	addi	t0,t0,1910 # 55555776 <absimm+0x10263247>
800021a0:	00b28463          	beq	t0,a1,800021a8 <inst_287>
800021a4:	5710106f          	j	80003f14 <bad_trap>

800021a8 <inst_287>:
800021a8:	55555537          	lui	a0,0x55555
800021ac:	55450513          	addi	a0,a0,1364 # 55555554 <absimm+0x10263025>
800021b0:	66556593          	ori	a1,a0,1637
800021b4:	42b22223          	sw	a1,1060(tp) # 424 <offset+0x3bc>
800021b8:	555552b7          	lui	t0,0x55555
800021bc:	77528293          	addi	t0,t0,1909 # 55555775 <absimm+0x10263246>
800021c0:	00b28463          	beq	t0,a1,800021c8 <inst_288>
800021c4:	5510106f          	j	80003f14 <bad_trap>

800021c8 <inst_288>:
800021c8:	55555537          	lui	a0,0x55555
800021cc:	55450513          	addi	a0,a0,1364 # 55555554 <absimm+0x10263025>
800021d0:	02c56593          	ori	a1,a0,44
800021d4:	42b22423          	sw	a1,1064(tp) # 428 <offset+0x3c0>
800021d8:	555552b7          	lui	t0,0x55555
800021dc:	57c28293          	addi	t0,t0,1404 # 5555557c <absimm+0x1026304d>
800021e0:	00b28463          	beq	t0,a1,800021e8 <inst_289>
800021e4:	5310106f          	j	80003f14 <bad_trap>

800021e8 <inst_289>:
800021e8:	55555537          	lui	a0,0x55555
800021ec:	55450513          	addi	a0,a0,1364 # 55555554 <absimm+0x10263025>
800021f0:	55656593          	ori	a1,a0,1366
800021f4:	42b22623          	sw	a1,1068(tp) # 42c <offset+0x3c4>
800021f8:	555552b7          	lui	t0,0x55555
800021fc:	55628293          	addi	t0,t0,1366 # 55555556 <absimm+0x10263027>
80002200:	00b28463          	beq	t0,a1,80002208 <inst_290>
80002204:	5110106f          	j	80003f14 <bad_trap>

80002208 <inst_290>:
80002208:	55555537          	lui	a0,0x55555
8000220c:	55450513          	addi	a0,a0,1364 # 55555554 <absimm+0x10263025>
80002210:	aab56593          	ori	a1,a0,-1365
80002214:	42b22823          	sw	a1,1072(tp) # 430 <offset+0x3c8>
80002218:	fff00293          	li	t0,-1
8000221c:	00b28463          	beq	t0,a1,80002224 <inst_291>
80002220:	4f50106f          	j	80003f14 <bad_trap>

80002224 <inst_291>:
80002224:	55555537          	lui	a0,0x55555
80002228:	55450513          	addi	a0,a0,1364 # 55555554 <absimm+0x10263025>
8000222c:	00656593          	ori	a1,a0,6
80002230:	42b22a23          	sw	a1,1076(tp) # 434 <offset+0x3cc>
80002234:	555552b7          	lui	t0,0x55555
80002238:	55628293          	addi	t0,t0,1366 # 55555556 <absimm+0x10263027>
8000223c:	00b28463          	beq	t0,a1,80002244 <inst_292>
80002240:	4d50106f          	j	80003f14 <bad_trap>

80002244 <inst_292>:
80002244:	55555537          	lui	a0,0x55555
80002248:	55450513          	addi	a0,a0,1364 # 55555554 <absimm+0x10263025>
8000224c:	33456593          	ori	a1,a0,820
80002250:	42b22c23          	sw	a1,1080(tp) # 438 <offset+0x3d0>
80002254:	555552b7          	lui	t0,0x55555
80002258:	77428293          	addi	t0,t0,1908 # 55555774 <absimm+0x10263245>
8000225c:	00b28463          	beq	t0,a1,80002264 <inst_293>
80002260:	4b50106f          	j	80003f14 <bad_trap>

80002264 <inst_293>:
80002264:	55555537          	lui	a0,0x55555
80002268:	55450513          	addi	a0,a0,1364 # 55555554 <absimm+0x10263025>
8000226c:	66756593          	ori	a1,a0,1639
80002270:	42b22e23          	sw	a1,1084(tp) # 43c <offset+0x3d4>
80002274:	555552b7          	lui	t0,0x55555
80002278:	77728293          	addi	t0,t0,1911 # 55555777 <absimm+0x10263248>
8000227c:	00b28463          	beq	t0,a1,80002284 <inst_294>
80002280:	4950106f          	j	80003f14 <bad_trap>

80002284 <inst_294>:
80002284:	55555537          	lui	a0,0x55555
80002288:	55450513          	addi	a0,a0,1364 # 55555554 <absimm+0x10263025>
8000228c:	fd456593          	ori	a1,a0,-44
80002290:	44b22023          	sw	a1,1088(tp) # 440 <offset+0x3d8>
80002294:	fd400293          	li	t0,-44
80002298:	00b28463          	beq	t0,a1,800022a0 <inst_295>
8000229c:	4790106f          	j	80003f14 <bad_trap>

800022a0 <inst_295>:
800022a0:	55555537          	lui	a0,0x55555
800022a4:	55450513          	addi	a0,a0,1364 # 55555554 <absimm+0x10263025>
800022a8:	02e56593          	ori	a1,a0,46
800022ac:	44b22223          	sw	a1,1092(tp) # 444 <offset+0x3dc>
800022b0:	555552b7          	lui	t0,0x55555
800022b4:	57e28293          	addi	t0,t0,1406 # 5555557e <absimm+0x1026304f>
800022b8:	00b28463          	beq	t0,a1,800022c0 <inst_296>
800022bc:	4590106f          	j	80003f14 <bad_trap>

800022c0 <inst_296>:
800022c0:	00000513          	li	a0,0
800022c4:	00356593          	ori	a1,a0,3
800022c8:	44b22423          	sw	a1,1096(tp) # 448 <offset+0x3e0>
800022cc:	00300293          	li	t0,3
800022d0:	00b28463          	beq	t0,a1,800022d8 <inst_297>
800022d4:	4410106f          	j	80003f14 <bad_trap>

800022d8 <inst_297>:
800022d8:	00000513          	li	a0,0
800022dc:	55556593          	ori	a1,a0,1365
800022e0:	44b22623          	sw	a1,1100(tp) # 44c <offset+0x3e4>
800022e4:	55500293          	li	t0,1365
800022e8:	00b28463          	beq	t0,a1,800022f0 <inst_298>
800022ec:	4290106f          	j	80003f14 <bad_trap>

800022f0 <inst_298>:
800022f0:	00000513          	li	a0,0
800022f4:	aaa56593          	ori	a1,a0,-1366
800022f8:	44b22823          	sw	a1,1104(tp) # 450 <offset+0x3e8>
800022fc:	aaa00293          	li	t0,-1366
80002300:	00b28463          	beq	t0,a1,80002308 <inst_299>
80002304:	4110106f          	j	80003f14 <bad_trap>

80002308 <inst_299>:
80002308:	00000513          	li	a0,0
8000230c:	00556593          	ori	a1,a0,5
80002310:	44b22a23          	sw	a1,1108(tp) # 454 <offset+0x3ec>
80002314:	00500293          	li	t0,5
80002318:	00b28463          	beq	t0,a1,80002320 <inst_300>
8000231c:	3f90106f          	j	80003f14 <bad_trap>

80002320 <inst_300>:
80002320:	00000513          	li	a0,0
80002324:	33356593          	ori	a1,a0,819
80002328:	44b22c23          	sw	a1,1112(tp) # 458 <offset+0x3f0>
8000232c:	33300293          	li	t0,819
80002330:	00b28463          	beq	t0,a1,80002338 <inst_301>
80002334:	3e10106f          	j	80003f14 <bad_trap>

80002338 <inst_301>:
80002338:	00000513          	li	a0,0
8000233c:	66656593          	ori	a1,a0,1638
80002340:	44b22e23          	sw	a1,1116(tp) # 45c <offset+0x3f4>
80002344:	66600293          	li	t0,1638
80002348:	00b28463          	beq	t0,a1,80002350 <inst_302>
8000234c:	3c90106f          	j	80003f14 <bad_trap>

80002350 <inst_302>:
80002350:	00000513          	li	a0,0
80002354:	fd356593          	ori	a1,a0,-45
80002358:	46b22023          	sw	a1,1120(tp) # 460 <offset+0x3f8>
8000235c:	fd300293          	li	t0,-45
80002360:	00b28463          	beq	t0,a1,80002368 <inst_303>
80002364:	3b10106f          	j	80003f14 <bad_trap>

80002368 <inst_303>:
80002368:	33333537          	lui	a0,0x33333
8000236c:	33450513          	addi	a0,a0,820 # 33333334 <offset+0x333332cc>
80002370:	33256593          	ori	a1,a0,818
80002374:	46b22223          	sw	a1,1124(tp) # 464 <offset+0x3fc>
80002378:	333332b7          	lui	t0,0x33333
8000237c:	33628293          	addi	t0,t0,822 # 33333336 <offset+0x333332ce>
80002380:	00b28463          	beq	t0,a1,80002388 <inst_304>
80002384:	3910106f          	j	80003f14 <bad_trap>

80002388 <inst_304>:
80002388:	33333537          	lui	a0,0x33333
8000238c:	33450513          	addi	a0,a0,820 # 33333334 <offset+0x333332cc>
80002390:	66556593          	ori	a1,a0,1637
80002394:	46b22423          	sw	a1,1128(tp) # 468 <offset+0x400>
80002398:	333332b7          	lui	t0,0x33333
8000239c:	77528293          	addi	t0,t0,1909 # 33333775 <offset+0x3333370d>
800023a0:	00b28463          	beq	t0,a1,800023a8 <inst_305>
800023a4:	3710106f          	j	80003f14 <bad_trap>

800023a8 <inst_305>:
800023a8:	33333537          	lui	a0,0x33333
800023ac:	33450513          	addi	a0,a0,820 # 33333334 <offset+0x333332cc>
800023b0:	02c56593          	ori	a1,a0,44
800023b4:	46b22623          	sw	a1,1132(tp) # 46c <offset+0x404>
800023b8:	333332b7          	lui	t0,0x33333
800023bc:	33c28293          	addi	t0,t0,828 # 3333333c <offset+0x333332d4>
800023c0:	00b28463          	beq	t0,a1,800023c8 <inst_306>
800023c4:	3510106f          	j	80003f14 <bad_trap>

800023c8 <inst_306>:
800023c8:	33333537          	lui	a0,0x33333
800023cc:	33450513          	addi	a0,a0,820 # 33333334 <offset+0x333332cc>
800023d0:	55656593          	ori	a1,a0,1366
800023d4:	46b22823          	sw	a1,1136(tp) # 470 <offset+0x408>
800023d8:	333332b7          	lui	t0,0x33333
800023dc:	77628293          	addi	t0,t0,1910 # 33333776 <offset+0x3333370e>
800023e0:	00b28463          	beq	t0,a1,800023e8 <inst_307>
800023e4:	3310106f          	j	80003f14 <bad_trap>

800023e8 <inst_307>:
800023e8:	33333537          	lui	a0,0x33333
800023ec:	33450513          	addi	a0,a0,820 # 33333334 <offset+0x333332cc>
800023f0:	aab56593          	ori	a1,a0,-1365
800023f4:	46b22a23          	sw	a1,1140(tp) # 474 <offset+0x40c>
800023f8:	bbf00293          	li	t0,-1089
800023fc:	00b28463          	beq	t0,a1,80002404 <inst_308>
80002400:	3150106f          	j	80003f14 <bad_trap>

80002404 <inst_308>:
80002404:	33333537          	lui	a0,0x33333
80002408:	33450513          	addi	a0,a0,820 # 33333334 <offset+0x333332cc>
8000240c:	00656593          	ori	a1,a0,6
80002410:	46b22c23          	sw	a1,1144(tp) # 478 <offset+0x410>
80002414:	333332b7          	lui	t0,0x33333
80002418:	33628293          	addi	t0,t0,822 # 33333336 <offset+0x333332ce>
8000241c:	00b28463          	beq	t0,a1,80002424 <inst_309>
80002420:	2f50106f          	j	80003f14 <bad_trap>

80002424 <inst_309>:
80002424:	33333537          	lui	a0,0x33333
80002428:	33450513          	addi	a0,a0,820 # 33333334 <offset+0x333332cc>
8000242c:	33456593          	ori	a1,a0,820
80002430:	46b22e23          	sw	a1,1148(tp) # 47c <offset+0x414>
80002434:	333332b7          	lui	t0,0x33333
80002438:	33428293          	addi	t0,t0,820 # 33333334 <offset+0x333332cc>
8000243c:	00b28463          	beq	t0,a1,80002444 <inst_310>
80002440:	2d50106f          	j	80003f14 <bad_trap>

80002444 <inst_310>:
80002444:	33333537          	lui	a0,0x33333
80002448:	33450513          	addi	a0,a0,820 # 33333334 <offset+0x333332cc>
8000244c:	66756593          	ori	a1,a0,1639
80002450:	48b22023          	sw	a1,1152(tp) # 480 <offset+0x418>
80002454:	333332b7          	lui	t0,0x33333
80002458:	77728293          	addi	t0,t0,1911 # 33333777 <offset+0x3333370f>
8000245c:	00b28463          	beq	t0,a1,80002464 <inst_311>
80002460:	2b50106f          	j	80003f14 <bad_trap>

80002464 <inst_311>:
80002464:	33333537          	lui	a0,0x33333
80002468:	33450513          	addi	a0,a0,820 # 33333334 <offset+0x333332cc>
8000246c:	fd456593          	ori	a1,a0,-44
80002470:	48b22223          	sw	a1,1156(tp) # 484 <offset+0x41c>
80002474:	ff400293          	li	t0,-12
80002478:	00b28463          	beq	t0,a1,80002480 <inst_312>
8000247c:	2990106f          	j	80003f14 <bad_trap>

80002480 <inst_312>:
80002480:	33333537          	lui	a0,0x33333
80002484:	33450513          	addi	a0,a0,820 # 33333334 <offset+0x333332cc>
80002488:	02e56593          	ori	a1,a0,46
8000248c:	48b22423          	sw	a1,1160(tp) # 488 <offset+0x420>
80002490:	333332b7          	lui	t0,0x33333
80002494:	33e28293          	addi	t0,t0,830 # 3333333e <offset+0x333332d6>
80002498:	00b28463          	beq	t0,a1,800024a0 <inst_313>
8000249c:	2790106f          	j	80003f14 <bad_trap>

800024a0 <inst_313>:
800024a0:	66666537          	lui	a0,0x66666
800024a4:	66750513          	addi	a0,a0,1639 # 66666667 <absimm+0x21374138>
800024a8:	00356593          	ori	a1,a0,3
800024ac:	48b22623          	sw	a1,1164(tp) # 48c <offset+0x424>
800024b0:	666662b7          	lui	t0,0x66666
800024b4:	66728293          	addi	t0,t0,1639 # 66666667 <absimm+0x21374138>
800024b8:	00b28463          	beq	t0,a1,800024c0 <inst_314>
800024bc:	2590106f          	j	80003f14 <bad_trap>

800024c0 <inst_314>:
800024c0:	66666537          	lui	a0,0x66666
800024c4:	66750513          	addi	a0,a0,1639 # 66666667 <absimm+0x21374138>
800024c8:	55556593          	ori	a1,a0,1365
800024cc:	48b22823          	sw	a1,1168(tp) # 490 <offset+0x428>
800024d0:	666662b7          	lui	t0,0x66666
800024d4:	77728293          	addi	t0,t0,1911 # 66666777 <absimm+0x21374248>
800024d8:	00b28463          	beq	t0,a1,800024e0 <inst_315>
800024dc:	2390106f          	j	80003f14 <bad_trap>

800024e0 <inst_315>:
800024e0:	66666537          	lui	a0,0x66666
800024e4:	66750513          	addi	a0,a0,1639 # 66666667 <absimm+0x21374138>
800024e8:	aaa56593          	ori	a1,a0,-1366
800024ec:	48b22a23          	sw	a1,1172(tp) # 494 <offset+0x42c>
800024f0:	eef00293          	li	t0,-273
800024f4:	00b28463          	beq	t0,a1,800024fc <inst_316>
800024f8:	21d0106f          	j	80003f14 <bad_trap>

800024fc <inst_316>:
800024fc:	66666537          	lui	a0,0x66666
80002500:	66750513          	addi	a0,a0,1639 # 66666667 <absimm+0x21374138>
80002504:	00556593          	ori	a1,a0,5
80002508:	48b22c23          	sw	a1,1176(tp) # 498 <offset+0x430>
8000250c:	666662b7          	lui	t0,0x66666
80002510:	66728293          	addi	t0,t0,1639 # 66666667 <absimm+0x21374138>
80002514:	00b28463          	beq	t0,a1,8000251c <inst_317>
80002518:	1fd0106f          	j	80003f14 <bad_trap>

8000251c <inst_317>:
8000251c:	66666537          	lui	a0,0x66666
80002520:	66750513          	addi	a0,a0,1639 # 66666667 <absimm+0x21374138>
80002524:	33356593          	ori	a1,a0,819
80002528:	48b22e23          	sw	a1,1180(tp) # 49c <offset+0x434>
8000252c:	666662b7          	lui	t0,0x66666
80002530:	77728293          	addi	t0,t0,1911 # 66666777 <absimm+0x21374248>
80002534:	00b28463          	beq	t0,a1,8000253c <inst_318>
80002538:	1dd0106f          	j	80003f14 <bad_trap>

8000253c <inst_318>:
8000253c:	66666537          	lui	a0,0x66666
80002540:	66750513          	addi	a0,a0,1639 # 66666667 <absimm+0x21374138>
80002544:	66656593          	ori	a1,a0,1638
80002548:	4ab22023          	sw	a1,1184(tp) # 4a0 <offset+0x438>
8000254c:	666662b7          	lui	t0,0x66666
80002550:	66728293          	addi	t0,t0,1639 # 66666667 <absimm+0x21374138>
80002554:	00b28463          	beq	t0,a1,8000255c <inst_319>
80002558:	1bd0106f          	j	80003f14 <bad_trap>

8000255c <inst_319>:
8000255c:	66666537          	lui	a0,0x66666
80002560:	66750513          	addi	a0,a0,1639 # 66666667 <absimm+0x21374138>
80002564:	fd356593          	ori	a1,a0,-45
80002568:	4ab22223          	sw	a1,1188(tp) # 4a4 <offset+0x43c>
8000256c:	ff700293          	li	t0,-9
80002570:	00b28463          	beq	t0,a1,80002578 <inst_320>
80002574:	1a10106f          	j	80003f14 <bad_trap>

80002578 <inst_320>:
80002578:	66666537          	lui	a0,0x66666
8000257c:	66750513          	addi	a0,a0,1639 # 66666667 <absimm+0x21374138>
80002580:	02d56593          	ori	a1,a0,45
80002584:	4ab22423          	sw	a1,1192(tp) # 4a8 <offset+0x440>
80002588:	666662b7          	lui	t0,0x66666
8000258c:	66f28293          	addi	t0,t0,1647 # 6666666f <absimm+0x21374140>
80002590:	00b28463          	beq	t0,a1,80002598 <inst_321>
80002594:	1810106f          	j	80003f14 <bad_trap>

80002598 <inst_321>:
80002598:	66666537          	lui	a0,0x66666
8000259c:	66750513          	addi	a0,a0,1639 # 66666667 <absimm+0x21374138>
800025a0:	00256593          	ori	a1,a0,2
800025a4:	4ab22623          	sw	a1,1196(tp) # 4ac <offset+0x444>
800025a8:	666662b7          	lui	t0,0x66666
800025ac:	66728293          	addi	t0,t0,1639 # 66666667 <absimm+0x21374138>
800025b0:	00b28463          	beq	t0,a1,800025b8 <inst_322>
800025b4:	1610106f          	j	80003f14 <bad_trap>

800025b8 <inst_322>:
800025b8:	66666537          	lui	a0,0x66666
800025bc:	66750513          	addi	a0,a0,1639 # 66666667 <absimm+0x21374138>
800025c0:	55456593          	ori	a1,a0,1364
800025c4:	4ab22823          	sw	a1,1200(tp) # 4b0 <offset+0x448>
800025c8:	666662b7          	lui	t0,0x66666
800025cc:	77728293          	addi	t0,t0,1911 # 66666777 <absimm+0x21374248>
800025d0:	00b28463          	beq	t0,a1,800025d8 <inst_323>
800025d4:	1410106f          	j	80003f14 <bad_trap>

800025d8 <inst_323>:
800025d8:	66666537          	lui	a0,0x66666
800025dc:	66750513          	addi	a0,a0,1639 # 66666667 <absimm+0x21374138>
800025e0:	00056593          	ori	a1,a0,0
800025e4:	4ab22a23          	sw	a1,1204(tp) # 4b4 <offset+0x44c>
800025e8:	666662b7          	lui	t0,0x66666
800025ec:	66728293          	addi	t0,t0,1639 # 66666667 <absimm+0x21374138>
800025f0:	00b28463          	beq	t0,a1,800025f8 <inst_324>
800025f4:	1210106f          	j	80003f14 <bad_trap>

800025f8 <inst_324>:
800025f8:	66666537          	lui	a0,0x66666
800025fc:	66750513          	addi	a0,a0,1639 # 66666667 <absimm+0x21374138>
80002600:	00456593          	ori	a1,a0,4
80002604:	4ab22c23          	sw	a1,1208(tp) # 4b8 <offset+0x450>
80002608:	666662b7          	lui	t0,0x66666
8000260c:	66728293          	addi	t0,t0,1639 # 66666667 <absimm+0x21374138>
80002610:	00b28463          	beq	t0,a1,80002618 <inst_325>
80002614:	1010106f          	j	80003f14 <bad_trap>

80002618 <inst_325>:
80002618:	66666537          	lui	a0,0x66666
8000261c:	66750513          	addi	a0,a0,1639 # 66666667 <absimm+0x21374138>
80002620:	33256593          	ori	a1,a0,818
80002624:	4ab22e23          	sw	a1,1212(tp) # 4bc <offset+0x454>
80002628:	666662b7          	lui	t0,0x66666
8000262c:	77728293          	addi	t0,t0,1911 # 66666777 <absimm+0x21374248>
80002630:	00b28463          	beq	t0,a1,80002638 <inst_326>
80002634:	0e10106f          	j	80003f14 <bad_trap>

80002638 <inst_326>:
80002638:	66666537          	lui	a0,0x66666
8000263c:	66750513          	addi	a0,a0,1639 # 66666667 <absimm+0x21374138>
80002640:	66556593          	ori	a1,a0,1637
80002644:	4cb22023          	sw	a1,1216(tp) # 4c0 <offset+0x458>
80002648:	666662b7          	lui	t0,0x66666
8000264c:	66728293          	addi	t0,t0,1639 # 66666667 <absimm+0x21374138>
80002650:	00b28463          	beq	t0,a1,80002658 <inst_327>
80002654:	0c10106f          	j	80003f14 <bad_trap>

80002658 <inst_327>:
80002658:	66666537          	lui	a0,0x66666
8000265c:	66750513          	addi	a0,a0,1639 # 66666667 <absimm+0x21374138>
80002660:	02c56593          	ori	a1,a0,44
80002664:	4cb22223          	sw	a1,1220(tp) # 4c4 <offset+0x45c>
80002668:	666662b7          	lui	t0,0x66666
8000266c:	66f28293          	addi	t0,t0,1647 # 6666666f <absimm+0x21374140>
80002670:	00b28463          	beq	t0,a1,80002678 <inst_328>
80002674:	0a10106f          	j	80003f14 <bad_trap>

80002678 <inst_328>:
80002678:	66666537          	lui	a0,0x66666
8000267c:	66750513          	addi	a0,a0,1639 # 66666667 <absimm+0x21374138>
80002680:	55656593          	ori	a1,a0,1366
80002684:	4cb22423          	sw	a1,1224(tp) # 4c8 <offset+0x460>
80002688:	666662b7          	lui	t0,0x66666
8000268c:	77728293          	addi	t0,t0,1911 # 66666777 <absimm+0x21374248>
80002690:	00b28463          	beq	t0,a1,80002698 <inst_329>
80002694:	0810106f          	j	80003f14 <bad_trap>

80002698 <inst_329>:
80002698:	66666537          	lui	a0,0x66666
8000269c:	66750513          	addi	a0,a0,1639 # 66666667 <absimm+0x21374138>
800026a0:	aab56593          	ori	a1,a0,-1365
800026a4:	4cb22623          	sw	a1,1228(tp) # 4cc <offset+0x464>
800026a8:	eef00293          	li	t0,-273
800026ac:	00b28463          	beq	t0,a1,800026b4 <inst_330>
800026b0:	0650106f          	j	80003f14 <bad_trap>

800026b4 <inst_330>:
800026b4:	66666537          	lui	a0,0x66666
800026b8:	66750513          	addi	a0,a0,1639 # 66666667 <absimm+0x21374138>
800026bc:	00656593          	ori	a1,a0,6
800026c0:	4cb22823          	sw	a1,1232(tp) # 4d0 <offset+0x468>
800026c4:	666662b7          	lui	t0,0x66666
800026c8:	66728293          	addi	t0,t0,1639 # 66666667 <absimm+0x21374138>
800026cc:	00b28463          	beq	t0,a1,800026d4 <inst_331>
800026d0:	0450106f          	j	80003f14 <bad_trap>

800026d4 <inst_331>:
800026d4:	66666537          	lui	a0,0x66666
800026d8:	66750513          	addi	a0,a0,1639 # 66666667 <absimm+0x21374138>
800026dc:	33456593          	ori	a1,a0,820
800026e0:	4cb22a23          	sw	a1,1236(tp) # 4d4 <offset+0x46c>
800026e4:	666662b7          	lui	t0,0x66666
800026e8:	77728293          	addi	t0,t0,1911 # 66666777 <absimm+0x21374248>
800026ec:	00b28463          	beq	t0,a1,800026f4 <inst_332>
800026f0:	0250106f          	j	80003f14 <bad_trap>

800026f4 <inst_332>:
800026f4:	66666537          	lui	a0,0x66666
800026f8:	66750513          	addi	a0,a0,1639 # 66666667 <absimm+0x21374138>
800026fc:	66756593          	ori	a1,a0,1639
80002700:	4cb22c23          	sw	a1,1240(tp) # 4d8 <offset+0x470>
80002704:	666662b7          	lui	t0,0x66666
80002708:	66728293          	addi	t0,t0,1639 # 66666667 <absimm+0x21374138>
8000270c:	00b28463          	beq	t0,a1,80002714 <inst_333>
80002710:	0050106f          	j	80003f14 <bad_trap>

80002714 <inst_333>:
80002714:	66666537          	lui	a0,0x66666
80002718:	66750513          	addi	a0,a0,1639 # 66666667 <absimm+0x21374138>
8000271c:	fd456593          	ori	a1,a0,-44
80002720:	4cb22e23          	sw	a1,1244(tp) # 4dc <offset+0x474>
80002724:	ff700293          	li	t0,-9
80002728:	00b28463          	beq	t0,a1,80002730 <inst_334>
8000272c:	7e80106f          	j	80003f14 <bad_trap>

80002730 <inst_334>:
80002730:	66666537          	lui	a0,0x66666
80002734:	66750513          	addi	a0,a0,1639 # 66666667 <absimm+0x21374138>
80002738:	02e56593          	ori	a1,a0,46
8000273c:	4eb22023          	sw	a1,1248(tp) # 4e0 <offset+0x478>
80002740:	666662b7          	lui	t0,0x66666
80002744:	66f28293          	addi	t0,t0,1647 # 6666666f <absimm+0x21374140>
80002748:	00b28463          	beq	t0,a1,80002750 <inst_335>
8000274c:	7c80106f          	j	80003f14 <bad_trap>

80002750 <inst_335>:
80002750:	ffff5537          	lui	a0,0xffff5
80002754:	afd50513          	addi	a0,a0,-1283 # ffff4afd <imm12+0xffff502d>
80002758:	00356593          	ori	a1,a0,3
8000275c:	4eb22223          	sw	a1,1252(tp) # 4e4 <offset+0x47c>
80002760:	ffff52b7          	lui	t0,0xffff5
80002764:	aff28293          	addi	t0,t0,-1281 # ffff4aff <imm12+0xffff502f>
80002768:	00b28463          	beq	t0,a1,80002770 <inst_336>
8000276c:	7a80106f          	j	80003f14 <bad_trap>

80002770 <inst_336>:
80002770:	ffff5537          	lui	a0,0xffff5
80002774:	afd50513          	addi	a0,a0,-1283 # ffff4afd <imm12+0xffff502d>
80002778:	55556593          	ori	a1,a0,1365
8000277c:	4eb22423          	sw	a1,1256(tp) # 4e8 <offset+0x480>
80002780:	ffff52b7          	lui	t0,0xffff5
80002784:	ffd28293          	addi	t0,t0,-3 # ffff4ffd <imm12+0xffff552d>
80002788:	00b28463          	beq	t0,a1,80002790 <inst_337>
8000278c:	7880106f          	j	80003f14 <bad_trap>

80002790 <inst_337>:
80002790:	ffff5537          	lui	a0,0xffff5
80002794:	afd50513          	addi	a0,a0,-1283 # ffff4afd <imm12+0xffff502d>
80002798:	aaa56593          	ori	a1,a0,-1366
8000279c:	4eb22623          	sw	a1,1260(tp) # 4ec <offset+0x484>
800027a0:	aff00293          	li	t0,-1281
800027a4:	00b28463          	beq	t0,a1,800027ac <inst_338>
800027a8:	76c0106f          	j	80003f14 <bad_trap>

800027ac <inst_338>:
800027ac:	ffff5537          	lui	a0,0xffff5
800027b0:	afd50513          	addi	a0,a0,-1283 # ffff4afd <imm12+0xffff502d>
800027b4:	00556593          	ori	a1,a0,5
800027b8:	4eb22823          	sw	a1,1264(tp) # 4f0 <offset+0x488>
800027bc:	ffff52b7          	lui	t0,0xffff5
800027c0:	afd28293          	addi	t0,t0,-1283 # ffff4afd <imm12+0xffff502d>
800027c4:	00b28463          	beq	t0,a1,800027cc <inst_339>
800027c8:	74c0106f          	j	80003f14 <bad_trap>

800027cc <inst_339>:
800027cc:	ffff5537          	lui	a0,0xffff5
800027d0:	afd50513          	addi	a0,a0,-1283 # ffff4afd <imm12+0xffff502d>
800027d4:	33356593          	ori	a1,a0,819
800027d8:	4eb22a23          	sw	a1,1268(tp) # 4f4 <offset+0x48c>
800027dc:	ffff52b7          	lui	t0,0xffff5
800027e0:	bff28293          	addi	t0,t0,-1025 # ffff4bff <imm12+0xffff512f>
800027e4:	00b28463          	beq	t0,a1,800027ec <inst_340>
800027e8:	72c0106f          	j	80003f14 <bad_trap>

800027ec <inst_340>:
800027ec:	ffff5537          	lui	a0,0xffff5
800027f0:	afd50513          	addi	a0,a0,-1283 # ffff4afd <imm12+0xffff502d>
800027f4:	66656593          	ori	a1,a0,1638
800027f8:	4eb22c23          	sw	a1,1272(tp) # 4f8 <offset+0x490>
800027fc:	ffff52b7          	lui	t0,0xffff5
80002800:	eff28293          	addi	t0,t0,-257 # ffff4eff <imm12+0xffff542f>
80002804:	00b28463          	beq	t0,a1,8000280c <inst_341>
80002808:	70c0106f          	j	80003f14 <bad_trap>

8000280c <inst_341>:
8000280c:	ffff5537          	lui	a0,0xffff5
80002810:	afd50513          	addi	a0,a0,-1283 # ffff4afd <imm12+0xffff502d>
80002814:	fd356593          	ori	a1,a0,-45
80002818:	4eb22e23          	sw	a1,1276(tp) # 4fc <offset+0x494>
8000281c:	fff00293          	li	t0,-1
80002820:	00b28463          	beq	t0,a1,80002828 <inst_342>
80002824:	6f00106f          	j	80003f14 <bad_trap>

80002828 <inst_342>:
80002828:	ffff5537          	lui	a0,0xffff5
8000282c:	afd50513          	addi	a0,a0,-1283 # ffff4afd <imm12+0xffff502d>
80002830:	02d56593          	ori	a1,a0,45
80002834:	50b22023          	sw	a1,1280(tp) # 500 <offset+0x498>
80002838:	ffff52b7          	lui	t0,0xffff5
8000283c:	afd28293          	addi	t0,t0,-1283 # ffff4afd <imm12+0xffff502d>
80002840:	00b28463          	beq	t0,a1,80002848 <inst_343>
80002844:	6d00106f          	j	80003f14 <bad_trap>

80002848 <inst_343>:
80002848:	ffff5537          	lui	a0,0xffff5
8000284c:	afd50513          	addi	a0,a0,-1283 # ffff4afd <imm12+0xffff502d>
80002850:	00256593          	ori	a1,a0,2
80002854:	50b22223          	sw	a1,1284(tp) # 504 <offset+0x49c>
80002858:	ffff52b7          	lui	t0,0xffff5
8000285c:	aff28293          	addi	t0,t0,-1281 # ffff4aff <imm12+0xffff502f>
80002860:	00b28463          	beq	t0,a1,80002868 <inst_344>
80002864:	6b00106f          	j	80003f14 <bad_trap>

80002868 <inst_344>:
80002868:	ffff5537          	lui	a0,0xffff5
8000286c:	afd50513          	addi	a0,a0,-1283 # ffff4afd <imm12+0xffff502d>
80002870:	55456593          	ori	a1,a0,1364
80002874:	50b22423          	sw	a1,1288(tp) # 508 <offset+0x4a0>
80002878:	ffff52b7          	lui	t0,0xffff5
8000287c:	ffd28293          	addi	t0,t0,-3 # ffff4ffd <imm12+0xffff552d>
80002880:	00b28463          	beq	t0,a1,80002888 <inst_345>
80002884:	6900106f          	j	80003f14 <bad_trap>

80002888 <inst_345>:
80002888:	ffff5537          	lui	a0,0xffff5
8000288c:	afd50513          	addi	a0,a0,-1283 # ffff4afd <imm12+0xffff502d>
80002890:	00056593          	ori	a1,a0,0
80002894:	50b22623          	sw	a1,1292(tp) # 50c <offset+0x4a4>
80002898:	ffff52b7          	lui	t0,0xffff5
8000289c:	afd28293          	addi	t0,t0,-1283 # ffff4afd <imm12+0xffff502d>
800028a0:	00b28463          	beq	t0,a1,800028a8 <inst_346>
800028a4:	6700106f          	j	80003f14 <bad_trap>

800028a8 <inst_346>:
800028a8:	ffff5537          	lui	a0,0xffff5
800028ac:	afd50513          	addi	a0,a0,-1283 # ffff4afd <imm12+0xffff502d>
800028b0:	00456593          	ori	a1,a0,4
800028b4:	50b22823          	sw	a1,1296(tp) # 510 <offset+0x4a8>
800028b8:	ffff52b7          	lui	t0,0xffff5
800028bc:	afd28293          	addi	t0,t0,-1283 # ffff4afd <imm12+0xffff502d>
800028c0:	00b28463          	beq	t0,a1,800028c8 <inst_347>
800028c4:	6500106f          	j	80003f14 <bad_trap>

800028c8 <inst_347>:
800028c8:	ffff5537          	lui	a0,0xffff5
800028cc:	afd50513          	addi	a0,a0,-1283 # ffff4afd <imm12+0xffff502d>
800028d0:	33256593          	ori	a1,a0,818
800028d4:	50b22a23          	sw	a1,1300(tp) # 514 <offset+0x4ac>
800028d8:	ffff52b7          	lui	t0,0xffff5
800028dc:	bff28293          	addi	t0,t0,-1025 # ffff4bff <imm12+0xffff512f>
800028e0:	00b28463          	beq	t0,a1,800028e8 <inst_348>
800028e4:	6300106f          	j	80003f14 <bad_trap>

800028e8 <inst_348>:
800028e8:	ffff5537          	lui	a0,0xffff5
800028ec:	afd50513          	addi	a0,a0,-1283 # ffff4afd <imm12+0xffff502d>
800028f0:	66556593          	ori	a1,a0,1637
800028f4:	50b22c23          	sw	a1,1304(tp) # 518 <offset+0x4b0>
800028f8:	ffff52b7          	lui	t0,0xffff5
800028fc:	efd28293          	addi	t0,t0,-259 # ffff4efd <imm12+0xffff542d>
80002900:	00b28463          	beq	t0,a1,80002908 <inst_349>
80002904:	6100106f          	j	80003f14 <bad_trap>

80002908 <inst_349>:
80002908:	ffff5537          	lui	a0,0xffff5
8000290c:	afd50513          	addi	a0,a0,-1283 # ffff4afd <imm12+0xffff502d>
80002910:	02c56593          	ori	a1,a0,44
80002914:	50b22e23          	sw	a1,1308(tp) # 51c <offset+0x4b4>
80002918:	ffff52b7          	lui	t0,0xffff5
8000291c:	afd28293          	addi	t0,t0,-1283 # ffff4afd <imm12+0xffff502d>
80002920:	00b28463          	beq	t0,a1,80002928 <inst_350>
80002924:	5f00106f          	j	80003f14 <bad_trap>

80002928 <inst_350>:
80002928:	ffff5537          	lui	a0,0xffff5
8000292c:	afd50513          	addi	a0,a0,-1283 # ffff4afd <imm12+0xffff502d>
80002930:	55656593          	ori	a1,a0,1366
80002934:	52b22023          	sw	a1,1312(tp) # 520 <offset+0x4b8>
80002938:	ffff52b7          	lui	t0,0xffff5
8000293c:	fff28293          	addi	t0,t0,-1 # ffff4fff <imm12+0xffff552f>
80002940:	00b28463          	beq	t0,a1,80002948 <inst_351>
80002944:	5d00106f          	j	80003f14 <bad_trap>

80002948 <inst_351>:
80002948:	ffff5537          	lui	a0,0xffff5
8000294c:	afd50513          	addi	a0,a0,-1283 # ffff4afd <imm12+0xffff502d>
80002950:	aab56593          	ori	a1,a0,-1365
80002954:	52b22223          	sw	a1,1316(tp) # 524 <offset+0x4bc>
80002958:	aff00293          	li	t0,-1281
8000295c:	00b28463          	beq	t0,a1,80002964 <inst_352>
80002960:	5b40106f          	j	80003f14 <bad_trap>

80002964 <inst_352>:
80002964:	ffff5537          	lui	a0,0xffff5
80002968:	afd50513          	addi	a0,a0,-1283 # ffff4afd <imm12+0xffff502d>
8000296c:	00656593          	ori	a1,a0,6
80002970:	52b22423          	sw	a1,1320(tp) # 528 <offset+0x4c0>
80002974:	ffff52b7          	lui	t0,0xffff5
80002978:	aff28293          	addi	t0,t0,-1281 # ffff4aff <imm12+0xffff502f>
8000297c:	00b28463          	beq	t0,a1,80002984 <inst_353>
80002980:	5940106f          	j	80003f14 <bad_trap>

80002984 <inst_353>:
80002984:	ffff5537          	lui	a0,0xffff5
80002988:	afd50513          	addi	a0,a0,-1283 # ffff4afd <imm12+0xffff502d>
8000298c:	33456593          	ori	a1,a0,820
80002990:	52b22623          	sw	a1,1324(tp) # 52c <offset+0x4c4>
80002994:	ffff52b7          	lui	t0,0xffff5
80002998:	bfd28293          	addi	t0,t0,-1027 # ffff4bfd <imm12+0xffff512d>
8000299c:	00b28463          	beq	t0,a1,800029a4 <inst_354>
800029a0:	5740106f          	j	80003f14 <bad_trap>

800029a4 <inst_354>:
800029a4:	ffff5537          	lui	a0,0xffff5
800029a8:	afd50513          	addi	a0,a0,-1283 # ffff4afd <imm12+0xffff502d>
800029ac:	66756593          	ori	a1,a0,1639
800029b0:	52b22823          	sw	a1,1328(tp) # 530 <offset+0x4c8>
800029b4:	ffff52b7          	lui	t0,0xffff5
800029b8:	eff28293          	addi	t0,t0,-257 # ffff4eff <imm12+0xffff542f>
800029bc:	00b28463          	beq	t0,a1,800029c4 <inst_355>
800029c0:	5540106f          	j	80003f14 <bad_trap>

800029c4 <inst_355>:
800029c4:	ffff5537          	lui	a0,0xffff5
800029c8:	afd50513          	addi	a0,a0,-1283 # ffff4afd <imm12+0xffff502d>
800029cc:	fd456593          	ori	a1,a0,-44
800029d0:	52b22a23          	sw	a1,1332(tp) # 534 <offset+0x4cc>
800029d4:	ffd00293          	li	t0,-3
800029d8:	00b28463          	beq	t0,a1,800029e0 <inst_356>
800029dc:	5380106f          	j	80003f14 <bad_trap>

800029e0 <inst_356>:
800029e0:	ffff5537          	lui	a0,0xffff5
800029e4:	afd50513          	addi	a0,a0,-1283 # ffff4afd <imm12+0xffff502d>
800029e8:	02e56593          	ori	a1,a0,46
800029ec:	52b22c23          	sw	a1,1336(tp) # 538 <offset+0x4d0>
800029f0:	ffff52b7          	lui	t0,0xffff5
800029f4:	aff28293          	addi	t0,t0,-1281 # ffff4aff <imm12+0xffff502f>
800029f8:	00b28463          	beq	t0,a1,80002a00 <inst_357>
800029fc:	5180106f          	j	80003f14 <bad_trap>

80002a00 <inst_357>:
80002a00:	0000b537          	lui	a0,0xb
80002a04:	50550513          	addi	a0,a0,1285 # b505 <offset+0xb49d>
80002a08:	00356593          	ori	a1,a0,3
80002a0c:	52b22e23          	sw	a1,1340(tp) # 53c <offset+0x4d4>
80002a10:	0000b2b7          	lui	t0,0xb
80002a14:	50728293          	addi	t0,t0,1287 # b507 <offset+0xb49f>
80002a18:	00b28463          	beq	t0,a1,80002a20 <inst_358>
80002a1c:	4f80106f          	j	80003f14 <bad_trap>

80002a20 <inst_358>:
80002a20:	0000b537          	lui	a0,0xb
80002a24:	50550513          	addi	a0,a0,1285 # b505 <offset+0xb49d>
80002a28:	55556593          	ori	a1,a0,1365
80002a2c:	54b22023          	sw	a1,1344(tp) # 540 <offset+0x4d8>
80002a30:	0000b2b7          	lui	t0,0xb
80002a34:	55528293          	addi	t0,t0,1365 # b555 <offset+0xb4ed>
80002a38:	00b28463          	beq	t0,a1,80002a40 <inst_359>
80002a3c:	4d80106f          	j	80003f14 <bad_trap>

80002a40 <inst_359>:
80002a40:	0000b537          	lui	a0,0xb
80002a44:	50550513          	addi	a0,a0,1285 # b505 <offset+0xb49d>
80002a48:	aaa56593          	ori	a1,a0,-1366
80002a4c:	54b22223          	sw	a1,1348(tp) # 544 <offset+0x4dc>
80002a50:	faf00293          	li	t0,-81
80002a54:	00b28463          	beq	t0,a1,80002a5c <inst_360>
80002a58:	4bc0106f          	j	80003f14 <bad_trap>

80002a5c <inst_360>:
80002a5c:	0000b537          	lui	a0,0xb
80002a60:	50550513          	addi	a0,a0,1285 # b505 <offset+0xb49d>
80002a64:	00556593          	ori	a1,a0,5
80002a68:	54b22423          	sw	a1,1352(tp) # 548 <offset+0x4e0>
80002a6c:	0000b2b7          	lui	t0,0xb
80002a70:	50528293          	addi	t0,t0,1285 # b505 <offset+0xb49d>
80002a74:	00b28463          	beq	t0,a1,80002a7c <inst_361>
80002a78:	49c0106f          	j	80003f14 <bad_trap>

80002a7c <inst_361>:
80002a7c:	0000b537          	lui	a0,0xb
80002a80:	50550513          	addi	a0,a0,1285 # b505 <offset+0xb49d>
80002a84:	33356593          	ori	a1,a0,819
80002a88:	54b22623          	sw	a1,1356(tp) # 54c <offset+0x4e4>
80002a8c:	0000b2b7          	lui	t0,0xb
80002a90:	73728293          	addi	t0,t0,1847 # b737 <offset+0xb6cf>
80002a94:	00b28463          	beq	t0,a1,80002a9c <inst_362>
80002a98:	47c0106f          	j	80003f14 <bad_trap>

80002a9c <inst_362>:
80002a9c:	0000b537          	lui	a0,0xb
80002aa0:	50550513          	addi	a0,a0,1285 # b505 <offset+0xb49d>
80002aa4:	66656593          	ori	a1,a0,1638
80002aa8:	54b22823          	sw	a1,1360(tp) # 550 <offset+0x4e8>
80002aac:	0000b2b7          	lui	t0,0xb
80002ab0:	76728293          	addi	t0,t0,1895 # b767 <offset+0xb6ff>
80002ab4:	00b28463          	beq	t0,a1,80002abc <inst_363>
80002ab8:	45c0106f          	j	80003f14 <bad_trap>

80002abc <inst_363>:
80002abc:	0000b537          	lui	a0,0xb
80002ac0:	50550513          	addi	a0,a0,1285 # b505 <offset+0xb49d>
80002ac4:	fd356593          	ori	a1,a0,-45
80002ac8:	54b22a23          	sw	a1,1364(tp) # 554 <offset+0x4ec>
80002acc:	fd700293          	li	t0,-41
80002ad0:	00b28463          	beq	t0,a1,80002ad8 <inst_364>
80002ad4:	4400106f          	j	80003f14 <bad_trap>

80002ad8 <inst_364>:
80002ad8:	0000b537          	lui	a0,0xb
80002adc:	50550513          	addi	a0,a0,1285 # b505 <offset+0xb49d>
80002ae0:	02d56593          	ori	a1,a0,45
80002ae4:	54b22c23          	sw	a1,1368(tp) # 558 <offset+0x4f0>
80002ae8:	0000b2b7          	lui	t0,0xb
80002aec:	52d28293          	addi	t0,t0,1325 # b52d <offset+0xb4c5>
80002af0:	00b28463          	beq	t0,a1,80002af8 <inst_365>
80002af4:	4200106f          	j	80003f14 <bad_trap>

80002af8 <inst_365>:
80002af8:	0000b537          	lui	a0,0xb
80002afc:	50550513          	addi	a0,a0,1285 # b505 <offset+0xb49d>
80002b00:	00256593          	ori	a1,a0,2
80002b04:	54b22e23          	sw	a1,1372(tp) # 55c <offset+0x4f4>
80002b08:	0000b2b7          	lui	t0,0xb
80002b0c:	50728293          	addi	t0,t0,1287 # b507 <offset+0xb49f>
80002b10:	00b28463          	beq	t0,a1,80002b18 <inst_366>
80002b14:	4000106f          	j	80003f14 <bad_trap>

80002b18 <inst_366>:
80002b18:	0000b537          	lui	a0,0xb
80002b1c:	50550513          	addi	a0,a0,1285 # b505 <offset+0xb49d>
80002b20:	55456593          	ori	a1,a0,1364
80002b24:	56b22023          	sw	a1,1376(tp) # 560 <offset+0x4f8>
80002b28:	0000b2b7          	lui	t0,0xb
80002b2c:	55528293          	addi	t0,t0,1365 # b555 <offset+0xb4ed>
80002b30:	00b28463          	beq	t0,a1,80002b38 <inst_367>
80002b34:	3e00106f          	j	80003f14 <bad_trap>

80002b38 <inst_367>:
80002b38:	0000b537          	lui	a0,0xb
80002b3c:	50550513          	addi	a0,a0,1285 # b505 <offset+0xb49d>
80002b40:	00056593          	ori	a1,a0,0
80002b44:	56b22223          	sw	a1,1380(tp) # 564 <offset+0x4fc>
80002b48:	0000b2b7          	lui	t0,0xb
80002b4c:	50528293          	addi	t0,t0,1285 # b505 <offset+0xb49d>
80002b50:	00b28463          	beq	t0,a1,80002b58 <inst_368>
80002b54:	3c00106f          	j	80003f14 <bad_trap>

80002b58 <inst_368>:
80002b58:	0000b537          	lui	a0,0xb
80002b5c:	50550513          	addi	a0,a0,1285 # b505 <offset+0xb49d>
80002b60:	00456593          	ori	a1,a0,4
80002b64:	56b22423          	sw	a1,1384(tp) # 568 <offset+0x500>
80002b68:	0000b2b7          	lui	t0,0xb
80002b6c:	50528293          	addi	t0,t0,1285 # b505 <offset+0xb49d>
80002b70:	00b28463          	beq	t0,a1,80002b78 <inst_369>
80002b74:	3a00106f          	j	80003f14 <bad_trap>

80002b78 <inst_369>:
80002b78:	0000b537          	lui	a0,0xb
80002b7c:	50550513          	addi	a0,a0,1285 # b505 <offset+0xb49d>
80002b80:	33256593          	ori	a1,a0,818
80002b84:	56b22623          	sw	a1,1388(tp) # 56c <offset+0x504>
80002b88:	0000b2b7          	lui	t0,0xb
80002b8c:	73728293          	addi	t0,t0,1847 # b737 <offset+0xb6cf>
80002b90:	00b28463          	beq	t0,a1,80002b98 <inst_370>
80002b94:	3800106f          	j	80003f14 <bad_trap>

80002b98 <inst_370>:
80002b98:	0000b537          	lui	a0,0xb
80002b9c:	50550513          	addi	a0,a0,1285 # b505 <offset+0xb49d>
80002ba0:	66556593          	ori	a1,a0,1637
80002ba4:	56b22823          	sw	a1,1392(tp) # 570 <offset+0x508>
80002ba8:	0000b2b7          	lui	t0,0xb
80002bac:	76528293          	addi	t0,t0,1893 # b765 <offset+0xb6fd>
80002bb0:	00b28463          	beq	t0,a1,80002bb8 <inst_371>
80002bb4:	3600106f          	j	80003f14 <bad_trap>

80002bb8 <inst_371>:
80002bb8:	0000b537          	lui	a0,0xb
80002bbc:	50550513          	addi	a0,a0,1285 # b505 <offset+0xb49d>
80002bc0:	02c56593          	ori	a1,a0,44
80002bc4:	56b22a23          	sw	a1,1396(tp) # 574 <offset+0x50c>
80002bc8:	0000b2b7          	lui	t0,0xb
80002bcc:	52d28293          	addi	t0,t0,1325 # b52d <offset+0xb4c5>
80002bd0:	00b28463          	beq	t0,a1,80002bd8 <inst_372>
80002bd4:	3400106f          	j	80003f14 <bad_trap>

80002bd8 <inst_372>:
80002bd8:	0000b537          	lui	a0,0xb
80002bdc:	50550513          	addi	a0,a0,1285 # b505 <offset+0xb49d>
80002be0:	55656593          	ori	a1,a0,1366
80002be4:	56b22c23          	sw	a1,1400(tp) # 578 <offset+0x510>
80002be8:	0000b2b7          	lui	t0,0xb
80002bec:	55728293          	addi	t0,t0,1367 # b557 <offset+0xb4ef>
80002bf0:	00b28463          	beq	t0,a1,80002bf8 <inst_373>
80002bf4:	3200106f          	j	80003f14 <bad_trap>

80002bf8 <inst_373>:
80002bf8:	0000b537          	lui	a0,0xb
80002bfc:	50550513          	addi	a0,a0,1285 # b505 <offset+0xb49d>
80002c00:	aab56593          	ori	a1,a0,-1365
80002c04:	56b22e23          	sw	a1,1404(tp) # 57c <offset+0x514>
80002c08:	faf00293          	li	t0,-81
80002c0c:	00b28463          	beq	t0,a1,80002c14 <inst_374>
80002c10:	3040106f          	j	80003f14 <bad_trap>

80002c14 <inst_374>:
80002c14:	0000b537          	lui	a0,0xb
80002c18:	50550513          	addi	a0,a0,1285 # b505 <offset+0xb49d>
80002c1c:	00656593          	ori	a1,a0,6
80002c20:	58b22023          	sw	a1,1408(tp) # 580 <offset+0x518>
80002c24:	0000b2b7          	lui	t0,0xb
80002c28:	50728293          	addi	t0,t0,1287 # b507 <offset+0xb49f>
80002c2c:	00b28463          	beq	t0,a1,80002c34 <inst_375>
80002c30:	2e40106f          	j	80003f14 <bad_trap>

80002c34 <inst_375>:
80002c34:	0000b537          	lui	a0,0xb
80002c38:	50550513          	addi	a0,a0,1285 # b505 <offset+0xb49d>
80002c3c:	33456593          	ori	a1,a0,820
80002c40:	58b22223          	sw	a1,1412(tp) # 584 <offset+0x51c>
80002c44:	0000b2b7          	lui	t0,0xb
80002c48:	73528293          	addi	t0,t0,1845 # b735 <offset+0xb6cd>
80002c4c:	00b28463          	beq	t0,a1,80002c54 <inst_376>
80002c50:	2c40106f          	j	80003f14 <bad_trap>

80002c54 <inst_376>:
80002c54:	0000b537          	lui	a0,0xb
80002c58:	50550513          	addi	a0,a0,1285 # b505 <offset+0xb49d>
80002c5c:	66756593          	ori	a1,a0,1639
80002c60:	58b22423          	sw	a1,1416(tp) # 588 <offset+0x520>
80002c64:	0000b2b7          	lui	t0,0xb
80002c68:	76728293          	addi	t0,t0,1895 # b767 <offset+0xb6ff>
80002c6c:	00b28463          	beq	t0,a1,80002c74 <inst_377>
80002c70:	2a40106f          	j	80003f14 <bad_trap>

80002c74 <inst_377>:
80002c74:	0000b537          	lui	a0,0xb
80002c78:	50550513          	addi	a0,a0,1285 # b505 <offset+0xb49d>
80002c7c:	fd456593          	ori	a1,a0,-44
80002c80:	58b22623          	sw	a1,1420(tp) # 58c <offset+0x524>
80002c84:	fd500293          	li	t0,-43
80002c88:	00b28463          	beq	t0,a1,80002c90 <inst_378>
80002c8c:	2880106f          	j	80003f14 <bad_trap>

80002c90 <inst_378>:
80002c90:	0000b537          	lui	a0,0xb
80002c94:	50550513          	addi	a0,a0,1285 # b505 <offset+0xb49d>
80002c98:	02e56593          	ori	a1,a0,46
80002c9c:	58b22823          	sw	a1,1424(tp) # 590 <offset+0x528>
80002ca0:	0000b2b7          	lui	t0,0xb
80002ca4:	52f28293          	addi	t0,t0,1327 # b52f <offset+0xb4c7>
80002ca8:	00b28463          	beq	t0,a1,80002cb0 <inst_379>
80002cac:	2680106f          	j	80003f14 <bad_trap>

80002cb0 <inst_379>:
80002cb0:	00000513          	li	a0,0
80002cb4:	02d56593          	ori	a1,a0,45
80002cb8:	58b22a23          	sw	a1,1428(tp) # 594 <offset+0x52c>
80002cbc:	02d00293          	li	t0,45
80002cc0:	00b28463          	beq	t0,a1,80002cc8 <inst_380>
80002cc4:	2500106f          	j	80003f14 <bad_trap>

80002cc8 <inst_380>:
80002cc8:	00000513          	li	a0,0
80002ccc:	00256593          	ori	a1,a0,2
80002cd0:	58b22c23          	sw	a1,1432(tp) # 598 <offset+0x530>
80002cd4:	00200293          	li	t0,2
80002cd8:	00b28463          	beq	t0,a1,80002ce0 <inst_381>
80002cdc:	2380106f          	j	80003f14 <bad_trap>

80002ce0 <inst_381>:
80002ce0:	00000513          	li	a0,0
80002ce4:	55456593          	ori	a1,a0,1364
80002ce8:	58b22e23          	sw	a1,1436(tp) # 59c <offset+0x534>
80002cec:	55400293          	li	t0,1364
80002cf0:	00b28463          	beq	t0,a1,80002cf8 <inst_382>
80002cf4:	2200106f          	j	80003f14 <bad_trap>

80002cf8 <inst_382>:
80002cf8:	00000513          	li	a0,0
80002cfc:	00456593          	ori	a1,a0,4
80002d00:	5ab22023          	sw	a1,1440(tp) # 5a0 <offset+0x538>
80002d04:	00400293          	li	t0,4
80002d08:	00b28463          	beq	t0,a1,80002d10 <inst_383>
80002d0c:	2080106f          	j	80003f14 <bad_trap>

80002d10 <inst_383>:
80002d10:	00000513          	li	a0,0
80002d14:	33256593          	ori	a1,a0,818
80002d18:	5ab22223          	sw	a1,1444(tp) # 5a4 <offset+0x53c>
80002d1c:	33200293          	li	t0,818
80002d20:	00b28463          	beq	t0,a1,80002d28 <inst_384>
80002d24:	1f00106f          	j	80003f14 <bad_trap>

80002d28 <inst_384>:
80002d28:	00000513          	li	a0,0
80002d2c:	66556593          	ori	a1,a0,1637
80002d30:	5ab22423          	sw	a1,1448(tp) # 5a8 <offset+0x540>
80002d34:	66500293          	li	t0,1637
80002d38:	00b28463          	beq	t0,a1,80002d40 <inst_385>
80002d3c:	1d80106f          	j	80003f14 <bad_trap>

80002d40 <inst_385>:
80002d40:	00000513          	li	a0,0
80002d44:	02c56593          	ori	a1,a0,44
80002d48:	5ab22623          	sw	a1,1452(tp) # 5ac <offset+0x544>
80002d4c:	02c00293          	li	t0,44
80002d50:	00b28463          	beq	t0,a1,80002d58 <inst_386>
80002d54:	1c00106f          	j	80003f14 <bad_trap>

80002d58 <inst_386>:
80002d58:	00000513          	li	a0,0
80002d5c:	55656593          	ori	a1,a0,1366
80002d60:	5ab22823          	sw	a1,1456(tp) # 5b0 <offset+0x548>
80002d64:	55600293          	li	t0,1366
80002d68:	00b28463          	beq	t0,a1,80002d70 <inst_387>
80002d6c:	1a80106f          	j	80003f14 <bad_trap>

80002d70 <inst_387>:
80002d70:	00000513          	li	a0,0
80002d74:	aab56593          	ori	a1,a0,-1365
80002d78:	5ab22a23          	sw	a1,1460(tp) # 5b4 <offset+0x54c>
80002d7c:	aab00293          	li	t0,-1365
80002d80:	00b28463          	beq	t0,a1,80002d88 <inst_388>
80002d84:	1900106f          	j	80003f14 <bad_trap>

80002d88 <inst_388>:
80002d88:	00000513          	li	a0,0
80002d8c:	00656593          	ori	a1,a0,6
80002d90:	5ab22c23          	sw	a1,1464(tp) # 5b8 <offset+0x550>
80002d94:	00600293          	li	t0,6
80002d98:	00b28463          	beq	t0,a1,80002da0 <inst_389>
80002d9c:	1780106f          	j	80003f14 <bad_trap>

80002da0 <inst_389>:
80002da0:	00000513          	li	a0,0
80002da4:	33456593          	ori	a1,a0,820
80002da8:	5ab22e23          	sw	a1,1468(tp) # 5bc <offset+0x554>
80002dac:	33400293          	li	t0,820
80002db0:	00b28463          	beq	t0,a1,80002db8 <inst_390>
80002db4:	1600106f          	j	80003f14 <bad_trap>

80002db8 <inst_390>:
80002db8:	00000513          	li	a0,0
80002dbc:	66756593          	ori	a1,a0,1639
80002dc0:	5cb22023          	sw	a1,1472(tp) # 5c0 <offset+0x558>
80002dc4:	66700293          	li	t0,1639
80002dc8:	00b28463          	beq	t0,a1,80002dd0 <inst_391>
80002dcc:	1480106f          	j	80003f14 <bad_trap>

80002dd0 <inst_391>:
80002dd0:	00000513          	li	a0,0
80002dd4:	fd456593          	ori	a1,a0,-44
80002dd8:	5cb22223          	sw	a1,1476(tp) # 5c4 <offset+0x55c>
80002ddc:	fd400293          	li	t0,-44
80002de0:	00b28463          	beq	t0,a1,80002de8 <inst_392>
80002de4:	1300106f          	j	80003f14 <bad_trap>

80002de8 <inst_392>:
80002de8:	00000513          	li	a0,0
80002dec:	02e56593          	ori	a1,a0,46
80002df0:	5cb22423          	sw	a1,1480(tp) # 5c8 <offset+0x560>
80002df4:	02e00293          	li	t0,46
80002df8:	00b28463          	beq	t0,a1,80002e00 <inst_393>
80002dfc:	1180106f          	j	80003f14 <bad_trap>

80002e00 <inst_393>:
80002e00:	00400513          	li	a0,4
80002e04:	00356593          	ori	a1,a0,3
80002e08:	5cb22623          	sw	a1,1484(tp) # 5cc <offset+0x564>
80002e0c:	00700293          	li	t0,7
80002e10:	00b28463          	beq	t0,a1,80002e18 <inst_394>
80002e14:	1000106f          	j	80003f14 <bad_trap>

80002e18 <inst_394>:
80002e18:	00400513          	li	a0,4
80002e1c:	55556593          	ori	a1,a0,1365
80002e20:	5cb22823          	sw	a1,1488(tp) # 5d0 <offset+0x568>
80002e24:	55500293          	li	t0,1365
80002e28:	00b28463          	beq	t0,a1,80002e30 <inst_395>
80002e2c:	0e80106f          	j	80003f14 <bad_trap>

80002e30 <inst_395>:
80002e30:	00400513          	li	a0,4
80002e34:	aaa56593          	ori	a1,a0,-1366
80002e38:	5cb22a23          	sw	a1,1492(tp) # 5d4 <offset+0x56c>
80002e3c:	aae00293          	li	t0,-1362
80002e40:	00b28463          	beq	t0,a1,80002e48 <inst_396>
80002e44:	0d00106f          	j	80003f14 <bad_trap>

80002e48 <inst_396>:
80002e48:	00400513          	li	a0,4
80002e4c:	33356593          	ori	a1,a0,819
80002e50:	5cb22c23          	sw	a1,1496(tp) # 5d8 <offset+0x570>
80002e54:	33700293          	li	t0,823
80002e58:	00b28463          	beq	t0,a1,80002e60 <inst_397>
80002e5c:	0b80106f          	j	80003f14 <bad_trap>

80002e60 <inst_397>:
80002e60:	00400513          	li	a0,4
80002e64:	66656593          	ori	a1,a0,1638
80002e68:	5cb22e23          	sw	a1,1500(tp) # 5dc <offset+0x574>
80002e6c:	66600293          	li	t0,1638
80002e70:	00b28463          	beq	t0,a1,80002e78 <inst_398>
80002e74:	0a00106f          	j	80003f14 <bad_trap>

80002e78 <inst_398>:
80002e78:	00400513          	li	a0,4
80002e7c:	fd356593          	ori	a1,a0,-45
80002e80:	5eb22023          	sw	a1,1504(tp) # 5e0 <offset+0x578>
80002e84:	fd700293          	li	t0,-41
80002e88:	00b28463          	beq	t0,a1,80002e90 <inst_399>
80002e8c:	0880106f          	j	80003f14 <bad_trap>

80002e90 <inst_399>:
80002e90:	00400513          	li	a0,4
80002e94:	02d56593          	ori	a1,a0,45
80002e98:	5eb22223          	sw	a1,1508(tp) # 5e4 <offset+0x57c>
80002e9c:	02d00293          	li	t0,45
80002ea0:	00b28463          	beq	t0,a1,80002ea8 <inst_400>
80002ea4:	0700106f          	j	80003f14 <bad_trap>

80002ea8 <inst_400>:
80002ea8:	00400513          	li	a0,4
80002eac:	00256593          	ori	a1,a0,2
80002eb0:	5eb22423          	sw	a1,1512(tp) # 5e8 <offset+0x580>
80002eb4:	00600293          	li	t0,6
80002eb8:	00b28463          	beq	t0,a1,80002ec0 <inst_401>
80002ebc:	0580106f          	j	80003f14 <bad_trap>

80002ec0 <inst_401>:
80002ec0:	00400513          	li	a0,4
80002ec4:	55456593          	ori	a1,a0,1364
80002ec8:	5eb22623          	sw	a1,1516(tp) # 5ec <offset+0x584>
80002ecc:	55400293          	li	t0,1364
80002ed0:	00b28463          	beq	t0,a1,80002ed8 <inst_402>
80002ed4:	0400106f          	j	80003f14 <bad_trap>

80002ed8 <inst_402>:
80002ed8:	00400513          	li	a0,4
80002edc:	00056593          	ori	a1,a0,0
80002ee0:	5eb22823          	sw	a1,1520(tp) # 5f0 <offset+0x588>
80002ee4:	00400293          	li	t0,4
80002ee8:	00b28463          	beq	t0,a1,80002ef0 <inst_403>
80002eec:	0280106f          	j	80003f14 <bad_trap>

80002ef0 <inst_403>:
80002ef0:	00400513          	li	a0,4
80002ef4:	00456593          	ori	a1,a0,4
80002ef8:	5eb22a23          	sw	a1,1524(tp) # 5f4 <offset+0x58c>
80002efc:	00400293          	li	t0,4
80002f00:	00b28463          	beq	t0,a1,80002f08 <inst_404>
80002f04:	0100106f          	j	80003f14 <bad_trap>

80002f08 <inst_404>:
80002f08:	00400513          	li	a0,4
80002f0c:	33256593          	ori	a1,a0,818
80002f10:	5eb22c23          	sw	a1,1528(tp) # 5f8 <offset+0x590>
80002f14:	33600293          	li	t0,822
80002f18:	00b28463          	beq	t0,a1,80002f20 <inst_405>
80002f1c:	7f90006f          	j	80003f14 <bad_trap>

80002f20 <inst_405>:
80002f20:	00400513          	li	a0,4
80002f24:	66556593          	ori	a1,a0,1637
80002f28:	5eb22e23          	sw	a1,1532(tp) # 5fc <offset+0x594>
80002f2c:	66500293          	li	t0,1637
80002f30:	7eb292e3          	bne	t0,a1,80003f14 <bad_trap>

80002f34 <inst_406>:
80002f34:	00400513          	li	a0,4
80002f38:	02c56593          	ori	a1,a0,44
80002f3c:	60b22023          	sw	a1,1536(tp) # 600 <offset+0x598>
80002f40:	02c00293          	li	t0,44
80002f44:	7cb298e3          	bne	t0,a1,80003f14 <bad_trap>

80002f48 <inst_407>:
80002f48:	00400513          	li	a0,4
80002f4c:	55656593          	ori	a1,a0,1366
80002f50:	60b22223          	sw	a1,1540(tp) # 604 <offset+0x59c>
80002f54:	55600293          	li	t0,1366
80002f58:	7ab29ee3          	bne	t0,a1,80003f14 <bad_trap>

80002f5c <inst_408>:
80002f5c:	00400513          	li	a0,4
80002f60:	aab56593          	ori	a1,a0,-1365
80002f64:	60b22423          	sw	a1,1544(tp) # 608 <offset+0x5a0>
80002f68:	aaf00293          	li	t0,-1361
80002f6c:	7ab294e3          	bne	t0,a1,80003f14 <bad_trap>

80002f70 <inst_409>:
80002f70:	00400513          	li	a0,4
80002f74:	00656593          	ori	a1,a0,6
80002f78:	60b22623          	sw	a1,1548(tp) # 60c <offset+0x5a4>
80002f7c:	00600293          	li	t0,6
80002f80:	78b29ae3          	bne	t0,a1,80003f14 <bad_trap>

80002f84 <inst_410>:
80002f84:	00400513          	li	a0,4
80002f88:	33456593          	ori	a1,a0,820
80002f8c:	60b22823          	sw	a1,1552(tp) # 610 <offset+0x5a8>
80002f90:	33400293          	li	t0,820
80002f94:	78b290e3          	bne	t0,a1,80003f14 <bad_trap>

80002f98 <inst_411>:
80002f98:	00400513          	li	a0,4
80002f9c:	66756593          	ori	a1,a0,1639
80002fa0:	60b22a23          	sw	a1,1556(tp) # 614 <offset+0x5ac>
80002fa4:	66700293          	li	t0,1639
80002fa8:	76b296e3          	bne	t0,a1,80003f14 <bad_trap>

80002fac <inst_412>:
80002fac:	00400513          	li	a0,4
80002fb0:	fd456593          	ori	a1,a0,-44
80002fb4:	60b22c23          	sw	a1,1560(tp) # 618 <offset+0x5b0>
80002fb8:	fd400293          	li	t0,-44
80002fbc:	74b29ce3          	bne	t0,a1,80003f14 <bad_trap>

80002fc0 <inst_413>:
80002fc0:	00400513          	li	a0,4
80002fc4:	02e56593          	ori	a1,a0,46
80002fc8:	60b22e23          	sw	a1,1564(tp) # 61c <offset+0x5b4>
80002fcc:	02e00293          	li	t0,46
80002fd0:	74b292e3          	bne	t0,a1,80003f14 <bad_trap>

80002fd4 <inst_414>:
80002fd4:	33333537          	lui	a0,0x33333
80002fd8:	33250513          	addi	a0,a0,818 # 33333332 <offset+0x333332ca>
80002fdc:	00356593          	ori	a1,a0,3
80002fe0:	62b22023          	sw	a1,1568(tp) # 620 <offset+0x5b8>
80002fe4:	333332b7          	lui	t0,0x33333
80002fe8:	33328293          	addi	t0,t0,819 # 33333333 <offset+0x333332cb>
80002fec:	72b294e3          	bne	t0,a1,80003f14 <bad_trap>

80002ff0 <inst_415>:
80002ff0:	33333537          	lui	a0,0x33333
80002ff4:	33250513          	addi	a0,a0,818 # 33333332 <offset+0x333332ca>
80002ff8:	55556593          	ori	a1,a0,1365
80002ffc:	62b22223          	sw	a1,1572(tp) # 624 <offset+0x5bc>
80003000:	333332b7          	lui	t0,0x33333
80003004:	77728293          	addi	t0,t0,1911 # 33333777 <offset+0x3333370f>
80003008:	70b296e3          	bne	t0,a1,80003f14 <bad_trap>

8000300c <inst_416>:
8000300c:	33333537          	lui	a0,0x33333
80003010:	33250513          	addi	a0,a0,818 # 33333332 <offset+0x333332ca>
80003014:	aaa56593          	ori	a1,a0,-1366
80003018:	62b22423          	sw	a1,1576(tp) # 628 <offset+0x5c0>
8000301c:	bba00293          	li	t0,-1094
80003020:	6eb29ae3          	bne	t0,a1,80003f14 <bad_trap>

80003024 <inst_417>:
80003024:	33333537          	lui	a0,0x33333
80003028:	33250513          	addi	a0,a0,818 # 33333332 <offset+0x333332ca>
8000302c:	00556593          	ori	a1,a0,5
80003030:	62b22623          	sw	a1,1580(tp) # 62c <offset+0x5c4>
80003034:	333332b7          	lui	t0,0x33333
80003038:	33728293          	addi	t0,t0,823 # 33333337 <offset+0x333332cf>
8000303c:	6cb29ce3          	bne	t0,a1,80003f14 <bad_trap>

80003040 <inst_418>:
80003040:	33333537          	lui	a0,0x33333
80003044:	33250513          	addi	a0,a0,818 # 33333332 <offset+0x333332ca>
80003048:	33356593          	ori	a1,a0,819
8000304c:	62b22823          	sw	a1,1584(tp) # 630 <offset+0x5c8>
80003050:	333332b7          	lui	t0,0x33333
80003054:	33328293          	addi	t0,t0,819 # 33333333 <offset+0x333332cb>
80003058:	6ab29ee3          	bne	t0,a1,80003f14 <bad_trap>

8000305c <inst_419>:
8000305c:	33333537          	lui	a0,0x33333
80003060:	33250513          	addi	a0,a0,818 # 33333332 <offset+0x333332ca>
80003064:	66656593          	ori	a1,a0,1638
80003068:	62b22a23          	sw	a1,1588(tp) # 634 <offset+0x5cc>
8000306c:	333332b7          	lui	t0,0x33333
80003070:	77628293          	addi	t0,t0,1910 # 33333776 <offset+0x3333370e>
80003074:	6ab290e3          	bne	t0,a1,80003f14 <bad_trap>

80003078 <inst_420>:
80003078:	33333537          	lui	a0,0x33333
8000307c:	33250513          	addi	a0,a0,818 # 33333332 <offset+0x333332ca>
80003080:	fd356593          	ori	a1,a0,-45
80003084:	62b22c23          	sw	a1,1592(tp) # 638 <offset+0x5d0>
80003088:	ff300293          	li	t0,-13
8000308c:	68b294e3          	bne	t0,a1,80003f14 <bad_trap>

80003090 <inst_421>:
80003090:	33333537          	lui	a0,0x33333
80003094:	33250513          	addi	a0,a0,818 # 33333332 <offset+0x333332ca>
80003098:	02d56593          	ori	a1,a0,45
8000309c:	62b22e23          	sw	a1,1596(tp) # 63c <offset+0x5d4>
800030a0:	333332b7          	lui	t0,0x33333
800030a4:	33f28293          	addi	t0,t0,831 # 3333333f <offset+0x333332d7>
800030a8:	66b296e3          	bne	t0,a1,80003f14 <bad_trap>

800030ac <inst_422>:
800030ac:	33333537          	lui	a0,0x33333
800030b0:	33250513          	addi	a0,a0,818 # 33333332 <offset+0x333332ca>
800030b4:	00256593          	ori	a1,a0,2
800030b8:	64b22023          	sw	a1,1600(tp) # 640 <offset+0x5d8>
800030bc:	333332b7          	lui	t0,0x33333
800030c0:	33228293          	addi	t0,t0,818 # 33333332 <offset+0x333332ca>
800030c4:	64b298e3          	bne	t0,a1,80003f14 <bad_trap>

800030c8 <inst_423>:
800030c8:	33333537          	lui	a0,0x33333
800030cc:	33250513          	addi	a0,a0,818 # 33333332 <offset+0x333332ca>
800030d0:	55456593          	ori	a1,a0,1364
800030d4:	64b22223          	sw	a1,1604(tp) # 644 <offset+0x5dc>
800030d8:	333332b7          	lui	t0,0x33333
800030dc:	77628293          	addi	t0,t0,1910 # 33333776 <offset+0x3333370e>
800030e0:	62b29ae3          	bne	t0,a1,80003f14 <bad_trap>

800030e4 <inst_424>:
800030e4:	33333537          	lui	a0,0x33333
800030e8:	33250513          	addi	a0,a0,818 # 33333332 <offset+0x333332ca>
800030ec:	00056593          	ori	a1,a0,0
800030f0:	64b22423          	sw	a1,1608(tp) # 648 <offset+0x5e0>
800030f4:	333332b7          	lui	t0,0x33333
800030f8:	33228293          	addi	t0,t0,818 # 33333332 <offset+0x333332ca>
800030fc:	60b29ce3          	bne	t0,a1,80003f14 <bad_trap>

80003100 <inst_425>:
80003100:	33333537          	lui	a0,0x33333
80003104:	33250513          	addi	a0,a0,818 # 33333332 <offset+0x333332ca>
80003108:	00456593          	ori	a1,a0,4
8000310c:	64b22623          	sw	a1,1612(tp) # 64c <offset+0x5e4>
80003110:	333332b7          	lui	t0,0x33333
80003114:	33628293          	addi	t0,t0,822 # 33333336 <offset+0x333332ce>
80003118:	5eb29ee3          	bne	t0,a1,80003f14 <bad_trap>

8000311c <inst_426>:
8000311c:	33333537          	lui	a0,0x33333
80003120:	33250513          	addi	a0,a0,818 # 33333332 <offset+0x333332ca>
80003124:	33256593          	ori	a1,a0,818
80003128:	64b22823          	sw	a1,1616(tp) # 650 <offset+0x5e8>
8000312c:	333332b7          	lui	t0,0x33333
80003130:	33228293          	addi	t0,t0,818 # 33333332 <offset+0x333332ca>
80003134:	5eb290e3          	bne	t0,a1,80003f14 <bad_trap>

80003138 <inst_427>:
80003138:	33333537          	lui	a0,0x33333
8000313c:	33250513          	addi	a0,a0,818 # 33333332 <offset+0x333332ca>
80003140:	66556593          	ori	a1,a0,1637
80003144:	64b22a23          	sw	a1,1620(tp) # 654 <offset+0x5ec>
80003148:	333332b7          	lui	t0,0x33333
8000314c:	77728293          	addi	t0,t0,1911 # 33333777 <offset+0x3333370f>
80003150:	5cb292e3          	bne	t0,a1,80003f14 <bad_trap>

80003154 <inst_428>:
80003154:	33333537          	lui	a0,0x33333
80003158:	33250513          	addi	a0,a0,818 # 33333332 <offset+0x333332ca>
8000315c:	02c56593          	ori	a1,a0,44
80003160:	64b22c23          	sw	a1,1624(tp) # 658 <offset+0x5f0>
80003164:	333332b7          	lui	t0,0x33333
80003168:	33e28293          	addi	t0,t0,830 # 3333333e <offset+0x333332d6>
8000316c:	5ab294e3          	bne	t0,a1,80003f14 <bad_trap>

80003170 <inst_429>:
80003170:	33333537          	lui	a0,0x33333
80003174:	33250513          	addi	a0,a0,818 # 33333332 <offset+0x333332ca>
80003178:	55656593          	ori	a1,a0,1366
8000317c:	64b22e23          	sw	a1,1628(tp) # 65c <offset+0x5f4>
80003180:	333332b7          	lui	t0,0x33333
80003184:	77628293          	addi	t0,t0,1910 # 33333776 <offset+0x3333370e>
80003188:	58b296e3          	bne	t0,a1,80003f14 <bad_trap>

8000318c <inst_430>:
8000318c:	33333537          	lui	a0,0x33333
80003190:	33250513          	addi	a0,a0,818 # 33333332 <offset+0x333332ca>
80003194:	aab56593          	ori	a1,a0,-1365
80003198:	66b22023          	sw	a1,1632(tp) # 660 <offset+0x5f8>
8000319c:	bbb00293          	li	t0,-1093
800031a0:	56b29ae3          	bne	t0,a1,80003f14 <bad_trap>

800031a4 <inst_431>:
800031a4:	33333537          	lui	a0,0x33333
800031a8:	33250513          	addi	a0,a0,818 # 33333332 <offset+0x333332ca>
800031ac:	00656593          	ori	a1,a0,6
800031b0:	66b22223          	sw	a1,1636(tp) # 664 <offset+0x5fc>
800031b4:	333332b7          	lui	t0,0x33333
800031b8:	33628293          	addi	t0,t0,822 # 33333336 <offset+0x333332ce>
800031bc:	54b29ce3          	bne	t0,a1,80003f14 <bad_trap>

800031c0 <inst_432>:
800031c0:	33333537          	lui	a0,0x33333
800031c4:	33250513          	addi	a0,a0,818 # 33333332 <offset+0x333332ca>
800031c8:	33456593          	ori	a1,a0,820
800031cc:	66b22423          	sw	a1,1640(tp) # 668 <offset+0x600>
800031d0:	333332b7          	lui	t0,0x33333
800031d4:	33628293          	addi	t0,t0,822 # 33333336 <offset+0x333332ce>
800031d8:	52b29ee3          	bne	t0,a1,80003f14 <bad_trap>

800031dc <inst_433>:
800031dc:	33333537          	lui	a0,0x33333
800031e0:	33250513          	addi	a0,a0,818 # 33333332 <offset+0x333332ca>
800031e4:	66756593          	ori	a1,a0,1639
800031e8:	66b22623          	sw	a1,1644(tp) # 66c <offset+0x604>
800031ec:	333332b7          	lui	t0,0x33333
800031f0:	77728293          	addi	t0,t0,1911 # 33333777 <offset+0x3333370f>
800031f4:	52b290e3          	bne	t0,a1,80003f14 <bad_trap>

800031f8 <inst_434>:
800031f8:	33333537          	lui	a0,0x33333
800031fc:	33250513          	addi	a0,a0,818 # 33333332 <offset+0x333332ca>
80003200:	fd456593          	ori	a1,a0,-44
80003204:	66b22823          	sw	a1,1648(tp) # 670 <offset+0x608>
80003208:	ff600293          	li	t0,-10
8000320c:	50b294e3          	bne	t0,a1,80003f14 <bad_trap>

80003210 <inst_435>:
80003210:	33333537          	lui	a0,0x33333
80003214:	33250513          	addi	a0,a0,818 # 33333332 <offset+0x333332ca>
80003218:	02e56593          	ori	a1,a0,46
8000321c:	66b22a23          	sw	a1,1652(tp) # 674 <offset+0x60c>
80003220:	333332b7          	lui	t0,0x33333
80003224:	33e28293          	addi	t0,t0,830 # 3333333e <offset+0x333332d6>
80003228:	4eb296e3          	bne	t0,a1,80003f14 <bad_trap>

8000322c <inst_436>:
8000322c:	66666537          	lui	a0,0x66666
80003230:	66550513          	addi	a0,a0,1637 # 66666665 <absimm+0x21374136>
80003234:	00356593          	ori	a1,a0,3
80003238:	66b22c23          	sw	a1,1656(tp) # 678 <offset+0x610>
8000323c:	666662b7          	lui	t0,0x66666
80003240:	66728293          	addi	t0,t0,1639 # 66666667 <absimm+0x21374138>
80003244:	4cb298e3          	bne	t0,a1,80003f14 <bad_trap>

80003248 <inst_437>:
80003248:	66666537          	lui	a0,0x66666
8000324c:	66550513          	addi	a0,a0,1637 # 66666665 <absimm+0x21374136>
80003250:	55556593          	ori	a1,a0,1365
80003254:	66b22e23          	sw	a1,1660(tp) # 67c <offset+0x614>
80003258:	666662b7          	lui	t0,0x66666
8000325c:	77528293          	addi	t0,t0,1909 # 66666775 <absimm+0x21374246>
80003260:	4ab29ae3          	bne	t0,a1,80003f14 <bad_trap>

80003264 <inst_438>:
80003264:	66666537          	lui	a0,0x66666
80003268:	66550513          	addi	a0,a0,1637 # 66666665 <absimm+0x21374136>
8000326c:	aaa56593          	ori	a1,a0,-1366
80003270:	68b22023          	sw	a1,1664(tp) # 680 <offset+0x618>
80003274:	eef00293          	li	t0,-273
80003278:	48b29ee3          	bne	t0,a1,80003f14 <bad_trap>

8000327c <inst_439>:
8000327c:	66666537          	lui	a0,0x66666
80003280:	66550513          	addi	a0,a0,1637 # 66666665 <absimm+0x21374136>
80003284:	00556593          	ori	a1,a0,5
80003288:	68b22223          	sw	a1,1668(tp) # 684 <offset+0x61c>
8000328c:	666662b7          	lui	t0,0x66666
80003290:	66528293          	addi	t0,t0,1637 # 66666665 <absimm+0x21374136>
80003294:	48b290e3          	bne	t0,a1,80003f14 <bad_trap>

80003298 <inst_440>:
80003298:	66666537          	lui	a0,0x66666
8000329c:	66550513          	addi	a0,a0,1637 # 66666665 <absimm+0x21374136>
800032a0:	33356593          	ori	a1,a0,819
800032a4:	68b22423          	sw	a1,1672(tp) # 688 <offset+0x620>
800032a8:	666662b7          	lui	t0,0x66666
800032ac:	77728293          	addi	t0,t0,1911 # 66666777 <absimm+0x21374248>
800032b0:	46b292e3          	bne	t0,a1,80003f14 <bad_trap>

800032b4 <inst_441>:
800032b4:	66666537          	lui	a0,0x66666
800032b8:	66550513          	addi	a0,a0,1637 # 66666665 <absimm+0x21374136>
800032bc:	66656593          	ori	a1,a0,1638
800032c0:	68b22623          	sw	a1,1676(tp) # 68c <offset+0x624>
800032c4:	666662b7          	lui	t0,0x66666
800032c8:	66728293          	addi	t0,t0,1639 # 66666667 <absimm+0x21374138>
800032cc:	44b294e3          	bne	t0,a1,80003f14 <bad_trap>

800032d0 <inst_442>:
800032d0:	66666537          	lui	a0,0x66666
800032d4:	66550513          	addi	a0,a0,1637 # 66666665 <absimm+0x21374136>
800032d8:	fd356593          	ori	a1,a0,-45
800032dc:	68b22823          	sw	a1,1680(tp) # 690 <offset+0x628>
800032e0:	ff700293          	li	t0,-9
800032e4:	42b298e3          	bne	t0,a1,80003f14 <bad_trap>

800032e8 <inst_443>:
800032e8:	66666537          	lui	a0,0x66666
800032ec:	66550513          	addi	a0,a0,1637 # 66666665 <absimm+0x21374136>
800032f0:	02d56593          	ori	a1,a0,45
800032f4:	68b22a23          	sw	a1,1684(tp) # 694 <offset+0x62c>
800032f8:	666662b7          	lui	t0,0x66666
800032fc:	66d28293          	addi	t0,t0,1645 # 6666666d <absimm+0x2137413e>
80003300:	40b29ae3          	bne	t0,a1,80003f14 <bad_trap>

80003304 <inst_444>:
80003304:	66666537          	lui	a0,0x66666
80003308:	66550513          	addi	a0,a0,1637 # 66666665 <absimm+0x21374136>
8000330c:	00256593          	ori	a1,a0,2
80003310:	68b22c23          	sw	a1,1688(tp) # 698 <offset+0x630>
80003314:	666662b7          	lui	t0,0x66666
80003318:	66728293          	addi	t0,t0,1639 # 66666667 <absimm+0x21374138>
8000331c:	3eb29ce3          	bne	t0,a1,80003f14 <bad_trap>

80003320 <inst_445>:
80003320:	66666537          	lui	a0,0x66666
80003324:	66550513          	addi	a0,a0,1637 # 66666665 <absimm+0x21374136>
80003328:	55456593          	ori	a1,a0,1364
8000332c:	68b22e23          	sw	a1,1692(tp) # 69c <offset+0x634>
80003330:	666662b7          	lui	t0,0x66666
80003334:	77528293          	addi	t0,t0,1909 # 66666775 <absimm+0x21374246>
80003338:	3cb29ee3          	bne	t0,a1,80003f14 <bad_trap>

8000333c <inst_446>:
8000333c:	66666537          	lui	a0,0x66666
80003340:	66550513          	addi	a0,a0,1637 # 66666665 <absimm+0x21374136>
80003344:	00056593          	ori	a1,a0,0
80003348:	6ab22023          	sw	a1,1696(tp) # 6a0 <offset+0x638>
8000334c:	666662b7          	lui	t0,0x66666
80003350:	66528293          	addi	t0,t0,1637 # 66666665 <absimm+0x21374136>
80003354:	3cb290e3          	bne	t0,a1,80003f14 <bad_trap>

80003358 <inst_447>:
80003358:	66666537          	lui	a0,0x66666
8000335c:	66550513          	addi	a0,a0,1637 # 66666665 <absimm+0x21374136>
80003360:	00456593          	ori	a1,a0,4
80003364:	6ab22223          	sw	a1,1700(tp) # 6a4 <offset+0x63c>
80003368:	666662b7          	lui	t0,0x66666
8000336c:	66528293          	addi	t0,t0,1637 # 66666665 <absimm+0x21374136>
80003370:	3ab292e3          	bne	t0,a1,80003f14 <bad_trap>

80003374 <inst_448>:
80003374:	66666537          	lui	a0,0x66666
80003378:	66550513          	addi	a0,a0,1637 # 66666665 <absimm+0x21374136>
8000337c:	33256593          	ori	a1,a0,818
80003380:	6ab22423          	sw	a1,1704(tp) # 6a8 <offset+0x640>
80003384:	666662b7          	lui	t0,0x66666
80003388:	77728293          	addi	t0,t0,1911 # 66666777 <absimm+0x21374248>
8000338c:	38b294e3          	bne	t0,a1,80003f14 <bad_trap>

80003390 <inst_449>:
80003390:	66666537          	lui	a0,0x66666
80003394:	66550513          	addi	a0,a0,1637 # 66666665 <absimm+0x21374136>
80003398:	66556593          	ori	a1,a0,1637
8000339c:	6ab22623          	sw	a1,1708(tp) # 6ac <offset+0x644>
800033a0:	666662b7          	lui	t0,0x66666
800033a4:	66528293          	addi	t0,t0,1637 # 66666665 <absimm+0x21374136>
800033a8:	36b296e3          	bne	t0,a1,80003f14 <bad_trap>

800033ac <inst_450>:
800033ac:	66666537          	lui	a0,0x66666
800033b0:	66550513          	addi	a0,a0,1637 # 66666665 <absimm+0x21374136>
800033b4:	02c56593          	ori	a1,a0,44
800033b8:	6ab22823          	sw	a1,1712(tp) # 6b0 <offset+0x648>
800033bc:	666662b7          	lui	t0,0x66666
800033c0:	66d28293          	addi	t0,t0,1645 # 6666666d <absimm+0x2137413e>
800033c4:	34b298e3          	bne	t0,a1,80003f14 <bad_trap>

800033c8 <inst_451>:
800033c8:	66666537          	lui	a0,0x66666
800033cc:	66550513          	addi	a0,a0,1637 # 66666665 <absimm+0x21374136>
800033d0:	55656593          	ori	a1,a0,1366
800033d4:	6ab22a23          	sw	a1,1716(tp) # 6b4 <offset+0x64c>
800033d8:	666662b7          	lui	t0,0x66666
800033dc:	77728293          	addi	t0,t0,1911 # 66666777 <absimm+0x21374248>
800033e0:	32b29ae3          	bne	t0,a1,80003f14 <bad_trap>

800033e4 <inst_452>:
800033e4:	66666537          	lui	a0,0x66666
800033e8:	66550513          	addi	a0,a0,1637 # 66666665 <absimm+0x21374136>
800033ec:	aab56593          	ori	a1,a0,-1365
800033f0:	6ab22c23          	sw	a1,1720(tp) # 6b8 <offset+0x650>
800033f4:	eef00293          	li	t0,-273
800033f8:	30b29ee3          	bne	t0,a1,80003f14 <bad_trap>

800033fc <inst_453>:
800033fc:	66666537          	lui	a0,0x66666
80003400:	66550513          	addi	a0,a0,1637 # 66666665 <absimm+0x21374136>
80003404:	00656593          	ori	a1,a0,6
80003408:	6ab22e23          	sw	a1,1724(tp) # 6bc <offset+0x654>
8000340c:	666662b7          	lui	t0,0x66666
80003410:	66728293          	addi	t0,t0,1639 # 66666667 <absimm+0x21374138>
80003414:	30b290e3          	bne	t0,a1,80003f14 <bad_trap>

80003418 <inst_454>:
80003418:	66666537          	lui	a0,0x66666
8000341c:	66550513          	addi	a0,a0,1637 # 66666665 <absimm+0x21374136>
80003420:	33456593          	ori	a1,a0,820
80003424:	6cb22023          	sw	a1,1728(tp) # 6c0 <offset+0x658>
80003428:	666662b7          	lui	t0,0x66666
8000342c:	77528293          	addi	t0,t0,1909 # 66666775 <absimm+0x21374246>
80003430:	2eb292e3          	bne	t0,a1,80003f14 <bad_trap>

80003434 <inst_455>:
80003434:	66666537          	lui	a0,0x66666
80003438:	66550513          	addi	a0,a0,1637 # 66666665 <absimm+0x21374136>
8000343c:	66756593          	ori	a1,a0,1639
80003440:	6cb22223          	sw	a1,1732(tp) # 6c4 <offset+0x65c>
80003444:	666662b7          	lui	t0,0x66666
80003448:	66728293          	addi	t0,t0,1639 # 66666667 <absimm+0x21374138>
8000344c:	2cb294e3          	bne	t0,a1,80003f14 <bad_trap>

80003450 <inst_456>:
80003450:	66666537          	lui	a0,0x66666
80003454:	66550513          	addi	a0,a0,1637 # 66666665 <absimm+0x21374136>
80003458:	fd456593          	ori	a1,a0,-44
8000345c:	6cb22423          	sw	a1,1736(tp) # 6c8 <offset+0x660>
80003460:	ff500293          	li	t0,-11
80003464:	2ab298e3          	bne	t0,a1,80003f14 <bad_trap>

80003468 <inst_457>:
80003468:	66666537          	lui	a0,0x66666
8000346c:	66550513          	addi	a0,a0,1637 # 66666665 <absimm+0x21374136>
80003470:	02e56593          	ori	a1,a0,46
80003474:	6cb22623          	sw	a1,1740(tp) # 6cc <offset+0x664>
80003478:	666662b7          	lui	t0,0x66666
8000347c:	66f28293          	addi	t0,t0,1647 # 6666666f <absimm+0x21374140>
80003480:	28b29ae3          	bne	t0,a1,80003f14 <bad_trap>

80003484 <inst_458>:
80003484:	0000b537          	lui	a0,0xb
80003488:	50350513          	addi	a0,a0,1283 # b503 <offset+0xb49b>
8000348c:	00356593          	ori	a1,a0,3
80003490:	6cb22823          	sw	a1,1744(tp) # 6d0 <offset+0x668>
80003494:	0000b2b7          	lui	t0,0xb
80003498:	50328293          	addi	t0,t0,1283 # b503 <offset+0xb49b>
8000349c:	26b29ce3          	bne	t0,a1,80003f14 <bad_trap>

800034a0 <inst_459>:
800034a0:	0000b537          	lui	a0,0xb
800034a4:	50350513          	addi	a0,a0,1283 # b503 <offset+0xb49b>
800034a8:	55556593          	ori	a1,a0,1365
800034ac:	6cb22a23          	sw	a1,1748(tp) # 6d4 <offset+0x66c>
800034b0:	0000b2b7          	lui	t0,0xb
800034b4:	55728293          	addi	t0,t0,1367 # b557 <offset+0xb4ef>
800034b8:	24b29ee3          	bne	t0,a1,80003f14 <bad_trap>

800034bc <inst_460>:
800034bc:	0000b537          	lui	a0,0xb
800034c0:	50350513          	addi	a0,a0,1283 # b503 <offset+0xb49b>
800034c4:	aaa56593          	ori	a1,a0,-1366
800034c8:	6cb22c23          	sw	a1,1752(tp) # 6d8 <offset+0x670>
800034cc:	fab00293          	li	t0,-85
800034d0:	24b292e3          	bne	t0,a1,80003f14 <bad_trap>

800034d4 <inst_461>:
800034d4:	0000b537          	lui	a0,0xb
800034d8:	50350513          	addi	a0,a0,1283 # b503 <offset+0xb49b>
800034dc:	00556593          	ori	a1,a0,5
800034e0:	6cb22e23          	sw	a1,1756(tp) # 6dc <offset+0x674>
800034e4:	0000b2b7          	lui	t0,0xb
800034e8:	50728293          	addi	t0,t0,1287 # b507 <offset+0xb49f>
800034ec:	22b294e3          	bne	t0,a1,80003f14 <bad_trap>

800034f0 <inst_462>:
800034f0:	0000b537          	lui	a0,0xb
800034f4:	50350513          	addi	a0,a0,1283 # b503 <offset+0xb49b>
800034f8:	33356593          	ori	a1,a0,819
800034fc:	6eb22023          	sw	a1,1760(tp) # 6e0 <offset+0x678>
80003500:	0000b2b7          	lui	t0,0xb
80003504:	73328293          	addi	t0,t0,1843 # b733 <offset+0xb6cb>
80003508:	20b296e3          	bne	t0,a1,80003f14 <bad_trap>

8000350c <inst_463>:
8000350c:	0000b537          	lui	a0,0xb
80003510:	50350513          	addi	a0,a0,1283 # b503 <offset+0xb49b>
80003514:	66656593          	ori	a1,a0,1638
80003518:	6eb22223          	sw	a1,1764(tp) # 6e4 <offset+0x67c>
8000351c:	0000b2b7          	lui	t0,0xb
80003520:	76728293          	addi	t0,t0,1895 # b767 <offset+0xb6ff>
80003524:	1eb298e3          	bne	t0,a1,80003f14 <bad_trap>

80003528 <inst_464>:
80003528:	0000b537          	lui	a0,0xb
8000352c:	50350513          	addi	a0,a0,1283 # b503 <offset+0xb49b>
80003530:	fd356593          	ori	a1,a0,-45
80003534:	6eb22423          	sw	a1,1768(tp) # 6e8 <offset+0x680>
80003538:	fd300293          	li	t0,-45
8000353c:	1cb29ce3          	bne	t0,a1,80003f14 <bad_trap>

80003540 <inst_465>:
80003540:	0000b537          	lui	a0,0xb
80003544:	50350513          	addi	a0,a0,1283 # b503 <offset+0xb49b>
80003548:	02d56593          	ori	a1,a0,45
8000354c:	6eb22623          	sw	a1,1772(tp) # 6ec <offset+0x684>
80003550:	0000b2b7          	lui	t0,0xb
80003554:	52f28293          	addi	t0,t0,1327 # b52f <offset+0xb4c7>
80003558:	1ab29ee3          	bne	t0,a1,80003f14 <bad_trap>

8000355c <inst_466>:
8000355c:	0000b537          	lui	a0,0xb
80003560:	50350513          	addi	a0,a0,1283 # b503 <offset+0xb49b>
80003564:	00256593          	ori	a1,a0,2
80003568:	6eb22823          	sw	a1,1776(tp) # 6f0 <offset+0x688>
8000356c:	0000b2b7          	lui	t0,0xb
80003570:	50328293          	addi	t0,t0,1283 # b503 <offset+0xb49b>
80003574:	1ab290e3          	bne	t0,a1,80003f14 <bad_trap>

80003578 <inst_467>:
80003578:	0000b537          	lui	a0,0xb
8000357c:	50350513          	addi	a0,a0,1283 # b503 <offset+0xb49b>
80003580:	55456593          	ori	a1,a0,1364
80003584:	6eb22a23          	sw	a1,1780(tp) # 6f4 <offset+0x68c>
80003588:	0000b2b7          	lui	t0,0xb
8000358c:	55728293          	addi	t0,t0,1367 # b557 <offset+0xb4ef>
80003590:	18b292e3          	bne	t0,a1,80003f14 <bad_trap>

80003594 <inst_468>:
80003594:	0000b537          	lui	a0,0xb
80003598:	50350513          	addi	a0,a0,1283 # b503 <offset+0xb49b>
8000359c:	00056593          	ori	a1,a0,0
800035a0:	6eb22c23          	sw	a1,1784(tp) # 6f8 <offset+0x690>
800035a4:	0000b2b7          	lui	t0,0xb
800035a8:	50328293          	addi	t0,t0,1283 # b503 <offset+0xb49b>
800035ac:	16b294e3          	bne	t0,a1,80003f14 <bad_trap>

800035b0 <inst_469>:
800035b0:	0000b537          	lui	a0,0xb
800035b4:	50350513          	addi	a0,a0,1283 # b503 <offset+0xb49b>
800035b8:	00456593          	ori	a1,a0,4
800035bc:	6eb22e23          	sw	a1,1788(tp) # 6fc <offset+0x694>
800035c0:	0000b2b7          	lui	t0,0xb
800035c4:	50728293          	addi	t0,t0,1287 # b507 <offset+0xb49f>
800035c8:	14b296e3          	bne	t0,a1,80003f14 <bad_trap>

800035cc <inst_470>:
800035cc:	0000b537          	lui	a0,0xb
800035d0:	50350513          	addi	a0,a0,1283 # b503 <offset+0xb49b>
800035d4:	33256593          	ori	a1,a0,818
800035d8:	70b22023          	sw	a1,1792(tp) # 700 <offset+0x698>
800035dc:	0000b2b7          	lui	t0,0xb
800035e0:	73328293          	addi	t0,t0,1843 # b733 <offset+0xb6cb>
800035e4:	12b298e3          	bne	t0,a1,80003f14 <bad_trap>

800035e8 <inst_471>:
800035e8:	0000b537          	lui	a0,0xb
800035ec:	50350513          	addi	a0,a0,1283 # b503 <offset+0xb49b>
800035f0:	66556593          	ori	a1,a0,1637
800035f4:	70b22223          	sw	a1,1796(tp) # 704 <offset+0x69c>
800035f8:	0000b2b7          	lui	t0,0xb
800035fc:	76728293          	addi	t0,t0,1895 # b767 <offset+0xb6ff>
80003600:	10b29ae3          	bne	t0,a1,80003f14 <bad_trap>

80003604 <inst_472>:
80003604:	0000b537          	lui	a0,0xb
80003608:	50350513          	addi	a0,a0,1283 # b503 <offset+0xb49b>
8000360c:	02c56593          	ori	a1,a0,44
80003610:	70b22423          	sw	a1,1800(tp) # 708 <offset+0x6a0>
80003614:	0000b2b7          	lui	t0,0xb
80003618:	52f28293          	addi	t0,t0,1327 # b52f <offset+0xb4c7>
8000361c:	0eb29ce3          	bne	t0,a1,80003f14 <bad_trap>

80003620 <inst_473>:
80003620:	0000b537          	lui	a0,0xb
80003624:	50350513          	addi	a0,a0,1283 # b503 <offset+0xb49b>
80003628:	55656593          	ori	a1,a0,1366
8000362c:	70b22623          	sw	a1,1804(tp) # 70c <offset+0x6a4>
80003630:	0000b2b7          	lui	t0,0xb
80003634:	55728293          	addi	t0,t0,1367 # b557 <offset+0xb4ef>
80003638:	0cb29ee3          	bne	t0,a1,80003f14 <bad_trap>

8000363c <inst_474>:
8000363c:	0000b537          	lui	a0,0xb
80003640:	50350513          	addi	a0,a0,1283 # b503 <offset+0xb49b>
80003644:	aab56593          	ori	a1,a0,-1365
80003648:	70b22823          	sw	a1,1808(tp) # 710 <offset+0x6a8>
8000364c:	fab00293          	li	t0,-85
80003650:	0cb292e3          	bne	t0,a1,80003f14 <bad_trap>

80003654 <inst_475>:
80003654:	0000b537          	lui	a0,0xb
80003658:	50350513          	addi	a0,a0,1283 # b503 <offset+0xb49b>
8000365c:	00656593          	ori	a1,a0,6
80003660:	70b22a23          	sw	a1,1812(tp) # 714 <offset+0x6ac>
80003664:	0000b2b7          	lui	t0,0xb
80003668:	50728293          	addi	t0,t0,1287 # b507 <offset+0xb49f>
8000366c:	0ab294e3          	bne	t0,a1,80003f14 <bad_trap>

80003670 <inst_476>:
80003670:	0000b537          	lui	a0,0xb
80003674:	50350513          	addi	a0,a0,1283 # b503 <offset+0xb49b>
80003678:	33456593          	ori	a1,a0,820
8000367c:	70b22c23          	sw	a1,1816(tp) # 718 <offset+0x6b0>
80003680:	0000b2b7          	lui	t0,0xb
80003684:	73728293          	addi	t0,t0,1847 # b737 <offset+0xb6cf>
80003688:	08b296e3          	bne	t0,a1,80003f14 <bad_trap>

8000368c <inst_477>:
8000368c:	0000b537          	lui	a0,0xb
80003690:	50350513          	addi	a0,a0,1283 # b503 <offset+0xb49b>
80003694:	66756593          	ori	a1,a0,1639
80003698:	70b22e23          	sw	a1,1820(tp) # 71c <offset+0x6b4>
8000369c:	0000b2b7          	lui	t0,0xb
800036a0:	76728293          	addi	t0,t0,1895 # b767 <offset+0xb6ff>
800036a4:	06b298e3          	bne	t0,a1,80003f14 <bad_trap>

800036a8 <inst_478>:
800036a8:	0000b537          	lui	a0,0xb
800036ac:	50350513          	addi	a0,a0,1283 # b503 <offset+0xb49b>
800036b0:	fd456593          	ori	a1,a0,-44
800036b4:	72b22023          	sw	a1,1824(tp) # 720 <offset+0x6b8>
800036b8:	fd700293          	li	t0,-41
800036bc:	04b29ce3          	bne	t0,a1,80003f14 <bad_trap>

800036c0 <inst_479>:
800036c0:	0000b537          	lui	a0,0xb
800036c4:	50350513          	addi	a0,a0,1283 # b503 <offset+0xb49b>
800036c8:	02e56593          	ori	a1,a0,46
800036cc:	72b22223          	sw	a1,1828(tp) # 724 <offset+0x6bc>
800036d0:	0000b2b7          	lui	t0,0xb
800036d4:	52f28293          	addi	t0,t0,1327 # b52f <offset+0xb4c7>
800036d8:	02b29ee3          	bne	t0,a1,80003f14 <bad_trap>

800036dc <inst_480>:
800036dc:	55555537          	lui	a0,0x55555
800036e0:	55650513          	addi	a0,a0,1366 # 55555556 <absimm+0x10263027>
800036e4:	00356593          	ori	a1,a0,3
800036e8:	72b22423          	sw	a1,1832(tp) # 728 <offset+0x6c0>
800036ec:	555552b7          	lui	t0,0x55555
800036f0:	55728293          	addi	t0,t0,1367 # 55555557 <absimm+0x10263028>
800036f4:	02b290e3          	bne	t0,a1,80003f14 <bad_trap>

800036f8 <inst_481>:
800036f8:	55555537          	lui	a0,0x55555
800036fc:	55650513          	addi	a0,a0,1366 # 55555556 <absimm+0x10263027>
80003700:	55556593          	ori	a1,a0,1365
80003704:	72b22623          	sw	a1,1836(tp) # 72c <offset+0x6c4>
80003708:	555552b7          	lui	t0,0x55555
8000370c:	55728293          	addi	t0,t0,1367 # 55555557 <absimm+0x10263028>
80003710:	00b292e3          	bne	t0,a1,80003f14 <bad_trap>

80003714 <inst_482>:
80003714:	55555537          	lui	a0,0x55555
80003718:	55650513          	addi	a0,a0,1366 # 55555556 <absimm+0x10263027>
8000371c:	aaa56593          	ori	a1,a0,-1366
80003720:	72b22823          	sw	a1,1840(tp) # 730 <offset+0x6c8>
80003724:	ffe00293          	li	t0,-2
80003728:	7eb29663          	bne	t0,a1,80003f14 <bad_trap>

8000372c <inst_483>:
8000372c:	55555537          	lui	a0,0x55555
80003730:	55650513          	addi	a0,a0,1366 # 55555556 <absimm+0x10263027>
80003734:	00556593          	ori	a1,a0,5
80003738:	72b22a23          	sw	a1,1844(tp) # 734 <offset+0x6cc>
8000373c:	555552b7          	lui	t0,0x55555
80003740:	55728293          	addi	t0,t0,1367 # 55555557 <absimm+0x10263028>
80003744:	7cb29863          	bne	t0,a1,80003f14 <bad_trap>

80003748 <inst_484>:
80003748:	55555537          	lui	a0,0x55555
8000374c:	55650513          	addi	a0,a0,1366 # 55555556 <absimm+0x10263027>
80003750:	33356593          	ori	a1,a0,819
80003754:	72b22c23          	sw	a1,1848(tp) # 738 <offset+0x6d0>
80003758:	555552b7          	lui	t0,0x55555
8000375c:	77728293          	addi	t0,t0,1911 # 55555777 <absimm+0x10263248>
80003760:	7ab29a63          	bne	t0,a1,80003f14 <bad_trap>

80003764 <inst_485>:
80003764:	55555537          	lui	a0,0x55555
80003768:	55650513          	addi	a0,a0,1366 # 55555556 <absimm+0x10263027>
8000376c:	66656593          	ori	a1,a0,1638
80003770:	72b22e23          	sw	a1,1852(tp) # 73c <offset+0x6d4>
80003774:	555552b7          	lui	t0,0x55555
80003778:	77628293          	addi	t0,t0,1910 # 55555776 <absimm+0x10263247>
8000377c:	78b29c63          	bne	t0,a1,80003f14 <bad_trap>

80003780 <inst_486>:
80003780:	55555537          	lui	a0,0x55555
80003784:	55650513          	addi	a0,a0,1366 # 55555556 <absimm+0x10263027>
80003788:	fd356593          	ori	a1,a0,-45
8000378c:	74b22023          	sw	a1,1856(tp) # 740 <offset+0x6d8>
80003790:	fd700293          	li	t0,-41
80003794:	78b29063          	bne	t0,a1,80003f14 <bad_trap>

80003798 <inst_487>:
80003798:	55555537          	lui	a0,0x55555
8000379c:	55650513          	addi	a0,a0,1366 # 55555556 <absimm+0x10263027>
800037a0:	02d56593          	ori	a1,a0,45
800037a4:	74b22223          	sw	a1,1860(tp) # 744 <offset+0x6dc>
800037a8:	555552b7          	lui	t0,0x55555
800037ac:	57f28293          	addi	t0,t0,1407 # 5555557f <absimm+0x10263050>
800037b0:	76b29263          	bne	t0,a1,80003f14 <bad_trap>

800037b4 <inst_488>:
800037b4:	55555537          	lui	a0,0x55555
800037b8:	55650513          	addi	a0,a0,1366 # 55555556 <absimm+0x10263027>
800037bc:	00256593          	ori	a1,a0,2
800037c0:	74b22423          	sw	a1,1864(tp) # 748 <offset+0x6e0>
800037c4:	555552b7          	lui	t0,0x55555
800037c8:	55628293          	addi	t0,t0,1366 # 55555556 <absimm+0x10263027>
800037cc:	74b29463          	bne	t0,a1,80003f14 <bad_trap>

800037d0 <inst_489>:
800037d0:	55555537          	lui	a0,0x55555
800037d4:	55650513          	addi	a0,a0,1366 # 55555556 <absimm+0x10263027>
800037d8:	55456593          	ori	a1,a0,1364
800037dc:	74b22623          	sw	a1,1868(tp) # 74c <offset+0x6e4>
800037e0:	555552b7          	lui	t0,0x55555
800037e4:	55628293          	addi	t0,t0,1366 # 55555556 <absimm+0x10263027>
800037e8:	72b29663          	bne	t0,a1,80003f14 <bad_trap>

800037ec <inst_490>:
800037ec:	55555537          	lui	a0,0x55555
800037f0:	55650513          	addi	a0,a0,1366 # 55555556 <absimm+0x10263027>
800037f4:	00056593          	ori	a1,a0,0
800037f8:	74b22823          	sw	a1,1872(tp) # 750 <offset+0x6e8>
800037fc:	555552b7          	lui	t0,0x55555
80003800:	55628293          	addi	t0,t0,1366 # 55555556 <absimm+0x10263027>
80003804:	70b29863          	bne	t0,a1,80003f14 <bad_trap>

80003808 <inst_491>:
80003808:	55555537          	lui	a0,0x55555
8000380c:	55650513          	addi	a0,a0,1366 # 55555556 <absimm+0x10263027>
80003810:	00456593          	ori	a1,a0,4
80003814:	74b22a23          	sw	a1,1876(tp) # 754 <offset+0x6ec>
80003818:	555552b7          	lui	t0,0x55555
8000381c:	55628293          	addi	t0,t0,1366 # 55555556 <absimm+0x10263027>
80003820:	6eb29a63          	bne	t0,a1,80003f14 <bad_trap>

80003824 <inst_492>:
80003824:	55555537          	lui	a0,0x55555
80003828:	55650513          	addi	a0,a0,1366 # 55555556 <absimm+0x10263027>
8000382c:	33256593          	ori	a1,a0,818
80003830:	74b22c23          	sw	a1,1880(tp) # 758 <offset+0x6f0>
80003834:	555552b7          	lui	t0,0x55555
80003838:	77628293          	addi	t0,t0,1910 # 55555776 <absimm+0x10263247>
8000383c:	6cb29c63          	bne	t0,a1,80003f14 <bad_trap>

80003840 <inst_493>:
80003840:	55555537          	lui	a0,0x55555
80003844:	55650513          	addi	a0,a0,1366 # 55555556 <absimm+0x10263027>
80003848:	66556593          	ori	a1,a0,1637
8000384c:	74b22e23          	sw	a1,1884(tp) # 75c <offset+0x6f4>
80003850:	555552b7          	lui	t0,0x55555
80003854:	77728293          	addi	t0,t0,1911 # 55555777 <absimm+0x10263248>
80003858:	6ab29e63          	bne	t0,a1,80003f14 <bad_trap>

8000385c <inst_494>:
8000385c:	55555537          	lui	a0,0x55555
80003860:	55650513          	addi	a0,a0,1366 # 55555556 <absimm+0x10263027>
80003864:	02c56593          	ori	a1,a0,44
80003868:	76b22023          	sw	a1,1888(tp) # 760 <offset+0x6f8>
8000386c:	555552b7          	lui	t0,0x55555
80003870:	57e28293          	addi	t0,t0,1406 # 5555557e <absimm+0x1026304f>
80003874:	6ab29063          	bne	t0,a1,80003f14 <bad_trap>

80003878 <inst_495>:
80003878:	55555537          	lui	a0,0x55555
8000387c:	55650513          	addi	a0,a0,1366 # 55555556 <absimm+0x10263027>
80003880:	55656593          	ori	a1,a0,1366
80003884:	76b22223          	sw	a1,1892(tp) # 764 <offset+0x6fc>
80003888:	555552b7          	lui	t0,0x55555
8000388c:	55628293          	addi	t0,t0,1366 # 55555556 <absimm+0x10263027>
80003890:	68b29263          	bne	t0,a1,80003f14 <bad_trap>

80003894 <inst_496>:
80003894:	55555537          	lui	a0,0x55555
80003898:	55650513          	addi	a0,a0,1366 # 55555556 <absimm+0x10263027>
8000389c:	aab56593          	ori	a1,a0,-1365
800038a0:	76b22423          	sw	a1,1896(tp) # 768 <offset+0x700>
800038a4:	fff00293          	li	t0,-1
800038a8:	66b29663          	bne	t0,a1,80003f14 <bad_trap>

800038ac <inst_497>:
800038ac:	55555537          	lui	a0,0x55555
800038b0:	55650513          	addi	a0,a0,1366 # 55555556 <absimm+0x10263027>
800038b4:	00656593          	ori	a1,a0,6
800038b8:	76b22623          	sw	a1,1900(tp) # 76c <offset+0x704>
800038bc:	555552b7          	lui	t0,0x55555
800038c0:	55628293          	addi	t0,t0,1366 # 55555556 <absimm+0x10263027>
800038c4:	64b29863          	bne	t0,a1,80003f14 <bad_trap>

800038c8 <inst_498>:
800038c8:	55555537          	lui	a0,0x55555
800038cc:	55650513          	addi	a0,a0,1366 # 55555556 <absimm+0x10263027>
800038d0:	33456593          	ori	a1,a0,820
800038d4:	76b22823          	sw	a1,1904(tp) # 770 <offset+0x708>
800038d8:	555552b7          	lui	t0,0x55555
800038dc:	77628293          	addi	t0,t0,1910 # 55555776 <absimm+0x10263247>
800038e0:	62b29a63          	bne	t0,a1,80003f14 <bad_trap>

800038e4 <inst_499>:
800038e4:	55555537          	lui	a0,0x55555
800038e8:	55650513          	addi	a0,a0,1366 # 55555556 <absimm+0x10263027>
800038ec:	66756593          	ori	a1,a0,1639
800038f0:	76b22a23          	sw	a1,1908(tp) # 774 <offset+0x70c>
800038f4:	555552b7          	lui	t0,0x55555
800038f8:	77728293          	addi	t0,t0,1911 # 55555777 <absimm+0x10263248>
800038fc:	60b29c63          	bne	t0,a1,80003f14 <bad_trap>

80003900 <inst_500>:
80003900:	55555537          	lui	a0,0x55555
80003904:	55650513          	addi	a0,a0,1366 # 55555556 <absimm+0x10263027>
80003908:	fd456593          	ori	a1,a0,-44
8000390c:	76b22c23          	sw	a1,1912(tp) # 778 <offset+0x710>
80003910:	fd600293          	li	t0,-42
80003914:	60b29063          	bne	t0,a1,80003f14 <bad_trap>

80003918 <inst_501>:
80003918:	55555537          	lui	a0,0x55555
8000391c:	55650513          	addi	a0,a0,1366 # 55555556 <absimm+0x10263027>
80003920:	02e56593          	ori	a1,a0,46
80003924:	76b22e23          	sw	a1,1916(tp) # 77c <offset+0x714>
80003928:	555552b7          	lui	t0,0x55555
8000392c:	57e28293          	addi	t0,t0,1406 # 5555557e <absimm+0x1026304f>
80003930:	5eb29263          	bne	t0,a1,80003f14 <bad_trap>

80003934 <inst_502>:
80003934:	aaaab537          	lui	a0,0xaaaab
80003938:	aab50513          	addi	a0,a0,-1365 # aaaaaaab <imm12+0xaaaaafdb>
8000393c:	00356593          	ori	a1,a0,3
80003940:	78b22023          	sw	a1,1920(tp) # 780 <offset+0x718>
80003944:	aaaab2b7          	lui	t0,0xaaaab
80003948:	aab28293          	addi	t0,t0,-1365 # aaaaaaab <imm12+0xaaaaafdb>
8000394c:	5cb29463          	bne	t0,a1,80003f14 <bad_trap>

80003950 <inst_503>:
80003950:	aaaab537          	lui	a0,0xaaaab
80003954:	aab50513          	addi	a0,a0,-1365 # aaaaaaab <imm12+0xaaaaafdb>
80003958:	55556593          	ori	a1,a0,1365
8000395c:	78b22223          	sw	a1,1924(tp) # 784 <offset+0x71c>
80003960:	aaaab2b7          	lui	t0,0xaaaab
80003964:	fff28293          	addi	t0,t0,-1 # aaaaafff <imm12+0xaaaab52f>
80003968:	5ab29663          	bne	t0,a1,80003f14 <bad_trap>

8000396c <inst_504>:
8000396c:	aaaab537          	lui	a0,0xaaaab
80003970:	aab50513          	addi	a0,a0,-1365 # aaaaaaab <imm12+0xaaaaafdb>
80003974:	aaa56593          	ori	a1,a0,-1366
80003978:	78b22423          	sw	a1,1928(tp) # 788 <offset+0x720>
8000397c:	aab00293          	li	t0,-1365
80003980:	58b29a63          	bne	t0,a1,80003f14 <bad_trap>

80003984 <inst_505>:
80003984:	aaaab537          	lui	a0,0xaaaab
80003988:	aab50513          	addi	a0,a0,-1365 # aaaaaaab <imm12+0xaaaaafdb>
8000398c:	00556593          	ori	a1,a0,5
80003990:	78b22623          	sw	a1,1932(tp) # 78c <offset+0x724>
80003994:	aaaab2b7          	lui	t0,0xaaaab
80003998:	aaf28293          	addi	t0,t0,-1361 # aaaaaaaf <imm12+0xaaaaafdf>
8000399c:	56b29c63          	bne	t0,a1,80003f14 <bad_trap>

800039a0 <inst_506>:
800039a0:	aaaab537          	lui	a0,0xaaaab
800039a4:	aab50513          	addi	a0,a0,-1365 # aaaaaaab <imm12+0xaaaaafdb>
800039a8:	33356593          	ori	a1,a0,819
800039ac:	78b22823          	sw	a1,1936(tp) # 790 <offset+0x728>
800039b0:	aaaab2b7          	lui	t0,0xaaaab
800039b4:	bbb28293          	addi	t0,t0,-1093 # aaaaabbb <imm12+0xaaaab0eb>
800039b8:	54b29e63          	bne	t0,a1,80003f14 <bad_trap>

800039bc <inst_507>:
800039bc:	aaaab537          	lui	a0,0xaaaab
800039c0:	aab50513          	addi	a0,a0,-1365 # aaaaaaab <imm12+0xaaaaafdb>
800039c4:	66656593          	ori	a1,a0,1638
800039c8:	78b22a23          	sw	a1,1940(tp) # 794 <offset+0x72c>
800039cc:	aaaab2b7          	lui	t0,0xaaaab
800039d0:	eef28293          	addi	t0,t0,-273 # aaaaaeef <imm12+0xaaaab41f>
800039d4:	54b29063          	bne	t0,a1,80003f14 <bad_trap>

800039d8 <inst_508>:
800039d8:	aaaab537          	lui	a0,0xaaaab
800039dc:	aab50513          	addi	a0,a0,-1365 # aaaaaaab <imm12+0xaaaaafdb>
800039e0:	fd356593          	ori	a1,a0,-45
800039e4:	78b22c23          	sw	a1,1944(tp) # 798 <offset+0x730>
800039e8:	ffb00293          	li	t0,-5
800039ec:	52b29463          	bne	t0,a1,80003f14 <bad_trap>

800039f0 <inst_509>:
800039f0:	aaaab537          	lui	a0,0xaaaab
800039f4:	aab50513          	addi	a0,a0,-1365 # aaaaaaab <imm12+0xaaaaafdb>
800039f8:	02d56593          	ori	a1,a0,45
800039fc:	78b22e23          	sw	a1,1948(tp) # 79c <offset+0x734>
80003a00:	aaaab2b7          	lui	t0,0xaaaab
80003a04:	aaf28293          	addi	t0,t0,-1361 # aaaaaaaf <imm12+0xaaaaafdf>
80003a08:	50b29663          	bne	t0,a1,80003f14 <bad_trap>

80003a0c <inst_510>:
80003a0c:	aaaab537          	lui	a0,0xaaaab
80003a10:	aab50513          	addi	a0,a0,-1365 # aaaaaaab <imm12+0xaaaaafdb>
80003a14:	00256593          	ori	a1,a0,2
80003a18:	7ab22023          	sw	a1,1952(tp) # 7a0 <offset+0x738>
80003a1c:	aaaab2b7          	lui	t0,0xaaaab
80003a20:	aab28293          	addi	t0,t0,-1365 # aaaaaaab <imm12+0xaaaaafdb>
80003a24:	4eb29863          	bne	t0,a1,80003f14 <bad_trap>

80003a28 <inst_511>:
80003a28:	aaaab537          	lui	a0,0xaaaab
80003a2c:	aab50513          	addi	a0,a0,-1365 # aaaaaaab <imm12+0xaaaaafdb>
80003a30:	55456593          	ori	a1,a0,1364
80003a34:	7ab22223          	sw	a1,1956(tp) # 7a4 <offset+0x73c>
80003a38:	aaaab2b7          	lui	t0,0xaaaab
80003a3c:	fff28293          	addi	t0,t0,-1 # aaaaafff <imm12+0xaaaab52f>
80003a40:	4cb29a63          	bne	t0,a1,80003f14 <bad_trap>

80003a44 <inst_512>:
80003a44:	aaaab537          	lui	a0,0xaaaab
80003a48:	aab50513          	addi	a0,a0,-1365 # aaaaaaab <imm12+0xaaaaafdb>
80003a4c:	00056593          	ori	a1,a0,0
80003a50:	7ab22423          	sw	a1,1960(tp) # 7a8 <offset+0x740>
80003a54:	aaaab2b7          	lui	t0,0xaaaab
80003a58:	aab28293          	addi	t0,t0,-1365 # aaaaaaab <imm12+0xaaaaafdb>
80003a5c:	4ab29c63          	bne	t0,a1,80003f14 <bad_trap>

80003a60 <inst_513>:
80003a60:	aaaab537          	lui	a0,0xaaaab
80003a64:	aab50513          	addi	a0,a0,-1365 # aaaaaaab <imm12+0xaaaaafdb>
80003a68:	00456593          	ori	a1,a0,4
80003a6c:	7ab22623          	sw	a1,1964(tp) # 7ac <offset+0x744>
80003a70:	aaaab2b7          	lui	t0,0xaaaab
80003a74:	aaf28293          	addi	t0,t0,-1361 # aaaaaaaf <imm12+0xaaaaafdf>
80003a78:	48b29e63          	bne	t0,a1,80003f14 <bad_trap>

80003a7c <inst_514>:
80003a7c:	aaaab537          	lui	a0,0xaaaab
80003a80:	aab50513          	addi	a0,a0,-1365 # aaaaaaab <imm12+0xaaaaafdb>
80003a84:	33256593          	ori	a1,a0,818
80003a88:	7ab22823          	sw	a1,1968(tp) # 7b0 <offset+0x748>
80003a8c:	aaaab2b7          	lui	t0,0xaaaab
80003a90:	bbb28293          	addi	t0,t0,-1093 # aaaaabbb <imm12+0xaaaab0eb>
80003a94:	48b29063          	bne	t0,a1,80003f14 <bad_trap>

80003a98 <inst_515>:
80003a98:	aaaab537          	lui	a0,0xaaaab
80003a9c:	aab50513          	addi	a0,a0,-1365 # aaaaaaab <imm12+0xaaaaafdb>
80003aa0:	66556593          	ori	a1,a0,1637
80003aa4:	7ab22a23          	sw	a1,1972(tp) # 7b4 <offset+0x74c>
80003aa8:	aaaab2b7          	lui	t0,0xaaaab
80003aac:	eef28293          	addi	t0,t0,-273 # aaaaaeef <imm12+0xaaaab41f>
80003ab0:	46b29263          	bne	t0,a1,80003f14 <bad_trap>

80003ab4 <inst_516>:
80003ab4:	aaaab537          	lui	a0,0xaaaab
80003ab8:	aab50513          	addi	a0,a0,-1365 # aaaaaaab <imm12+0xaaaaafdb>
80003abc:	02c56593          	ori	a1,a0,44
80003ac0:	7ab22c23          	sw	a1,1976(tp) # 7b8 <offset+0x750>
80003ac4:	aaaab2b7          	lui	t0,0xaaaab
80003ac8:	aaf28293          	addi	t0,t0,-1361 # aaaaaaaf <imm12+0xaaaaafdf>
80003acc:	44b29463          	bne	t0,a1,80003f14 <bad_trap>

80003ad0 <inst_517>:
80003ad0:	aaaab537          	lui	a0,0xaaaab
80003ad4:	aab50513          	addi	a0,a0,-1365 # aaaaaaab <imm12+0xaaaaafdb>
80003ad8:	55656593          	ori	a1,a0,1366
80003adc:	7ab22e23          	sw	a1,1980(tp) # 7bc <offset+0x754>
80003ae0:	aaaab2b7          	lui	t0,0xaaaab
80003ae4:	fff28293          	addi	t0,t0,-1 # aaaaafff <imm12+0xaaaab52f>
80003ae8:	42b29663          	bne	t0,a1,80003f14 <bad_trap>

80003aec <inst_518>:
80003aec:	aaaab537          	lui	a0,0xaaaab
80003af0:	aab50513          	addi	a0,a0,-1365 # aaaaaaab <imm12+0xaaaaafdb>
80003af4:	aab56593          	ori	a1,a0,-1365
80003af8:	7cb22023          	sw	a1,1984(tp) # 7c0 <offset+0x758>
80003afc:	aab00293          	li	t0,-1365
80003b00:	40b29a63          	bne	t0,a1,80003f14 <bad_trap>

80003b04 <inst_519>:
80003b04:	aaaab537          	lui	a0,0xaaaab
80003b08:	aab50513          	addi	a0,a0,-1365 # aaaaaaab <imm12+0xaaaaafdb>
80003b0c:	00656593          	ori	a1,a0,6
80003b10:	7cb22223          	sw	a1,1988(tp) # 7c4 <offset+0x75c>
80003b14:	aaaab2b7          	lui	t0,0xaaaab
80003b18:	aaf28293          	addi	t0,t0,-1361 # aaaaaaaf <imm12+0xaaaaafdf>
80003b1c:	3eb29c63          	bne	t0,a1,80003f14 <bad_trap>

80003b20 <inst_520>:
80003b20:	aaaab537          	lui	a0,0xaaaab
80003b24:	aab50513          	addi	a0,a0,-1365 # aaaaaaab <imm12+0xaaaaafdb>
80003b28:	33456593          	ori	a1,a0,820
80003b2c:	7cb22423          	sw	a1,1992(tp) # 7c8 <offset+0x760>
80003b30:	aaaab2b7          	lui	t0,0xaaaab
80003b34:	bbf28293          	addi	t0,t0,-1089 # aaaaabbf <imm12+0xaaaab0ef>
80003b38:	3cb29e63          	bne	t0,a1,80003f14 <bad_trap>

80003b3c <inst_521>:
80003b3c:	aaaab537          	lui	a0,0xaaaab
80003b40:	aab50513          	addi	a0,a0,-1365 # aaaaaaab <imm12+0xaaaaafdb>
80003b44:	66756593          	ori	a1,a0,1639
80003b48:	7cb22623          	sw	a1,1996(tp) # 7cc <offset+0x764>
80003b4c:	aaaab2b7          	lui	t0,0xaaaab
80003b50:	eef28293          	addi	t0,t0,-273 # aaaaaeef <imm12+0xaaaab41f>
80003b54:	3cb29063          	bne	t0,a1,80003f14 <bad_trap>

80003b58 <inst_522>:
80003b58:	aaaab537          	lui	a0,0xaaaab
80003b5c:	aab50513          	addi	a0,a0,-1365 # aaaaaaab <imm12+0xaaaaafdb>
80003b60:	fd456593          	ori	a1,a0,-44
80003b64:	7cb22823          	sw	a1,2000(tp) # 7d0 <offset+0x768>
80003b68:	fff00293          	li	t0,-1
80003b6c:	3ab29463          	bne	t0,a1,80003f14 <bad_trap>

80003b70 <inst_523>:
80003b70:	aaaab537          	lui	a0,0xaaaab
80003b74:	aab50513          	addi	a0,a0,-1365 # aaaaaaab <imm12+0xaaaaafdb>
80003b78:	02e56593          	ori	a1,a0,46
80003b7c:	7cb22a23          	sw	a1,2004(tp) # 7d4 <offset+0x76c>
80003b80:	aaaab2b7          	lui	t0,0xaaaab
80003b84:	aaf28293          	addi	t0,t0,-1361 # aaaaaaaf <imm12+0xaaaaafdf>
80003b88:	38b29663          	bne	t0,a1,80003f14 <bad_trap>

80003b8c <inst_524>:
80003b8c:	00600513          	li	a0,6
80003b90:	00356593          	ori	a1,a0,3
80003b94:	7cb22c23          	sw	a1,2008(tp) # 7d8 <offset+0x770>
80003b98:	00700293          	li	t0,7
80003b9c:	36b29c63          	bne	t0,a1,80003f14 <bad_trap>

80003ba0 <inst_525>:
80003ba0:	00600513          	li	a0,6
80003ba4:	55556593          	ori	a1,a0,1365
80003ba8:	7cb22e23          	sw	a1,2012(tp) # 7dc <offset+0x774>
80003bac:	55700293          	li	t0,1367
80003bb0:	36b29263          	bne	t0,a1,80003f14 <bad_trap>

80003bb4 <inst_526>:
80003bb4:	00600513          	li	a0,6
80003bb8:	aaa56593          	ori	a1,a0,-1366
80003bbc:	7eb22023          	sw	a1,2016(tp) # 7e0 <offset+0x778>
80003bc0:	aae00293          	li	t0,-1362
80003bc4:	34b29863          	bne	t0,a1,80003f14 <bad_trap>

80003bc8 <inst_527>:
80003bc8:	00600513          	li	a0,6
80003bcc:	00556593          	ori	a1,a0,5
80003bd0:	7eb22223          	sw	a1,2020(tp) # 7e4 <offset+0x77c>
80003bd4:	00700293          	li	t0,7
80003bd8:	32b29e63          	bne	t0,a1,80003f14 <bad_trap>

80003bdc <inst_528>:
80003bdc:	00600513          	li	a0,6
80003be0:	33356593          	ori	a1,a0,819
80003be4:	7eb22423          	sw	a1,2024(tp) # 7e8 <offset+0x780>
80003be8:	33700293          	li	t0,823
80003bec:	32b29463          	bne	t0,a1,80003f14 <bad_trap>

80003bf0 <inst_529>:
80003bf0:	00600513          	li	a0,6
80003bf4:	66656593          	ori	a1,a0,1638
80003bf8:	7eb22623          	sw	a1,2028(tp) # 7ec <offset+0x784>
80003bfc:	66600293          	li	t0,1638
80003c00:	30b29a63          	bne	t0,a1,80003f14 <bad_trap>

80003c04 <inst_530>:
80003c04:	00600513          	li	a0,6
80003c08:	fd356593          	ori	a1,a0,-45
80003c0c:	7eb22823          	sw	a1,2032(tp) # 7f0 <offset+0x788>
80003c10:	fd700293          	li	t0,-41
80003c14:	30b29063          	bne	t0,a1,80003f14 <bad_trap>

80003c18 <inst_531>:
80003c18:	00600513          	li	a0,6
80003c1c:	02d56593          	ori	a1,a0,45
80003c20:	7eb22a23          	sw	a1,2036(tp) # 7f4 <offset+0x78c>
80003c24:	02f00293          	li	t0,47
80003c28:	2eb29663          	bne	t0,a1,80003f14 <bad_trap>

80003c2c <inst_532>:
80003c2c:	00600513          	li	a0,6
80003c30:	00256593          	ori	a1,a0,2
80003c34:	7eb22c23          	sw	a1,2040(tp) # 7f8 <offset+0x790>
80003c38:	00600293          	li	t0,6
80003c3c:	2cb29c63          	bne	t0,a1,80003f14 <bad_trap>

80003c40 <inst_533>:
80003c40:	00600513          	li	a0,6
80003c44:	55456593          	ori	a1,a0,1364
80003c48:	7eb22e23          	sw	a1,2044(tp) # 7fc <offset+0x794>
80003c4c:	55600293          	li	t0,1366
80003c50:	2cb29263          	bne	t0,a1,80003f14 <bad_trap>
80003c54:	00000013          	nop
80003c58:	00000013          	nop
80003c5c:	00000013          	nop
80003c60:	00002217          	auipc	tp,0x2
80003c64:	bfc20213          	addi	tp,tp,-1028 # 8000585c <signature_x4_1>
80003c68:	00000013          	nop
80003c6c:	00000013          	nop
80003c70:	00000013          	nop
80003c74:	00000013          	nop
80003c78:	00000013          	nop
80003c7c:	00000013          	nop

80003c80 <inst_534>:
80003c80:	00600513          	li	a0,6
80003c84:	00056593          	ori	a1,a0,0
80003c88:	00b22023          	sw	a1,0(tp) # 0 <_entry_offset>
80003c8c:	00600293          	li	t0,6
80003c90:	28b29263          	bne	t0,a1,80003f14 <bad_trap>

80003c94 <inst_535>:
80003c94:	00600513          	li	a0,6
80003c98:	00456593          	ori	a1,a0,4
80003c9c:	00b22223          	sw	a1,4(tp) # 4 <MMODE_SIG+0x1>
80003ca0:	00600293          	li	t0,6
80003ca4:	26b29863          	bne	t0,a1,80003f14 <bad_trap>

80003ca8 <inst_536>:
80003ca8:	00600513          	li	a0,6
80003cac:	33256593          	ori	a1,a0,818
80003cb0:	00b22423          	sw	a1,8(tp) # 8 <MMODE_SIG+0x5>
80003cb4:	33600293          	li	t0,822
80003cb8:	24b29e63          	bne	t0,a1,80003f14 <bad_trap>

80003cbc <inst_537>:
80003cbc:	00600513          	li	a0,6
80003cc0:	66556593          	ori	a1,a0,1637
80003cc4:	00b22623          	sw	a1,12(tp) # c <MMODE_SIG+0x9>
80003cc8:	66700293          	li	t0,1639
80003ccc:	24b29463          	bne	t0,a1,80003f14 <bad_trap>

80003cd0 <inst_538>:
80003cd0:	00600513          	li	a0,6
80003cd4:	02c56593          	ori	a1,a0,44
80003cd8:	00b22823          	sw	a1,16(tp) # 10 <MMODE_SIG+0xd>
80003cdc:	02e00293          	li	t0,46
80003ce0:	22b29a63          	bne	t0,a1,80003f14 <bad_trap>

80003ce4 <inst_539>:
80003ce4:	00600513          	li	a0,6
80003ce8:	55656593          	ori	a1,a0,1366
80003cec:	00b22a23          	sw	a1,20(tp) # 14 <MMODE_SIG+0x11>
80003cf0:	55600293          	li	t0,1366
80003cf4:	22b29063          	bne	t0,a1,80003f14 <bad_trap>

80003cf8 <inst_540>:
80003cf8:	00600513          	li	a0,6
80003cfc:	aab56593          	ori	a1,a0,-1365
80003d00:	00b22c23          	sw	a1,24(tp) # 18 <MMODE_SIG+0x15>
80003d04:	aaf00293          	li	t0,-1361
80003d08:	20b29663          	bne	t0,a1,80003f14 <bad_trap>

80003d0c <inst_541>:
80003d0c:	00600513          	li	a0,6
80003d10:	00656593          	ori	a1,a0,6
80003d14:	00b22e23          	sw	a1,28(tp) # 1c <MMODE_SIG+0x19>
80003d18:	00600293          	li	t0,6
80003d1c:	1eb29c63          	bne	t0,a1,80003f14 <bad_trap>

80003d20 <inst_542>:
80003d20:	00600513          	li	a0,6
80003d24:	33456593          	ori	a1,a0,820
80003d28:	02b22023          	sw	a1,32(tp) # 20 <MMODE_SIG+0x1d>
80003d2c:	33600293          	li	t0,822
80003d30:	1eb29263          	bne	t0,a1,80003f14 <bad_trap>

80003d34 <inst_543>:
80003d34:	00600513          	li	a0,6
80003d38:	66756593          	ori	a1,a0,1639
80003d3c:	02b22223          	sw	a1,36(tp) # 24 <MMODE_SIG+0x21>
80003d40:	66700293          	li	t0,1639
80003d44:	1cb29863          	bne	t0,a1,80003f14 <bad_trap>

80003d48 <inst_544>:
80003d48:	00600513          	li	a0,6
80003d4c:	fd456593          	ori	a1,a0,-44
80003d50:	02b22423          	sw	a1,40(tp) # 28 <MMODE_SIG+0x25>
80003d54:	fd600293          	li	t0,-42
80003d58:	1ab29e63          	bne	t0,a1,80003f14 <bad_trap>

80003d5c <inst_545>:
80003d5c:	00600513          	li	a0,6
80003d60:	02e56593          	ori	a1,a0,46
80003d64:	02b22623          	sw	a1,44(tp) # 2c <MMODE_SIG+0x29>
80003d68:	02e00293          	li	t0,46
80003d6c:	1ab29463          	bne	t0,a1,80003f14 <bad_trap>

80003d70 <inst_546>:
80003d70:	33333537          	lui	a0,0x33333
80003d74:	33450513          	addi	a0,a0,820 # 33333334 <offset+0x333332cc>
80003d78:	00356593          	ori	a1,a0,3
80003d7c:	02b22823          	sw	a1,48(tp) # 30 <MMODE_SIG+0x2d>
80003d80:	333332b7          	lui	t0,0x33333
80003d84:	33728293          	addi	t0,t0,823 # 33333337 <offset+0x333332cf>
80003d88:	18b29663          	bne	t0,a1,80003f14 <bad_trap>

80003d8c <inst_547>:
80003d8c:	33333537          	lui	a0,0x33333
80003d90:	33450513          	addi	a0,a0,820 # 33333334 <offset+0x333332cc>
80003d94:	55556593          	ori	a1,a0,1365
80003d98:	02b22a23          	sw	a1,52(tp) # 34 <MMODE_SIG+0x31>
80003d9c:	333332b7          	lui	t0,0x33333
80003da0:	77528293          	addi	t0,t0,1909 # 33333775 <offset+0x3333370d>
80003da4:	16b29863          	bne	t0,a1,80003f14 <bad_trap>

80003da8 <inst_548>:
80003da8:	33333537          	lui	a0,0x33333
80003dac:	33450513          	addi	a0,a0,820 # 33333334 <offset+0x333332cc>
80003db0:	aaa56593          	ori	a1,a0,-1366
80003db4:	02b22c23          	sw	a1,56(tp) # 38 <MMODE_SIG+0x35>
80003db8:	bbe00293          	li	t0,-1090
80003dbc:	14b29c63          	bne	t0,a1,80003f14 <bad_trap>

80003dc0 <inst_549>:
80003dc0:	33333537          	lui	a0,0x33333
80003dc4:	33450513          	addi	a0,a0,820 # 33333334 <offset+0x333332cc>
80003dc8:	00556593          	ori	a1,a0,5
80003dcc:	02b22e23          	sw	a1,60(tp) # 3c <MMODE_SIG+0x39>
80003dd0:	333332b7          	lui	t0,0x33333
80003dd4:	33528293          	addi	t0,t0,821 # 33333335 <offset+0x333332cd>
80003dd8:	12b29e63          	bne	t0,a1,80003f14 <bad_trap>

80003ddc <inst_550>:
80003ddc:	33333537          	lui	a0,0x33333
80003de0:	33450513          	addi	a0,a0,820 # 33333334 <offset+0x333332cc>
80003de4:	33356593          	ori	a1,a0,819
80003de8:	04b22023          	sw	a1,64(tp) # 40 <MMODE_SIG+0x3d>
80003dec:	333332b7          	lui	t0,0x33333
80003df0:	33728293          	addi	t0,t0,823 # 33333337 <offset+0x333332cf>
80003df4:	12b29063          	bne	t0,a1,80003f14 <bad_trap>

80003df8 <inst_551>:
80003df8:	33333537          	lui	a0,0x33333
80003dfc:	33450513          	addi	a0,a0,820 # 33333334 <offset+0x333332cc>
80003e00:	66656593          	ori	a1,a0,1638
80003e04:	04b22223          	sw	a1,68(tp) # 44 <MMODE_SIG+0x41>
80003e08:	333332b7          	lui	t0,0x33333
80003e0c:	77628293          	addi	t0,t0,1910 # 33333776 <offset+0x3333370e>
80003e10:	10b29263          	bne	t0,a1,80003f14 <bad_trap>

80003e14 <inst_552>:
80003e14:	33333537          	lui	a0,0x33333
80003e18:	33450513          	addi	a0,a0,820 # 33333334 <offset+0x333332cc>
80003e1c:	fd356593          	ori	a1,a0,-45
80003e20:	04b22423          	sw	a1,72(tp) # 48 <MMODE_SIG+0x45>
80003e24:	ff700293          	li	t0,-9
80003e28:	0eb29663          	bne	t0,a1,80003f14 <bad_trap>

80003e2c <inst_553>:
80003e2c:	33333537          	lui	a0,0x33333
80003e30:	33450513          	addi	a0,a0,820 # 33333334 <offset+0x333332cc>
80003e34:	02d56593          	ori	a1,a0,45
80003e38:	04b22623          	sw	a1,76(tp) # 4c <MMODE_SIG+0x49>
80003e3c:	333332b7          	lui	t0,0x33333
80003e40:	33d28293          	addi	t0,t0,829 # 3333333d <offset+0x333332d5>
80003e44:	0cb29863          	bne	t0,a1,80003f14 <bad_trap>

80003e48 <inst_554>:
80003e48:	33333537          	lui	a0,0x33333
80003e4c:	33450513          	addi	a0,a0,820 # 33333334 <offset+0x333332cc>
80003e50:	00256593          	ori	a1,a0,2
80003e54:	04b22823          	sw	a1,80(tp) # 50 <MMODE_SIG+0x4d>
80003e58:	333332b7          	lui	t0,0x33333
80003e5c:	33628293          	addi	t0,t0,822 # 33333336 <offset+0x333332ce>
80003e60:	0ab29a63          	bne	t0,a1,80003f14 <bad_trap>

80003e64 <inst_555>:
80003e64:	33333537          	lui	a0,0x33333
80003e68:	33450513          	addi	a0,a0,820 # 33333334 <offset+0x333332cc>
80003e6c:	55456593          	ori	a1,a0,1364
80003e70:	04b22a23          	sw	a1,84(tp) # 54 <MMODE_SIG+0x51>
80003e74:	333332b7          	lui	t0,0x33333
80003e78:	77428293          	addi	t0,t0,1908 # 33333774 <offset+0x3333370c>
80003e7c:	08b29c63          	bne	t0,a1,80003f14 <bad_trap>

80003e80 <inst_556>:
80003e80:	33333537          	lui	a0,0x33333
80003e84:	33450513          	addi	a0,a0,820 # 33333334 <offset+0x333332cc>
80003e88:	00056593          	ori	a1,a0,0
80003e8c:	04b22c23          	sw	a1,88(tp) # 58 <MMODE_SIG+0x55>
80003e90:	333332b7          	lui	t0,0x33333
80003e94:	33428293          	addi	t0,t0,820 # 33333334 <offset+0x333332cc>
80003e98:	06b29e63          	bne	t0,a1,80003f14 <bad_trap>

80003e9c <inst_557>:
80003e9c:	33333537          	lui	a0,0x33333
80003ea0:	33450513          	addi	a0,a0,820 # 33333334 <offset+0x333332cc>
80003ea4:	00456593          	ori	a1,a0,4
80003ea8:	04b22e23          	sw	a1,92(tp) # 5c <MMODE_SIG+0x59>
80003eac:	333332b7          	lui	t0,0x33333
80003eb0:	33428293          	addi	t0,t0,820 # 33333334 <offset+0x333332cc>
80003eb4:	06b29063          	bne	t0,a1,80003f14 <bad_trap>

80003eb8 <inst_558>:
80003eb8:	c0000537          	lui	a0,0xc0000
80003ebc:	fff50513          	addi	a0,a0,-1 # bfffffff <imm12+0xc000052f>
80003ec0:	40056593          	ori	a1,a0,1024
80003ec4:	06b22023          	sw	a1,96(tp) # 60 <MMODE_SIG+0x5d>
80003ec8:	c00002b7          	lui	t0,0xc0000
80003ecc:	fff28293          	addi	t0,t0,-1 # bfffffff <imm12+0xc000052f>
80003ed0:	04b29263          	bne	t0,a1,80003f14 <bad_trap>

80003ed4 <inst_559>:
80003ed4:	ffffc537          	lui	a0,0xffffc
80003ed8:	fff50513          	addi	a0,a0,-1 # ffffbfff <imm12+0xffffc52f>
80003edc:	fef56593          	ori	a1,a0,-17
80003ee0:	06b22223          	sw	a1,100(tp) # 64 <MMODE_SIG+0x61>
80003ee4:	fff00293          	li	t0,-1
80003ee8:	02b29663          	bne	t0,a1,80003f14 <bad_trap>

80003eec <cleanup_epilogs>:
80003eec:	0200006f          	j	80003f0c <exit_cleanup>

80003ef0 <abort_tests>:
80003ef0:	17812483          	lw	s1,376(sp)
80003ef4:	18012303          	lw	t1,384(sp)
80003ef8:	00930333          	add	t1,t1,s1
80003efc:	bad0e337          	lui	t1,0xbad0e
80003f00:	ad030313          	addi	t1,t1,-1328 # bad0dad0 <imm12+0xbad0e000>
80003f04:	fe64ae23          	sw	t1,-4(s1)
80003f08:	0040006f          	j	80003f0c <exit_cleanup>

80003f0c <exit_cleanup>:
80003f0c:	00000513          	li	a0,0
80003f10:	014000ef          	jal	ra,80003f24 <halt>

80003f14 <bad_trap>:
80003f14:	00100513          	li	a0,1
80003f18:	00c000ef          	jal	ra,80003f24 <halt>
	...

80003f24 <halt>:
80003f24:	0000006f          	j	80003f24 <halt>

80003f28 <_trm_init>:
80003f28:	ff010113          	addi	sp,sp,-16
80003f2c:	00000517          	auipc	a0,0x0
80003f30:	01450513          	addi	a0,a0,20 # 80003f40 <_etext>
80003f34:	00112623          	sw	ra,12(sp)
80003f38:	8d8fc0ef          	jal	ra,80000010 <main>
80003f3c:	0000006f          	j	80003f3c <_trm_init+0x14>
