
test/slt-riscv32-ni.elf:     file format elf32-littleriscv


Disassembly of section .text:

80000000 <_start>:
80000000:	00000413          	li	s0,0
80000004:	00017117          	auipc	sp,0x17
80000008:	ffc10113          	addi	sp,sp,-4 # 80017000 <_end>
8000000c:	449040ef          	jal	ra,80004c54 <_trm_init>

80000010 <main>:
80000010:	010000ef          	jal	ra,80000020 <rvtest_entry_point>
80000014:	00000513          	li	a0,0
80000018:	00008067          	ret
8000001c:	0000                	unimp
	...

80000020 <rvtest_entry_point>:
80000020:	7d5c0837          	lui	a6,0x7d5c0
80000024:	ddb80813          	addi	a6,a6,-549 # 7d5bfddb <absimm+0x382cd8ac>
80000028:	00785893          	srli	a7,a6,0x7
8000002c:	01985793          	srli	a5,a6,0x19
80000030:	00f8e8b3          	or	a7,a7,a5
80000034:	0078d913          	srli	s2,a7,0x7
80000038:	0198d793          	srli	a5,a7,0x19
8000003c:	00f96933          	or	s2,s2,a5
80000040:	00795993          	srli	s3,s2,0x7
80000044:	01995793          	srli	a5,s2,0x19
80000048:	00f9e9b3          	or	s3,s3,a5
8000004c:	0079da13          	srli	s4,s3,0x7
80000050:	0199d793          	srli	a5,s3,0x19
80000054:	00fa6a33          	or	s4,s4,a5
80000058:	007a5a93          	srli	s5,s4,0x7
8000005c:	019a5793          	srli	a5,s4,0x19
80000060:	00faeab3          	or	s5,s5,a5
80000064:	007adb13          	srli	s6,s5,0x7
80000068:	019ad793          	srli	a5,s5,0x19
8000006c:	00fb6b33          	or	s6,s6,a5
80000070:	007b5b93          	srli	s7,s6,0x7
80000074:	019b5793          	srli	a5,s6,0x19
80000078:	00fbebb3          	or	s7,s7,a5
8000007c:	007bdc13          	srli	s8,s7,0x7
80000080:	019bd793          	srli	a5,s7,0x19
80000084:	00fc6c33          	or	s8,s8,a5
80000088:	007c5c93          	srli	s9,s8,0x7
8000008c:	019c5793          	srli	a5,s8,0x19
80000090:	00fcecb3          	or	s9,s9,a5
80000094:	007cdd13          	srli	s10,s9,0x7
80000098:	019cd793          	srli	a5,s9,0x19
8000009c:	00fd6d33          	or	s10,s10,a5
800000a0:	007d5d93          	srli	s11,s10,0x7
800000a4:	019d5793          	srli	a5,s10,0x19
800000a8:	00fdedb3          	or	s11,s11,a5
800000ac:	007dde13          	srli	t3,s11,0x7
800000b0:	019dd793          	srli	a5,s11,0x19
800000b4:	00fe6e33          	or	t3,t3,a5
800000b8:	007e5e93          	srli	t4,t3,0x7
800000bc:	019e5793          	srli	a5,t3,0x19
800000c0:	00feeeb3          	or	t4,t4,a5
800000c4:	007edf13          	srli	t5,t4,0x7
800000c8:	019ed793          	srli	a5,t4,0x19
800000cc:	00ff6f33          	or	t5,t5,a5
800000d0:	feedc0b7          	lui	ra,0xfeedc
800000d4:	ead08093          	addi	ra,ra,-339 # feedbead <imm12+0xfeedc3dd>
800000d8:	0070d113          	srli	sp,ra,0x7
800000dc:	0190d793          	srli	a5,ra,0x19
800000e0:	00f16133          	or	sp,sp,a5
800000e4:	00715193          	srli	gp,sp,0x7
800000e8:	01915793          	srli	a5,sp,0x19
800000ec:	00f1e1b3          	or	gp,gp,a5
800000f0:	0071d213          	srli	tp,gp,0x7
800000f4:	0191d793          	srli	a5,gp,0x19
800000f8:	00f26233          	or	tp,tp,a5
800000fc:	00725293          	srli	t0,tp,0x7
80000100:	01925793          	srli	a5,tp,0x19
80000104:	00f2e2b3          	or	t0,t0,a5
80000108:	0072d313          	srli	t1,t0,0x7
8000010c:	0192d793          	srli	a5,t0,0x19
80000110:	00f36333          	or	t1,t1,a5
80000114:	00735393          	srli	t2,t1,0x7
80000118:	01935793          	srli	a5,t1,0x19
8000011c:	00f3e3b3          	or	t2,t2,a5
80000120:	0073d413          	srli	s0,t2,0x7
80000124:	0193d793          	srli	a5,t2,0x19
80000128:	00f46433          	or	s0,s0,a5
8000012c:	00745493          	srli	s1,s0,0x7
80000130:	01945793          	srli	a5,s0,0x19
80000134:	00f4e4b3          	or	s1,s1,a5
80000138:	0074d513          	srli	a0,s1,0x7
8000013c:	0194d793          	srli	a5,s1,0x19
80000140:	00f56533          	or	a0,a0,a5
80000144:	00755593          	srli	a1,a0,0x7
80000148:	01955793          	srli	a5,a0,0x19
8000014c:	00f5e5b3          	or	a1,a1,a5
80000150:	0075d613          	srli	a2,a1,0x7
80000154:	0195d793          	srli	a5,a1,0x19
80000158:	00f66633          	or	a2,a2,a5
8000015c:	00765693          	srli	a3,a2,0x7
80000160:	01965793          	srli	a5,a2,0x19
80000164:	00f6e6b3          	or	a3,a3,a5

80000168 <rvtest_code_begin>:
80000168:	00000013          	nop
8000016c:	00000013          	nop
80000170:	00000013          	nop
80000174:	00000013          	nop
80000178:	00000013          	nop
8000017c:	00000013          	nop
80000180:	00006617          	auipc	a2,0x6
80000184:	e8460613          	addi	a2,a2,-380 # 80006004 <signature_x12_0>
80000188:	00000013          	nop
8000018c:	00000013          	nop
80000190:	00000013          	nop
80000194:	00000013          	nop
80000198:	00000013          	nop
8000019c:	00000013          	nop

800001a0 <inst_0>:
800001a0:	66666937          	lui	s2,0x66666
800001a4:	66790913          	addi	s2,s2,1639 # 66666667 <absimm+0x21374138>
800001a8:	66666d37          	lui	s10,0x66666
800001ac:	667d0d13          	addi	s10,s10,1639 # 66666667 <absimm+0x21374138>
800001b0:	01a92d33          	slt	s10,s2,s10
800001b4:	01a62023          	sw	s10,0(a2)
800001b8:	00000313          	li	t1,0
800001bc:	01a30463          	beq	t1,s10,800001c4 <inst_1>
800001c0:	2850406f          	j	80004c44 <bad_trap>

800001c4 <inst_1>:
800001c4:	33333a37          	lui	s4,0x33333
800001c8:	334a0a13          	addi	s4,s4,820 # 33333334 <offset+0x33333288>
800001cc:	33333a37          	lui	s4,0x33333
800001d0:	334a0a13          	addi	s4,s4,820 # 33333334 <offset+0x33333288>
800001d4:	014a20b3          	slt	ra,s4,s4
800001d8:	00162223          	sw	ra,4(a2)
800001dc:	00000313          	li	t1,0
800001e0:	00130463          	beq	t1,ra,800001e8 <inst_2>
800001e4:	2610406f          	j	80004c44 <bad_trap>

800001e8 <inst_2>:
800001e8:	ffffcab7          	lui	s5,0xffffc
800001ec:	fffa8a93          	addi	s5,s5,-1 # ffffbfff <imm12+0xffffc52f>
800001f0:	ffffcab7          	lui	s5,0xffffc
800001f4:	fffa8a93          	addi	s5,s5,-1 # ffffbfff <imm12+0xffffc52f>
800001f8:	015aaab3          	slt	s5,s5,s5
800001fc:	01562423          	sw	s5,8(a2)
80000200:	00000313          	li	t1,0
80000204:	01530463          	beq	t1,s5,8000020c <inst_3>
80000208:	23d0406f          	j	80004c44 <bad_trap>

8000020c <inst_3>:
8000020c:	dff00793          	li	a5,-513
80000210:	00500d93          	li	s11,5
80000214:	01b7a7b3          	slt	a5,a5,s11
80000218:	00f62623          	sw	a5,12(a2)
8000021c:	00100313          	li	t1,1
80000220:	00f30463          	beq	t1,a5,80000228 <inst_4>
80000224:	2210406f          	j	80004c44 <bad_trap>

80000228 <inst_4>:
80000228:	333332b7          	lui	t0,0x33333
8000022c:	33428293          	addi	t0,t0,820 # 33333334 <offset+0x33333288>
80000230:	80000937          	lui	s2,0x80000
80000234:	0122a3b3          	slt	t2,t0,s2
80000238:	00762823          	sw	t2,16(a2)
8000023c:	00000313          	li	t1,0
80000240:	00730463          	beq	t1,t2,80000248 <inst_5>
80000244:	2010406f          	j	80004c44 <bad_trap>

80000248 <inst_5>:
80000248:	08000cb7          	lui	s9,0x8000
8000024c:	00000993          	li	s3,0
80000250:	013ca8b3          	slt	a7,s9,s3
80000254:	01162a23          	sw	a7,20(a2)
80000258:	00000313          	li	t1,0
8000025c:	01130463          	beq	t1,a7,80000264 <inst_6>
80000260:	1e50406f          	j	80004c44 <bad_trap>

80000264 <inst_6>:
80000264:	000204b7          	lui	s1,0x20
80000268:	80000fb7          	lui	t6,0x80000
8000026c:	ffff8f93          	addi	t6,t6,-1 # 7fffffff <imm12+0x8000052f>
80000270:	01f4abb3          	slt	s7,s1,t6
80000274:	01762c23          	sw	s7,24(a2)
80000278:	00100313          	li	t1,1
8000027c:	01730463          	beq	t1,s7,80000284 <inst_7>
80000280:	1c50406f          	j	80004c44 <bad_trap>

80000284 <inst_7>:
80000284:	fffe0137          	lui	sp,0xfffe0
80000288:	fff10113          	addi	sp,sp,-1 # fffdffff <imm12+0xfffe052f>
8000028c:	00100793          	li	a5,1
80000290:	00f125b3          	slt	a1,sp,a5
80000294:	00b62e23          	sw	a1,28(a2)
80000298:	00100313          	li	t1,1
8000029c:	00b30463          	beq	t1,a1,800002a4 <inst_8>
800002a0:	1a50406f          	j	80004c44 <bad_trap>

800002a4 <inst_8>:
800002a4:	80000e37          	lui	t3,0x80000
800002a8:	40000693          	li	a3,1024
800002ac:	00de2b33          	slt	s6,t3,a3
800002b0:	03662023          	sw	s6,32(a2)
800002b4:	00100313          	li	t1,1
800002b8:	01630463          	beq	t1,s6,800002c0 <inst_9>
800002bc:	1890406f          	j	80004c44 <bad_trap>

800002c0 <inst_9>:
800002c0:	00000513          	li	a0,0
800002c4:	00800393          	li	t2,8
800002c8:	00752f33          	slt	t5,a0,t2
800002cc:	03e62223          	sw	t5,36(a2)
800002d0:	00100313          	li	t1,1
800002d4:	01e30463          	beq	t1,t5,800002dc <inst_10>
800002d8:	16d0406f          	j	80004c44 <bad_trap>

800002dc <inst_10>:
800002dc:	80000c37          	lui	s8,0x80000
800002e0:	fffc0c13          	addi	s8,s8,-1 # 7fffffff <imm12+0x8000052f>
800002e4:	eff00b13          	li	s6,-257
800002e8:	016c22b3          	slt	t0,s8,s6
800002ec:	02562423          	sw	t0,40(a2)
800002f0:	00000313          	li	t1,0
800002f4:	00530463          	beq	t1,t0,800002fc <inst_11>
800002f8:	14d0406f          	j	80004c44 <bad_trap>

800002fc <inst_11>:
800002fc:	00100413          	li	s0,1
80000300:	dff00193          	li	gp,-513
80000304:	00342c33          	slt	s8,s0,gp
80000308:	03862623          	sw	s8,44(a2)
8000030c:	00000313          	li	t1,0
80000310:	01830463          	beq	t1,s8,80000318 <inst_12>
80000314:	1310406f          	j	80004c44 <bad_trap>

80000318 <inst_12>:
80000318:	10000d37          	lui	s10,0x10000
8000031c:	00200493          	li	s1,2
80000320:	009d2133          	slt	sp,s10,s1
80000324:	02262823          	sw	sp,48(a2)
80000328:	00000313          	li	t1,0
8000032c:	00230463          	beq	t1,sp,80000334 <inst_13>
80000330:	1150406f          	j	80004c44 <bad_trap>

80000334 <inst_13>:
80000334:	00008237          	lui	tp,0x8
80000338:	00400713          	li	a4,4
8000033c:	00e22433          	slt	s0,tp,a4
80000340:	02862a23          	sw	s0,52(a2)
80000344:	00000313          	li	t1,0
80000348:	00830463          	beq	t1,s0,80000350 <inst_14>
8000034c:	0f90406f          	j	80004c44 <bad_trap>

80000350 <inst_14>:
80000350:	fffff337          	lui	t1,0xfffff
80000354:	fff30313          	addi	t1,t1,-1 # ffffefff <imm12+0xfffff52f>
80000358:	01000213          	li	tp,16
8000035c:	00432cb3          	slt	s9,t1,tp
80000360:	03962c23          	sw	s9,56(a2)
80000364:	00100913          	li	s2,1
80000368:	01990463          	beq	s2,s9,80000370 <inst_14+0x20>
8000036c:	0d90406f          	j	80004c44 <bad_trap>
80000370:	00000013          	nop
80000374:	00000013          	nop
80000378:	00000013          	nop
8000037c:	00000013          	nop
80000380:	00006797          	auipc	a5,0x6
80000384:	cc078793          	addi	a5,a5,-832 # 80006040 <signature_x15_0>
80000388:	00000013          	nop
8000038c:	00000013          	nop
80000390:	00000013          	nop
80000394:	00000013          	nop
80000398:	00000013          	nop
8000039c:	00000013          	nop

800003a0 <inst_15>:
800003a0:	01000fb7          	lui	t6,0x1000
800003a4:	02000c93          	li	s9,32
800003a8:	019fa733          	slt	a4,t6,s9
800003ac:	00e7a023          	sw	a4,0(a5)
800003b0:	00000913          	li	s2,0
800003b4:	00e90463          	beq	s2,a4,800003bc <inst_16>
800003b8:	08d0406f          	j	80004c44 <bad_trap>

800003bc <inst_16>:
800003bc:	00500713          	li	a4,5
800003c0:	04000413          	li	s0,64
800003c4:	00872a33          	slt	s4,a4,s0
800003c8:	0147a223          	sw	s4,4(a5)
800003cc:	00100913          	li	s2,1
800003d0:	01490463          	beq	s2,s4,800003d8 <inst_17>
800003d4:	0710406f          	j	80004c44 <bad_trap>

800003d8 <inst_17>:
800003d8:	00000393          	li	t2,0
800003dc:	08000593          	li	a1,128
800003e0:	00b3a9b3          	slt	s3,t2,a1
800003e4:	0137a423          	sw	s3,8(a5)
800003e8:	00100913          	li	s2,1
800003ec:	01390463          	beq	s2,s3,800003f4 <inst_18>
800003f0:	0550406f          	j	80004c44 <bad_trap>

800003f4 <inst_18>:
800003f4:	00500993          	li	s3,5
800003f8:	10000e93          	li	t4,256
800003fc:	01d9a4b3          	slt	s1,s3,t4
80000400:	0097a623          	sw	s1,12(a5)
80000404:	00100913          	li	s2,1
80000408:	00990463          	beq	s2,s1,80000410 <inst_19>
8000040c:	0390406f          	j	80004c44 <bad_trap>

80000410 <inst_19>:
80000410:	004001b7          	lui	gp,0x400
80000414:	20000b93          	li	s7,512
80000418:	0171a333          	slt	t1,gp,s7
8000041c:	0067a823          	sw	t1,16(a5)
80000420:	00000913          	li	s2,0
80000424:	00690463          	beq	s2,t1,8000042c <inst_20>
80000428:	01d0406f          	j	80004c44 <bad_trap>

8000042c <inst_20>:
8000042c:	fef00593          	li	a1,-17
80000430:	000010b7          	lui	ra,0x1
80000434:	80008093          	addi	ra,ra,-2048 # 800 <offset+0x754>
80000438:	0015afb3          	slt	t6,a1,ra
8000043c:	01f7aa23          	sw	t6,20(a5)
80000440:	00100913          	li	s2,1
80000444:	01f90463          	beq	s2,t6,8000044c <inst_21>
80000448:	7fc0406f          	j	80004c44 <bad_trap>

8000044c <inst_21>:
8000044c:	ff000f37          	lui	t5,0xff000
80000450:	ffff0f13          	addi	t5,t5,-1 # feffffff <imm12+0xff00052f>
80000454:	00001837          	lui	a6,0x1
80000458:	010f2633          	slt	a2,t5,a6
8000045c:	00c7ac23          	sw	a2,24(a5)
80000460:	00100913          	li	s2,1
80000464:	00c90463          	beq	s2,a2,8000046c <inst_22>
80000468:	7dc0406f          	j	80004c44 <bad_trap>

8000046c <inst_22>:
8000046c:	00000693          	li	a3,0
80000470:	00002137          	lui	sp,0x2
80000474:	0026a833          	slt	a6,a3,sp
80000478:	0107ae23          	sw	a6,28(a5)
8000047c:	00100913          	li	s2,1
80000480:	01090463          	beq	s2,a6,80000488 <inst_23>
80000484:	7c00406f          	j	80004c44 <bad_trap>

80000488 <inst_23>:
80000488:	02000b13          	li	s6,32
8000048c:	00004637          	lui	a2,0x4
80000490:	00cb2533          	slt	a0,s6,a2
80000494:	02a7a023          	sw	a0,32(a5)
80000498:	00100913          	li	s2,1
8000049c:	00a90463          	beq	s2,a0,800004a4 <inst_24>
800004a0:	7a40406f          	j	80004c44 <bad_trap>

800004a4 <inst_24>:
800004a4:	ffe00e93          	li	t4,-2
800004a8:	00008c37          	lui	s8,0x8
800004ac:	018eadb3          	slt	s11,t4,s8
800004b0:	03b7a223          	sw	s11,36(a5)
800004b4:	00100913          	li	s2,1
800004b8:	01b90463          	beq	s2,s11,800004c0 <inst_25>
800004bc:	7880406f          	j	80004c44 <bad_trap>

800004c0 <inst_25>:
800004c0:	fc000837          	lui	a6,0xfc000
800004c4:	fff80813          	addi	a6,a6,-1 # fbffffff <imm12+0xfc00052f>
800004c8:	00010f37          	lui	t5,0x10
800004cc:	01e82233          	slt	tp,a6,t5
800004d0:	0247a423          	sw	tp,40(a5)
800004d4:	00100913          	li	s2,1
800004d8:	00490463          	beq	s2,tp,800004e0 <inst_26>
800004dc:	7680406f          	j	80004c44 <bad_trap>

800004e0 <inst_26>:
800004e0:	000018b7          	lui	a7,0x1
800004e4:	00020e37          	lui	t3,0x20
800004e8:	01c8a1b3          	slt	gp,a7,t3
800004ec:	0237a623          	sw	gp,44(a5)
800004f0:	00100913          	li	s2,1
800004f4:	00390463          	beq	s2,gp,800004fc <inst_27>
800004f8:	74c0406f          	j	80004c44 <bad_trap>

800004fc <inst_27>:
800004fc:	020000b7          	lui	ra,0x2000
80000500:	000402b7          	lui	t0,0x40
80000504:	0050a6b3          	slt	a3,ra,t0
80000508:	02d7a823          	sw	a3,48(a5)
8000050c:	00000913          	li	s2,0
80000510:	00d90463          	beq	s2,a3,80000518 <inst_28>
80000514:	7300406f          	j	80004c44 <bad_trap>

80000518 <inst_28>:
80000518:	ffe00db7          	lui	s11,0xffe00
8000051c:	fffd8d93          	addi	s11,s11,-1 # ffdfffff <imm12+0xffe0052f>
80000520:	00080537          	lui	a0,0x80
80000524:	00ada933          	slt	s2,s11,a0
80000528:	0327aa23          	sw	s2,52(a5)
8000052c:	00100113          	li	sp,1
80000530:	01210463          	beq	sp,s2,80000538 <inst_28+0x20>
80000534:	7100406f          	j	80004c44 <bad_trap>
80000538:	00000013          	nop
8000053c:	00000013          	nop
80000540:	00006097          	auipc	ra,0x6
80000544:	b3808093          	addi	ra,ra,-1224 # 80006078 <signature_x1_0>
80000548:	00000013          	nop
8000054c:	00000013          	nop
80000550:	00000013          	nop
80000554:	00000013          	nop
80000558:	00000013          	nop
8000055c:	00000013          	nop

80000560 <inst_29>:
80000560:	00000013          	nop
80000564:	001008b7          	lui	a7,0x100
80000568:	01102e33          	sgtz	t3,a7
8000056c:	01c0a023          	sw	t3,0(ra)
80000570:	00100113          	li	sp,1
80000574:	01c10463          	beq	sp,t3,8000057c <inst_30>
80000578:	6cc0406f          	j	80004c44 <bad_trap>

8000057c <inst_30>:
8000057c:	00400613          	li	a2,4
80000580:	00000013          	nop
80000584:	00062eb3          	sltz	t4,a2
80000588:	01d0a223          	sw	t4,4(ra)
8000058c:	00000113          	li	sp,0
80000590:	01d10463          	beq	sp,t4,80000598 <inst_31>
80000594:	6b00406f          	j	80004c44 <bad_trap>

80000598 <inst_31>:
80000598:	00900b93          	li	s7,9
8000059c:	00400337          	lui	t1,0x400
800005a0:	006ba033          	slt	zero,s7,t1
800005a4:	0000a423          	sw	zero,8(ra)
800005a8:	00000113          	li	sp,0
800005ac:	00010463          	beqz	sp,800005b4 <inst_32>
800005b0:	6940406f          	j	80004c44 <bad_trap>

800005b4 <inst_32>:
800005b4:	80000537          	lui	a0,0x80000
800005b8:	008005b7          	lui	a1,0x800
800005bc:	00b52633          	slt	a2,a0,a1
800005c0:	00c0a623          	sw	a2,12(ra)
800005c4:	00100113          	li	sp,1
800005c8:	00c10463          	beq	sp,a2,800005d0 <inst_33>
800005cc:	6780406f          	j	80004c44 <bad_trap>

800005d0 <inst_33>:
800005d0:	f7f00513          	li	a0,-129
800005d4:	010005b7          	lui	a1,0x1000
800005d8:	00b52633          	slt	a2,a0,a1
800005dc:	00c0a823          	sw	a2,16(ra)
800005e0:	00100113          	li	sp,1
800005e4:	00c10463          	beq	sp,a2,800005ec <inst_34>
800005e8:	65c0406f          	j	80004c44 <bad_trap>

800005ec <inst_34>:
800005ec:	00040537          	lui	a0,0x40
800005f0:	020005b7          	lui	a1,0x2000
800005f4:	00b52633          	slt	a2,a0,a1
800005f8:	00c0aa23          	sw	a2,20(ra)
800005fc:	00100113          	li	sp,1
80000600:	00c10463          	beq	sp,a2,80000608 <inst_35>
80000604:	6400406f          	j	80004c44 <bad_trap>

80000608 <inst_35>:
80000608:	aaaab537          	lui	a0,0xaaaab
8000060c:	aaa50513          	addi	a0,a0,-1366 # aaaaaaaa <imm12+0xaaaaafda>
80000610:	040005b7          	lui	a1,0x4000
80000614:	00b52633          	slt	a2,a0,a1
80000618:	00c0ac23          	sw	a2,24(ra)
8000061c:	00100113          	li	sp,1
80000620:	00c10463          	beq	sp,a2,80000628 <inst_36>
80000624:	6200406f          	j	80004c44 <bad_trap>

80000628 <inst_36>:
80000628:	eff00513          	li	a0,-257
8000062c:	080005b7          	lui	a1,0x8000
80000630:	00b52633          	slt	a2,a0,a1
80000634:	00c0ae23          	sw	a2,28(ra)
80000638:	00100113          	li	sp,1
8000063c:	00c10463          	beq	sp,a2,80000644 <inst_37>
80000640:	6040406f          	j	80004c44 <bad_trap>

80000644 <inst_37>:
80000644:	02000537          	lui	a0,0x2000
80000648:	100005b7          	lui	a1,0x10000
8000064c:	00b52633          	slt	a2,a0,a1
80000650:	02c0a023          	sw	a2,32(ra)
80000654:	00100113          	li	sp,1
80000658:	00c10463          	beq	sp,a2,80000660 <inst_38>
8000065c:	5e80406f          	j	80004c44 <bad_trap>

80000660 <inst_38>:
80000660:	ffff8537          	lui	a0,0xffff8
80000664:	fff50513          	addi	a0,a0,-1 # ffff7fff <imm12+0xffff852f>
80000668:	200005b7          	lui	a1,0x20000
8000066c:	00b52633          	slt	a2,a0,a1
80000670:	02c0a223          	sw	a2,36(ra)
80000674:	00100113          	li	sp,1
80000678:	00c10463          	beq	sp,a2,80000680 <inst_39>
8000067c:	5c80406f          	j	80004c44 <bad_trap>

80000680 <inst_39>:
80000680:	02000537          	lui	a0,0x2000
80000684:	400005b7          	lui	a1,0x40000
80000688:	00b52633          	slt	a2,a0,a1
8000068c:	02c0a423          	sw	a2,40(ra)
80000690:	00100113          	li	sp,1
80000694:	00c10463          	beq	sp,a2,8000069c <inst_40>
80000698:	5ac0406f          	j	80004c44 <bad_trap>

8000069c <inst_40>:
8000069c:	33333537          	lui	a0,0x33333
800006a0:	33450513          	addi	a0,a0,820 # 33333334 <offset+0x33333288>
800006a4:	ffe00593          	li	a1,-2
800006a8:	00b52633          	slt	a2,a0,a1
800006ac:	02c0a623          	sw	a2,44(ra)
800006b0:	00000113          	li	sp,0
800006b4:	00c10463          	beq	sp,a2,800006bc <inst_41>
800006b8:	58c0406f          	j	80004c44 <bad_trap>

800006bc <inst_41>:
800006bc:	00700513          	li	a0,7
800006c0:	ffd00593          	li	a1,-3
800006c4:	00b52633          	slt	a2,a0,a1
800006c8:	02c0a823          	sw	a2,48(ra)
800006cc:	00000113          	li	sp,0
800006d0:	00c10463          	beq	sp,a2,800006d8 <inst_42>
800006d4:	5700406f          	j	80004c44 <bad_trap>

800006d8 <inst_42>:
800006d8:	fef00513          	li	a0,-17
800006dc:	ffb00593          	li	a1,-5
800006e0:	00b52633          	slt	a2,a0,a1
800006e4:	02c0aa23          	sw	a2,52(ra)
800006e8:	00100113          	li	sp,1
800006ec:	00c10463          	beq	sp,a2,800006f4 <inst_43>
800006f0:	5540406f          	j	80004c44 <bad_trap>

800006f4 <inst_43>:
800006f4:	00008537          	lui	a0,0x8
800006f8:	fef00593          	li	a1,-17
800006fc:	00b52633          	slt	a2,a0,a1
80000700:	02c0ac23          	sw	a2,56(ra)
80000704:	00000113          	li	sp,0
80000708:	00c10463          	beq	sp,a2,80000710 <inst_44>
8000070c:	5380406f          	j	80004c44 <bad_trap>

80000710 <inst_44>:
80000710:	bff00513          	li	a0,-1025
80000714:	fdf00593          	li	a1,-33
80000718:	00b52633          	slt	a2,a0,a1
8000071c:	02c0ae23          	sw	a2,60(ra)
80000720:	00100113          	li	sp,1
80000724:	00c10463          	beq	sp,a2,8000072c <inst_45>
80000728:	51c0406f          	j	80004c44 <bad_trap>

8000072c <inst_45>:
8000072c:	fef00513          	li	a0,-17
80000730:	fbf00593          	li	a1,-65
80000734:	00b52633          	slt	a2,a0,a1
80000738:	04c0a023          	sw	a2,64(ra)
8000073c:	00000113          	li	sp,0
80000740:	00c10463          	beq	sp,a2,80000748 <inst_46>
80000744:	5000406f          	j	80004c44 <bad_trap>

80000748 <inst_46>:
80000748:	ffffc537          	lui	a0,0xffffc
8000074c:	fff50513          	addi	a0,a0,-1 # ffffbfff <imm12+0xffffc52f>
80000750:	f7f00593          	li	a1,-129
80000754:	00b52633          	slt	a2,a0,a1
80000758:	04c0a223          	sw	a2,68(ra)
8000075c:	00100113          	li	sp,1
80000760:	00c10463          	beq	sp,a2,80000768 <inst_47>
80000764:	4e00406f          	j	80004c44 <bad_trap>

80000768 <inst_47>:
80000768:	00080537          	lui	a0,0x80
8000076c:	bff00593          	li	a1,-1025
80000770:	00b52633          	slt	a2,a0,a1
80000774:	04c0a423          	sw	a2,72(ra)
80000778:	00000113          	li	sp,0
8000077c:	00c10463          	beq	sp,a2,80000784 <inst_48>
80000780:	4c40406f          	j	80004c44 <bad_trap>

80000784 <inst_48>:
80000784:	40000537          	lui	a0,0x40000
80000788:	fffff5b7          	lui	a1,0xfffff
8000078c:	7ff58593          	addi	a1,a1,2047 # fffff7ff <imm12+0xfffffd2f>
80000790:	00b52633          	slt	a2,a0,a1
80000794:	04c0a623          	sw	a2,76(ra)
80000798:	00000113          	li	sp,0
8000079c:	00c10463          	beq	sp,a2,800007a4 <inst_49>
800007a0:	4a40406f          	j	80004c44 <bad_trap>

800007a4 <inst_49>:
800007a4:	ff800537          	lui	a0,0xff800
800007a8:	fff50513          	addi	a0,a0,-1 # ff7fffff <imm12+0xff80052f>
800007ac:	fffff5b7          	lui	a1,0xfffff
800007b0:	fff58593          	addi	a1,a1,-1 # ffffefff <imm12+0xfffff52f>
800007b4:	00b52633          	slt	a2,a0,a1
800007b8:	04c0a823          	sw	a2,80(ra)
800007bc:	00100113          	li	sp,1
800007c0:	00c10463          	beq	sp,a2,800007c8 <inst_50>
800007c4:	4800406f          	j	80004c44 <bad_trap>

800007c8 <inst_50>:
800007c8:	00020537          	lui	a0,0x20
800007cc:	ffffe5b7          	lui	a1,0xffffe
800007d0:	fff58593          	addi	a1,a1,-1 # ffffdfff <imm12+0xffffe52f>
800007d4:	00b52633          	slt	a2,a0,a1
800007d8:	04c0aa23          	sw	a2,84(ra)
800007dc:	00000113          	li	sp,0
800007e0:	00c10463          	beq	sp,a2,800007e8 <inst_51>
800007e4:	4600406f          	j	80004c44 <bad_trap>

800007e8 <inst_51>:
800007e8:	00900513          	li	a0,9
800007ec:	ffffc5b7          	lui	a1,0xffffc
800007f0:	fff58593          	addi	a1,a1,-1 # ffffbfff <imm12+0xffffc52f>
800007f4:	00b52633          	slt	a2,a0,a1
800007f8:	04c0ac23          	sw	a2,88(ra)
800007fc:	00000113          	li	sp,0
80000800:	00c10463          	beq	sp,a2,80000808 <inst_52>
80000804:	4400406f          	j	80004c44 <bad_trap>

80000808 <inst_52>:
80000808:	00300513          	li	a0,3
8000080c:	ffff85b7          	lui	a1,0xffff8
80000810:	fff58593          	addi	a1,a1,-1 # ffff7fff <imm12+0xffff852f>
80000814:	00b52633          	slt	a2,a0,a1
80000818:	04c0ae23          	sw	a2,92(ra)
8000081c:	00000113          	li	sp,0
80000820:	00c10463          	beq	sp,a2,80000828 <inst_53>
80000824:	4200406f          	j	80004c44 <bad_trap>

80000828 <inst_53>:
80000828:	f0000537          	lui	a0,0xf0000
8000082c:	fff50513          	addi	a0,a0,-1 # efffffff <imm12+0xf000052f>
80000830:	ffff05b7          	lui	a1,0xffff0
80000834:	fff58593          	addi	a1,a1,-1 # fffeffff <imm12+0xffff052f>
80000838:	00b52633          	slt	a2,a0,a1
8000083c:	06c0a023          	sw	a2,96(ra)
80000840:	00100113          	li	sp,1
80000844:	00c10463          	beq	sp,a2,8000084c <inst_54>
80000848:	3fc0406f          	j	80004c44 <bad_trap>

8000084c <inst_54>:
8000084c:	0000b537          	lui	a0,0xb
80000850:	50550513          	addi	a0,a0,1285 # b505 <offset+0xb459>
80000854:	fffe05b7          	lui	a1,0xfffe0
80000858:	fff58593          	addi	a1,a1,-1 # fffdffff <imm12+0xfffe052f>
8000085c:	00b52633          	slt	a2,a0,a1
80000860:	06c0a223          	sw	a2,100(ra)
80000864:	00000113          	li	sp,0
80000868:	00c10463          	beq	sp,a2,80000870 <inst_55>
8000086c:	3d80406f          	j	80004c44 <bad_trap>

80000870 <inst_55>:
80000870:	40000513          	li	a0,1024
80000874:	fffc05b7          	lui	a1,0xfffc0
80000878:	fff58593          	addi	a1,a1,-1 # fffbffff <imm12+0xfffc052f>
8000087c:	00b52633          	slt	a2,a0,a1
80000880:	06c0a423          	sw	a2,104(ra)
80000884:	00000113          	li	sp,0
80000888:	00c10463          	beq	sp,a2,80000890 <inst_56>
8000088c:	3b80406f          	j	80004c44 <bad_trap>

80000890 <inst_56>:
80000890:	ffff5537          	lui	a0,0xffff5
80000894:	afd50513          	addi	a0,a0,-1283 # ffff4afd <imm12+0xffff502d>
80000898:	fff805b7          	lui	a1,0xfff80
8000089c:	fff58593          	addi	a1,a1,-1 # fff7ffff <imm12+0xfff8052f>
800008a0:	00b52633          	slt	a2,a0,a1
800008a4:	06c0a623          	sw	a2,108(ra)
800008a8:	00000113          	li	sp,0
800008ac:	00c10463          	beq	sp,a2,800008b4 <inst_57>
800008b0:	3940406f          	j	80004c44 <bad_trap>

800008b4 <inst_57>:
800008b4:	33333537          	lui	a0,0x33333
800008b8:	33350513          	addi	a0,a0,819 # 33333333 <offset+0x33333287>
800008bc:	fff005b7          	lui	a1,0xfff00
800008c0:	fff58593          	addi	a1,a1,-1 # ffefffff <imm12+0xfff0052f>
800008c4:	00b52633          	slt	a2,a0,a1
800008c8:	06c0a823          	sw	a2,112(ra)
800008cc:	00000113          	li	sp,0
800008d0:	00c10463          	beq	sp,a2,800008d8 <inst_58>
800008d4:	3700406f          	j	80004c44 <bad_trap>

800008d8 <inst_58>:
800008d8:	00001537          	lui	a0,0x1
800008dc:	ffe005b7          	lui	a1,0xffe00
800008e0:	fff58593          	addi	a1,a1,-1 # ffdfffff <imm12+0xffe0052f>
800008e4:	00b52633          	slt	a2,a0,a1
800008e8:	06c0aa23          	sw	a2,116(ra)
800008ec:	00000113          	li	sp,0
800008f0:	00c10463          	beq	sp,a2,800008f8 <inst_59>
800008f4:	3500406f          	j	80004c44 <bad_trap>

800008f8 <inst_59>:
800008f8:	fffe0537          	lui	a0,0xfffe0
800008fc:	fff50513          	addi	a0,a0,-1 # fffdffff <imm12+0xfffe052f>
80000900:	ffc005b7          	lui	a1,0xffc00
80000904:	fff58593          	addi	a1,a1,-1 # ffbfffff <imm12+0xffc0052f>
80000908:	00b52633          	slt	a2,a0,a1
8000090c:	06c0ac23          	sw	a2,120(ra)
80000910:	00000113          	li	sp,0
80000914:	00c10463          	beq	sp,a2,8000091c <inst_60>
80000918:	32c0406f          	j	80004c44 <bad_trap>

8000091c <inst_60>:
8000091c:	bff00513          	li	a0,-1025
80000920:	ff8005b7          	lui	a1,0xff800
80000924:	fff58593          	addi	a1,a1,-1 # ff7fffff <imm12+0xff80052f>
80000928:	00b52633          	slt	a2,a0,a1
8000092c:	06c0ae23          	sw	a2,124(ra)
80000930:	00000113          	li	sp,0
80000934:	00c10463          	beq	sp,a2,8000093c <inst_61>
80000938:	30c0406f          	j	80004c44 <bad_trap>

8000093c <inst_61>:
8000093c:	02000513          	li	a0,32
80000940:	ff0005b7          	lui	a1,0xff000
80000944:	fff58593          	addi	a1,a1,-1 # feffffff <imm12+0xff00052f>
80000948:	00b52633          	slt	a2,a0,a1
8000094c:	08c0a023          	sw	a2,128(ra)
80000950:	00000113          	li	sp,0
80000954:	00c10463          	beq	sp,a2,8000095c <inst_62>
80000958:	2ec0406f          	j	80004c44 <bad_trap>

8000095c <inst_62>:
8000095c:	00200537          	lui	a0,0x200
80000960:	fe0005b7          	lui	a1,0xfe000
80000964:	fff58593          	addi	a1,a1,-1 # fdffffff <imm12+0xfe00052f>
80000968:	00b52633          	slt	a2,a0,a1
8000096c:	08c0a223          	sw	a2,132(ra)
80000970:	00000113          	li	sp,0
80000974:	00c10463          	beq	sp,a2,8000097c <inst_63>
80000978:	2cc0406f          	j	80004c44 <bad_trap>

8000097c <inst_63>:
8000097c:	55555537          	lui	a0,0x55555
80000980:	55550513          	addi	a0,a0,1365 # 55555555 <absimm+0x10263026>
80000984:	fc0005b7          	lui	a1,0xfc000
80000988:	fff58593          	addi	a1,a1,-1 # fbffffff <imm12+0xfc00052f>
8000098c:	00b52633          	slt	a2,a0,a1
80000990:	08c0a423          	sw	a2,136(ra)
80000994:	00000113          	li	sp,0
80000998:	00c10463          	beq	sp,a2,800009a0 <inst_64>
8000099c:	2a80406f          	j	80004c44 <bad_trap>

800009a0 <inst_64>:
800009a0:	ffa00513          	li	a0,-6
800009a4:	f80005b7          	lui	a1,0xf8000
800009a8:	fff58593          	addi	a1,a1,-1 # f7ffffff <imm12+0xf800052f>
800009ac:	00b52633          	slt	a2,a0,a1
800009b0:	08c0a623          	sw	a2,140(ra)
800009b4:	00000113          	li	sp,0
800009b8:	00c10463          	beq	sp,a2,800009c0 <inst_65>
800009bc:	2880406f          	j	80004c44 <bad_trap>

800009c0 <inst_65>:
800009c0:	55555537          	lui	a0,0x55555
800009c4:	55550513          	addi	a0,a0,1365 # 55555555 <absimm+0x10263026>
800009c8:	f00005b7          	lui	a1,0xf0000
800009cc:	fff58593          	addi	a1,a1,-1 # efffffff <imm12+0xf000052f>
800009d0:	00b52633          	slt	a2,a0,a1
800009d4:	08c0a823          	sw	a2,144(ra)
800009d8:	00000113          	li	sp,0
800009dc:	00c10463          	beq	sp,a2,800009e4 <inst_66>
800009e0:	2640406f          	j	80004c44 <bad_trap>

800009e4 <inst_66>:
800009e4:	ffffe537          	lui	a0,0xffffe
800009e8:	fff50513          	addi	a0,a0,-1 # ffffdfff <imm12+0xffffe52f>
800009ec:	e00005b7          	lui	a1,0xe0000
800009f0:	fff58593          	addi	a1,a1,-1 # dfffffff <imm12+0xe000052f>
800009f4:	00b52633          	slt	a2,a0,a1
800009f8:	08c0aa23          	sw	a2,148(ra)
800009fc:	00000113          	li	sp,0
80000a00:	00c10463          	beq	sp,a2,80000a08 <inst_67>
80000a04:	2400406f          	j	80004c44 <bad_trap>

80000a08 <inst_67>:
80000a08:	55555537          	lui	a0,0x55555
80000a0c:	55650513          	addi	a0,a0,1366 # 55555556 <absimm+0x10263027>
80000a10:	c00005b7          	lui	a1,0xc0000
80000a14:	fff58593          	addi	a1,a1,-1 # bfffffff <imm12+0xc000052f>
80000a18:	00b52633          	slt	a2,a0,a1
80000a1c:	08c0ac23          	sw	a2,152(ra)
80000a20:	00000113          	li	sp,0
80000a24:	00c10463          	beq	sp,a2,80000a2c <inst_68>
80000a28:	21c0406f          	j	80004c44 <bad_trap>

80000a2c <inst_68>:
80000a2c:	00200513          	li	a0,2
80000a30:	555555b7          	lui	a1,0x55555
80000a34:	55558593          	addi	a1,a1,1365 # 55555555 <absimm+0x10263026>
80000a38:	00b52633          	slt	a2,a0,a1
80000a3c:	08c0ae23          	sw	a2,156(ra)
80000a40:	00100113          	li	sp,1
80000a44:	00c10463          	beq	sp,a2,80000a4c <inst_69>
80000a48:	1fc0406f          	j	80004c44 <bad_trap>

80000a4c <inst_69>:
80000a4c:	00300513          	li	a0,3
80000a50:	aaaab5b7          	lui	a1,0xaaaab
80000a54:	aaa58593          	addi	a1,a1,-1366 # aaaaaaaa <imm12+0xaaaaafda>
80000a58:	00b52633          	slt	a2,a0,a1
80000a5c:	0ac0a023          	sw	a2,160(ra)
80000a60:	00000113          	li	sp,0
80000a64:	00c10463          	beq	sp,a2,80000a6c <inst_70>
80000a68:	1dc0406f          	j	80004c44 <bad_trap>

80000a6c <inst_70>:
80000a6c:	00800513          	li	a0,8
80000a70:	10000593          	li	a1,256
80000a74:	00b52633          	slt	a2,a0,a1
80000a78:	0ac0a223          	sw	a2,164(ra)
80000a7c:	00100113          	li	sp,1
80000a80:	00c10463          	beq	sp,a2,80000a88 <inst_71>
80000a84:	1c00406f          	j	80004c44 <bad_trap>

80000a88 <inst_71>:
80000a88:	01000513          	li	a0,16
80000a8c:	555555b7          	lui	a1,0x55555
80000a90:	55658593          	addi	a1,a1,1366 # 55555556 <absimm+0x10263027>
80000a94:	00b52633          	slt	a2,a0,a1
80000a98:	0ac0a423          	sw	a2,168(ra)
80000a9c:	00100113          	li	sp,1
80000aa0:	00c10463          	beq	sp,a2,80000aa8 <inst_72>
80000aa4:	1a00406f          	j	80004c44 <bad_trap>

80000aa8 <inst_72>:
80000aa8:	04000513          	li	a0,64
80000aac:	ffff55b7          	lui	a1,0xffff5
80000ab0:	afc58593          	addi	a1,a1,-1284 # ffff4afc <imm12+0xffff502c>
80000ab4:	00b52633          	slt	a2,a0,a1
80000ab8:	0ac0a623          	sw	a2,172(ra)
80000abc:	00000113          	li	sp,0
80000ac0:	00c10463          	beq	sp,a2,80000ac8 <inst_73>
80000ac4:	1800406f          	j	80004c44 <bad_trap>

80000ac8 <inst_73>:
80000ac8:	08000513          	li	a0,128
80000acc:	ffffe5b7          	lui	a1,0xffffe
80000ad0:	fff58593          	addi	a1,a1,-1 # ffffdfff <imm12+0xffffe52f>
80000ad4:	00b52633          	slt	a2,a0,a1
80000ad8:	0ac0a823          	sw	a2,176(ra)
80000adc:	00000113          	li	sp,0
80000ae0:	00c10463          	beq	sp,a2,80000ae8 <inst_74>
80000ae4:	1600406f          	j	80004c44 <bad_trap>

80000ae8 <inst_74>:
80000ae8:	10000513          	li	a0,256
80000aec:	c00005b7          	lui	a1,0xc0000
80000af0:	fff58593          	addi	a1,a1,-1 # bfffffff <imm12+0xc000052f>
80000af4:	00b52633          	slt	a2,a0,a1
80000af8:	0ac0aa23          	sw	a2,180(ra)
80000afc:	00000113          	li	sp,0
80000b00:	00c10463          	beq	sp,a2,80000b08 <inst_75>
80000b04:	1400406f          	j	80004c44 <bad_trap>

80000b08 <inst_75>:
80000b08:	20000513          	li	a0,512
80000b0c:	fbf00593          	li	a1,-65
80000b10:	00b52633          	slt	a2,a0,a1
80000b14:	0ac0ac23          	sw	a2,184(ra)
80000b18:	00000113          	li	sp,0
80000b1c:	00c10463          	beq	sp,a2,80000b24 <inst_76>
80000b20:	1240406f          	j	80004c44 <bad_trap>

80000b24 <inst_76>:
80000b24:	00001537          	lui	a0,0x1
80000b28:	80050513          	addi	a0,a0,-2048 # 800 <offset+0x754>
80000b2c:	000405b7          	lui	a1,0x40
80000b30:	00b52633          	slt	a2,a0,a1
80000b34:	0ac0ae23          	sw	a2,188(ra)
80000b38:	00100113          	li	sp,1
80000b3c:	00c10463          	beq	sp,a2,80000b44 <inst_77>
80000b40:	1040406f          	j	80004c44 <bad_trap>

80000b44 <inst_77>:
80000b44:	00002537          	lui	a0,0x2
80000b48:	aaaab5b7          	lui	a1,0xaaaab
80000b4c:	aab58593          	addi	a1,a1,-1365 # aaaaaaab <imm12+0xaaaaafdb>
80000b50:	00b52633          	slt	a2,a0,a1
80000b54:	0cc0a023          	sw	a2,192(ra)
80000b58:	00000113          	li	sp,0
80000b5c:	00c10463          	beq	sp,a2,80000b64 <inst_78>
80000b60:	0e40406f          	j	80004c44 <bad_trap>

80000b64 <inst_78>:
80000b64:	00004537          	lui	a0,0x4
80000b68:	fef00593          	li	a1,-17
80000b6c:	00b52633          	slt	a2,a0,a1
80000b70:	0cc0a223          	sw	a2,196(ra)
80000b74:	00000113          	li	sp,0
80000b78:	00c10463          	beq	sp,a2,80000b80 <inst_79>
80000b7c:	0c80406f          	j	80004c44 <bad_trap>

80000b80 <inst_79>:
80000b80:	00010537          	lui	a0,0x10
80000b84:	00500593          	li	a1,5
80000b88:	00b52633          	slt	a2,a0,a1
80000b8c:	0cc0a423          	sw	a2,200(ra)
80000b90:	00000113          	li	sp,0
80000b94:	00c10463          	beq	sp,a2,80000b9c <inst_80>
80000b98:	0ac0406f          	j	80004c44 <bad_trap>

80000b9c <inst_80>:
80000b9c:	00100537          	lui	a0,0x100
80000ba0:	ff0005b7          	lui	a1,0xff000
80000ba4:	fff58593          	addi	a1,a1,-1 # feffffff <imm12+0xff00052f>
80000ba8:	00b52633          	slt	a2,a0,a1
80000bac:	0cc0a623          	sw	a2,204(ra)
80000bb0:	00000113          	li	sp,0
80000bb4:	00c10463          	beq	sp,a2,80000bbc <inst_81>
80000bb8:	08c0406f          	j	80004c44 <bad_trap>

80000bbc <inst_81>:
80000bbc:	00800537          	lui	a0,0x800
80000bc0:	333335b7          	lui	a1,0x33333
80000bc4:	33458593          	addi	a1,a1,820 # 33333334 <offset+0x33333288>
80000bc8:	00b52633          	slt	a2,a0,a1
80000bcc:	0cc0a823          	sw	a2,208(ra)
80000bd0:	00100113          	li	sp,1
80000bd4:	00c10463          	beq	sp,a2,80000bdc <inst_82>
80000bd8:	06c0406f          	j	80004c44 <bad_trap>

80000bdc <inst_82>:
80000bdc:	04000537          	lui	a0,0x4000
80000be0:	000045b7          	lui	a1,0x4
80000be4:	00b52633          	slt	a2,a0,a1
80000be8:	0cc0aa23          	sw	a2,212(ra)
80000bec:	00000113          	li	sp,0
80000bf0:	00c10463          	beq	sp,a2,80000bf8 <inst_83>
80000bf4:	0500406f          	j	80004c44 <bad_trap>

80000bf8 <inst_83>:
80000bf8:	20000537          	lui	a0,0x20000
80000bfc:	fe0005b7          	lui	a1,0xfe000
80000c00:	fff58593          	addi	a1,a1,-1 # fdffffff <imm12+0xfe00052f>
80000c04:	00b52633          	slt	a2,a0,a1
80000c08:	0cc0ac23          	sw	a2,216(ra)
80000c0c:	00000113          	li	sp,0
80000c10:	00c10463          	beq	sp,a2,80000c18 <inst_84>
80000c14:	0300406f          	j	80004c44 <bad_trap>

80000c18 <inst_84>:
80000c18:	ffd00513          	li	a0,-3
80000c1c:	ffff55b7          	lui	a1,0xffff5
80000c20:	afc58593          	addi	a1,a1,-1284 # ffff4afc <imm12+0xffff502c>
80000c24:	00b52633          	slt	a2,a0,a1
80000c28:	0cc0ae23          	sw	a2,220(ra)
80000c2c:	00000113          	li	sp,0
80000c30:	00c10463          	beq	sp,a2,80000c38 <inst_85>
80000c34:	0100406f          	j	80004c44 <bad_trap>

80000c38 <inst_85>:
80000c38:	ffb00513          	li	a0,-5
80000c3c:	40000593          	li	a1,1024
80000c40:	00b52633          	slt	a2,a0,a1
80000c44:	0ec0a023          	sw	a2,224(ra)
80000c48:	00100113          	li	sp,1
80000c4c:	00c10463          	beq	sp,a2,80000c54 <inst_86>
80000c50:	7f50306f          	j	80004c44 <bad_trap>

80000c54 <inst_86>:
80000c54:	ff700513          	li	a0,-9
80000c58:	666665b7          	lui	a1,0x66666
80000c5c:	66758593          	addi	a1,a1,1639 # 66666667 <absimm+0x21374138>
80000c60:	00b52633          	slt	a2,a0,a1
80000c64:	0ec0a223          	sw	a2,228(ra)
80000c68:	00100113          	li	sp,1
80000c6c:	00c10463          	beq	sp,a2,80000c74 <inst_87>
80000c70:	7d50306f          	j	80004c44 <bad_trap>

80000c74 <inst_87>:
80000c74:	fdf00513          	li	a0,-33
80000c78:	fffc05b7          	lui	a1,0xfffc0
80000c7c:	fff58593          	addi	a1,a1,-1 # fffbffff <imm12+0xfffc052f>
80000c80:	00b52633          	slt	a2,a0,a1
80000c84:	0ec0a423          	sw	a2,232(ra)
80000c88:	00000113          	li	sp,0
80000c8c:	00c10463          	beq	sp,a2,80000c94 <inst_88>
80000c90:	7b50306f          	j	80004c44 <bad_trap>

80000c94 <inst_88>:
80000c94:	fbf00513          	li	a0,-65
80000c98:	400005b7          	lui	a1,0x40000
80000c9c:	00b52633          	slt	a2,a0,a1
80000ca0:	0ec0a623          	sw	a2,236(ra)
80000ca4:	00100113          	li	sp,1
80000ca8:	00c10463          	beq	sp,a2,80000cb0 <inst_89>
80000cac:	7990306f          	j	80004c44 <bad_trap>

80000cb0 <inst_89>:
80000cb0:	fffff537          	lui	a0,0xfffff
80000cb4:	7ff50513          	addi	a0,a0,2047 # fffff7ff <imm12+0xfffffd2f>
80000cb8:	00800593          	li	a1,8
80000cbc:	00b52633          	slt	a2,a0,a1
80000cc0:	0ec0a823          	sw	a2,240(ra)
80000cc4:	00100113          	li	sp,1
80000cc8:	00c10463          	beq	sp,a2,80000cd0 <inst_90>
80000ccc:	7790306f          	j	80004c44 <bad_trap>

80000cd0 <inst_90>:
80000cd0:	ffff0537          	lui	a0,0xffff0
80000cd4:	fff50513          	addi	a0,a0,-1 # fffeffff <imm12+0xffff052f>
80000cd8:	fffc05b7          	lui	a1,0xfffc0
80000cdc:	fff58593          	addi	a1,a1,-1 # fffbffff <imm12+0xfffc052f>
80000ce0:	00b52633          	slt	a2,a0,a1
80000ce4:	0ec0aa23          	sw	a2,244(ra)
80000ce8:	00000113          	li	sp,0
80000cec:	00c10463          	beq	sp,a2,80000cf4 <inst_91>
80000cf0:	7550306f          	j	80004c44 <bad_trap>

80000cf4 <inst_91>:
80000cf4:	fffc0537          	lui	a0,0xfffc0
80000cf8:	fff50513          	addi	a0,a0,-1 # fffbffff <imm12+0xfffc052f>
80000cfc:	e00005b7          	lui	a1,0xe0000
80000d00:	fff58593          	addi	a1,a1,-1 # dfffffff <imm12+0xe000052f>
80000d04:	00b52633          	slt	a2,a0,a1
80000d08:	0ec0ac23          	sw	a2,248(ra)
80000d0c:	00000113          	li	sp,0
80000d10:	00c10463          	beq	sp,a2,80000d18 <inst_92>
80000d14:	7310306f          	j	80004c44 <bad_trap>

80000d18 <inst_92>:
80000d18:	fff80537          	lui	a0,0xfff80
80000d1c:	fff50513          	addi	a0,a0,-1 # fff7ffff <imm12+0xfff8052f>
80000d20:	fef00593          	li	a1,-17
80000d24:	00b52633          	slt	a2,a0,a1
80000d28:	0ec0ae23          	sw	a2,252(ra)
80000d2c:	00100113          	li	sp,1
80000d30:	00c10463          	beq	sp,a2,80000d38 <inst_93>
80000d34:	7110306f          	j	80004c44 <bad_trap>

80000d38 <inst_93>:
80000d38:	fff00537          	lui	a0,0xfff00
80000d3c:	fff50513          	addi	a0,a0,-1 # ffefffff <imm12+0xfff0052f>
80000d40:	0000b5b7          	lui	a1,0xb
80000d44:	50458593          	addi	a1,a1,1284 # b504 <offset+0xb458>
80000d48:	00b52633          	slt	a2,a0,a1
80000d4c:	10c0a023          	sw	a2,256(ra)
80000d50:	00100113          	li	sp,1
80000d54:	00c10463          	beq	sp,a2,80000d5c <inst_94>
80000d58:	6ed0306f          	j	80004c44 <bad_trap>

80000d5c <inst_94>:
80000d5c:	ffc00537          	lui	a0,0xffc00
80000d60:	fff50513          	addi	a0,a0,-1 # ffbfffff <imm12+0xffc0052f>
80000d64:	00200593          	li	a1,2
80000d68:	00b52633          	slt	a2,a0,a1
80000d6c:	10c0a223          	sw	a2,260(ra)
80000d70:	00100113          	li	sp,1
80000d74:	00c10463          	beq	sp,a2,80000d7c <inst_95>
80000d78:	6cd0306f          	j	80004c44 <bad_trap>

80000d7c <inst_95>:
80000d7c:	fe000537          	lui	a0,0xfe000
80000d80:	fff50513          	addi	a0,a0,-1 # fdffffff <imm12+0xfe00052f>
80000d84:	000015b7          	lui	a1,0x1
80000d88:	00b52633          	slt	a2,a0,a1
80000d8c:	10c0a423          	sw	a2,264(ra)
80000d90:	00100113          	li	sp,1
80000d94:	00c10463          	beq	sp,a2,80000d9c <inst_96>
80000d98:	6ad0306f          	j	80004c44 <bad_trap>

80000d9c <inst_96>:
80000d9c:	f8000537          	lui	a0,0xf8000
80000da0:	fff50513          	addi	a0,a0,-1 # f7ffffff <imm12+0xf800052f>
80000da4:	000015b7          	lui	a1,0x1
80000da8:	80058593          	addi	a1,a1,-2048 # 800 <offset+0x754>
80000dac:	00b52633          	slt	a2,a0,a1
80000db0:	10c0a623          	sw	a2,268(ra)
80000db4:	00100113          	li	sp,1
80000db8:	00c10463          	beq	sp,a2,80000dc0 <inst_97>
80000dbc:	6890306f          	j	80004c44 <bad_trap>

80000dc0 <inst_97>:
80000dc0:	e0000537          	lui	a0,0xe0000
80000dc4:	fff50513          	addi	a0,a0,-1 # dfffffff <imm12+0xe000052f>
80000dc8:	666665b7          	lui	a1,0x66666
80000dcc:	66658593          	addi	a1,a1,1638 # 66666666 <absimm+0x21374137>
80000dd0:	00b52633          	slt	a2,a0,a1
80000dd4:	10c0a823          	sw	a2,272(ra)
80000dd8:	00100113          	li	sp,1
80000ddc:	00c10463          	beq	sp,a2,80000de4 <inst_98>
80000de0:	6650306f          	j	80004c44 <bad_trap>

80000de4 <inst_98>:
80000de4:	c0000537          	lui	a0,0xc0000
80000de8:	fff50513          	addi	a0,a0,-1 # bfffffff <imm12+0xc000052f>
80000dec:	ffff55b7          	lui	a1,0xffff5
80000df0:	afc58593          	addi	a1,a1,-1284 # ffff4afc <imm12+0xffff502c>
80000df4:	00b52633          	slt	a2,a0,a1
80000df8:	10c0aa23          	sw	a2,276(ra)
80000dfc:	00100113          	li	sp,1
80000e00:	00c10463          	beq	sp,a2,80000e08 <inst_99>
80000e04:	6410306f          	j	80004c44 <bad_trap>

80000e08 <inst_99>:
80000e08:	00300513          	li	a0,3
80000e0c:	00300593          	li	a1,3
80000e10:	00b52633          	slt	a2,a0,a1
80000e14:	10c0ac23          	sw	a2,280(ra)
80000e18:	00000113          	li	sp,0
80000e1c:	00c10463          	beq	sp,a2,80000e24 <inst_100>
80000e20:	6250306f          	j	80004c44 <bad_trap>

80000e24 <inst_100>:
80000e24:	00300513          	li	a0,3
80000e28:	555555b7          	lui	a1,0x55555
80000e2c:	55558593          	addi	a1,a1,1365 # 55555555 <absimm+0x10263026>
80000e30:	00b52633          	slt	a2,a0,a1
80000e34:	10c0ae23          	sw	a2,284(ra)
80000e38:	00100113          	li	sp,1
80000e3c:	00c10463          	beq	sp,a2,80000e44 <inst_101>
80000e40:	6050306f          	j	80004c44 <bad_trap>

80000e44 <inst_101>:
80000e44:	00300513          	li	a0,3
80000e48:	00500593          	li	a1,5
80000e4c:	00b52633          	slt	a2,a0,a1
80000e50:	12c0a023          	sw	a2,288(ra)
80000e54:	00100113          	li	sp,1
80000e58:	00c10463          	beq	sp,a2,80000e60 <inst_102>
80000e5c:	5e90306f          	j	80004c44 <bad_trap>

80000e60 <inst_102>:
80000e60:	00300513          	li	a0,3
80000e64:	333335b7          	lui	a1,0x33333
80000e68:	33358593          	addi	a1,a1,819 # 33333333 <offset+0x33333287>
80000e6c:	00b52633          	slt	a2,a0,a1
80000e70:	12c0a223          	sw	a2,292(ra)
80000e74:	00100113          	li	sp,1
80000e78:	00c10463          	beq	sp,a2,80000e80 <inst_103>
80000e7c:	5c90306f          	j	80004c44 <bad_trap>

80000e80 <inst_103>:
80000e80:	00300513          	li	a0,3
80000e84:	666665b7          	lui	a1,0x66666
80000e88:	66658593          	addi	a1,a1,1638 # 66666666 <absimm+0x21374137>
80000e8c:	00b52633          	slt	a2,a0,a1
80000e90:	12c0a423          	sw	a2,296(ra)
80000e94:	00100113          	li	sp,1
80000e98:	00c10463          	beq	sp,a2,80000ea0 <inst_104>
80000e9c:	5a90306f          	j	80004c44 <bad_trap>

80000ea0 <inst_104>:
80000ea0:	00300513          	li	a0,3
80000ea4:	ffff55b7          	lui	a1,0xffff5
80000ea8:	afc58593          	addi	a1,a1,-1284 # ffff4afc <imm12+0xffff502c>
80000eac:	00b52633          	slt	a2,a0,a1
80000eb0:	12c0a623          	sw	a2,300(ra)
80000eb4:	00000113          	li	sp,0
80000eb8:	00c10463          	beq	sp,a2,80000ec0 <inst_105>
80000ebc:	5890306f          	j	80004c44 <bad_trap>

80000ec0 <inst_105>:
80000ec0:	00300513          	li	a0,3
80000ec4:	0000b5b7          	lui	a1,0xb
80000ec8:	50458593          	addi	a1,a1,1284 # b504 <offset+0xb458>
80000ecc:	00b52633          	slt	a2,a0,a1
80000ed0:	12c0a823          	sw	a2,304(ra)
80000ed4:	00100113          	li	sp,1
80000ed8:	00c10463          	beq	sp,a2,80000ee0 <inst_106>
80000edc:	5690306f          	j	80004c44 <bad_trap>

80000ee0 <inst_106>:
80000ee0:	00300513          	li	a0,3
80000ee4:	00200593          	li	a1,2
80000ee8:	00b52633          	slt	a2,a0,a1
80000eec:	12c0aa23          	sw	a2,308(ra)
80000ef0:	00000113          	li	sp,0
80000ef4:	00c10463          	beq	sp,a2,80000efc <inst_107>
80000ef8:	54d0306f          	j	80004c44 <bad_trap>

80000efc <inst_107>:
80000efc:	00300513          	li	a0,3
80000f00:	555555b7          	lui	a1,0x55555
80000f04:	55458593          	addi	a1,a1,1364 # 55555554 <absimm+0x10263025>
80000f08:	00b52633          	slt	a2,a0,a1
80000f0c:	12c0ac23          	sw	a2,312(ra)
80000f10:	00100113          	li	sp,1
80000f14:	00c10463          	beq	sp,a2,80000f1c <inst_108>
80000f18:	52d0306f          	j	80004c44 <bad_trap>

80000f1c <inst_108>:
80000f1c:	00300513          	li	a0,3
80000f20:	00000593          	li	a1,0
80000f24:	00b52633          	slt	a2,a0,a1
80000f28:	12c0ae23          	sw	a2,316(ra)
80000f2c:	00000113          	li	sp,0
80000f30:	00c10463          	beq	sp,a2,80000f38 <inst_109>
80000f34:	5110306f          	j	80004c44 <bad_trap>

80000f38 <inst_109>:
80000f38:	00300513          	li	a0,3
80000f3c:	00400593          	li	a1,4
80000f40:	00b52633          	slt	a2,a0,a1
80000f44:	14c0a023          	sw	a2,320(ra)
80000f48:	00100113          	li	sp,1
80000f4c:	00c10463          	beq	sp,a2,80000f54 <inst_110>
80000f50:	4f50306f          	j	80004c44 <bad_trap>

80000f54 <inst_110>:
80000f54:	00300513          	li	a0,3
80000f58:	333335b7          	lui	a1,0x33333
80000f5c:	33258593          	addi	a1,a1,818 # 33333332 <offset+0x33333286>
80000f60:	00b52633          	slt	a2,a0,a1
80000f64:	14c0a223          	sw	a2,324(ra)
80000f68:	00100113          	li	sp,1
80000f6c:	00c10463          	beq	sp,a2,80000f74 <inst_111>
80000f70:	4d50306f          	j	80004c44 <bad_trap>

80000f74 <inst_111>:
80000f74:	00300513          	li	a0,3
80000f78:	666665b7          	lui	a1,0x66666
80000f7c:	66558593          	addi	a1,a1,1637 # 66666665 <absimm+0x21374136>
80000f80:	00b52633          	slt	a2,a0,a1
80000f84:	14c0a423          	sw	a2,328(ra)
80000f88:	00100113          	li	sp,1
80000f8c:	00c10463          	beq	sp,a2,80000f94 <inst_112>
80000f90:	4b50306f          	j	80004c44 <bad_trap>

80000f94 <inst_112>:
80000f94:	00300513          	li	a0,3
80000f98:	0000b5b7          	lui	a1,0xb
80000f9c:	50358593          	addi	a1,a1,1283 # b503 <offset+0xb457>
80000fa0:	00b52633          	slt	a2,a0,a1
80000fa4:	14c0a623          	sw	a2,332(ra)
80000fa8:	00100113          	li	sp,1
80000fac:	00c10463          	beq	sp,a2,80000fb4 <inst_113>
80000fb0:	4950306f          	j	80004c44 <bad_trap>

80000fb4 <inst_113>:
80000fb4:	00300513          	li	a0,3
80000fb8:	555555b7          	lui	a1,0x55555
80000fbc:	55658593          	addi	a1,a1,1366 # 55555556 <absimm+0x10263027>
80000fc0:	00b52633          	slt	a2,a0,a1
80000fc4:	14c0a823          	sw	a2,336(ra)
80000fc8:	00100113          	li	sp,1
80000fcc:	00c10463          	beq	sp,a2,80000fd4 <inst_114>
80000fd0:	4750306f          	j	80004c44 <bad_trap>

80000fd4 <inst_114>:
80000fd4:	00300513          	li	a0,3
80000fd8:	aaaab5b7          	lui	a1,0xaaaab
80000fdc:	aab58593          	addi	a1,a1,-1365 # aaaaaaab <imm12+0xaaaaafdb>
80000fe0:	00b52633          	slt	a2,a0,a1
80000fe4:	14c0aa23          	sw	a2,340(ra)
80000fe8:	00000113          	li	sp,0
80000fec:	00c10463          	beq	sp,a2,80000ff4 <inst_115>
80000ff0:	4550306f          	j	80004c44 <bad_trap>

80000ff4 <inst_115>:
80000ff4:	00300513          	li	a0,3
80000ff8:	00600593          	li	a1,6
80000ffc:	00b52633          	slt	a2,a0,a1
80001000:	14c0ac23          	sw	a2,344(ra)
80001004:	00100113          	li	sp,1
80001008:	00c10463          	beq	sp,a2,80001010 <inst_116>
8000100c:	4390306f          	j	80004c44 <bad_trap>

80001010 <inst_116>:
80001010:	00300513          	li	a0,3
80001014:	333335b7          	lui	a1,0x33333
80001018:	33458593          	addi	a1,a1,820 # 33333334 <offset+0x33333288>
8000101c:	00b52633          	slt	a2,a0,a1
80001020:	14c0ae23          	sw	a2,348(ra)
80001024:	00100113          	li	sp,1
80001028:	00c10463          	beq	sp,a2,80001030 <inst_117>
8000102c:	4190306f          	j	80004c44 <bad_trap>

80001030 <inst_117>:
80001030:	00300513          	li	a0,3
80001034:	666665b7          	lui	a1,0x66666
80001038:	66758593          	addi	a1,a1,1639 # 66666667 <absimm+0x21374138>
8000103c:	00b52633          	slt	a2,a0,a1
80001040:	16c0a023          	sw	a2,352(ra)
80001044:	00100113          	li	sp,1
80001048:	00c10463          	beq	sp,a2,80001050 <inst_118>
8000104c:	3f90306f          	j	80004c44 <bad_trap>

80001050 <inst_118>:
80001050:	00300513          	li	a0,3
80001054:	ffff55b7          	lui	a1,0xffff5
80001058:	afd58593          	addi	a1,a1,-1283 # ffff4afd <imm12+0xffff502d>
8000105c:	00b52633          	slt	a2,a0,a1
80001060:	16c0a223          	sw	a2,356(ra)
80001064:	00000113          	li	sp,0
80001068:	00c10463          	beq	sp,a2,80001070 <inst_119>
8000106c:	3d90306f          	j	80004c44 <bad_trap>

80001070 <inst_119>:
80001070:	00300513          	li	a0,3
80001074:	0000b5b7          	lui	a1,0xb
80001078:	50558593          	addi	a1,a1,1285 # b505 <offset+0xb459>
8000107c:	00b52633          	slt	a2,a0,a1
80001080:	16c0a423          	sw	a2,360(ra)
80001084:	00100113          	li	sp,1
80001088:	00c10463          	beq	sp,a2,80001090 <inst_120>
8000108c:	3b90306f          	j	80004c44 <bad_trap>

80001090 <inst_120>:
80001090:	55555537          	lui	a0,0x55555
80001094:	55550513          	addi	a0,a0,1365 # 55555555 <absimm+0x10263026>
80001098:	00300593          	li	a1,3
8000109c:	00b52633          	slt	a2,a0,a1
800010a0:	16c0a623          	sw	a2,364(ra)
800010a4:	00000113          	li	sp,0
800010a8:	00c10463          	beq	sp,a2,800010b0 <inst_121>
800010ac:	3990306f          	j	80004c44 <bad_trap>

800010b0 <inst_121>:
800010b0:	55555537          	lui	a0,0x55555
800010b4:	55550513          	addi	a0,a0,1365 # 55555555 <absimm+0x10263026>
800010b8:	555555b7          	lui	a1,0x55555
800010bc:	55558593          	addi	a1,a1,1365 # 55555555 <absimm+0x10263026>
800010c0:	00b52633          	slt	a2,a0,a1
800010c4:	16c0a823          	sw	a2,368(ra)
800010c8:	00000113          	li	sp,0
800010cc:	00c10463          	beq	sp,a2,800010d4 <inst_122>
800010d0:	3750306f          	j	80004c44 <bad_trap>

800010d4 <inst_122>:
800010d4:	55555537          	lui	a0,0x55555
800010d8:	55550513          	addi	a0,a0,1365 # 55555555 <absimm+0x10263026>
800010dc:	aaaab5b7          	lui	a1,0xaaaab
800010e0:	aaa58593          	addi	a1,a1,-1366 # aaaaaaaa <imm12+0xaaaaafda>
800010e4:	00b52633          	slt	a2,a0,a1
800010e8:	16c0aa23          	sw	a2,372(ra)
800010ec:	00000113          	li	sp,0
800010f0:	00c10463          	beq	sp,a2,800010f8 <inst_123>
800010f4:	3510306f          	j	80004c44 <bad_trap>

800010f8 <inst_123>:
800010f8:	55555537          	lui	a0,0x55555
800010fc:	55550513          	addi	a0,a0,1365 # 55555555 <absimm+0x10263026>
80001100:	00500593          	li	a1,5
80001104:	00b52633          	slt	a2,a0,a1
80001108:	16c0ac23          	sw	a2,376(ra)
8000110c:	00000113          	li	sp,0
80001110:	00c10463          	beq	sp,a2,80001118 <inst_124>
80001114:	3310306f          	j	80004c44 <bad_trap>

80001118 <inst_124>:
80001118:	55555537          	lui	a0,0x55555
8000111c:	55550513          	addi	a0,a0,1365 # 55555555 <absimm+0x10263026>
80001120:	333335b7          	lui	a1,0x33333
80001124:	33358593          	addi	a1,a1,819 # 33333333 <offset+0x33333287>
80001128:	00b52633          	slt	a2,a0,a1
8000112c:	16c0ae23          	sw	a2,380(ra)
80001130:	00000113          	li	sp,0
80001134:	00c10463          	beq	sp,a2,8000113c <inst_125>
80001138:	30d0306f          	j	80004c44 <bad_trap>

8000113c <inst_125>:
8000113c:	55555537          	lui	a0,0x55555
80001140:	55550513          	addi	a0,a0,1365 # 55555555 <absimm+0x10263026>
80001144:	666665b7          	lui	a1,0x66666
80001148:	66658593          	addi	a1,a1,1638 # 66666666 <absimm+0x21374137>
8000114c:	00b52633          	slt	a2,a0,a1
80001150:	18c0a023          	sw	a2,384(ra)
80001154:	00100113          	li	sp,1
80001158:	00c10463          	beq	sp,a2,80001160 <inst_126>
8000115c:	2e90306f          	j	80004c44 <bad_trap>

80001160 <inst_126>:
80001160:	55555537          	lui	a0,0x55555
80001164:	55550513          	addi	a0,a0,1365 # 55555555 <absimm+0x10263026>
80001168:	ffff55b7          	lui	a1,0xffff5
8000116c:	afc58593          	addi	a1,a1,-1284 # ffff4afc <imm12+0xffff502c>
80001170:	00b52633          	slt	a2,a0,a1
80001174:	18c0a223          	sw	a2,388(ra)
80001178:	00000113          	li	sp,0
8000117c:	00c10463          	beq	sp,a2,80001184 <inst_127>
80001180:	2c50306f          	j	80004c44 <bad_trap>

80001184 <inst_127>:
80001184:	55555537          	lui	a0,0x55555
80001188:	55550513          	addi	a0,a0,1365 # 55555555 <absimm+0x10263026>
8000118c:	0000b5b7          	lui	a1,0xb
80001190:	50458593          	addi	a1,a1,1284 # b504 <offset+0xb458>
80001194:	00b52633          	slt	a2,a0,a1
80001198:	18c0a423          	sw	a2,392(ra)
8000119c:	00000113          	li	sp,0
800011a0:	00c10463          	beq	sp,a2,800011a8 <inst_128>
800011a4:	2a10306f          	j	80004c44 <bad_trap>

800011a8 <inst_128>:
800011a8:	55555537          	lui	a0,0x55555
800011ac:	55550513          	addi	a0,a0,1365 # 55555555 <absimm+0x10263026>
800011b0:	00200593          	li	a1,2
800011b4:	00b52633          	slt	a2,a0,a1
800011b8:	18c0a623          	sw	a2,396(ra)
800011bc:	00000113          	li	sp,0
800011c0:	00c10463          	beq	sp,a2,800011c8 <inst_129>
800011c4:	2810306f          	j	80004c44 <bad_trap>

800011c8 <inst_129>:
800011c8:	55555537          	lui	a0,0x55555
800011cc:	55550513          	addi	a0,a0,1365 # 55555555 <absimm+0x10263026>
800011d0:	555555b7          	lui	a1,0x55555
800011d4:	55458593          	addi	a1,a1,1364 # 55555554 <absimm+0x10263025>
800011d8:	00b52633          	slt	a2,a0,a1
800011dc:	18c0a823          	sw	a2,400(ra)
800011e0:	00000113          	li	sp,0
800011e4:	00c10463          	beq	sp,a2,800011ec <inst_130>
800011e8:	25d0306f          	j	80004c44 <bad_trap>

800011ec <inst_130>:
800011ec:	55555537          	lui	a0,0x55555
800011f0:	55550513          	addi	a0,a0,1365 # 55555555 <absimm+0x10263026>
800011f4:	00000593          	li	a1,0
800011f8:	00b52633          	slt	a2,a0,a1
800011fc:	18c0aa23          	sw	a2,404(ra)
80001200:	00000113          	li	sp,0
80001204:	00c10463          	beq	sp,a2,8000120c <inst_131>
80001208:	23d0306f          	j	80004c44 <bad_trap>

8000120c <inst_131>:
8000120c:	55555537          	lui	a0,0x55555
80001210:	55550513          	addi	a0,a0,1365 # 55555555 <absimm+0x10263026>
80001214:	00400593          	li	a1,4
80001218:	00b52633          	slt	a2,a0,a1
8000121c:	18c0ac23          	sw	a2,408(ra)
80001220:	00000113          	li	sp,0
80001224:	00c10463          	beq	sp,a2,8000122c <inst_132>
80001228:	21d0306f          	j	80004c44 <bad_trap>

8000122c <inst_132>:
8000122c:	55555537          	lui	a0,0x55555
80001230:	55550513          	addi	a0,a0,1365 # 55555555 <absimm+0x10263026>
80001234:	333335b7          	lui	a1,0x33333
80001238:	33258593          	addi	a1,a1,818 # 33333332 <offset+0x33333286>
8000123c:	00b52633          	slt	a2,a0,a1
80001240:	18c0ae23          	sw	a2,412(ra)
80001244:	00000113          	li	sp,0
80001248:	00c10463          	beq	sp,a2,80001250 <inst_133>
8000124c:	1f90306f          	j	80004c44 <bad_trap>

80001250 <inst_133>:
80001250:	55555537          	lui	a0,0x55555
80001254:	55550513          	addi	a0,a0,1365 # 55555555 <absimm+0x10263026>
80001258:	666665b7          	lui	a1,0x66666
8000125c:	66558593          	addi	a1,a1,1637 # 66666665 <absimm+0x21374136>
80001260:	00b52633          	slt	a2,a0,a1
80001264:	1ac0a023          	sw	a2,416(ra)
80001268:	00100113          	li	sp,1
8000126c:	00c10463          	beq	sp,a2,80001274 <inst_134>
80001270:	1d50306f          	j	80004c44 <bad_trap>

80001274 <inst_134>:
80001274:	55555537          	lui	a0,0x55555
80001278:	55550513          	addi	a0,a0,1365 # 55555555 <absimm+0x10263026>
8000127c:	0000b5b7          	lui	a1,0xb
80001280:	50358593          	addi	a1,a1,1283 # b503 <offset+0xb457>
80001284:	00b52633          	slt	a2,a0,a1
80001288:	1ac0a223          	sw	a2,420(ra)
8000128c:	00000113          	li	sp,0
80001290:	00c10463          	beq	sp,a2,80001298 <inst_135>
80001294:	1b10306f          	j	80004c44 <bad_trap>

80001298 <inst_135>:
80001298:	55555537          	lui	a0,0x55555
8000129c:	55550513          	addi	a0,a0,1365 # 55555555 <absimm+0x10263026>
800012a0:	555555b7          	lui	a1,0x55555
800012a4:	55658593          	addi	a1,a1,1366 # 55555556 <absimm+0x10263027>
800012a8:	00b52633          	slt	a2,a0,a1
800012ac:	1ac0a423          	sw	a2,424(ra)
800012b0:	00100113          	li	sp,1
800012b4:	00c10463          	beq	sp,a2,800012bc <inst_136>
800012b8:	18d0306f          	j	80004c44 <bad_trap>

800012bc <inst_136>:
800012bc:	55555537          	lui	a0,0x55555
800012c0:	55550513          	addi	a0,a0,1365 # 55555555 <absimm+0x10263026>
800012c4:	aaaab5b7          	lui	a1,0xaaaab
800012c8:	aab58593          	addi	a1,a1,-1365 # aaaaaaab <imm12+0xaaaaafdb>
800012cc:	00b52633          	slt	a2,a0,a1
800012d0:	1ac0a623          	sw	a2,428(ra)
800012d4:	00000113          	li	sp,0
800012d8:	00c10463          	beq	sp,a2,800012e0 <inst_137>
800012dc:	1690306f          	j	80004c44 <bad_trap>

800012e0 <inst_137>:
800012e0:	55555537          	lui	a0,0x55555
800012e4:	55550513          	addi	a0,a0,1365 # 55555555 <absimm+0x10263026>
800012e8:	00600593          	li	a1,6
800012ec:	00b52633          	slt	a2,a0,a1
800012f0:	1ac0a823          	sw	a2,432(ra)
800012f4:	00000113          	li	sp,0
800012f8:	00c10463          	beq	sp,a2,80001300 <inst_138>
800012fc:	1490306f          	j	80004c44 <bad_trap>

80001300 <inst_138>:
80001300:	55555537          	lui	a0,0x55555
80001304:	55550513          	addi	a0,a0,1365 # 55555555 <absimm+0x10263026>
80001308:	333335b7          	lui	a1,0x33333
8000130c:	33458593          	addi	a1,a1,820 # 33333334 <offset+0x33333288>
80001310:	00b52633          	slt	a2,a0,a1
80001314:	1ac0aa23          	sw	a2,436(ra)
80001318:	00000113          	li	sp,0
8000131c:	00c10463          	beq	sp,a2,80001324 <inst_139>
80001320:	1250306f          	j	80004c44 <bad_trap>

80001324 <inst_139>:
80001324:	55555537          	lui	a0,0x55555
80001328:	55550513          	addi	a0,a0,1365 # 55555555 <absimm+0x10263026>
8000132c:	666665b7          	lui	a1,0x66666
80001330:	66758593          	addi	a1,a1,1639 # 66666667 <absimm+0x21374138>
80001334:	00b52633          	slt	a2,a0,a1
80001338:	1ac0ac23          	sw	a2,440(ra)
8000133c:	00100113          	li	sp,1
80001340:	00c10463          	beq	sp,a2,80001348 <inst_140>
80001344:	1010306f          	j	80004c44 <bad_trap>

80001348 <inst_140>:
80001348:	55555537          	lui	a0,0x55555
8000134c:	55550513          	addi	a0,a0,1365 # 55555555 <absimm+0x10263026>
80001350:	ffff55b7          	lui	a1,0xffff5
80001354:	afd58593          	addi	a1,a1,-1283 # ffff4afd <imm12+0xffff502d>
80001358:	00b52633          	slt	a2,a0,a1
8000135c:	1ac0ae23          	sw	a2,444(ra)
80001360:	00000113          	li	sp,0
80001364:	00c10463          	beq	sp,a2,8000136c <inst_141>
80001368:	0dd0306f          	j	80004c44 <bad_trap>

8000136c <inst_141>:
8000136c:	55555537          	lui	a0,0x55555
80001370:	55550513          	addi	a0,a0,1365 # 55555555 <absimm+0x10263026>
80001374:	0000b5b7          	lui	a1,0xb
80001378:	50558593          	addi	a1,a1,1285 # b505 <offset+0xb459>
8000137c:	00b52633          	slt	a2,a0,a1
80001380:	1cc0a023          	sw	a2,448(ra)
80001384:	00000113          	li	sp,0
80001388:	00c10463          	beq	sp,a2,80001390 <inst_142>
8000138c:	0b90306f          	j	80004c44 <bad_trap>

80001390 <inst_142>:
80001390:	aaaab537          	lui	a0,0xaaaab
80001394:	aaa50513          	addi	a0,a0,-1366 # aaaaaaaa <imm12+0xaaaaafda>
80001398:	00300593          	li	a1,3
8000139c:	00b52633          	slt	a2,a0,a1
800013a0:	1cc0a223          	sw	a2,452(ra)
800013a4:	00100113          	li	sp,1
800013a8:	00c10463          	beq	sp,a2,800013b0 <inst_143>
800013ac:	0990306f          	j	80004c44 <bad_trap>

800013b0 <inst_143>:
800013b0:	aaaab537          	lui	a0,0xaaaab
800013b4:	aaa50513          	addi	a0,a0,-1366 # aaaaaaaa <imm12+0xaaaaafda>
800013b8:	555555b7          	lui	a1,0x55555
800013bc:	55558593          	addi	a1,a1,1365 # 55555555 <absimm+0x10263026>
800013c0:	00b52633          	slt	a2,a0,a1
800013c4:	1cc0a423          	sw	a2,456(ra)
800013c8:	00100113          	li	sp,1
800013cc:	00c10463          	beq	sp,a2,800013d4 <inst_144>
800013d0:	0750306f          	j	80004c44 <bad_trap>

800013d4 <inst_144>:
800013d4:	aaaab537          	lui	a0,0xaaaab
800013d8:	aaa50513          	addi	a0,a0,-1366 # aaaaaaaa <imm12+0xaaaaafda>
800013dc:	aaaab5b7          	lui	a1,0xaaaab
800013e0:	aaa58593          	addi	a1,a1,-1366 # aaaaaaaa <imm12+0xaaaaafda>
800013e4:	00b52633          	slt	a2,a0,a1
800013e8:	1cc0a623          	sw	a2,460(ra)
800013ec:	00000113          	li	sp,0
800013f0:	00c10463          	beq	sp,a2,800013f8 <inst_145>
800013f4:	0510306f          	j	80004c44 <bad_trap>

800013f8 <inst_145>:
800013f8:	aaaab537          	lui	a0,0xaaaab
800013fc:	aaa50513          	addi	a0,a0,-1366 # aaaaaaaa <imm12+0xaaaaafda>
80001400:	00500593          	li	a1,5
80001404:	00b52633          	slt	a2,a0,a1
80001408:	1cc0a823          	sw	a2,464(ra)
8000140c:	00100113          	li	sp,1
80001410:	00c10463          	beq	sp,a2,80001418 <inst_146>
80001414:	0310306f          	j	80004c44 <bad_trap>

80001418 <inst_146>:
80001418:	aaaab537          	lui	a0,0xaaaab
8000141c:	aaa50513          	addi	a0,a0,-1366 # aaaaaaaa <imm12+0xaaaaafda>
80001420:	333335b7          	lui	a1,0x33333
80001424:	33358593          	addi	a1,a1,819 # 33333333 <offset+0x33333287>
80001428:	00b52633          	slt	a2,a0,a1
8000142c:	1cc0aa23          	sw	a2,468(ra)
80001430:	00100113          	li	sp,1
80001434:	00c10463          	beq	sp,a2,8000143c <inst_147>
80001438:	00d0306f          	j	80004c44 <bad_trap>

8000143c <inst_147>:
8000143c:	aaaab537          	lui	a0,0xaaaab
80001440:	aaa50513          	addi	a0,a0,-1366 # aaaaaaaa <imm12+0xaaaaafda>
80001444:	666665b7          	lui	a1,0x66666
80001448:	66658593          	addi	a1,a1,1638 # 66666666 <absimm+0x21374137>
8000144c:	00b52633          	slt	a2,a0,a1
80001450:	1cc0ac23          	sw	a2,472(ra)
80001454:	00100113          	li	sp,1
80001458:	00c10463          	beq	sp,a2,80001460 <inst_148>
8000145c:	7e80306f          	j	80004c44 <bad_trap>

80001460 <inst_148>:
80001460:	aaaab537          	lui	a0,0xaaaab
80001464:	aaa50513          	addi	a0,a0,-1366 # aaaaaaaa <imm12+0xaaaaafda>
80001468:	ffff55b7          	lui	a1,0xffff5
8000146c:	afc58593          	addi	a1,a1,-1284 # ffff4afc <imm12+0xffff502c>
80001470:	00b52633          	slt	a2,a0,a1
80001474:	1cc0ae23          	sw	a2,476(ra)
80001478:	00100113          	li	sp,1
8000147c:	00c10463          	beq	sp,a2,80001484 <inst_149>
80001480:	7c40306f          	j	80004c44 <bad_trap>

80001484 <inst_149>:
80001484:	aaaab537          	lui	a0,0xaaaab
80001488:	aaa50513          	addi	a0,a0,-1366 # aaaaaaaa <imm12+0xaaaaafda>
8000148c:	0000b5b7          	lui	a1,0xb
80001490:	50458593          	addi	a1,a1,1284 # b504 <offset+0xb458>
80001494:	00b52633          	slt	a2,a0,a1
80001498:	1ec0a023          	sw	a2,480(ra)
8000149c:	00100113          	li	sp,1
800014a0:	00c10463          	beq	sp,a2,800014a8 <inst_150>
800014a4:	7a00306f          	j	80004c44 <bad_trap>

800014a8 <inst_150>:
800014a8:	aaaab537          	lui	a0,0xaaaab
800014ac:	aaa50513          	addi	a0,a0,-1366 # aaaaaaaa <imm12+0xaaaaafda>
800014b0:	00200593          	li	a1,2
800014b4:	00b52633          	slt	a2,a0,a1
800014b8:	1ec0a223          	sw	a2,484(ra)
800014bc:	00100113          	li	sp,1
800014c0:	00c10463          	beq	sp,a2,800014c8 <inst_151>
800014c4:	7800306f          	j	80004c44 <bad_trap>

800014c8 <inst_151>:
800014c8:	aaaab537          	lui	a0,0xaaaab
800014cc:	aaa50513          	addi	a0,a0,-1366 # aaaaaaaa <imm12+0xaaaaafda>
800014d0:	555555b7          	lui	a1,0x55555
800014d4:	55458593          	addi	a1,a1,1364 # 55555554 <absimm+0x10263025>
800014d8:	00b52633          	slt	a2,a0,a1
800014dc:	1ec0a423          	sw	a2,488(ra)
800014e0:	00100113          	li	sp,1
800014e4:	00c10463          	beq	sp,a2,800014ec <inst_152>
800014e8:	75c0306f          	j	80004c44 <bad_trap>

800014ec <inst_152>:
800014ec:	aaaab537          	lui	a0,0xaaaab
800014f0:	aaa50513          	addi	a0,a0,-1366 # aaaaaaaa <imm12+0xaaaaafda>
800014f4:	00000593          	li	a1,0
800014f8:	00b52633          	slt	a2,a0,a1
800014fc:	1ec0a623          	sw	a2,492(ra)
80001500:	00100113          	li	sp,1
80001504:	00c10463          	beq	sp,a2,8000150c <inst_153>
80001508:	73c0306f          	j	80004c44 <bad_trap>

8000150c <inst_153>:
8000150c:	aaaab537          	lui	a0,0xaaaab
80001510:	aaa50513          	addi	a0,a0,-1366 # aaaaaaaa <imm12+0xaaaaafda>
80001514:	00400593          	li	a1,4
80001518:	00b52633          	slt	a2,a0,a1
8000151c:	1ec0a823          	sw	a2,496(ra)
80001520:	00100113          	li	sp,1
80001524:	00c10463          	beq	sp,a2,8000152c <inst_154>
80001528:	71c0306f          	j	80004c44 <bad_trap>

8000152c <inst_154>:
8000152c:	aaaab537          	lui	a0,0xaaaab
80001530:	aaa50513          	addi	a0,a0,-1366 # aaaaaaaa <imm12+0xaaaaafda>
80001534:	333335b7          	lui	a1,0x33333
80001538:	33258593          	addi	a1,a1,818 # 33333332 <offset+0x33333286>
8000153c:	00b52633          	slt	a2,a0,a1
80001540:	1ec0aa23          	sw	a2,500(ra)
80001544:	00100113          	li	sp,1
80001548:	00c10463          	beq	sp,a2,80001550 <inst_155>
8000154c:	6f80306f          	j	80004c44 <bad_trap>

80001550 <inst_155>:
80001550:	aaaab537          	lui	a0,0xaaaab
80001554:	aaa50513          	addi	a0,a0,-1366 # aaaaaaaa <imm12+0xaaaaafda>
80001558:	666665b7          	lui	a1,0x66666
8000155c:	66558593          	addi	a1,a1,1637 # 66666665 <absimm+0x21374136>
80001560:	00b52633          	slt	a2,a0,a1
80001564:	1ec0ac23          	sw	a2,504(ra)
80001568:	00100113          	li	sp,1
8000156c:	00c10463          	beq	sp,a2,80001574 <inst_156>
80001570:	6d40306f          	j	80004c44 <bad_trap>

80001574 <inst_156>:
80001574:	aaaab537          	lui	a0,0xaaaab
80001578:	aaa50513          	addi	a0,a0,-1366 # aaaaaaaa <imm12+0xaaaaafda>
8000157c:	0000b5b7          	lui	a1,0xb
80001580:	50358593          	addi	a1,a1,1283 # b503 <offset+0xb457>
80001584:	00b52633          	slt	a2,a0,a1
80001588:	1ec0ae23          	sw	a2,508(ra)
8000158c:	00100113          	li	sp,1
80001590:	00c10463          	beq	sp,a2,80001598 <inst_157>
80001594:	6b00306f          	j	80004c44 <bad_trap>

80001598 <inst_157>:
80001598:	aaaab537          	lui	a0,0xaaaab
8000159c:	aaa50513          	addi	a0,a0,-1366 # aaaaaaaa <imm12+0xaaaaafda>
800015a0:	555555b7          	lui	a1,0x55555
800015a4:	55658593          	addi	a1,a1,1366 # 55555556 <absimm+0x10263027>
800015a8:	00b52633          	slt	a2,a0,a1
800015ac:	20c0a023          	sw	a2,512(ra)
800015b0:	00100113          	li	sp,1
800015b4:	00c10463          	beq	sp,a2,800015bc <inst_158>
800015b8:	68c0306f          	j	80004c44 <bad_trap>

800015bc <inst_158>:
800015bc:	aaaab537          	lui	a0,0xaaaab
800015c0:	aaa50513          	addi	a0,a0,-1366 # aaaaaaaa <imm12+0xaaaaafda>
800015c4:	aaaab5b7          	lui	a1,0xaaaab
800015c8:	aab58593          	addi	a1,a1,-1365 # aaaaaaab <imm12+0xaaaaafdb>
800015cc:	00b52633          	slt	a2,a0,a1
800015d0:	20c0a223          	sw	a2,516(ra)
800015d4:	00100113          	li	sp,1
800015d8:	00c10463          	beq	sp,a2,800015e0 <inst_159>
800015dc:	6680306f          	j	80004c44 <bad_trap>

800015e0 <inst_159>:
800015e0:	aaaab537          	lui	a0,0xaaaab
800015e4:	aaa50513          	addi	a0,a0,-1366 # aaaaaaaa <imm12+0xaaaaafda>
800015e8:	00600593          	li	a1,6
800015ec:	00b52633          	slt	a2,a0,a1
800015f0:	20c0a423          	sw	a2,520(ra)
800015f4:	00100113          	li	sp,1
800015f8:	00c10463          	beq	sp,a2,80001600 <inst_160>
800015fc:	6480306f          	j	80004c44 <bad_trap>

80001600 <inst_160>:
80001600:	aaaab537          	lui	a0,0xaaaab
80001604:	aaa50513          	addi	a0,a0,-1366 # aaaaaaaa <imm12+0xaaaaafda>
80001608:	333335b7          	lui	a1,0x33333
8000160c:	33458593          	addi	a1,a1,820 # 33333334 <offset+0x33333288>
80001610:	00b52633          	slt	a2,a0,a1
80001614:	20c0a623          	sw	a2,524(ra)
80001618:	00100113          	li	sp,1
8000161c:	00c10463          	beq	sp,a2,80001624 <inst_161>
80001620:	6240306f          	j	80004c44 <bad_trap>

80001624 <inst_161>:
80001624:	aaaab537          	lui	a0,0xaaaab
80001628:	aaa50513          	addi	a0,a0,-1366 # aaaaaaaa <imm12+0xaaaaafda>
8000162c:	666665b7          	lui	a1,0x66666
80001630:	66758593          	addi	a1,a1,1639 # 66666667 <absimm+0x21374138>
80001634:	00b52633          	slt	a2,a0,a1
80001638:	20c0a823          	sw	a2,528(ra)
8000163c:	00100113          	li	sp,1
80001640:	00c10463          	beq	sp,a2,80001648 <inst_162>
80001644:	6000306f          	j	80004c44 <bad_trap>

80001648 <inst_162>:
80001648:	aaaab537          	lui	a0,0xaaaab
8000164c:	aaa50513          	addi	a0,a0,-1366 # aaaaaaaa <imm12+0xaaaaafda>
80001650:	ffff55b7          	lui	a1,0xffff5
80001654:	afd58593          	addi	a1,a1,-1283 # ffff4afd <imm12+0xffff502d>
80001658:	00b52633          	slt	a2,a0,a1
8000165c:	20c0aa23          	sw	a2,532(ra)
80001660:	00100113          	li	sp,1
80001664:	00c10463          	beq	sp,a2,8000166c <inst_163>
80001668:	5dc0306f          	j	80004c44 <bad_trap>

8000166c <inst_163>:
8000166c:	aaaab537          	lui	a0,0xaaaab
80001670:	aaa50513          	addi	a0,a0,-1366 # aaaaaaaa <imm12+0xaaaaafda>
80001674:	0000b5b7          	lui	a1,0xb
80001678:	50558593          	addi	a1,a1,1285 # b505 <offset+0xb459>
8000167c:	00b52633          	slt	a2,a0,a1
80001680:	20c0ac23          	sw	a2,536(ra)
80001684:	00100113          	li	sp,1
80001688:	00c10463          	beq	sp,a2,80001690 <inst_164>
8000168c:	5b80306f          	j	80004c44 <bad_trap>

80001690 <inst_164>:
80001690:	00500513          	li	a0,5
80001694:	00300593          	li	a1,3
80001698:	00b52633          	slt	a2,a0,a1
8000169c:	20c0ae23          	sw	a2,540(ra)
800016a0:	00000113          	li	sp,0
800016a4:	00c10463          	beq	sp,a2,800016ac <inst_165>
800016a8:	59c0306f          	j	80004c44 <bad_trap>

800016ac <inst_165>:
800016ac:	00500513          	li	a0,5
800016b0:	555555b7          	lui	a1,0x55555
800016b4:	55558593          	addi	a1,a1,1365 # 55555555 <absimm+0x10263026>
800016b8:	00b52633          	slt	a2,a0,a1
800016bc:	22c0a023          	sw	a2,544(ra)
800016c0:	00100113          	li	sp,1
800016c4:	00c10463          	beq	sp,a2,800016cc <inst_166>
800016c8:	57c0306f          	j	80004c44 <bad_trap>

800016cc <inst_166>:
800016cc:	00500513          	li	a0,5
800016d0:	aaaab5b7          	lui	a1,0xaaaab
800016d4:	aaa58593          	addi	a1,a1,-1366 # aaaaaaaa <imm12+0xaaaaafda>
800016d8:	00b52633          	slt	a2,a0,a1
800016dc:	22c0a223          	sw	a2,548(ra)
800016e0:	00000113          	li	sp,0
800016e4:	00c10463          	beq	sp,a2,800016ec <inst_167>
800016e8:	55c0306f          	j	80004c44 <bad_trap>

800016ec <inst_167>:
800016ec:	00500513          	li	a0,5
800016f0:	00500593          	li	a1,5
800016f4:	00b52633          	slt	a2,a0,a1
800016f8:	22c0a423          	sw	a2,552(ra)
800016fc:	00000113          	li	sp,0
80001700:	00c10463          	beq	sp,a2,80001708 <inst_168>
80001704:	5400306f          	j	80004c44 <bad_trap>

80001708 <inst_168>:
80001708:	00500513          	li	a0,5
8000170c:	333335b7          	lui	a1,0x33333
80001710:	33358593          	addi	a1,a1,819 # 33333333 <offset+0x33333287>
80001714:	00b52633          	slt	a2,a0,a1
80001718:	22c0a623          	sw	a2,556(ra)
8000171c:	00100113          	li	sp,1
80001720:	00c10463          	beq	sp,a2,80001728 <inst_169>
80001724:	5200306f          	j	80004c44 <bad_trap>

80001728 <inst_169>:
80001728:	00500513          	li	a0,5
8000172c:	666665b7          	lui	a1,0x66666
80001730:	66658593          	addi	a1,a1,1638 # 66666666 <absimm+0x21374137>
80001734:	00b52633          	slt	a2,a0,a1
80001738:	22c0a823          	sw	a2,560(ra)
8000173c:	00100113          	li	sp,1
80001740:	00c10463          	beq	sp,a2,80001748 <inst_170>
80001744:	5000306f          	j	80004c44 <bad_trap>

80001748 <inst_170>:
80001748:	00500513          	li	a0,5
8000174c:	ffff55b7          	lui	a1,0xffff5
80001750:	afc58593          	addi	a1,a1,-1284 # ffff4afc <imm12+0xffff502c>
80001754:	00b52633          	slt	a2,a0,a1
80001758:	22c0aa23          	sw	a2,564(ra)
8000175c:	00000113          	li	sp,0
80001760:	00c10463          	beq	sp,a2,80001768 <inst_171>
80001764:	4e00306f          	j	80004c44 <bad_trap>

80001768 <inst_171>:
80001768:	00500513          	li	a0,5
8000176c:	0000b5b7          	lui	a1,0xb
80001770:	50458593          	addi	a1,a1,1284 # b504 <offset+0xb458>
80001774:	00b52633          	slt	a2,a0,a1
80001778:	22c0ac23          	sw	a2,568(ra)
8000177c:	00100113          	li	sp,1
80001780:	00c10463          	beq	sp,a2,80001788 <inst_172>
80001784:	4c00306f          	j	80004c44 <bad_trap>

80001788 <inst_172>:
80001788:	00500513          	li	a0,5
8000178c:	00200593          	li	a1,2
80001790:	00b52633          	slt	a2,a0,a1
80001794:	22c0ae23          	sw	a2,572(ra)
80001798:	00000113          	li	sp,0
8000179c:	00c10463          	beq	sp,a2,800017a4 <inst_173>
800017a0:	4a40306f          	j	80004c44 <bad_trap>

800017a4 <inst_173>:
800017a4:	00500513          	li	a0,5
800017a8:	555555b7          	lui	a1,0x55555
800017ac:	55458593          	addi	a1,a1,1364 # 55555554 <absimm+0x10263025>
800017b0:	00b52633          	slt	a2,a0,a1
800017b4:	24c0a023          	sw	a2,576(ra)
800017b8:	00100113          	li	sp,1
800017bc:	00c10463          	beq	sp,a2,800017c4 <inst_174>
800017c0:	4840306f          	j	80004c44 <bad_trap>

800017c4 <inst_174>:
800017c4:	00500513          	li	a0,5
800017c8:	00000593          	li	a1,0
800017cc:	00b52633          	slt	a2,a0,a1
800017d0:	24c0a223          	sw	a2,580(ra)
800017d4:	00000113          	li	sp,0
800017d8:	00c10463          	beq	sp,a2,800017e0 <inst_175>
800017dc:	4680306f          	j	80004c44 <bad_trap>

800017e0 <inst_175>:
800017e0:	00500513          	li	a0,5
800017e4:	00400593          	li	a1,4
800017e8:	00b52633          	slt	a2,a0,a1
800017ec:	24c0a423          	sw	a2,584(ra)
800017f0:	00000113          	li	sp,0
800017f4:	00c10463          	beq	sp,a2,800017fc <inst_176>
800017f8:	44c0306f          	j	80004c44 <bad_trap>

800017fc <inst_176>:
800017fc:	00500513          	li	a0,5
80001800:	333335b7          	lui	a1,0x33333
80001804:	33258593          	addi	a1,a1,818 # 33333332 <offset+0x33333286>
80001808:	00b52633          	slt	a2,a0,a1
8000180c:	24c0a623          	sw	a2,588(ra)
80001810:	00100113          	li	sp,1
80001814:	00c10463          	beq	sp,a2,8000181c <inst_177>
80001818:	42c0306f          	j	80004c44 <bad_trap>

8000181c <inst_177>:
8000181c:	00500513          	li	a0,5
80001820:	666665b7          	lui	a1,0x66666
80001824:	66558593          	addi	a1,a1,1637 # 66666665 <absimm+0x21374136>
80001828:	00b52633          	slt	a2,a0,a1
8000182c:	24c0a823          	sw	a2,592(ra)
80001830:	00100113          	li	sp,1
80001834:	00c10463          	beq	sp,a2,8000183c <inst_178>
80001838:	40c0306f          	j	80004c44 <bad_trap>

8000183c <inst_178>:
8000183c:	00500513          	li	a0,5
80001840:	0000b5b7          	lui	a1,0xb
80001844:	50358593          	addi	a1,a1,1283 # b503 <offset+0xb457>
80001848:	00b52633          	slt	a2,a0,a1
8000184c:	24c0aa23          	sw	a2,596(ra)
80001850:	00100113          	li	sp,1
80001854:	00c10463          	beq	sp,a2,8000185c <inst_179>
80001858:	3ec0306f          	j	80004c44 <bad_trap>

8000185c <inst_179>:
8000185c:	00500513          	li	a0,5
80001860:	555555b7          	lui	a1,0x55555
80001864:	55658593          	addi	a1,a1,1366 # 55555556 <absimm+0x10263027>
80001868:	00b52633          	slt	a2,a0,a1
8000186c:	24c0ac23          	sw	a2,600(ra)
80001870:	00100113          	li	sp,1
80001874:	00c10463          	beq	sp,a2,8000187c <inst_180>
80001878:	3cc0306f          	j	80004c44 <bad_trap>

8000187c <inst_180>:
8000187c:	00500513          	li	a0,5
80001880:	aaaab5b7          	lui	a1,0xaaaab
80001884:	aab58593          	addi	a1,a1,-1365 # aaaaaaab <imm12+0xaaaaafdb>
80001888:	00b52633          	slt	a2,a0,a1
8000188c:	24c0ae23          	sw	a2,604(ra)
80001890:	00000113          	li	sp,0
80001894:	00c10463          	beq	sp,a2,8000189c <inst_181>
80001898:	3ac0306f          	j	80004c44 <bad_trap>

8000189c <inst_181>:
8000189c:	00500513          	li	a0,5
800018a0:	00600593          	li	a1,6
800018a4:	00b52633          	slt	a2,a0,a1
800018a8:	26c0a023          	sw	a2,608(ra)
800018ac:	00100113          	li	sp,1
800018b0:	00c10463          	beq	sp,a2,800018b8 <inst_182>
800018b4:	3900306f          	j	80004c44 <bad_trap>

800018b8 <inst_182>:
800018b8:	00500513          	li	a0,5
800018bc:	333335b7          	lui	a1,0x33333
800018c0:	33458593          	addi	a1,a1,820 # 33333334 <offset+0x33333288>
800018c4:	00b52633          	slt	a2,a0,a1
800018c8:	26c0a223          	sw	a2,612(ra)
800018cc:	00100113          	li	sp,1
800018d0:	00c10463          	beq	sp,a2,800018d8 <inst_183>
800018d4:	3700306f          	j	80004c44 <bad_trap>

800018d8 <inst_183>:
800018d8:	00500513          	li	a0,5
800018dc:	666665b7          	lui	a1,0x66666
800018e0:	66758593          	addi	a1,a1,1639 # 66666667 <absimm+0x21374138>
800018e4:	00b52633          	slt	a2,a0,a1
800018e8:	26c0a423          	sw	a2,616(ra)
800018ec:	00100113          	li	sp,1
800018f0:	00c10463          	beq	sp,a2,800018f8 <inst_184>
800018f4:	3500306f          	j	80004c44 <bad_trap>

800018f8 <inst_184>:
800018f8:	00500513          	li	a0,5
800018fc:	ffff55b7          	lui	a1,0xffff5
80001900:	afd58593          	addi	a1,a1,-1283 # ffff4afd <imm12+0xffff502d>
80001904:	00b52633          	slt	a2,a0,a1
80001908:	26c0a623          	sw	a2,620(ra)
8000190c:	00000113          	li	sp,0
80001910:	00c10463          	beq	sp,a2,80001918 <inst_185>
80001914:	3300306f          	j	80004c44 <bad_trap>

80001918 <inst_185>:
80001918:	00500513          	li	a0,5
8000191c:	0000b5b7          	lui	a1,0xb
80001920:	50558593          	addi	a1,a1,1285 # b505 <offset+0xb459>
80001924:	00b52633          	slt	a2,a0,a1
80001928:	26c0a823          	sw	a2,624(ra)
8000192c:	00100113          	li	sp,1
80001930:	00c10463          	beq	sp,a2,80001938 <inst_186>
80001934:	3100306f          	j	80004c44 <bad_trap>

80001938 <inst_186>:
80001938:	33333537          	lui	a0,0x33333
8000193c:	33350513          	addi	a0,a0,819 # 33333333 <offset+0x33333287>
80001940:	00300593          	li	a1,3
80001944:	00b52633          	slt	a2,a0,a1
80001948:	26c0aa23          	sw	a2,628(ra)
8000194c:	00000113          	li	sp,0
80001950:	00c10463          	beq	sp,a2,80001958 <inst_187>
80001954:	2f00306f          	j	80004c44 <bad_trap>

80001958 <inst_187>:
80001958:	33333537          	lui	a0,0x33333
8000195c:	33350513          	addi	a0,a0,819 # 33333333 <offset+0x33333287>
80001960:	555555b7          	lui	a1,0x55555
80001964:	55558593          	addi	a1,a1,1365 # 55555555 <absimm+0x10263026>
80001968:	00b52633          	slt	a2,a0,a1
8000196c:	26c0ac23          	sw	a2,632(ra)
80001970:	00100113          	li	sp,1
80001974:	00c10463          	beq	sp,a2,8000197c <inst_188>
80001978:	2cc0306f          	j	80004c44 <bad_trap>

8000197c <inst_188>:
8000197c:	33333537          	lui	a0,0x33333
80001980:	33350513          	addi	a0,a0,819 # 33333333 <offset+0x33333287>
80001984:	aaaab5b7          	lui	a1,0xaaaab
80001988:	aaa58593          	addi	a1,a1,-1366 # aaaaaaaa <imm12+0xaaaaafda>
8000198c:	00b52633          	slt	a2,a0,a1
80001990:	26c0ae23          	sw	a2,636(ra)
80001994:	00000113          	li	sp,0
80001998:	00c10463          	beq	sp,a2,800019a0 <inst_189>
8000199c:	2a80306f          	j	80004c44 <bad_trap>

800019a0 <inst_189>:
800019a0:	33333537          	lui	a0,0x33333
800019a4:	33350513          	addi	a0,a0,819 # 33333333 <offset+0x33333287>
800019a8:	00500593          	li	a1,5
800019ac:	00b52633          	slt	a2,a0,a1
800019b0:	28c0a023          	sw	a2,640(ra)
800019b4:	00000113          	li	sp,0
800019b8:	00c10463          	beq	sp,a2,800019c0 <inst_190>
800019bc:	2880306f          	j	80004c44 <bad_trap>

800019c0 <inst_190>:
800019c0:	33333537          	lui	a0,0x33333
800019c4:	33350513          	addi	a0,a0,819 # 33333333 <offset+0x33333287>
800019c8:	333335b7          	lui	a1,0x33333
800019cc:	33358593          	addi	a1,a1,819 # 33333333 <offset+0x33333287>
800019d0:	00b52633          	slt	a2,a0,a1
800019d4:	28c0a223          	sw	a2,644(ra)
800019d8:	00000113          	li	sp,0
800019dc:	00c10463          	beq	sp,a2,800019e4 <inst_191>
800019e0:	2640306f          	j	80004c44 <bad_trap>

800019e4 <inst_191>:
800019e4:	33333537          	lui	a0,0x33333
800019e8:	33350513          	addi	a0,a0,819 # 33333333 <offset+0x33333287>
800019ec:	666665b7          	lui	a1,0x66666
800019f0:	66658593          	addi	a1,a1,1638 # 66666666 <absimm+0x21374137>
800019f4:	00b52633          	slt	a2,a0,a1
800019f8:	28c0a423          	sw	a2,648(ra)
800019fc:	00100113          	li	sp,1
80001a00:	00c10463          	beq	sp,a2,80001a08 <inst_192>
80001a04:	2400306f          	j	80004c44 <bad_trap>

80001a08 <inst_192>:
80001a08:	33333537          	lui	a0,0x33333
80001a0c:	33350513          	addi	a0,a0,819 # 33333333 <offset+0x33333287>
80001a10:	ffff55b7          	lui	a1,0xffff5
80001a14:	afc58593          	addi	a1,a1,-1284 # ffff4afc <imm12+0xffff502c>
80001a18:	00b52633          	slt	a2,a0,a1
80001a1c:	28c0a623          	sw	a2,652(ra)
80001a20:	00000113          	li	sp,0
80001a24:	00c10463          	beq	sp,a2,80001a2c <inst_193>
80001a28:	21c0306f          	j	80004c44 <bad_trap>

80001a2c <inst_193>:
80001a2c:	33333537          	lui	a0,0x33333
80001a30:	33350513          	addi	a0,a0,819 # 33333333 <offset+0x33333287>
80001a34:	0000b5b7          	lui	a1,0xb
80001a38:	50458593          	addi	a1,a1,1284 # b504 <offset+0xb458>
80001a3c:	00b52633          	slt	a2,a0,a1
80001a40:	28c0a823          	sw	a2,656(ra)
80001a44:	00000113          	li	sp,0
80001a48:	00c10463          	beq	sp,a2,80001a50 <inst_194>
80001a4c:	1f80306f          	j	80004c44 <bad_trap>

80001a50 <inst_194>:
80001a50:	33333537          	lui	a0,0x33333
80001a54:	33350513          	addi	a0,a0,819 # 33333333 <offset+0x33333287>
80001a58:	00200593          	li	a1,2
80001a5c:	00b52633          	slt	a2,a0,a1
80001a60:	28c0aa23          	sw	a2,660(ra)
80001a64:	00000113          	li	sp,0
80001a68:	00c10463          	beq	sp,a2,80001a70 <inst_195>
80001a6c:	1d80306f          	j	80004c44 <bad_trap>

80001a70 <inst_195>:
80001a70:	33333537          	lui	a0,0x33333
80001a74:	33350513          	addi	a0,a0,819 # 33333333 <offset+0x33333287>
80001a78:	555555b7          	lui	a1,0x55555
80001a7c:	55458593          	addi	a1,a1,1364 # 55555554 <absimm+0x10263025>
80001a80:	00b52633          	slt	a2,a0,a1
80001a84:	28c0ac23          	sw	a2,664(ra)
80001a88:	00100113          	li	sp,1
80001a8c:	00c10463          	beq	sp,a2,80001a94 <inst_196>
80001a90:	1b40306f          	j	80004c44 <bad_trap>

80001a94 <inst_196>:
80001a94:	33333537          	lui	a0,0x33333
80001a98:	33350513          	addi	a0,a0,819 # 33333333 <offset+0x33333287>
80001a9c:	00000593          	li	a1,0
80001aa0:	00b52633          	slt	a2,a0,a1
80001aa4:	28c0ae23          	sw	a2,668(ra)
80001aa8:	00000113          	li	sp,0
80001aac:	00c10463          	beq	sp,a2,80001ab4 <inst_197>
80001ab0:	1940306f          	j	80004c44 <bad_trap>

80001ab4 <inst_197>:
80001ab4:	33333537          	lui	a0,0x33333
80001ab8:	33350513          	addi	a0,a0,819 # 33333333 <offset+0x33333287>
80001abc:	00400593          	li	a1,4
80001ac0:	00b52633          	slt	a2,a0,a1
80001ac4:	2ac0a023          	sw	a2,672(ra)
80001ac8:	00000113          	li	sp,0
80001acc:	00c10463          	beq	sp,a2,80001ad4 <inst_198>
80001ad0:	1740306f          	j	80004c44 <bad_trap>

80001ad4 <inst_198>:
80001ad4:	33333537          	lui	a0,0x33333
80001ad8:	33350513          	addi	a0,a0,819 # 33333333 <offset+0x33333287>
80001adc:	333335b7          	lui	a1,0x33333
80001ae0:	33258593          	addi	a1,a1,818 # 33333332 <offset+0x33333286>
80001ae4:	00b52633          	slt	a2,a0,a1
80001ae8:	2ac0a223          	sw	a2,676(ra)
80001aec:	00000113          	li	sp,0
80001af0:	00c10463          	beq	sp,a2,80001af8 <inst_199>
80001af4:	1500306f          	j	80004c44 <bad_trap>

80001af8 <inst_199>:
80001af8:	33333537          	lui	a0,0x33333
80001afc:	33350513          	addi	a0,a0,819 # 33333333 <offset+0x33333287>
80001b00:	666665b7          	lui	a1,0x66666
80001b04:	66558593          	addi	a1,a1,1637 # 66666665 <absimm+0x21374136>
80001b08:	00b52633          	slt	a2,a0,a1
80001b0c:	2ac0a423          	sw	a2,680(ra)
80001b10:	00100113          	li	sp,1
80001b14:	00c10463          	beq	sp,a2,80001b1c <inst_200>
80001b18:	12c0306f          	j	80004c44 <bad_trap>

80001b1c <inst_200>:
80001b1c:	33333537          	lui	a0,0x33333
80001b20:	33350513          	addi	a0,a0,819 # 33333333 <offset+0x33333287>
80001b24:	0000b5b7          	lui	a1,0xb
80001b28:	50358593          	addi	a1,a1,1283 # b503 <offset+0xb457>
80001b2c:	00b52633          	slt	a2,a0,a1
80001b30:	2ac0a623          	sw	a2,684(ra)
80001b34:	00000113          	li	sp,0
80001b38:	00c10463          	beq	sp,a2,80001b40 <inst_201>
80001b3c:	1080306f          	j	80004c44 <bad_trap>

80001b40 <inst_201>:
80001b40:	33333537          	lui	a0,0x33333
80001b44:	33350513          	addi	a0,a0,819 # 33333333 <offset+0x33333287>
80001b48:	555555b7          	lui	a1,0x55555
80001b4c:	55658593          	addi	a1,a1,1366 # 55555556 <absimm+0x10263027>
80001b50:	00b52633          	slt	a2,a0,a1
80001b54:	2ac0a823          	sw	a2,688(ra)
80001b58:	00100113          	li	sp,1
80001b5c:	00c10463          	beq	sp,a2,80001b64 <inst_202>
80001b60:	0e40306f          	j	80004c44 <bad_trap>

80001b64 <inst_202>:
80001b64:	33333537          	lui	a0,0x33333
80001b68:	33350513          	addi	a0,a0,819 # 33333333 <offset+0x33333287>
80001b6c:	aaaab5b7          	lui	a1,0xaaaab
80001b70:	aab58593          	addi	a1,a1,-1365 # aaaaaaab <imm12+0xaaaaafdb>
80001b74:	00b52633          	slt	a2,a0,a1
80001b78:	2ac0aa23          	sw	a2,692(ra)
80001b7c:	00000113          	li	sp,0
80001b80:	00c10463          	beq	sp,a2,80001b88 <inst_203>
80001b84:	0c00306f          	j	80004c44 <bad_trap>

80001b88 <inst_203>:
80001b88:	33333537          	lui	a0,0x33333
80001b8c:	33350513          	addi	a0,a0,819 # 33333333 <offset+0x33333287>
80001b90:	00600593          	li	a1,6
80001b94:	00b52633          	slt	a2,a0,a1
80001b98:	2ac0ac23          	sw	a2,696(ra)
80001b9c:	00000113          	li	sp,0
80001ba0:	00c10463          	beq	sp,a2,80001ba8 <inst_204>
80001ba4:	0a00306f          	j	80004c44 <bad_trap>

80001ba8 <inst_204>:
80001ba8:	33333537          	lui	a0,0x33333
80001bac:	33350513          	addi	a0,a0,819 # 33333333 <offset+0x33333287>
80001bb0:	333335b7          	lui	a1,0x33333
80001bb4:	33458593          	addi	a1,a1,820 # 33333334 <offset+0x33333288>
80001bb8:	00b52633          	slt	a2,a0,a1
80001bbc:	2ac0ae23          	sw	a2,700(ra)
80001bc0:	00100113          	li	sp,1
80001bc4:	00c10463          	beq	sp,a2,80001bcc <inst_205>
80001bc8:	07c0306f          	j	80004c44 <bad_trap>

80001bcc <inst_205>:
80001bcc:	33333537          	lui	a0,0x33333
80001bd0:	33350513          	addi	a0,a0,819 # 33333333 <offset+0x33333287>
80001bd4:	666665b7          	lui	a1,0x66666
80001bd8:	66758593          	addi	a1,a1,1639 # 66666667 <absimm+0x21374138>
80001bdc:	00b52633          	slt	a2,a0,a1
80001be0:	2cc0a023          	sw	a2,704(ra)
80001be4:	00100113          	li	sp,1
80001be8:	00c10463          	beq	sp,a2,80001bf0 <inst_206>
80001bec:	0580306f          	j	80004c44 <bad_trap>

80001bf0 <inst_206>:
80001bf0:	33333537          	lui	a0,0x33333
80001bf4:	33350513          	addi	a0,a0,819 # 33333333 <offset+0x33333287>
80001bf8:	ffff55b7          	lui	a1,0xffff5
80001bfc:	afd58593          	addi	a1,a1,-1283 # ffff4afd <imm12+0xffff502d>
80001c00:	00b52633          	slt	a2,a0,a1
80001c04:	2cc0a223          	sw	a2,708(ra)
80001c08:	00000113          	li	sp,0
80001c0c:	00c10463          	beq	sp,a2,80001c14 <inst_207>
80001c10:	0340306f          	j	80004c44 <bad_trap>

80001c14 <inst_207>:
80001c14:	33333537          	lui	a0,0x33333
80001c18:	33350513          	addi	a0,a0,819 # 33333333 <offset+0x33333287>
80001c1c:	0000b5b7          	lui	a1,0xb
80001c20:	50558593          	addi	a1,a1,1285 # b505 <offset+0xb459>
80001c24:	00b52633          	slt	a2,a0,a1
80001c28:	2cc0a423          	sw	a2,712(ra)
80001c2c:	00000113          	li	sp,0
80001c30:	00c10463          	beq	sp,a2,80001c38 <inst_208>
80001c34:	0100306f          	j	80004c44 <bad_trap>

80001c38 <inst_208>:
80001c38:	66666537          	lui	a0,0x66666
80001c3c:	66650513          	addi	a0,a0,1638 # 66666666 <absimm+0x21374137>
80001c40:	00300593          	li	a1,3
80001c44:	00b52633          	slt	a2,a0,a1
80001c48:	2cc0a623          	sw	a2,716(ra)
80001c4c:	00000113          	li	sp,0
80001c50:	00c10463          	beq	sp,a2,80001c58 <inst_209>
80001c54:	7f10206f          	j	80004c44 <bad_trap>

80001c58 <inst_209>:
80001c58:	66666537          	lui	a0,0x66666
80001c5c:	66650513          	addi	a0,a0,1638 # 66666666 <absimm+0x21374137>
80001c60:	555555b7          	lui	a1,0x55555
80001c64:	55558593          	addi	a1,a1,1365 # 55555555 <absimm+0x10263026>
80001c68:	00b52633          	slt	a2,a0,a1
80001c6c:	2cc0a823          	sw	a2,720(ra)
80001c70:	00000113          	li	sp,0
80001c74:	00c10463          	beq	sp,a2,80001c7c <inst_210>
80001c78:	7cd0206f          	j	80004c44 <bad_trap>

80001c7c <inst_210>:
80001c7c:	66666537          	lui	a0,0x66666
80001c80:	66650513          	addi	a0,a0,1638 # 66666666 <absimm+0x21374137>
80001c84:	aaaab5b7          	lui	a1,0xaaaab
80001c88:	aaa58593          	addi	a1,a1,-1366 # aaaaaaaa <imm12+0xaaaaafda>
80001c8c:	00b52633          	slt	a2,a0,a1
80001c90:	2cc0aa23          	sw	a2,724(ra)
80001c94:	00000113          	li	sp,0
80001c98:	00c10463          	beq	sp,a2,80001ca0 <inst_211>
80001c9c:	7a90206f          	j	80004c44 <bad_trap>

80001ca0 <inst_211>:
80001ca0:	66666537          	lui	a0,0x66666
80001ca4:	66650513          	addi	a0,a0,1638 # 66666666 <absimm+0x21374137>
80001ca8:	00500593          	li	a1,5
80001cac:	00b52633          	slt	a2,a0,a1
80001cb0:	2cc0ac23          	sw	a2,728(ra)
80001cb4:	00000113          	li	sp,0
80001cb8:	00c10463          	beq	sp,a2,80001cc0 <inst_212>
80001cbc:	7890206f          	j	80004c44 <bad_trap>

80001cc0 <inst_212>:
80001cc0:	66666537          	lui	a0,0x66666
80001cc4:	66650513          	addi	a0,a0,1638 # 66666666 <absimm+0x21374137>
80001cc8:	333335b7          	lui	a1,0x33333
80001ccc:	33358593          	addi	a1,a1,819 # 33333333 <offset+0x33333287>
80001cd0:	00b52633          	slt	a2,a0,a1
80001cd4:	2cc0ae23          	sw	a2,732(ra)
80001cd8:	00000113          	li	sp,0
80001cdc:	00c10463          	beq	sp,a2,80001ce4 <inst_213>
80001ce0:	7650206f          	j	80004c44 <bad_trap>

80001ce4 <inst_213>:
80001ce4:	66666537          	lui	a0,0x66666
80001ce8:	66650513          	addi	a0,a0,1638 # 66666666 <absimm+0x21374137>
80001cec:	666665b7          	lui	a1,0x66666
80001cf0:	66658593          	addi	a1,a1,1638 # 66666666 <absimm+0x21374137>
80001cf4:	00b52633          	slt	a2,a0,a1
80001cf8:	2ec0a023          	sw	a2,736(ra)
80001cfc:	00000113          	li	sp,0
80001d00:	00c10463          	beq	sp,a2,80001d08 <inst_214>
80001d04:	7410206f          	j	80004c44 <bad_trap>

80001d08 <inst_214>:
80001d08:	66666537          	lui	a0,0x66666
80001d0c:	66650513          	addi	a0,a0,1638 # 66666666 <absimm+0x21374137>
80001d10:	ffff55b7          	lui	a1,0xffff5
80001d14:	afc58593          	addi	a1,a1,-1284 # ffff4afc <imm12+0xffff502c>
80001d18:	00b52633          	slt	a2,a0,a1
80001d1c:	2ec0a223          	sw	a2,740(ra)
80001d20:	00000113          	li	sp,0
80001d24:	00c10463          	beq	sp,a2,80001d2c <inst_215>
80001d28:	71d0206f          	j	80004c44 <bad_trap>

80001d2c <inst_215>:
80001d2c:	66666537          	lui	a0,0x66666
80001d30:	66650513          	addi	a0,a0,1638 # 66666666 <absimm+0x21374137>
80001d34:	0000b5b7          	lui	a1,0xb
80001d38:	50458593          	addi	a1,a1,1284 # b504 <offset+0xb458>
80001d3c:	00b52633          	slt	a2,a0,a1
80001d40:	2ec0a423          	sw	a2,744(ra)
80001d44:	00000113          	li	sp,0
80001d48:	00c10463          	beq	sp,a2,80001d50 <inst_216>
80001d4c:	6f90206f          	j	80004c44 <bad_trap>

80001d50 <inst_216>:
80001d50:	66666537          	lui	a0,0x66666
80001d54:	66650513          	addi	a0,a0,1638 # 66666666 <absimm+0x21374137>
80001d58:	00200593          	li	a1,2
80001d5c:	00b52633          	slt	a2,a0,a1
80001d60:	2ec0a623          	sw	a2,748(ra)
80001d64:	00000113          	li	sp,0
80001d68:	00c10463          	beq	sp,a2,80001d70 <inst_217>
80001d6c:	6d90206f          	j	80004c44 <bad_trap>

80001d70 <inst_217>:
80001d70:	66666537          	lui	a0,0x66666
80001d74:	66650513          	addi	a0,a0,1638 # 66666666 <absimm+0x21374137>
80001d78:	555555b7          	lui	a1,0x55555
80001d7c:	55458593          	addi	a1,a1,1364 # 55555554 <absimm+0x10263025>
80001d80:	00b52633          	slt	a2,a0,a1
80001d84:	2ec0a823          	sw	a2,752(ra)
80001d88:	00000113          	li	sp,0
80001d8c:	00c10463          	beq	sp,a2,80001d94 <inst_218>
80001d90:	6b50206f          	j	80004c44 <bad_trap>

80001d94 <inst_218>:
80001d94:	66666537          	lui	a0,0x66666
80001d98:	66650513          	addi	a0,a0,1638 # 66666666 <absimm+0x21374137>
80001d9c:	00000593          	li	a1,0
80001da0:	00b52633          	slt	a2,a0,a1
80001da4:	2ec0aa23          	sw	a2,756(ra)
80001da8:	00000113          	li	sp,0
80001dac:	00c10463          	beq	sp,a2,80001db4 <inst_219>
80001db0:	6950206f          	j	80004c44 <bad_trap>

80001db4 <inst_219>:
80001db4:	66666537          	lui	a0,0x66666
80001db8:	66650513          	addi	a0,a0,1638 # 66666666 <absimm+0x21374137>
80001dbc:	00400593          	li	a1,4
80001dc0:	00b52633          	slt	a2,a0,a1
80001dc4:	2ec0ac23          	sw	a2,760(ra)
80001dc8:	00000113          	li	sp,0
80001dcc:	00c10463          	beq	sp,a2,80001dd4 <inst_220>
80001dd0:	6750206f          	j	80004c44 <bad_trap>

80001dd4 <inst_220>:
80001dd4:	66666537          	lui	a0,0x66666
80001dd8:	66650513          	addi	a0,a0,1638 # 66666666 <absimm+0x21374137>
80001ddc:	333335b7          	lui	a1,0x33333
80001de0:	33258593          	addi	a1,a1,818 # 33333332 <offset+0x33333286>
80001de4:	00b52633          	slt	a2,a0,a1
80001de8:	2ec0ae23          	sw	a2,764(ra)
80001dec:	00000113          	li	sp,0
80001df0:	00c10463          	beq	sp,a2,80001df8 <inst_221>
80001df4:	6510206f          	j	80004c44 <bad_trap>

80001df8 <inst_221>:
80001df8:	66666537          	lui	a0,0x66666
80001dfc:	66650513          	addi	a0,a0,1638 # 66666666 <absimm+0x21374137>
80001e00:	666665b7          	lui	a1,0x66666
80001e04:	66558593          	addi	a1,a1,1637 # 66666665 <absimm+0x21374136>
80001e08:	00b52633          	slt	a2,a0,a1
80001e0c:	30c0a023          	sw	a2,768(ra)
80001e10:	00000113          	li	sp,0
80001e14:	00c10463          	beq	sp,a2,80001e1c <inst_222>
80001e18:	62d0206f          	j	80004c44 <bad_trap>

80001e1c <inst_222>:
80001e1c:	66666537          	lui	a0,0x66666
80001e20:	66650513          	addi	a0,a0,1638 # 66666666 <absimm+0x21374137>
80001e24:	0000b5b7          	lui	a1,0xb
80001e28:	50358593          	addi	a1,a1,1283 # b503 <offset+0xb457>
80001e2c:	00b52633          	slt	a2,a0,a1
80001e30:	30c0a223          	sw	a2,772(ra)
80001e34:	00000113          	li	sp,0
80001e38:	00c10463          	beq	sp,a2,80001e40 <inst_223>
80001e3c:	6090206f          	j	80004c44 <bad_trap>

80001e40 <inst_223>:
80001e40:	66666537          	lui	a0,0x66666
80001e44:	66650513          	addi	a0,a0,1638 # 66666666 <absimm+0x21374137>
80001e48:	555555b7          	lui	a1,0x55555
80001e4c:	55658593          	addi	a1,a1,1366 # 55555556 <absimm+0x10263027>
80001e50:	00b52633          	slt	a2,a0,a1
80001e54:	30c0a423          	sw	a2,776(ra)
80001e58:	00000113          	li	sp,0
80001e5c:	00c10463          	beq	sp,a2,80001e64 <inst_224>
80001e60:	5e50206f          	j	80004c44 <bad_trap>

80001e64 <inst_224>:
80001e64:	66666537          	lui	a0,0x66666
80001e68:	66650513          	addi	a0,a0,1638 # 66666666 <absimm+0x21374137>
80001e6c:	aaaab5b7          	lui	a1,0xaaaab
80001e70:	aab58593          	addi	a1,a1,-1365 # aaaaaaab <imm12+0xaaaaafdb>
80001e74:	00b52633          	slt	a2,a0,a1
80001e78:	30c0a623          	sw	a2,780(ra)
80001e7c:	00000113          	li	sp,0
80001e80:	00c10463          	beq	sp,a2,80001e88 <inst_225>
80001e84:	5c10206f          	j	80004c44 <bad_trap>

80001e88 <inst_225>:
80001e88:	66666537          	lui	a0,0x66666
80001e8c:	66650513          	addi	a0,a0,1638 # 66666666 <absimm+0x21374137>
80001e90:	00600593          	li	a1,6
80001e94:	00b52633          	slt	a2,a0,a1
80001e98:	30c0a823          	sw	a2,784(ra)
80001e9c:	00000113          	li	sp,0
80001ea0:	00c10463          	beq	sp,a2,80001ea8 <inst_226>
80001ea4:	5a10206f          	j	80004c44 <bad_trap>

80001ea8 <inst_226>:
80001ea8:	66666537          	lui	a0,0x66666
80001eac:	66650513          	addi	a0,a0,1638 # 66666666 <absimm+0x21374137>
80001eb0:	333335b7          	lui	a1,0x33333
80001eb4:	33458593          	addi	a1,a1,820 # 33333334 <offset+0x33333288>
80001eb8:	00b52633          	slt	a2,a0,a1
80001ebc:	30c0aa23          	sw	a2,788(ra)
80001ec0:	00000113          	li	sp,0
80001ec4:	00c10463          	beq	sp,a2,80001ecc <inst_227>
80001ec8:	57d0206f          	j	80004c44 <bad_trap>

80001ecc <inst_227>:
80001ecc:	66666537          	lui	a0,0x66666
80001ed0:	66650513          	addi	a0,a0,1638 # 66666666 <absimm+0x21374137>
80001ed4:	666665b7          	lui	a1,0x66666
80001ed8:	66758593          	addi	a1,a1,1639 # 66666667 <absimm+0x21374138>
80001edc:	00b52633          	slt	a2,a0,a1
80001ee0:	30c0ac23          	sw	a2,792(ra)
80001ee4:	00100113          	li	sp,1
80001ee8:	00c10463          	beq	sp,a2,80001ef0 <inst_228>
80001eec:	5590206f          	j	80004c44 <bad_trap>

80001ef0 <inst_228>:
80001ef0:	66666537          	lui	a0,0x66666
80001ef4:	66650513          	addi	a0,a0,1638 # 66666666 <absimm+0x21374137>
80001ef8:	ffff55b7          	lui	a1,0xffff5
80001efc:	afd58593          	addi	a1,a1,-1283 # ffff4afd <imm12+0xffff502d>
80001f00:	00b52633          	slt	a2,a0,a1
80001f04:	30c0ae23          	sw	a2,796(ra)
80001f08:	00000113          	li	sp,0
80001f0c:	00c10463          	beq	sp,a2,80001f14 <inst_229>
80001f10:	5350206f          	j	80004c44 <bad_trap>

80001f14 <inst_229>:
80001f14:	66666537          	lui	a0,0x66666
80001f18:	66650513          	addi	a0,a0,1638 # 66666666 <absimm+0x21374137>
80001f1c:	0000b5b7          	lui	a1,0xb
80001f20:	50558593          	addi	a1,a1,1285 # b505 <offset+0xb459>
80001f24:	00b52633          	slt	a2,a0,a1
80001f28:	32c0a023          	sw	a2,800(ra)
80001f2c:	00000113          	li	sp,0
80001f30:	00c10463          	beq	sp,a2,80001f38 <inst_230>
80001f34:	5110206f          	j	80004c44 <bad_trap>

80001f38 <inst_230>:
80001f38:	ffff5537          	lui	a0,0xffff5
80001f3c:	afc50513          	addi	a0,a0,-1284 # ffff4afc <imm12+0xffff502c>
80001f40:	00300593          	li	a1,3
80001f44:	00b52633          	slt	a2,a0,a1
80001f48:	32c0a223          	sw	a2,804(ra)
80001f4c:	00100113          	li	sp,1
80001f50:	00c10463          	beq	sp,a2,80001f58 <inst_231>
80001f54:	4f10206f          	j	80004c44 <bad_trap>

80001f58 <inst_231>:
80001f58:	ffff5537          	lui	a0,0xffff5
80001f5c:	afc50513          	addi	a0,a0,-1284 # ffff4afc <imm12+0xffff502c>
80001f60:	555555b7          	lui	a1,0x55555
80001f64:	55558593          	addi	a1,a1,1365 # 55555555 <absimm+0x10263026>
80001f68:	00b52633          	slt	a2,a0,a1
80001f6c:	32c0a423          	sw	a2,808(ra)
80001f70:	00100113          	li	sp,1
80001f74:	00c10463          	beq	sp,a2,80001f7c <inst_232>
80001f78:	4cd0206f          	j	80004c44 <bad_trap>

80001f7c <inst_232>:
80001f7c:	ffff5537          	lui	a0,0xffff5
80001f80:	afc50513          	addi	a0,a0,-1284 # ffff4afc <imm12+0xffff502c>
80001f84:	aaaab5b7          	lui	a1,0xaaaab
80001f88:	aaa58593          	addi	a1,a1,-1366 # aaaaaaaa <imm12+0xaaaaafda>
80001f8c:	00b52633          	slt	a2,a0,a1
80001f90:	32c0a623          	sw	a2,812(ra)
80001f94:	00000113          	li	sp,0
80001f98:	00c10463          	beq	sp,a2,80001fa0 <inst_233>
80001f9c:	4a90206f          	j	80004c44 <bad_trap>

80001fa0 <inst_233>:
80001fa0:	ffff5537          	lui	a0,0xffff5
80001fa4:	afc50513          	addi	a0,a0,-1284 # ffff4afc <imm12+0xffff502c>
80001fa8:	00500593          	li	a1,5
80001fac:	00b52633          	slt	a2,a0,a1
80001fb0:	32c0a823          	sw	a2,816(ra)
80001fb4:	00100113          	li	sp,1
80001fb8:	00c10463          	beq	sp,a2,80001fc0 <inst_234>
80001fbc:	4890206f          	j	80004c44 <bad_trap>

80001fc0 <inst_234>:
80001fc0:	ffff5537          	lui	a0,0xffff5
80001fc4:	afc50513          	addi	a0,a0,-1284 # ffff4afc <imm12+0xffff502c>
80001fc8:	333335b7          	lui	a1,0x33333
80001fcc:	33358593          	addi	a1,a1,819 # 33333333 <offset+0x33333287>
80001fd0:	00b52633          	slt	a2,a0,a1
80001fd4:	32c0aa23          	sw	a2,820(ra)
80001fd8:	00100113          	li	sp,1
80001fdc:	00c10463          	beq	sp,a2,80001fe4 <inst_235>
80001fe0:	4650206f          	j	80004c44 <bad_trap>

80001fe4 <inst_235>:
80001fe4:	ffff5537          	lui	a0,0xffff5
80001fe8:	afc50513          	addi	a0,a0,-1284 # ffff4afc <imm12+0xffff502c>
80001fec:	666665b7          	lui	a1,0x66666
80001ff0:	66658593          	addi	a1,a1,1638 # 66666666 <absimm+0x21374137>
80001ff4:	00b52633          	slt	a2,a0,a1
80001ff8:	32c0ac23          	sw	a2,824(ra)
80001ffc:	00100113          	li	sp,1
80002000:	00c10463          	beq	sp,a2,80002008 <inst_236>
80002004:	4410206f          	j	80004c44 <bad_trap>

80002008 <inst_236>:
80002008:	ffff5537          	lui	a0,0xffff5
8000200c:	afc50513          	addi	a0,a0,-1284 # ffff4afc <imm12+0xffff502c>
80002010:	ffff55b7          	lui	a1,0xffff5
80002014:	afc58593          	addi	a1,a1,-1284 # ffff4afc <imm12+0xffff502c>
80002018:	00b52633          	slt	a2,a0,a1
8000201c:	32c0ae23          	sw	a2,828(ra)
80002020:	00000113          	li	sp,0
80002024:	00c10463          	beq	sp,a2,8000202c <inst_237>
80002028:	41d0206f          	j	80004c44 <bad_trap>

8000202c <inst_237>:
8000202c:	ffff5537          	lui	a0,0xffff5
80002030:	afc50513          	addi	a0,a0,-1284 # ffff4afc <imm12+0xffff502c>
80002034:	0000b5b7          	lui	a1,0xb
80002038:	50458593          	addi	a1,a1,1284 # b504 <offset+0xb458>
8000203c:	00b52633          	slt	a2,a0,a1
80002040:	34c0a023          	sw	a2,832(ra)
80002044:	00100113          	li	sp,1
80002048:	00c10463          	beq	sp,a2,80002050 <inst_238>
8000204c:	3f90206f          	j	80004c44 <bad_trap>

80002050 <inst_238>:
80002050:	ffff5537          	lui	a0,0xffff5
80002054:	afc50513          	addi	a0,a0,-1284 # ffff4afc <imm12+0xffff502c>
80002058:	00200593          	li	a1,2
8000205c:	00b52633          	slt	a2,a0,a1
80002060:	34c0a223          	sw	a2,836(ra)
80002064:	00100113          	li	sp,1
80002068:	00c10463          	beq	sp,a2,80002070 <inst_239>
8000206c:	3d90206f          	j	80004c44 <bad_trap>

80002070 <inst_239>:
80002070:	ffff5537          	lui	a0,0xffff5
80002074:	afc50513          	addi	a0,a0,-1284 # ffff4afc <imm12+0xffff502c>
80002078:	555555b7          	lui	a1,0x55555
8000207c:	55458593          	addi	a1,a1,1364 # 55555554 <absimm+0x10263025>
80002080:	00b52633          	slt	a2,a0,a1
80002084:	34c0a423          	sw	a2,840(ra)
80002088:	00100113          	li	sp,1
8000208c:	00c10463          	beq	sp,a2,80002094 <inst_240>
80002090:	3b50206f          	j	80004c44 <bad_trap>

80002094 <inst_240>:
80002094:	ffff5537          	lui	a0,0xffff5
80002098:	afc50513          	addi	a0,a0,-1284 # ffff4afc <imm12+0xffff502c>
8000209c:	00000593          	li	a1,0
800020a0:	00b52633          	slt	a2,a0,a1
800020a4:	34c0a623          	sw	a2,844(ra)
800020a8:	00100113          	li	sp,1
800020ac:	00c10463          	beq	sp,a2,800020b4 <inst_241>
800020b0:	3950206f          	j	80004c44 <bad_trap>

800020b4 <inst_241>:
800020b4:	ffff5537          	lui	a0,0xffff5
800020b8:	afc50513          	addi	a0,a0,-1284 # ffff4afc <imm12+0xffff502c>
800020bc:	00400593          	li	a1,4
800020c0:	00b52633          	slt	a2,a0,a1
800020c4:	34c0a823          	sw	a2,848(ra)
800020c8:	00100113          	li	sp,1
800020cc:	00c10463          	beq	sp,a2,800020d4 <inst_242>
800020d0:	3750206f          	j	80004c44 <bad_trap>

800020d4 <inst_242>:
800020d4:	ffff5537          	lui	a0,0xffff5
800020d8:	afc50513          	addi	a0,a0,-1284 # ffff4afc <imm12+0xffff502c>
800020dc:	333335b7          	lui	a1,0x33333
800020e0:	33258593          	addi	a1,a1,818 # 33333332 <offset+0x33333286>
800020e4:	00b52633          	slt	a2,a0,a1
800020e8:	34c0aa23          	sw	a2,852(ra)
800020ec:	00100113          	li	sp,1
800020f0:	00c10463          	beq	sp,a2,800020f8 <inst_243>
800020f4:	3510206f          	j	80004c44 <bad_trap>

800020f8 <inst_243>:
800020f8:	ffff5537          	lui	a0,0xffff5
800020fc:	afc50513          	addi	a0,a0,-1284 # ffff4afc <imm12+0xffff502c>
80002100:	666665b7          	lui	a1,0x66666
80002104:	66558593          	addi	a1,a1,1637 # 66666665 <absimm+0x21374136>
80002108:	00b52633          	slt	a2,a0,a1
8000210c:	34c0ac23          	sw	a2,856(ra)
80002110:	00100113          	li	sp,1
80002114:	00c10463          	beq	sp,a2,8000211c <inst_244>
80002118:	32d0206f          	j	80004c44 <bad_trap>

8000211c <inst_244>:
8000211c:	ffff5537          	lui	a0,0xffff5
80002120:	afc50513          	addi	a0,a0,-1284 # ffff4afc <imm12+0xffff502c>
80002124:	0000b5b7          	lui	a1,0xb
80002128:	50358593          	addi	a1,a1,1283 # b503 <offset+0xb457>
8000212c:	00b52633          	slt	a2,a0,a1
80002130:	34c0ae23          	sw	a2,860(ra)
80002134:	00100113          	li	sp,1
80002138:	00c10463          	beq	sp,a2,80002140 <inst_245>
8000213c:	3090206f          	j	80004c44 <bad_trap>

80002140 <inst_245>:
80002140:	ffff5537          	lui	a0,0xffff5
80002144:	afc50513          	addi	a0,a0,-1284 # ffff4afc <imm12+0xffff502c>
80002148:	555555b7          	lui	a1,0x55555
8000214c:	55658593          	addi	a1,a1,1366 # 55555556 <absimm+0x10263027>
80002150:	00b52633          	slt	a2,a0,a1
80002154:	36c0a023          	sw	a2,864(ra)
80002158:	00100113          	li	sp,1
8000215c:	00c10463          	beq	sp,a2,80002164 <inst_246>
80002160:	2e50206f          	j	80004c44 <bad_trap>

80002164 <inst_246>:
80002164:	ffff5537          	lui	a0,0xffff5
80002168:	afc50513          	addi	a0,a0,-1284 # ffff4afc <imm12+0xffff502c>
8000216c:	aaaab5b7          	lui	a1,0xaaaab
80002170:	aab58593          	addi	a1,a1,-1365 # aaaaaaab <imm12+0xaaaaafdb>
80002174:	00b52633          	slt	a2,a0,a1
80002178:	36c0a223          	sw	a2,868(ra)
8000217c:	00000113          	li	sp,0
80002180:	00c10463          	beq	sp,a2,80002188 <inst_247>
80002184:	2c10206f          	j	80004c44 <bad_trap>

80002188 <inst_247>:
80002188:	ffff5537          	lui	a0,0xffff5
8000218c:	afc50513          	addi	a0,a0,-1284 # ffff4afc <imm12+0xffff502c>
80002190:	00600593          	li	a1,6
80002194:	00b52633          	slt	a2,a0,a1
80002198:	36c0a423          	sw	a2,872(ra)
8000219c:	00100113          	li	sp,1
800021a0:	00c10463          	beq	sp,a2,800021a8 <inst_248>
800021a4:	2a10206f          	j	80004c44 <bad_trap>

800021a8 <inst_248>:
800021a8:	ffff5537          	lui	a0,0xffff5
800021ac:	afc50513          	addi	a0,a0,-1284 # ffff4afc <imm12+0xffff502c>
800021b0:	333335b7          	lui	a1,0x33333
800021b4:	33458593          	addi	a1,a1,820 # 33333334 <offset+0x33333288>
800021b8:	00b52633          	slt	a2,a0,a1
800021bc:	36c0a623          	sw	a2,876(ra)
800021c0:	00100113          	li	sp,1
800021c4:	00c10463          	beq	sp,a2,800021cc <inst_249>
800021c8:	27d0206f          	j	80004c44 <bad_trap>

800021cc <inst_249>:
800021cc:	ffff5537          	lui	a0,0xffff5
800021d0:	afc50513          	addi	a0,a0,-1284 # ffff4afc <imm12+0xffff502c>
800021d4:	666665b7          	lui	a1,0x66666
800021d8:	66758593          	addi	a1,a1,1639 # 66666667 <absimm+0x21374138>
800021dc:	00b52633          	slt	a2,a0,a1
800021e0:	36c0a823          	sw	a2,880(ra)
800021e4:	00100113          	li	sp,1
800021e8:	00c10463          	beq	sp,a2,800021f0 <inst_250>
800021ec:	2590206f          	j	80004c44 <bad_trap>

800021f0 <inst_250>:
800021f0:	ffff5537          	lui	a0,0xffff5
800021f4:	afc50513          	addi	a0,a0,-1284 # ffff4afc <imm12+0xffff502c>
800021f8:	ffff55b7          	lui	a1,0xffff5
800021fc:	afd58593          	addi	a1,a1,-1283 # ffff4afd <imm12+0xffff502d>
80002200:	00b52633          	slt	a2,a0,a1
80002204:	36c0aa23          	sw	a2,884(ra)
80002208:	00100113          	li	sp,1
8000220c:	00c10463          	beq	sp,a2,80002214 <inst_251>
80002210:	2350206f          	j	80004c44 <bad_trap>

80002214 <inst_251>:
80002214:	ffff5537          	lui	a0,0xffff5
80002218:	afc50513          	addi	a0,a0,-1284 # ffff4afc <imm12+0xffff502c>
8000221c:	0000b5b7          	lui	a1,0xb
80002220:	50558593          	addi	a1,a1,1285 # b505 <offset+0xb459>
80002224:	00b52633          	slt	a2,a0,a1
80002228:	36c0ac23          	sw	a2,888(ra)
8000222c:	00100113          	li	sp,1
80002230:	00c10463          	beq	sp,a2,80002238 <inst_252>
80002234:	2110206f          	j	80004c44 <bad_trap>

80002238 <inst_252>:
80002238:	0000b537          	lui	a0,0xb
8000223c:	50450513          	addi	a0,a0,1284 # b504 <offset+0xb458>
80002240:	00300593          	li	a1,3
80002244:	00b52633          	slt	a2,a0,a1
80002248:	36c0ae23          	sw	a2,892(ra)
8000224c:	00000113          	li	sp,0
80002250:	00c10463          	beq	sp,a2,80002258 <inst_253>
80002254:	1f10206f          	j	80004c44 <bad_trap>

80002258 <inst_253>:
80002258:	0000b537          	lui	a0,0xb
8000225c:	50450513          	addi	a0,a0,1284 # b504 <offset+0xb458>
80002260:	555555b7          	lui	a1,0x55555
80002264:	55558593          	addi	a1,a1,1365 # 55555555 <absimm+0x10263026>
80002268:	00b52633          	slt	a2,a0,a1
8000226c:	38c0a023          	sw	a2,896(ra)
80002270:	00100113          	li	sp,1
80002274:	00c10463          	beq	sp,a2,8000227c <inst_254>
80002278:	1cd0206f          	j	80004c44 <bad_trap>

8000227c <inst_254>:
8000227c:	0000b537          	lui	a0,0xb
80002280:	50450513          	addi	a0,a0,1284 # b504 <offset+0xb458>
80002284:	aaaab5b7          	lui	a1,0xaaaab
80002288:	aaa58593          	addi	a1,a1,-1366 # aaaaaaaa <imm12+0xaaaaafda>
8000228c:	00b52633          	slt	a2,a0,a1
80002290:	38c0a223          	sw	a2,900(ra)
80002294:	00000113          	li	sp,0
80002298:	00c10463          	beq	sp,a2,800022a0 <inst_255>
8000229c:	1a90206f          	j	80004c44 <bad_trap>

800022a0 <inst_255>:
800022a0:	0000b537          	lui	a0,0xb
800022a4:	50450513          	addi	a0,a0,1284 # b504 <offset+0xb458>
800022a8:	00500593          	li	a1,5
800022ac:	00b52633          	slt	a2,a0,a1
800022b0:	38c0a423          	sw	a2,904(ra)
800022b4:	00000113          	li	sp,0
800022b8:	00c10463          	beq	sp,a2,800022c0 <inst_256>
800022bc:	1890206f          	j	80004c44 <bad_trap>

800022c0 <inst_256>:
800022c0:	0000b537          	lui	a0,0xb
800022c4:	50450513          	addi	a0,a0,1284 # b504 <offset+0xb458>
800022c8:	333335b7          	lui	a1,0x33333
800022cc:	33358593          	addi	a1,a1,819 # 33333333 <offset+0x33333287>
800022d0:	00b52633          	slt	a2,a0,a1
800022d4:	38c0a623          	sw	a2,908(ra)
800022d8:	00100113          	li	sp,1
800022dc:	00c10463          	beq	sp,a2,800022e4 <inst_257>
800022e0:	1650206f          	j	80004c44 <bad_trap>

800022e4 <inst_257>:
800022e4:	0000b537          	lui	a0,0xb
800022e8:	50450513          	addi	a0,a0,1284 # b504 <offset+0xb458>
800022ec:	666665b7          	lui	a1,0x66666
800022f0:	66658593          	addi	a1,a1,1638 # 66666666 <absimm+0x21374137>
800022f4:	00b52633          	slt	a2,a0,a1
800022f8:	38c0a823          	sw	a2,912(ra)
800022fc:	00100113          	li	sp,1
80002300:	00c10463          	beq	sp,a2,80002308 <inst_258>
80002304:	1410206f          	j	80004c44 <bad_trap>

80002308 <inst_258>:
80002308:	0000b537          	lui	a0,0xb
8000230c:	50450513          	addi	a0,a0,1284 # b504 <offset+0xb458>
80002310:	ffff55b7          	lui	a1,0xffff5
80002314:	afc58593          	addi	a1,a1,-1284 # ffff4afc <imm12+0xffff502c>
80002318:	00b52633          	slt	a2,a0,a1
8000231c:	38c0aa23          	sw	a2,916(ra)
80002320:	00000113          	li	sp,0
80002324:	00c10463          	beq	sp,a2,8000232c <inst_259>
80002328:	11d0206f          	j	80004c44 <bad_trap>

8000232c <inst_259>:
8000232c:	0000b537          	lui	a0,0xb
80002330:	50450513          	addi	a0,a0,1284 # b504 <offset+0xb458>
80002334:	0000b5b7          	lui	a1,0xb
80002338:	50458593          	addi	a1,a1,1284 # b504 <offset+0xb458>
8000233c:	00b52633          	slt	a2,a0,a1
80002340:	38c0ac23          	sw	a2,920(ra)
80002344:	00000113          	li	sp,0
80002348:	00c10463          	beq	sp,a2,80002350 <inst_260>
8000234c:	0f90206f          	j	80004c44 <bad_trap>

80002350 <inst_260>:
80002350:	0000b537          	lui	a0,0xb
80002354:	50450513          	addi	a0,a0,1284 # b504 <offset+0xb458>
80002358:	00200593          	li	a1,2
8000235c:	00b52633          	slt	a2,a0,a1
80002360:	38c0ae23          	sw	a2,924(ra)
80002364:	00000113          	li	sp,0
80002368:	00c10463          	beq	sp,a2,80002370 <inst_261>
8000236c:	0d90206f          	j	80004c44 <bad_trap>

80002370 <inst_261>:
80002370:	0000b537          	lui	a0,0xb
80002374:	50450513          	addi	a0,a0,1284 # b504 <offset+0xb458>
80002378:	555555b7          	lui	a1,0x55555
8000237c:	55458593          	addi	a1,a1,1364 # 55555554 <absimm+0x10263025>
80002380:	00b52633          	slt	a2,a0,a1
80002384:	3ac0a023          	sw	a2,928(ra)
80002388:	00100113          	li	sp,1
8000238c:	00c10463          	beq	sp,a2,80002394 <inst_262>
80002390:	0b50206f          	j	80004c44 <bad_trap>

80002394 <inst_262>:
80002394:	0000b537          	lui	a0,0xb
80002398:	50450513          	addi	a0,a0,1284 # b504 <offset+0xb458>
8000239c:	00000593          	li	a1,0
800023a0:	00b52633          	slt	a2,a0,a1
800023a4:	3ac0a223          	sw	a2,932(ra)
800023a8:	00000113          	li	sp,0
800023ac:	00c10463          	beq	sp,a2,800023b4 <inst_263>
800023b0:	0950206f          	j	80004c44 <bad_trap>

800023b4 <inst_263>:
800023b4:	0000b537          	lui	a0,0xb
800023b8:	50450513          	addi	a0,a0,1284 # b504 <offset+0xb458>
800023bc:	00400593          	li	a1,4
800023c0:	00b52633          	slt	a2,a0,a1
800023c4:	3ac0a423          	sw	a2,936(ra)
800023c8:	00000113          	li	sp,0
800023cc:	00c10463          	beq	sp,a2,800023d4 <inst_264>
800023d0:	0750206f          	j	80004c44 <bad_trap>

800023d4 <inst_264>:
800023d4:	0000b537          	lui	a0,0xb
800023d8:	50450513          	addi	a0,a0,1284 # b504 <offset+0xb458>
800023dc:	333335b7          	lui	a1,0x33333
800023e0:	33258593          	addi	a1,a1,818 # 33333332 <offset+0x33333286>
800023e4:	00b52633          	slt	a2,a0,a1
800023e8:	3ac0a623          	sw	a2,940(ra)
800023ec:	00100113          	li	sp,1
800023f0:	00c10463          	beq	sp,a2,800023f8 <inst_265>
800023f4:	0510206f          	j	80004c44 <bad_trap>

800023f8 <inst_265>:
800023f8:	0000b537          	lui	a0,0xb
800023fc:	50450513          	addi	a0,a0,1284 # b504 <offset+0xb458>
80002400:	666665b7          	lui	a1,0x66666
80002404:	66558593          	addi	a1,a1,1637 # 66666665 <absimm+0x21374136>
80002408:	00b52633          	slt	a2,a0,a1
8000240c:	3ac0a823          	sw	a2,944(ra)
80002410:	00100113          	li	sp,1
80002414:	00c10463          	beq	sp,a2,8000241c <inst_266>
80002418:	02d0206f          	j	80004c44 <bad_trap>

8000241c <inst_266>:
8000241c:	0000b537          	lui	a0,0xb
80002420:	50450513          	addi	a0,a0,1284 # b504 <offset+0xb458>
80002424:	0000b5b7          	lui	a1,0xb
80002428:	50358593          	addi	a1,a1,1283 # b503 <offset+0xb457>
8000242c:	00b52633          	slt	a2,a0,a1
80002430:	3ac0aa23          	sw	a2,948(ra)
80002434:	00000113          	li	sp,0
80002438:	00c10463          	beq	sp,a2,80002440 <inst_267>
8000243c:	0090206f          	j	80004c44 <bad_trap>

80002440 <inst_267>:
80002440:	0000b537          	lui	a0,0xb
80002444:	50450513          	addi	a0,a0,1284 # b504 <offset+0xb458>
80002448:	555555b7          	lui	a1,0x55555
8000244c:	55658593          	addi	a1,a1,1366 # 55555556 <absimm+0x10263027>
80002450:	00b52633          	slt	a2,a0,a1
80002454:	3ac0ac23          	sw	a2,952(ra)
80002458:	00100113          	li	sp,1
8000245c:	00c10463          	beq	sp,a2,80002464 <inst_268>
80002460:	7e40206f          	j	80004c44 <bad_trap>

80002464 <inst_268>:
80002464:	0000b537          	lui	a0,0xb
80002468:	50450513          	addi	a0,a0,1284 # b504 <offset+0xb458>
8000246c:	aaaab5b7          	lui	a1,0xaaaab
80002470:	aab58593          	addi	a1,a1,-1365 # aaaaaaab <imm12+0xaaaaafdb>
80002474:	00b52633          	slt	a2,a0,a1
80002478:	3ac0ae23          	sw	a2,956(ra)
8000247c:	00000113          	li	sp,0
80002480:	00c10463          	beq	sp,a2,80002488 <inst_269>
80002484:	7c00206f          	j	80004c44 <bad_trap>

80002488 <inst_269>:
80002488:	0000b537          	lui	a0,0xb
8000248c:	50450513          	addi	a0,a0,1284 # b504 <offset+0xb458>
80002490:	00600593          	li	a1,6
80002494:	00b52633          	slt	a2,a0,a1
80002498:	3cc0a023          	sw	a2,960(ra)
8000249c:	00000113          	li	sp,0
800024a0:	00c10463          	beq	sp,a2,800024a8 <inst_270>
800024a4:	7a00206f          	j	80004c44 <bad_trap>

800024a8 <inst_270>:
800024a8:	0000b537          	lui	a0,0xb
800024ac:	50450513          	addi	a0,a0,1284 # b504 <offset+0xb458>
800024b0:	333335b7          	lui	a1,0x33333
800024b4:	33458593          	addi	a1,a1,820 # 33333334 <offset+0x33333288>
800024b8:	00b52633          	slt	a2,a0,a1
800024bc:	3cc0a223          	sw	a2,964(ra)
800024c0:	00100113          	li	sp,1
800024c4:	00c10463          	beq	sp,a2,800024cc <inst_271>
800024c8:	77c0206f          	j	80004c44 <bad_trap>

800024cc <inst_271>:
800024cc:	0000b537          	lui	a0,0xb
800024d0:	50450513          	addi	a0,a0,1284 # b504 <offset+0xb458>
800024d4:	666665b7          	lui	a1,0x66666
800024d8:	66758593          	addi	a1,a1,1639 # 66666667 <absimm+0x21374138>
800024dc:	00b52633          	slt	a2,a0,a1
800024e0:	3cc0a423          	sw	a2,968(ra)
800024e4:	00100113          	li	sp,1
800024e8:	00c10463          	beq	sp,a2,800024f0 <inst_272>
800024ec:	7580206f          	j	80004c44 <bad_trap>

800024f0 <inst_272>:
800024f0:	0000b537          	lui	a0,0xb
800024f4:	50450513          	addi	a0,a0,1284 # b504 <offset+0xb458>
800024f8:	ffff55b7          	lui	a1,0xffff5
800024fc:	afd58593          	addi	a1,a1,-1283 # ffff4afd <imm12+0xffff502d>
80002500:	00b52633          	slt	a2,a0,a1
80002504:	3cc0a623          	sw	a2,972(ra)
80002508:	00000113          	li	sp,0
8000250c:	00c10463          	beq	sp,a2,80002514 <inst_273>
80002510:	7340206f          	j	80004c44 <bad_trap>

80002514 <inst_273>:
80002514:	0000b537          	lui	a0,0xb
80002518:	50450513          	addi	a0,a0,1284 # b504 <offset+0xb458>
8000251c:	0000b5b7          	lui	a1,0xb
80002520:	50558593          	addi	a1,a1,1285 # b505 <offset+0xb459>
80002524:	00b52633          	slt	a2,a0,a1
80002528:	3cc0a823          	sw	a2,976(ra)
8000252c:	00100113          	li	sp,1
80002530:	00c10463          	beq	sp,a2,80002538 <inst_274>
80002534:	7100206f          	j	80004c44 <bad_trap>

80002538 <inst_274>:
80002538:	00200513          	li	a0,2
8000253c:	00300593          	li	a1,3
80002540:	00b52633          	slt	a2,a0,a1
80002544:	3cc0aa23          	sw	a2,980(ra)
80002548:	00100113          	li	sp,1
8000254c:	00c10463          	beq	sp,a2,80002554 <inst_275>
80002550:	6f40206f          	j	80004c44 <bad_trap>

80002554 <inst_275>:
80002554:	00200513          	li	a0,2
80002558:	aaaab5b7          	lui	a1,0xaaaab
8000255c:	aaa58593          	addi	a1,a1,-1366 # aaaaaaaa <imm12+0xaaaaafda>
80002560:	00b52633          	slt	a2,a0,a1
80002564:	3cc0ac23          	sw	a2,984(ra)
80002568:	00000113          	li	sp,0
8000256c:	00c10463          	beq	sp,a2,80002574 <inst_276>
80002570:	6d40206f          	j	80004c44 <bad_trap>

80002574 <inst_276>:
80002574:	00200513          	li	a0,2
80002578:	00500593          	li	a1,5
8000257c:	00b52633          	slt	a2,a0,a1
80002580:	3cc0ae23          	sw	a2,988(ra)
80002584:	00100113          	li	sp,1
80002588:	00c10463          	beq	sp,a2,80002590 <inst_277>
8000258c:	6b80206f          	j	80004c44 <bad_trap>

80002590 <inst_277>:
80002590:	00200513          	li	a0,2
80002594:	333335b7          	lui	a1,0x33333
80002598:	33358593          	addi	a1,a1,819 # 33333333 <offset+0x33333287>
8000259c:	00b52633          	slt	a2,a0,a1
800025a0:	3ec0a023          	sw	a2,992(ra)
800025a4:	00100113          	li	sp,1
800025a8:	00c10463          	beq	sp,a2,800025b0 <inst_278>
800025ac:	6980206f          	j	80004c44 <bad_trap>

800025b0 <inst_278>:
800025b0:	00200513          	li	a0,2
800025b4:	666665b7          	lui	a1,0x66666
800025b8:	66658593          	addi	a1,a1,1638 # 66666666 <absimm+0x21374137>
800025bc:	00b52633          	slt	a2,a0,a1
800025c0:	3ec0a223          	sw	a2,996(ra)
800025c4:	00100113          	li	sp,1
800025c8:	00c10463          	beq	sp,a2,800025d0 <inst_279>
800025cc:	6780206f          	j	80004c44 <bad_trap>

800025d0 <inst_279>:
800025d0:	00200513          	li	a0,2
800025d4:	ffff55b7          	lui	a1,0xffff5
800025d8:	afc58593          	addi	a1,a1,-1284 # ffff4afc <imm12+0xffff502c>
800025dc:	00b52633          	slt	a2,a0,a1
800025e0:	3ec0a423          	sw	a2,1000(ra)
800025e4:	00000113          	li	sp,0
800025e8:	00c10463          	beq	sp,a2,800025f0 <inst_280>
800025ec:	6580206f          	j	80004c44 <bad_trap>

800025f0 <inst_280>:
800025f0:	00200513          	li	a0,2
800025f4:	0000b5b7          	lui	a1,0xb
800025f8:	50458593          	addi	a1,a1,1284 # b504 <offset+0xb458>
800025fc:	00b52633          	slt	a2,a0,a1
80002600:	3ec0a623          	sw	a2,1004(ra)
80002604:	00100113          	li	sp,1
80002608:	00c10463          	beq	sp,a2,80002610 <inst_281>
8000260c:	6380206f          	j	80004c44 <bad_trap>

80002610 <inst_281>:
80002610:	00200513          	li	a0,2
80002614:	00200593          	li	a1,2
80002618:	00b52633          	slt	a2,a0,a1
8000261c:	3ec0a823          	sw	a2,1008(ra)
80002620:	00000113          	li	sp,0
80002624:	00c10463          	beq	sp,a2,8000262c <inst_282>
80002628:	61c0206f          	j	80004c44 <bad_trap>

8000262c <inst_282>:
8000262c:	00200513          	li	a0,2
80002630:	555555b7          	lui	a1,0x55555
80002634:	55458593          	addi	a1,a1,1364 # 55555554 <absimm+0x10263025>
80002638:	00b52633          	slt	a2,a0,a1
8000263c:	3ec0aa23          	sw	a2,1012(ra)
80002640:	00100113          	li	sp,1
80002644:	00c10463          	beq	sp,a2,8000264c <inst_283>
80002648:	5fc0206f          	j	80004c44 <bad_trap>

8000264c <inst_283>:
8000264c:	00200513          	li	a0,2
80002650:	00000593          	li	a1,0
80002654:	00b52633          	slt	a2,a0,a1
80002658:	3ec0ac23          	sw	a2,1016(ra)
8000265c:	00000113          	li	sp,0
80002660:	00c10463          	beq	sp,a2,80002668 <inst_284>
80002664:	5e00206f          	j	80004c44 <bad_trap>

80002668 <inst_284>:
80002668:	00200513          	li	a0,2
8000266c:	00400593          	li	a1,4
80002670:	00b52633          	slt	a2,a0,a1
80002674:	3ec0ae23          	sw	a2,1020(ra)
80002678:	00100113          	li	sp,1
8000267c:	00c10463          	beq	sp,a2,80002684 <inst_285>
80002680:	5c40206f          	j	80004c44 <bad_trap>

80002684 <inst_285>:
80002684:	00200513          	li	a0,2
80002688:	333335b7          	lui	a1,0x33333
8000268c:	33258593          	addi	a1,a1,818 # 33333332 <offset+0x33333286>
80002690:	00b52633          	slt	a2,a0,a1
80002694:	40c0a023          	sw	a2,1024(ra)
80002698:	00100113          	li	sp,1
8000269c:	00c10463          	beq	sp,a2,800026a4 <inst_286>
800026a0:	5a40206f          	j	80004c44 <bad_trap>

800026a4 <inst_286>:
800026a4:	00200513          	li	a0,2
800026a8:	666665b7          	lui	a1,0x66666
800026ac:	66558593          	addi	a1,a1,1637 # 66666665 <absimm+0x21374136>
800026b0:	00b52633          	slt	a2,a0,a1
800026b4:	40c0a223          	sw	a2,1028(ra)
800026b8:	00100113          	li	sp,1
800026bc:	00c10463          	beq	sp,a2,800026c4 <inst_287>
800026c0:	5840206f          	j	80004c44 <bad_trap>

800026c4 <inst_287>:
800026c4:	00200513          	li	a0,2
800026c8:	0000b5b7          	lui	a1,0xb
800026cc:	50358593          	addi	a1,a1,1283 # b503 <offset+0xb457>
800026d0:	00b52633          	slt	a2,a0,a1
800026d4:	40c0a423          	sw	a2,1032(ra)
800026d8:	00100113          	li	sp,1
800026dc:	00c10463          	beq	sp,a2,800026e4 <inst_288>
800026e0:	5640206f          	j	80004c44 <bad_trap>

800026e4 <inst_288>:
800026e4:	00200513          	li	a0,2
800026e8:	555555b7          	lui	a1,0x55555
800026ec:	55658593          	addi	a1,a1,1366 # 55555556 <absimm+0x10263027>
800026f0:	00b52633          	slt	a2,a0,a1
800026f4:	40c0a623          	sw	a2,1036(ra)
800026f8:	00100113          	li	sp,1
800026fc:	00c10463          	beq	sp,a2,80002704 <inst_289>
80002700:	5440206f          	j	80004c44 <bad_trap>

80002704 <inst_289>:
80002704:	00200513          	li	a0,2
80002708:	aaaab5b7          	lui	a1,0xaaaab
8000270c:	aab58593          	addi	a1,a1,-1365 # aaaaaaab <imm12+0xaaaaafdb>
80002710:	00b52633          	slt	a2,a0,a1
80002714:	40c0a823          	sw	a2,1040(ra)
80002718:	00000113          	li	sp,0
8000271c:	00c10463          	beq	sp,a2,80002724 <inst_290>
80002720:	5240206f          	j	80004c44 <bad_trap>

80002724 <inst_290>:
80002724:	00200513          	li	a0,2
80002728:	00600593          	li	a1,6
8000272c:	00b52633          	slt	a2,a0,a1
80002730:	40c0aa23          	sw	a2,1044(ra)
80002734:	00100113          	li	sp,1
80002738:	00c10463          	beq	sp,a2,80002740 <inst_291>
8000273c:	5080206f          	j	80004c44 <bad_trap>

80002740 <inst_291>:
80002740:	00200513          	li	a0,2
80002744:	333335b7          	lui	a1,0x33333
80002748:	33458593          	addi	a1,a1,820 # 33333334 <offset+0x33333288>
8000274c:	00b52633          	slt	a2,a0,a1
80002750:	40c0ac23          	sw	a2,1048(ra)
80002754:	00100113          	li	sp,1
80002758:	00c10463          	beq	sp,a2,80002760 <inst_292>
8000275c:	4e80206f          	j	80004c44 <bad_trap>

80002760 <inst_292>:
80002760:	00200513          	li	a0,2
80002764:	666665b7          	lui	a1,0x66666
80002768:	66758593          	addi	a1,a1,1639 # 66666667 <absimm+0x21374138>
8000276c:	00b52633          	slt	a2,a0,a1
80002770:	40c0ae23          	sw	a2,1052(ra)
80002774:	00100113          	li	sp,1
80002778:	00c10463          	beq	sp,a2,80002780 <inst_293>
8000277c:	4c80206f          	j	80004c44 <bad_trap>

80002780 <inst_293>:
80002780:	00200513          	li	a0,2
80002784:	ffff55b7          	lui	a1,0xffff5
80002788:	afd58593          	addi	a1,a1,-1283 # ffff4afd <imm12+0xffff502d>
8000278c:	00b52633          	slt	a2,a0,a1
80002790:	42c0a023          	sw	a2,1056(ra)
80002794:	00000113          	li	sp,0
80002798:	00c10463          	beq	sp,a2,800027a0 <inst_294>
8000279c:	4a80206f          	j	80004c44 <bad_trap>

800027a0 <inst_294>:
800027a0:	00200513          	li	a0,2
800027a4:	0000b5b7          	lui	a1,0xb
800027a8:	50558593          	addi	a1,a1,1285 # b505 <offset+0xb459>
800027ac:	00b52633          	slt	a2,a0,a1
800027b0:	42c0a223          	sw	a2,1060(ra)
800027b4:	00100113          	li	sp,1
800027b8:	00c10463          	beq	sp,a2,800027c0 <inst_295>
800027bc:	4880206f          	j	80004c44 <bad_trap>

800027c0 <inst_295>:
800027c0:	55555537          	lui	a0,0x55555
800027c4:	55450513          	addi	a0,a0,1364 # 55555554 <absimm+0x10263025>
800027c8:	00300593          	li	a1,3
800027cc:	00b52633          	slt	a2,a0,a1
800027d0:	42c0a423          	sw	a2,1064(ra)
800027d4:	00000113          	li	sp,0
800027d8:	00c10463          	beq	sp,a2,800027e0 <inst_296>
800027dc:	4680206f          	j	80004c44 <bad_trap>

800027e0 <inst_296>:
800027e0:	55555537          	lui	a0,0x55555
800027e4:	55450513          	addi	a0,a0,1364 # 55555554 <absimm+0x10263025>
800027e8:	555555b7          	lui	a1,0x55555
800027ec:	55558593          	addi	a1,a1,1365 # 55555555 <absimm+0x10263026>
800027f0:	00b52633          	slt	a2,a0,a1
800027f4:	42c0a623          	sw	a2,1068(ra)
800027f8:	00100113          	li	sp,1
800027fc:	00c10463          	beq	sp,a2,80002804 <inst_297>
80002800:	4440206f          	j	80004c44 <bad_trap>

80002804 <inst_297>:
80002804:	55555537          	lui	a0,0x55555
80002808:	55450513          	addi	a0,a0,1364 # 55555554 <absimm+0x10263025>
8000280c:	aaaab5b7          	lui	a1,0xaaaab
80002810:	aaa58593          	addi	a1,a1,-1366 # aaaaaaaa <imm12+0xaaaaafda>
80002814:	00b52633          	slt	a2,a0,a1
80002818:	42c0a823          	sw	a2,1072(ra)
8000281c:	00000113          	li	sp,0
80002820:	00c10463          	beq	sp,a2,80002828 <inst_298>
80002824:	4200206f          	j	80004c44 <bad_trap>

80002828 <inst_298>:
80002828:	55555537          	lui	a0,0x55555
8000282c:	55450513          	addi	a0,a0,1364 # 55555554 <absimm+0x10263025>
80002830:	00500593          	li	a1,5
80002834:	00b52633          	slt	a2,a0,a1
80002838:	42c0aa23          	sw	a2,1076(ra)
8000283c:	00000113          	li	sp,0
80002840:	00c10463          	beq	sp,a2,80002848 <inst_299>
80002844:	4000206f          	j	80004c44 <bad_trap>

80002848 <inst_299>:
80002848:	55555537          	lui	a0,0x55555
8000284c:	55450513          	addi	a0,a0,1364 # 55555554 <absimm+0x10263025>
80002850:	333335b7          	lui	a1,0x33333
80002854:	33358593          	addi	a1,a1,819 # 33333333 <offset+0x33333287>
80002858:	00b52633          	slt	a2,a0,a1
8000285c:	42c0ac23          	sw	a2,1080(ra)
80002860:	00000113          	li	sp,0
80002864:	00c10463          	beq	sp,a2,8000286c <inst_300>
80002868:	3dc0206f          	j	80004c44 <bad_trap>

8000286c <inst_300>:
8000286c:	55555537          	lui	a0,0x55555
80002870:	55450513          	addi	a0,a0,1364 # 55555554 <absimm+0x10263025>
80002874:	666665b7          	lui	a1,0x66666
80002878:	66658593          	addi	a1,a1,1638 # 66666666 <absimm+0x21374137>
8000287c:	00b52633          	slt	a2,a0,a1
80002880:	42c0ae23          	sw	a2,1084(ra)
80002884:	00100113          	li	sp,1
80002888:	00c10463          	beq	sp,a2,80002890 <inst_301>
8000288c:	3b80206f          	j	80004c44 <bad_trap>

80002890 <inst_301>:
80002890:	55555537          	lui	a0,0x55555
80002894:	55450513          	addi	a0,a0,1364 # 55555554 <absimm+0x10263025>
80002898:	ffff55b7          	lui	a1,0xffff5
8000289c:	afc58593          	addi	a1,a1,-1284 # ffff4afc <imm12+0xffff502c>
800028a0:	00b52633          	slt	a2,a0,a1
800028a4:	44c0a023          	sw	a2,1088(ra)
800028a8:	00000113          	li	sp,0
800028ac:	00c10463          	beq	sp,a2,800028b4 <inst_302>
800028b0:	3940206f          	j	80004c44 <bad_trap>

800028b4 <inst_302>:
800028b4:	55555537          	lui	a0,0x55555
800028b8:	55450513          	addi	a0,a0,1364 # 55555554 <absimm+0x10263025>
800028bc:	0000b5b7          	lui	a1,0xb
800028c0:	50458593          	addi	a1,a1,1284 # b504 <offset+0xb458>
800028c4:	00b52633          	slt	a2,a0,a1
800028c8:	44c0a223          	sw	a2,1092(ra)
800028cc:	00000113          	li	sp,0
800028d0:	00c10463          	beq	sp,a2,800028d8 <inst_303>
800028d4:	3700206f          	j	80004c44 <bad_trap>

800028d8 <inst_303>:
800028d8:	55555537          	lui	a0,0x55555
800028dc:	55450513          	addi	a0,a0,1364 # 55555554 <absimm+0x10263025>
800028e0:	00200593          	li	a1,2
800028e4:	00b52633          	slt	a2,a0,a1
800028e8:	44c0a423          	sw	a2,1096(ra)
800028ec:	00000113          	li	sp,0
800028f0:	00c10463          	beq	sp,a2,800028f8 <inst_304>
800028f4:	3500206f          	j	80004c44 <bad_trap>

800028f8 <inst_304>:
800028f8:	55555537          	lui	a0,0x55555
800028fc:	55450513          	addi	a0,a0,1364 # 55555554 <absimm+0x10263025>
80002900:	555555b7          	lui	a1,0x55555
80002904:	55458593          	addi	a1,a1,1364 # 55555554 <absimm+0x10263025>
80002908:	00b52633          	slt	a2,a0,a1
8000290c:	44c0a623          	sw	a2,1100(ra)
80002910:	00000113          	li	sp,0
80002914:	00c10463          	beq	sp,a2,8000291c <inst_305>
80002918:	32c0206f          	j	80004c44 <bad_trap>

8000291c <inst_305>:
8000291c:	55555537          	lui	a0,0x55555
80002920:	55450513          	addi	a0,a0,1364 # 55555554 <absimm+0x10263025>
80002924:	00000593          	li	a1,0
80002928:	00b52633          	slt	a2,a0,a1
8000292c:	44c0a823          	sw	a2,1104(ra)
80002930:	00000113          	li	sp,0
80002934:	00c10463          	beq	sp,a2,8000293c <inst_306>
80002938:	30c0206f          	j	80004c44 <bad_trap>

8000293c <inst_306>:
8000293c:	55555537          	lui	a0,0x55555
80002940:	55450513          	addi	a0,a0,1364 # 55555554 <absimm+0x10263025>
80002944:	00400593          	li	a1,4
80002948:	00b52633          	slt	a2,a0,a1
8000294c:	44c0aa23          	sw	a2,1108(ra)
80002950:	00000113          	li	sp,0
80002954:	00c10463          	beq	sp,a2,8000295c <inst_307>
80002958:	2ec0206f          	j	80004c44 <bad_trap>

8000295c <inst_307>:
8000295c:	55555537          	lui	a0,0x55555
80002960:	55450513          	addi	a0,a0,1364 # 55555554 <absimm+0x10263025>
80002964:	333335b7          	lui	a1,0x33333
80002968:	33258593          	addi	a1,a1,818 # 33333332 <offset+0x33333286>
8000296c:	00b52633          	slt	a2,a0,a1
80002970:	44c0ac23          	sw	a2,1112(ra)
80002974:	00000113          	li	sp,0
80002978:	00c10463          	beq	sp,a2,80002980 <inst_308>
8000297c:	2c80206f          	j	80004c44 <bad_trap>

80002980 <inst_308>:
80002980:	55555537          	lui	a0,0x55555
80002984:	55450513          	addi	a0,a0,1364 # 55555554 <absimm+0x10263025>
80002988:	666665b7          	lui	a1,0x66666
8000298c:	66558593          	addi	a1,a1,1637 # 66666665 <absimm+0x21374136>
80002990:	00b52633          	slt	a2,a0,a1
80002994:	44c0ae23          	sw	a2,1116(ra)
80002998:	00100113          	li	sp,1
8000299c:	00c10463          	beq	sp,a2,800029a4 <inst_309>
800029a0:	2a40206f          	j	80004c44 <bad_trap>

800029a4 <inst_309>:
800029a4:	55555537          	lui	a0,0x55555
800029a8:	55450513          	addi	a0,a0,1364 # 55555554 <absimm+0x10263025>
800029ac:	0000b5b7          	lui	a1,0xb
800029b0:	50358593          	addi	a1,a1,1283 # b503 <offset+0xb457>
800029b4:	00b52633          	slt	a2,a0,a1
800029b8:	46c0a023          	sw	a2,1120(ra)
800029bc:	00000113          	li	sp,0
800029c0:	00c10463          	beq	sp,a2,800029c8 <inst_310>
800029c4:	2800206f          	j	80004c44 <bad_trap>

800029c8 <inst_310>:
800029c8:	55555537          	lui	a0,0x55555
800029cc:	55450513          	addi	a0,a0,1364 # 55555554 <absimm+0x10263025>
800029d0:	555555b7          	lui	a1,0x55555
800029d4:	55658593          	addi	a1,a1,1366 # 55555556 <absimm+0x10263027>
800029d8:	00b52633          	slt	a2,a0,a1
800029dc:	46c0a223          	sw	a2,1124(ra)
800029e0:	00100113          	li	sp,1
800029e4:	00c10463          	beq	sp,a2,800029ec <inst_311>
800029e8:	25c0206f          	j	80004c44 <bad_trap>

800029ec <inst_311>:
800029ec:	55555537          	lui	a0,0x55555
800029f0:	55450513          	addi	a0,a0,1364 # 55555554 <absimm+0x10263025>
800029f4:	aaaab5b7          	lui	a1,0xaaaab
800029f8:	aab58593          	addi	a1,a1,-1365 # aaaaaaab <imm12+0xaaaaafdb>
800029fc:	00b52633          	slt	a2,a0,a1
80002a00:	46c0a423          	sw	a2,1128(ra)
80002a04:	00000113          	li	sp,0
80002a08:	00c10463          	beq	sp,a2,80002a10 <inst_312>
80002a0c:	2380206f          	j	80004c44 <bad_trap>

80002a10 <inst_312>:
80002a10:	55555537          	lui	a0,0x55555
80002a14:	55450513          	addi	a0,a0,1364 # 55555554 <absimm+0x10263025>
80002a18:	00600593          	li	a1,6
80002a1c:	00b52633          	slt	a2,a0,a1
80002a20:	46c0a623          	sw	a2,1132(ra)
80002a24:	00000113          	li	sp,0
80002a28:	00c10463          	beq	sp,a2,80002a30 <inst_313>
80002a2c:	2180206f          	j	80004c44 <bad_trap>

80002a30 <inst_313>:
80002a30:	55555537          	lui	a0,0x55555
80002a34:	55450513          	addi	a0,a0,1364 # 55555554 <absimm+0x10263025>
80002a38:	333335b7          	lui	a1,0x33333
80002a3c:	33458593          	addi	a1,a1,820 # 33333334 <offset+0x33333288>
80002a40:	00b52633          	slt	a2,a0,a1
80002a44:	46c0a823          	sw	a2,1136(ra)
80002a48:	00000113          	li	sp,0
80002a4c:	00c10463          	beq	sp,a2,80002a54 <inst_314>
80002a50:	1f40206f          	j	80004c44 <bad_trap>

80002a54 <inst_314>:
80002a54:	55555537          	lui	a0,0x55555
80002a58:	55450513          	addi	a0,a0,1364 # 55555554 <absimm+0x10263025>
80002a5c:	666665b7          	lui	a1,0x66666
80002a60:	66758593          	addi	a1,a1,1639 # 66666667 <absimm+0x21374138>
80002a64:	00b52633          	slt	a2,a0,a1
80002a68:	46c0aa23          	sw	a2,1140(ra)
80002a6c:	00100113          	li	sp,1
80002a70:	00c10463          	beq	sp,a2,80002a78 <inst_315>
80002a74:	1d00206f          	j	80004c44 <bad_trap>

80002a78 <inst_315>:
80002a78:	55555537          	lui	a0,0x55555
80002a7c:	55450513          	addi	a0,a0,1364 # 55555554 <absimm+0x10263025>
80002a80:	ffff55b7          	lui	a1,0xffff5
80002a84:	afd58593          	addi	a1,a1,-1283 # ffff4afd <imm12+0xffff502d>
80002a88:	00b52633          	slt	a2,a0,a1
80002a8c:	46c0ac23          	sw	a2,1144(ra)
80002a90:	00000113          	li	sp,0
80002a94:	00c10463          	beq	sp,a2,80002a9c <inst_316>
80002a98:	1ac0206f          	j	80004c44 <bad_trap>

80002a9c <inst_316>:
80002a9c:	55555537          	lui	a0,0x55555
80002aa0:	55450513          	addi	a0,a0,1364 # 55555554 <absimm+0x10263025>
80002aa4:	0000b5b7          	lui	a1,0xb
80002aa8:	50558593          	addi	a1,a1,1285 # b505 <offset+0xb459>
80002aac:	00b52633          	slt	a2,a0,a1
80002ab0:	46c0ae23          	sw	a2,1148(ra)
80002ab4:	00000113          	li	sp,0
80002ab8:	00c10463          	beq	sp,a2,80002ac0 <inst_317>
80002abc:	1880206f          	j	80004c44 <bad_trap>

80002ac0 <inst_317>:
80002ac0:	00000513          	li	a0,0
80002ac4:	00300593          	li	a1,3
80002ac8:	00b52633          	slt	a2,a0,a1
80002acc:	48c0a023          	sw	a2,1152(ra)
80002ad0:	00100113          	li	sp,1
80002ad4:	00c10463          	beq	sp,a2,80002adc <inst_318>
80002ad8:	16c0206f          	j	80004c44 <bad_trap>

80002adc <inst_318>:
80002adc:	00000513          	li	a0,0
80002ae0:	555555b7          	lui	a1,0x55555
80002ae4:	55558593          	addi	a1,a1,1365 # 55555555 <absimm+0x10263026>
80002ae8:	00b52633          	slt	a2,a0,a1
80002aec:	48c0a223          	sw	a2,1156(ra)
80002af0:	00100113          	li	sp,1
80002af4:	00c10463          	beq	sp,a2,80002afc <inst_319>
80002af8:	14c0206f          	j	80004c44 <bad_trap>

80002afc <inst_319>:
80002afc:	00000513          	li	a0,0
80002b00:	aaaab5b7          	lui	a1,0xaaaab
80002b04:	aaa58593          	addi	a1,a1,-1366 # aaaaaaaa <imm12+0xaaaaafda>
80002b08:	00b52633          	slt	a2,a0,a1
80002b0c:	48c0a423          	sw	a2,1160(ra)
80002b10:	00000113          	li	sp,0
80002b14:	00c10463          	beq	sp,a2,80002b1c <inst_320>
80002b18:	12c0206f          	j	80004c44 <bad_trap>

80002b1c <inst_320>:
80002b1c:	00000513          	li	a0,0
80002b20:	00500593          	li	a1,5
80002b24:	00b52633          	slt	a2,a0,a1
80002b28:	48c0a623          	sw	a2,1164(ra)
80002b2c:	00100113          	li	sp,1
80002b30:	00c10463          	beq	sp,a2,80002b38 <inst_321>
80002b34:	1100206f          	j	80004c44 <bad_trap>

80002b38 <inst_321>:
80002b38:	00000513          	li	a0,0
80002b3c:	333335b7          	lui	a1,0x33333
80002b40:	33358593          	addi	a1,a1,819 # 33333333 <offset+0x33333287>
80002b44:	00b52633          	slt	a2,a0,a1
80002b48:	48c0a823          	sw	a2,1168(ra)
80002b4c:	00100113          	li	sp,1
80002b50:	00c10463          	beq	sp,a2,80002b58 <inst_322>
80002b54:	0f00206f          	j	80004c44 <bad_trap>

80002b58 <inst_322>:
80002b58:	00000513          	li	a0,0
80002b5c:	666665b7          	lui	a1,0x66666
80002b60:	66658593          	addi	a1,a1,1638 # 66666666 <absimm+0x21374137>
80002b64:	00b52633          	slt	a2,a0,a1
80002b68:	48c0aa23          	sw	a2,1172(ra)
80002b6c:	00100113          	li	sp,1
80002b70:	00c10463          	beq	sp,a2,80002b78 <inst_323>
80002b74:	0d00206f          	j	80004c44 <bad_trap>

80002b78 <inst_323>:
80002b78:	00000513          	li	a0,0
80002b7c:	ffff55b7          	lui	a1,0xffff5
80002b80:	afc58593          	addi	a1,a1,-1284 # ffff4afc <imm12+0xffff502c>
80002b84:	00b52633          	slt	a2,a0,a1
80002b88:	48c0ac23          	sw	a2,1176(ra)
80002b8c:	00000113          	li	sp,0
80002b90:	00c10463          	beq	sp,a2,80002b98 <inst_324>
80002b94:	0b00206f          	j	80004c44 <bad_trap>

80002b98 <inst_324>:
80002b98:	00000513          	li	a0,0
80002b9c:	0000b5b7          	lui	a1,0xb
80002ba0:	50458593          	addi	a1,a1,1284 # b504 <offset+0xb458>
80002ba4:	00b52633          	slt	a2,a0,a1
80002ba8:	48c0ae23          	sw	a2,1180(ra)
80002bac:	00100113          	li	sp,1
80002bb0:	00c10463          	beq	sp,a2,80002bb8 <inst_325>
80002bb4:	0900206f          	j	80004c44 <bad_trap>

80002bb8 <inst_325>:
80002bb8:	aaaab537          	lui	a0,0xaaaab
80002bbc:	aab50513          	addi	a0,a0,-1365 # aaaaaaab <imm12+0xaaaaafdb>
80002bc0:	aaaab5b7          	lui	a1,0xaaaab
80002bc4:	aab58593          	addi	a1,a1,-1365 # aaaaaaab <imm12+0xaaaaafdb>
80002bc8:	00b52633          	slt	a2,a0,a1
80002bcc:	4ac0a023          	sw	a2,1184(ra)
80002bd0:	00000113          	li	sp,0
80002bd4:	00c10463          	beq	sp,a2,80002bdc <inst_326>
80002bd8:	06c0206f          	j	80004c44 <bad_trap>

80002bdc <inst_326>:
80002bdc:	aaaab537          	lui	a0,0xaaaab
80002be0:	aab50513          	addi	a0,a0,-1365 # aaaaaaab <imm12+0xaaaaafdb>
80002be4:	00600593          	li	a1,6
80002be8:	00b52633          	slt	a2,a0,a1
80002bec:	4ac0a223          	sw	a2,1188(ra)
80002bf0:	00100113          	li	sp,1
80002bf4:	00c10463          	beq	sp,a2,80002bfc <inst_327>
80002bf8:	04c0206f          	j	80004c44 <bad_trap>

80002bfc <inst_327>:
80002bfc:	aaaab537          	lui	a0,0xaaaab
80002c00:	aab50513          	addi	a0,a0,-1365 # aaaaaaab <imm12+0xaaaaafdb>
80002c04:	333335b7          	lui	a1,0x33333
80002c08:	33458593          	addi	a1,a1,820 # 33333334 <offset+0x33333288>
80002c0c:	00b52633          	slt	a2,a0,a1
80002c10:	4ac0a423          	sw	a2,1192(ra)
80002c14:	00100113          	li	sp,1
80002c18:	00c10463          	beq	sp,a2,80002c20 <inst_328>
80002c1c:	0280206f          	j	80004c44 <bad_trap>

80002c20 <inst_328>:
80002c20:	aaaab537          	lui	a0,0xaaaab
80002c24:	aab50513          	addi	a0,a0,-1365 # aaaaaaab <imm12+0xaaaaafdb>
80002c28:	666665b7          	lui	a1,0x66666
80002c2c:	66758593          	addi	a1,a1,1639 # 66666667 <absimm+0x21374138>
80002c30:	00b52633          	slt	a2,a0,a1
80002c34:	4ac0a623          	sw	a2,1196(ra)
80002c38:	00100113          	li	sp,1
80002c3c:	00c10463          	beq	sp,a2,80002c44 <inst_329>
80002c40:	0040206f          	j	80004c44 <bad_trap>

80002c44 <inst_329>:
80002c44:	aaaab537          	lui	a0,0xaaaab
80002c48:	aab50513          	addi	a0,a0,-1365 # aaaaaaab <imm12+0xaaaaafdb>
80002c4c:	ffff55b7          	lui	a1,0xffff5
80002c50:	afd58593          	addi	a1,a1,-1283 # ffff4afd <imm12+0xffff502d>
80002c54:	00b52633          	slt	a2,a0,a1
80002c58:	4ac0a823          	sw	a2,1200(ra)
80002c5c:	00100113          	li	sp,1
80002c60:	00c10463          	beq	sp,a2,80002c68 <inst_330>
80002c64:	7e10106f          	j	80004c44 <bad_trap>

80002c68 <inst_330>:
80002c68:	aaaab537          	lui	a0,0xaaaab
80002c6c:	aab50513          	addi	a0,a0,-1365 # aaaaaaab <imm12+0xaaaaafdb>
80002c70:	0000b5b7          	lui	a1,0xb
80002c74:	50558593          	addi	a1,a1,1285 # b505 <offset+0xb459>
80002c78:	00b52633          	slt	a2,a0,a1
80002c7c:	4ac0aa23          	sw	a2,1204(ra)
80002c80:	00100113          	li	sp,1
80002c84:	00c10463          	beq	sp,a2,80002c8c <inst_331>
80002c88:	7bd0106f          	j	80004c44 <bad_trap>

80002c8c <inst_331>:
80002c8c:	00600513          	li	a0,6
80002c90:	00300593          	li	a1,3
80002c94:	00b52633          	slt	a2,a0,a1
80002c98:	4ac0ac23          	sw	a2,1208(ra)
80002c9c:	00000113          	li	sp,0
80002ca0:	00c10463          	beq	sp,a2,80002ca8 <inst_332>
80002ca4:	7a10106f          	j	80004c44 <bad_trap>

80002ca8 <inst_332>:
80002ca8:	00600513          	li	a0,6
80002cac:	555555b7          	lui	a1,0x55555
80002cb0:	55558593          	addi	a1,a1,1365 # 55555555 <absimm+0x10263026>
80002cb4:	00b52633          	slt	a2,a0,a1
80002cb8:	4ac0ae23          	sw	a2,1212(ra)
80002cbc:	00100113          	li	sp,1
80002cc0:	00c10463          	beq	sp,a2,80002cc8 <inst_333>
80002cc4:	7810106f          	j	80004c44 <bad_trap>

80002cc8 <inst_333>:
80002cc8:	00600513          	li	a0,6
80002ccc:	aaaab5b7          	lui	a1,0xaaaab
80002cd0:	aaa58593          	addi	a1,a1,-1366 # aaaaaaaa <imm12+0xaaaaafda>
80002cd4:	00b52633          	slt	a2,a0,a1
80002cd8:	4cc0a023          	sw	a2,1216(ra)
80002cdc:	00000113          	li	sp,0
80002ce0:	00c10463          	beq	sp,a2,80002ce8 <inst_334>
80002ce4:	7610106f          	j	80004c44 <bad_trap>

80002ce8 <inst_334>:
80002ce8:	00600513          	li	a0,6
80002cec:	00500593          	li	a1,5
80002cf0:	00b52633          	slt	a2,a0,a1
80002cf4:	4cc0a223          	sw	a2,1220(ra)
80002cf8:	00000113          	li	sp,0
80002cfc:	00c10463          	beq	sp,a2,80002d04 <inst_335>
80002d00:	7450106f          	j	80004c44 <bad_trap>

80002d04 <inst_335>:
80002d04:	00600513          	li	a0,6
80002d08:	333335b7          	lui	a1,0x33333
80002d0c:	33358593          	addi	a1,a1,819 # 33333333 <offset+0x33333287>
80002d10:	00b52633          	slt	a2,a0,a1
80002d14:	4cc0a423          	sw	a2,1224(ra)
80002d18:	00100113          	li	sp,1
80002d1c:	00c10463          	beq	sp,a2,80002d24 <inst_336>
80002d20:	7250106f          	j	80004c44 <bad_trap>

80002d24 <inst_336>:
80002d24:	00600513          	li	a0,6
80002d28:	666665b7          	lui	a1,0x66666
80002d2c:	66658593          	addi	a1,a1,1638 # 66666666 <absimm+0x21374137>
80002d30:	00b52633          	slt	a2,a0,a1
80002d34:	4cc0a623          	sw	a2,1228(ra)
80002d38:	00100113          	li	sp,1
80002d3c:	00c10463          	beq	sp,a2,80002d44 <inst_337>
80002d40:	7050106f          	j	80004c44 <bad_trap>

80002d44 <inst_337>:
80002d44:	00600513          	li	a0,6
80002d48:	ffff55b7          	lui	a1,0xffff5
80002d4c:	afc58593          	addi	a1,a1,-1284 # ffff4afc <imm12+0xffff502c>
80002d50:	00b52633          	slt	a2,a0,a1
80002d54:	4cc0a823          	sw	a2,1232(ra)
80002d58:	00000113          	li	sp,0
80002d5c:	00c10463          	beq	sp,a2,80002d64 <inst_338>
80002d60:	6e50106f          	j	80004c44 <bad_trap>

80002d64 <inst_338>:
80002d64:	00600513          	li	a0,6
80002d68:	0000b5b7          	lui	a1,0xb
80002d6c:	50458593          	addi	a1,a1,1284 # b504 <offset+0xb458>
80002d70:	00b52633          	slt	a2,a0,a1
80002d74:	4cc0aa23          	sw	a2,1236(ra)
80002d78:	00100113          	li	sp,1
80002d7c:	00c10463          	beq	sp,a2,80002d84 <inst_339>
80002d80:	6c50106f          	j	80004c44 <bad_trap>

80002d84 <inst_339>:
80002d84:	00600513          	li	a0,6
80002d88:	00200593          	li	a1,2
80002d8c:	00b52633          	slt	a2,a0,a1
80002d90:	4cc0ac23          	sw	a2,1240(ra)
80002d94:	00000113          	li	sp,0
80002d98:	00c10463          	beq	sp,a2,80002da0 <inst_340>
80002d9c:	6a90106f          	j	80004c44 <bad_trap>

80002da0 <inst_340>:
80002da0:	00600513          	li	a0,6
80002da4:	555555b7          	lui	a1,0x55555
80002da8:	55458593          	addi	a1,a1,1364 # 55555554 <absimm+0x10263025>
80002dac:	00b52633          	slt	a2,a0,a1
80002db0:	4cc0ae23          	sw	a2,1244(ra)
80002db4:	00100113          	li	sp,1
80002db8:	00c10463          	beq	sp,a2,80002dc0 <inst_341>
80002dbc:	6890106f          	j	80004c44 <bad_trap>

80002dc0 <inst_341>:
80002dc0:	00600513          	li	a0,6
80002dc4:	00000593          	li	a1,0
80002dc8:	00b52633          	slt	a2,a0,a1
80002dcc:	4ec0a023          	sw	a2,1248(ra)
80002dd0:	00000113          	li	sp,0
80002dd4:	00c10463          	beq	sp,a2,80002ddc <inst_342>
80002dd8:	66d0106f          	j	80004c44 <bad_trap>

80002ddc <inst_342>:
80002ddc:	00600513          	li	a0,6
80002de0:	00400593          	li	a1,4
80002de4:	00b52633          	slt	a2,a0,a1
80002de8:	4ec0a223          	sw	a2,1252(ra)
80002dec:	00000113          	li	sp,0
80002df0:	00c10463          	beq	sp,a2,80002df8 <inst_343>
80002df4:	6510106f          	j	80004c44 <bad_trap>

80002df8 <inst_343>:
80002df8:	00600513          	li	a0,6
80002dfc:	333335b7          	lui	a1,0x33333
80002e00:	33258593          	addi	a1,a1,818 # 33333332 <offset+0x33333286>
80002e04:	00b52633          	slt	a2,a0,a1
80002e08:	4ec0a423          	sw	a2,1256(ra)
80002e0c:	00100113          	li	sp,1
80002e10:	00c10463          	beq	sp,a2,80002e18 <inst_344>
80002e14:	6310106f          	j	80004c44 <bad_trap>

80002e18 <inst_344>:
80002e18:	00600513          	li	a0,6
80002e1c:	666665b7          	lui	a1,0x66666
80002e20:	66558593          	addi	a1,a1,1637 # 66666665 <absimm+0x21374136>
80002e24:	00b52633          	slt	a2,a0,a1
80002e28:	4ec0a623          	sw	a2,1260(ra)
80002e2c:	00100113          	li	sp,1
80002e30:	00c10463          	beq	sp,a2,80002e38 <inst_345>
80002e34:	6110106f          	j	80004c44 <bad_trap>

80002e38 <inst_345>:
80002e38:	00600513          	li	a0,6
80002e3c:	0000b5b7          	lui	a1,0xb
80002e40:	50358593          	addi	a1,a1,1283 # b503 <offset+0xb457>
80002e44:	00b52633          	slt	a2,a0,a1
80002e48:	4ec0a823          	sw	a2,1264(ra)
80002e4c:	00100113          	li	sp,1
80002e50:	00c10463          	beq	sp,a2,80002e58 <inst_346>
80002e54:	5f10106f          	j	80004c44 <bad_trap>

80002e58 <inst_346>:
80002e58:	00600513          	li	a0,6
80002e5c:	555555b7          	lui	a1,0x55555
80002e60:	55658593          	addi	a1,a1,1366 # 55555556 <absimm+0x10263027>
80002e64:	00b52633          	slt	a2,a0,a1
80002e68:	4ec0aa23          	sw	a2,1268(ra)
80002e6c:	00100113          	li	sp,1
80002e70:	00c10463          	beq	sp,a2,80002e78 <inst_347>
80002e74:	5d10106f          	j	80004c44 <bad_trap>

80002e78 <inst_347>:
80002e78:	00600513          	li	a0,6
80002e7c:	aaaab5b7          	lui	a1,0xaaaab
80002e80:	aab58593          	addi	a1,a1,-1365 # aaaaaaab <imm12+0xaaaaafdb>
80002e84:	00b52633          	slt	a2,a0,a1
80002e88:	4ec0ac23          	sw	a2,1272(ra)
80002e8c:	00000113          	li	sp,0
80002e90:	00c10463          	beq	sp,a2,80002e98 <inst_348>
80002e94:	5b10106f          	j	80004c44 <bad_trap>

80002e98 <inst_348>:
80002e98:	00600513          	li	a0,6
80002e9c:	00600593          	li	a1,6
80002ea0:	00b52633          	slt	a2,a0,a1
80002ea4:	4ec0ae23          	sw	a2,1276(ra)
80002ea8:	00000113          	li	sp,0
80002eac:	00c10463          	beq	sp,a2,80002eb4 <inst_349>
80002eb0:	5950106f          	j	80004c44 <bad_trap>

80002eb4 <inst_349>:
80002eb4:	00600513          	li	a0,6
80002eb8:	333335b7          	lui	a1,0x33333
80002ebc:	33458593          	addi	a1,a1,820 # 33333334 <offset+0x33333288>
80002ec0:	00b52633          	slt	a2,a0,a1
80002ec4:	50c0a023          	sw	a2,1280(ra)
80002ec8:	00100113          	li	sp,1
80002ecc:	00c10463          	beq	sp,a2,80002ed4 <inst_350>
80002ed0:	5750106f          	j	80004c44 <bad_trap>

80002ed4 <inst_350>:
80002ed4:	00600513          	li	a0,6
80002ed8:	666665b7          	lui	a1,0x66666
80002edc:	66758593          	addi	a1,a1,1639 # 66666667 <absimm+0x21374138>
80002ee0:	00b52633          	slt	a2,a0,a1
80002ee4:	50c0a223          	sw	a2,1284(ra)
80002ee8:	00100113          	li	sp,1
80002eec:	00c10463          	beq	sp,a2,80002ef4 <inst_351>
80002ef0:	5550106f          	j	80004c44 <bad_trap>

80002ef4 <inst_351>:
80002ef4:	00600513          	li	a0,6
80002ef8:	ffff55b7          	lui	a1,0xffff5
80002efc:	afd58593          	addi	a1,a1,-1283 # ffff4afd <imm12+0xffff502d>
80002f00:	00b52633          	slt	a2,a0,a1
80002f04:	50c0a423          	sw	a2,1288(ra)
80002f08:	00000113          	li	sp,0
80002f0c:	00c10463          	beq	sp,a2,80002f14 <inst_352>
80002f10:	5350106f          	j	80004c44 <bad_trap>

80002f14 <inst_352>:
80002f14:	00600513          	li	a0,6
80002f18:	0000b5b7          	lui	a1,0xb
80002f1c:	50558593          	addi	a1,a1,1285 # b505 <offset+0xb459>
80002f20:	00b52633          	slt	a2,a0,a1
80002f24:	50c0a623          	sw	a2,1292(ra)
80002f28:	00100113          	li	sp,1
80002f2c:	00c10463          	beq	sp,a2,80002f34 <inst_353>
80002f30:	5150106f          	j	80004c44 <bad_trap>

80002f34 <inst_353>:
80002f34:	33333537          	lui	a0,0x33333
80002f38:	33450513          	addi	a0,a0,820 # 33333334 <offset+0x33333288>
80002f3c:	00300593          	li	a1,3
80002f40:	00b52633          	slt	a2,a0,a1
80002f44:	50c0a823          	sw	a2,1296(ra)
80002f48:	00000113          	li	sp,0
80002f4c:	00c10463          	beq	sp,a2,80002f54 <inst_354>
80002f50:	4f50106f          	j	80004c44 <bad_trap>

80002f54 <inst_354>:
80002f54:	33333537          	lui	a0,0x33333
80002f58:	33450513          	addi	a0,a0,820 # 33333334 <offset+0x33333288>
80002f5c:	555555b7          	lui	a1,0x55555
80002f60:	55558593          	addi	a1,a1,1365 # 55555555 <absimm+0x10263026>
80002f64:	00b52633          	slt	a2,a0,a1
80002f68:	50c0aa23          	sw	a2,1300(ra)
80002f6c:	00100113          	li	sp,1
80002f70:	00c10463          	beq	sp,a2,80002f78 <inst_355>
80002f74:	4d10106f          	j	80004c44 <bad_trap>

80002f78 <inst_355>:
80002f78:	33333537          	lui	a0,0x33333
80002f7c:	33450513          	addi	a0,a0,820 # 33333334 <offset+0x33333288>
80002f80:	aaaab5b7          	lui	a1,0xaaaab
80002f84:	aaa58593          	addi	a1,a1,-1366 # aaaaaaaa <imm12+0xaaaaafda>
80002f88:	00b52633          	slt	a2,a0,a1
80002f8c:	50c0ac23          	sw	a2,1304(ra)
80002f90:	00000113          	li	sp,0
80002f94:	00c10463          	beq	sp,a2,80002f9c <inst_356>
80002f98:	4ad0106f          	j	80004c44 <bad_trap>

80002f9c <inst_356>:
80002f9c:	33333537          	lui	a0,0x33333
80002fa0:	33450513          	addi	a0,a0,820 # 33333334 <offset+0x33333288>
80002fa4:	00500593          	li	a1,5
80002fa8:	00b52633          	slt	a2,a0,a1
80002fac:	50c0ae23          	sw	a2,1308(ra)
80002fb0:	00000113          	li	sp,0
80002fb4:	00c10463          	beq	sp,a2,80002fbc <inst_357>
80002fb8:	48d0106f          	j	80004c44 <bad_trap>

80002fbc <inst_357>:
80002fbc:	33333537          	lui	a0,0x33333
80002fc0:	33450513          	addi	a0,a0,820 # 33333334 <offset+0x33333288>
80002fc4:	333335b7          	lui	a1,0x33333
80002fc8:	33358593          	addi	a1,a1,819 # 33333333 <offset+0x33333287>
80002fcc:	00b52633          	slt	a2,a0,a1
80002fd0:	52c0a023          	sw	a2,1312(ra)
80002fd4:	00000113          	li	sp,0
80002fd8:	00c10463          	beq	sp,a2,80002fe0 <inst_358>
80002fdc:	4690106f          	j	80004c44 <bad_trap>

80002fe0 <inst_358>:
80002fe0:	33333537          	lui	a0,0x33333
80002fe4:	33450513          	addi	a0,a0,820 # 33333334 <offset+0x33333288>
80002fe8:	666665b7          	lui	a1,0x66666
80002fec:	66658593          	addi	a1,a1,1638 # 66666666 <absimm+0x21374137>
80002ff0:	00b52633          	slt	a2,a0,a1
80002ff4:	52c0a223          	sw	a2,1316(ra)
80002ff8:	00100113          	li	sp,1
80002ffc:	00c10463          	beq	sp,a2,80003004 <inst_359>
80003000:	4450106f          	j	80004c44 <bad_trap>

80003004 <inst_359>:
80003004:	33333537          	lui	a0,0x33333
80003008:	33450513          	addi	a0,a0,820 # 33333334 <offset+0x33333288>
8000300c:	ffff55b7          	lui	a1,0xffff5
80003010:	afc58593          	addi	a1,a1,-1284 # ffff4afc <imm12+0xffff502c>
80003014:	00b52633          	slt	a2,a0,a1
80003018:	52c0a423          	sw	a2,1320(ra)
8000301c:	00000113          	li	sp,0
80003020:	00c10463          	beq	sp,a2,80003028 <inst_360>
80003024:	4210106f          	j	80004c44 <bad_trap>

80003028 <inst_360>:
80003028:	33333537          	lui	a0,0x33333
8000302c:	33450513          	addi	a0,a0,820 # 33333334 <offset+0x33333288>
80003030:	0000b5b7          	lui	a1,0xb
80003034:	50458593          	addi	a1,a1,1284 # b504 <offset+0xb458>
80003038:	00b52633          	slt	a2,a0,a1
8000303c:	52c0a623          	sw	a2,1324(ra)
80003040:	00000113          	li	sp,0
80003044:	00c10463          	beq	sp,a2,8000304c <inst_361>
80003048:	3fd0106f          	j	80004c44 <bad_trap>

8000304c <inst_361>:
8000304c:	33333537          	lui	a0,0x33333
80003050:	33450513          	addi	a0,a0,820 # 33333334 <offset+0x33333288>
80003054:	00200593          	li	a1,2
80003058:	00b52633          	slt	a2,a0,a1
8000305c:	52c0a823          	sw	a2,1328(ra)
80003060:	00000113          	li	sp,0
80003064:	00c10463          	beq	sp,a2,8000306c <inst_362>
80003068:	3dd0106f          	j	80004c44 <bad_trap>

8000306c <inst_362>:
8000306c:	33333537          	lui	a0,0x33333
80003070:	33450513          	addi	a0,a0,820 # 33333334 <offset+0x33333288>
80003074:	555555b7          	lui	a1,0x55555
80003078:	55458593          	addi	a1,a1,1364 # 55555554 <absimm+0x10263025>
8000307c:	00b52633          	slt	a2,a0,a1
80003080:	52c0aa23          	sw	a2,1332(ra)
80003084:	00100113          	li	sp,1
80003088:	00c10463          	beq	sp,a2,80003090 <inst_363>
8000308c:	3b90106f          	j	80004c44 <bad_trap>

80003090 <inst_363>:
80003090:	33333537          	lui	a0,0x33333
80003094:	33450513          	addi	a0,a0,820 # 33333334 <offset+0x33333288>
80003098:	00000593          	li	a1,0
8000309c:	00b52633          	slt	a2,a0,a1
800030a0:	52c0ac23          	sw	a2,1336(ra)
800030a4:	00000113          	li	sp,0
800030a8:	00c10463          	beq	sp,a2,800030b0 <inst_364>
800030ac:	3990106f          	j	80004c44 <bad_trap>

800030b0 <inst_364>:
800030b0:	33333537          	lui	a0,0x33333
800030b4:	33450513          	addi	a0,a0,820 # 33333334 <offset+0x33333288>
800030b8:	00400593          	li	a1,4
800030bc:	00b52633          	slt	a2,a0,a1
800030c0:	52c0ae23          	sw	a2,1340(ra)
800030c4:	00000113          	li	sp,0
800030c8:	00c10463          	beq	sp,a2,800030d0 <inst_365>
800030cc:	3790106f          	j	80004c44 <bad_trap>

800030d0 <inst_365>:
800030d0:	33333537          	lui	a0,0x33333
800030d4:	33450513          	addi	a0,a0,820 # 33333334 <offset+0x33333288>
800030d8:	333335b7          	lui	a1,0x33333
800030dc:	33258593          	addi	a1,a1,818 # 33333332 <offset+0x33333286>
800030e0:	00b52633          	slt	a2,a0,a1
800030e4:	54c0a023          	sw	a2,1344(ra)
800030e8:	00000113          	li	sp,0
800030ec:	00c10463          	beq	sp,a2,800030f4 <inst_366>
800030f0:	3550106f          	j	80004c44 <bad_trap>

800030f4 <inst_366>:
800030f4:	33333537          	lui	a0,0x33333
800030f8:	33450513          	addi	a0,a0,820 # 33333334 <offset+0x33333288>
800030fc:	666665b7          	lui	a1,0x66666
80003100:	66558593          	addi	a1,a1,1637 # 66666665 <absimm+0x21374136>
80003104:	00b52633          	slt	a2,a0,a1
80003108:	54c0a223          	sw	a2,1348(ra)
8000310c:	00100113          	li	sp,1
80003110:	00c10463          	beq	sp,a2,80003118 <inst_367>
80003114:	3310106f          	j	80004c44 <bad_trap>

80003118 <inst_367>:
80003118:	33333537          	lui	a0,0x33333
8000311c:	33450513          	addi	a0,a0,820 # 33333334 <offset+0x33333288>
80003120:	0000b5b7          	lui	a1,0xb
80003124:	50358593          	addi	a1,a1,1283 # b503 <offset+0xb457>
80003128:	00b52633          	slt	a2,a0,a1
8000312c:	54c0a423          	sw	a2,1352(ra)
80003130:	00000113          	li	sp,0
80003134:	00c10463          	beq	sp,a2,8000313c <inst_368>
80003138:	30d0106f          	j	80004c44 <bad_trap>

8000313c <inst_368>:
8000313c:	33333537          	lui	a0,0x33333
80003140:	33450513          	addi	a0,a0,820 # 33333334 <offset+0x33333288>
80003144:	555555b7          	lui	a1,0x55555
80003148:	55658593          	addi	a1,a1,1366 # 55555556 <absimm+0x10263027>
8000314c:	00b52633          	slt	a2,a0,a1
80003150:	54c0a623          	sw	a2,1356(ra)
80003154:	00100113          	li	sp,1
80003158:	00c10463          	beq	sp,a2,80003160 <inst_369>
8000315c:	2e90106f          	j	80004c44 <bad_trap>

80003160 <inst_369>:
80003160:	33333537          	lui	a0,0x33333
80003164:	33450513          	addi	a0,a0,820 # 33333334 <offset+0x33333288>
80003168:	aaaab5b7          	lui	a1,0xaaaab
8000316c:	aab58593          	addi	a1,a1,-1365 # aaaaaaab <imm12+0xaaaaafdb>
80003170:	00b52633          	slt	a2,a0,a1
80003174:	54c0a823          	sw	a2,1360(ra)
80003178:	00000113          	li	sp,0
8000317c:	00c10463          	beq	sp,a2,80003184 <inst_370>
80003180:	2c50106f          	j	80004c44 <bad_trap>

80003184 <inst_370>:
80003184:	33333537          	lui	a0,0x33333
80003188:	33450513          	addi	a0,a0,820 # 33333334 <offset+0x33333288>
8000318c:	00600593          	li	a1,6
80003190:	00b52633          	slt	a2,a0,a1
80003194:	54c0aa23          	sw	a2,1364(ra)
80003198:	00000113          	li	sp,0
8000319c:	00c10463          	beq	sp,a2,800031a4 <inst_371>
800031a0:	2a50106f          	j	80004c44 <bad_trap>

800031a4 <inst_371>:
800031a4:	33333537          	lui	a0,0x33333
800031a8:	33450513          	addi	a0,a0,820 # 33333334 <offset+0x33333288>
800031ac:	333335b7          	lui	a1,0x33333
800031b0:	33458593          	addi	a1,a1,820 # 33333334 <offset+0x33333288>
800031b4:	00b52633          	slt	a2,a0,a1
800031b8:	54c0ac23          	sw	a2,1368(ra)
800031bc:	00000113          	li	sp,0
800031c0:	00c10463          	beq	sp,a2,800031c8 <inst_372>
800031c4:	2810106f          	j	80004c44 <bad_trap>

800031c8 <inst_372>:
800031c8:	33333537          	lui	a0,0x33333
800031cc:	33450513          	addi	a0,a0,820 # 33333334 <offset+0x33333288>
800031d0:	666665b7          	lui	a1,0x66666
800031d4:	66758593          	addi	a1,a1,1639 # 66666667 <absimm+0x21374138>
800031d8:	00b52633          	slt	a2,a0,a1
800031dc:	54c0ae23          	sw	a2,1372(ra)
800031e0:	00100113          	li	sp,1
800031e4:	00c10463          	beq	sp,a2,800031ec <inst_373>
800031e8:	25d0106f          	j	80004c44 <bad_trap>

800031ec <inst_373>:
800031ec:	33333537          	lui	a0,0x33333
800031f0:	33450513          	addi	a0,a0,820 # 33333334 <offset+0x33333288>
800031f4:	ffff55b7          	lui	a1,0xffff5
800031f8:	afd58593          	addi	a1,a1,-1283 # ffff4afd <imm12+0xffff502d>
800031fc:	00b52633          	slt	a2,a0,a1
80003200:	56c0a023          	sw	a2,1376(ra)
80003204:	00000113          	li	sp,0
80003208:	00c10463          	beq	sp,a2,80003210 <inst_374>
8000320c:	2390106f          	j	80004c44 <bad_trap>

80003210 <inst_374>:
80003210:	33333537          	lui	a0,0x33333
80003214:	33450513          	addi	a0,a0,820 # 33333334 <offset+0x33333288>
80003218:	0000b5b7          	lui	a1,0xb
8000321c:	50558593          	addi	a1,a1,1285 # b505 <offset+0xb459>
80003220:	00b52633          	slt	a2,a0,a1
80003224:	56c0a223          	sw	a2,1380(ra)
80003228:	00000113          	li	sp,0
8000322c:	00c10463          	beq	sp,a2,80003234 <inst_375>
80003230:	2150106f          	j	80004c44 <bad_trap>

80003234 <inst_375>:
80003234:	66666537          	lui	a0,0x66666
80003238:	66750513          	addi	a0,a0,1639 # 66666667 <absimm+0x21374138>
8000323c:	00300593          	li	a1,3
80003240:	00b52633          	slt	a2,a0,a1
80003244:	56c0a423          	sw	a2,1384(ra)
80003248:	00000113          	li	sp,0
8000324c:	00c10463          	beq	sp,a2,80003254 <inst_376>
80003250:	1f50106f          	j	80004c44 <bad_trap>

80003254 <inst_376>:
80003254:	66666537          	lui	a0,0x66666
80003258:	66750513          	addi	a0,a0,1639 # 66666667 <absimm+0x21374138>
8000325c:	555555b7          	lui	a1,0x55555
80003260:	55558593          	addi	a1,a1,1365 # 55555555 <absimm+0x10263026>
80003264:	00b52633          	slt	a2,a0,a1
80003268:	56c0a623          	sw	a2,1388(ra)
8000326c:	00000113          	li	sp,0
80003270:	00c10463          	beq	sp,a2,80003278 <inst_377>
80003274:	1d10106f          	j	80004c44 <bad_trap>

80003278 <inst_377>:
80003278:	66666537          	lui	a0,0x66666
8000327c:	66750513          	addi	a0,a0,1639 # 66666667 <absimm+0x21374138>
80003280:	aaaab5b7          	lui	a1,0xaaaab
80003284:	aaa58593          	addi	a1,a1,-1366 # aaaaaaaa <imm12+0xaaaaafda>
80003288:	00b52633          	slt	a2,a0,a1
8000328c:	56c0a823          	sw	a2,1392(ra)
80003290:	00000113          	li	sp,0
80003294:	00c10463          	beq	sp,a2,8000329c <inst_378>
80003298:	1ad0106f          	j	80004c44 <bad_trap>

8000329c <inst_378>:
8000329c:	66666537          	lui	a0,0x66666
800032a0:	66750513          	addi	a0,a0,1639 # 66666667 <absimm+0x21374138>
800032a4:	00500593          	li	a1,5
800032a8:	00b52633          	slt	a2,a0,a1
800032ac:	56c0aa23          	sw	a2,1396(ra)
800032b0:	00000113          	li	sp,0
800032b4:	00c10463          	beq	sp,a2,800032bc <inst_379>
800032b8:	18d0106f          	j	80004c44 <bad_trap>

800032bc <inst_379>:
800032bc:	66666537          	lui	a0,0x66666
800032c0:	66750513          	addi	a0,a0,1639 # 66666667 <absimm+0x21374138>
800032c4:	333335b7          	lui	a1,0x33333
800032c8:	33358593          	addi	a1,a1,819 # 33333333 <offset+0x33333287>
800032cc:	00b52633          	slt	a2,a0,a1
800032d0:	56c0ac23          	sw	a2,1400(ra)
800032d4:	00000113          	li	sp,0
800032d8:	00c10463          	beq	sp,a2,800032e0 <inst_380>
800032dc:	1690106f          	j	80004c44 <bad_trap>

800032e0 <inst_380>:
800032e0:	66666537          	lui	a0,0x66666
800032e4:	66750513          	addi	a0,a0,1639 # 66666667 <absimm+0x21374138>
800032e8:	666665b7          	lui	a1,0x66666
800032ec:	66658593          	addi	a1,a1,1638 # 66666666 <absimm+0x21374137>
800032f0:	00b52633          	slt	a2,a0,a1
800032f4:	56c0ae23          	sw	a2,1404(ra)
800032f8:	00000113          	li	sp,0
800032fc:	00c10463          	beq	sp,a2,80003304 <inst_381>
80003300:	1450106f          	j	80004c44 <bad_trap>

80003304 <inst_381>:
80003304:	66666537          	lui	a0,0x66666
80003308:	66750513          	addi	a0,a0,1639 # 66666667 <absimm+0x21374138>
8000330c:	ffff55b7          	lui	a1,0xffff5
80003310:	afc58593          	addi	a1,a1,-1284 # ffff4afc <imm12+0xffff502c>
80003314:	00b52633          	slt	a2,a0,a1
80003318:	58c0a023          	sw	a2,1408(ra)
8000331c:	00000113          	li	sp,0
80003320:	00c10463          	beq	sp,a2,80003328 <inst_382>
80003324:	1210106f          	j	80004c44 <bad_trap>

80003328 <inst_382>:
80003328:	66666537          	lui	a0,0x66666
8000332c:	66750513          	addi	a0,a0,1639 # 66666667 <absimm+0x21374138>
80003330:	0000b5b7          	lui	a1,0xb
80003334:	50458593          	addi	a1,a1,1284 # b504 <offset+0xb458>
80003338:	00b52633          	slt	a2,a0,a1
8000333c:	58c0a223          	sw	a2,1412(ra)
80003340:	00000113          	li	sp,0
80003344:	00c10463          	beq	sp,a2,8000334c <inst_383>
80003348:	0fd0106f          	j	80004c44 <bad_trap>

8000334c <inst_383>:
8000334c:	66666537          	lui	a0,0x66666
80003350:	66750513          	addi	a0,a0,1639 # 66666667 <absimm+0x21374138>
80003354:	00200593          	li	a1,2
80003358:	00b52633          	slt	a2,a0,a1
8000335c:	58c0a423          	sw	a2,1416(ra)
80003360:	00000113          	li	sp,0
80003364:	00c10463          	beq	sp,a2,8000336c <inst_384>
80003368:	0dd0106f          	j	80004c44 <bad_trap>

8000336c <inst_384>:
8000336c:	66666537          	lui	a0,0x66666
80003370:	66750513          	addi	a0,a0,1639 # 66666667 <absimm+0x21374138>
80003374:	555555b7          	lui	a1,0x55555
80003378:	55458593          	addi	a1,a1,1364 # 55555554 <absimm+0x10263025>
8000337c:	00b52633          	slt	a2,a0,a1
80003380:	58c0a623          	sw	a2,1420(ra)
80003384:	00000113          	li	sp,0
80003388:	00c10463          	beq	sp,a2,80003390 <inst_385>
8000338c:	0b90106f          	j	80004c44 <bad_trap>

80003390 <inst_385>:
80003390:	66666537          	lui	a0,0x66666
80003394:	66750513          	addi	a0,a0,1639 # 66666667 <absimm+0x21374138>
80003398:	00000593          	li	a1,0
8000339c:	00b52633          	slt	a2,a0,a1
800033a0:	58c0a823          	sw	a2,1424(ra)
800033a4:	00000113          	li	sp,0
800033a8:	00c10463          	beq	sp,a2,800033b0 <inst_386>
800033ac:	0990106f          	j	80004c44 <bad_trap>

800033b0 <inst_386>:
800033b0:	66666537          	lui	a0,0x66666
800033b4:	66750513          	addi	a0,a0,1639 # 66666667 <absimm+0x21374138>
800033b8:	00400593          	li	a1,4
800033bc:	00b52633          	slt	a2,a0,a1
800033c0:	58c0aa23          	sw	a2,1428(ra)
800033c4:	00000113          	li	sp,0
800033c8:	00c10463          	beq	sp,a2,800033d0 <inst_387>
800033cc:	0790106f          	j	80004c44 <bad_trap>

800033d0 <inst_387>:
800033d0:	66666537          	lui	a0,0x66666
800033d4:	66750513          	addi	a0,a0,1639 # 66666667 <absimm+0x21374138>
800033d8:	333335b7          	lui	a1,0x33333
800033dc:	33258593          	addi	a1,a1,818 # 33333332 <offset+0x33333286>
800033e0:	00b52633          	slt	a2,a0,a1
800033e4:	58c0ac23          	sw	a2,1432(ra)
800033e8:	00000113          	li	sp,0
800033ec:	00c10463          	beq	sp,a2,800033f4 <inst_388>
800033f0:	0550106f          	j	80004c44 <bad_trap>

800033f4 <inst_388>:
800033f4:	66666537          	lui	a0,0x66666
800033f8:	66750513          	addi	a0,a0,1639 # 66666667 <absimm+0x21374138>
800033fc:	666665b7          	lui	a1,0x66666
80003400:	66558593          	addi	a1,a1,1637 # 66666665 <absimm+0x21374136>
80003404:	00b52633          	slt	a2,a0,a1
80003408:	58c0ae23          	sw	a2,1436(ra)
8000340c:	00000113          	li	sp,0
80003410:	00c10463          	beq	sp,a2,80003418 <inst_389>
80003414:	0310106f          	j	80004c44 <bad_trap>

80003418 <inst_389>:
80003418:	66666537          	lui	a0,0x66666
8000341c:	66750513          	addi	a0,a0,1639 # 66666667 <absimm+0x21374138>
80003420:	0000b5b7          	lui	a1,0xb
80003424:	50358593          	addi	a1,a1,1283 # b503 <offset+0xb457>
80003428:	00b52633          	slt	a2,a0,a1
8000342c:	5ac0a023          	sw	a2,1440(ra)
80003430:	00000113          	li	sp,0
80003434:	00c10463          	beq	sp,a2,8000343c <inst_390>
80003438:	00d0106f          	j	80004c44 <bad_trap>

8000343c <inst_390>:
8000343c:	66666537          	lui	a0,0x66666
80003440:	66750513          	addi	a0,a0,1639 # 66666667 <absimm+0x21374138>
80003444:	555555b7          	lui	a1,0x55555
80003448:	55658593          	addi	a1,a1,1366 # 55555556 <absimm+0x10263027>
8000344c:	00b52633          	slt	a2,a0,a1
80003450:	5ac0a223          	sw	a2,1444(ra)
80003454:	00000113          	li	sp,0
80003458:	00c10463          	beq	sp,a2,80003460 <inst_391>
8000345c:	7e80106f          	j	80004c44 <bad_trap>

80003460 <inst_391>:
80003460:	66666537          	lui	a0,0x66666
80003464:	66750513          	addi	a0,a0,1639 # 66666667 <absimm+0x21374138>
80003468:	aaaab5b7          	lui	a1,0xaaaab
8000346c:	aab58593          	addi	a1,a1,-1365 # aaaaaaab <imm12+0xaaaaafdb>
80003470:	00b52633          	slt	a2,a0,a1
80003474:	5ac0a423          	sw	a2,1448(ra)
80003478:	00000113          	li	sp,0
8000347c:	00c10463          	beq	sp,a2,80003484 <inst_392>
80003480:	7c40106f          	j	80004c44 <bad_trap>

80003484 <inst_392>:
80003484:	66666537          	lui	a0,0x66666
80003488:	66750513          	addi	a0,a0,1639 # 66666667 <absimm+0x21374138>
8000348c:	00600593          	li	a1,6
80003490:	00b52633          	slt	a2,a0,a1
80003494:	5ac0a623          	sw	a2,1452(ra)
80003498:	00000113          	li	sp,0
8000349c:	00c10463          	beq	sp,a2,800034a4 <inst_393>
800034a0:	7a40106f          	j	80004c44 <bad_trap>

800034a4 <inst_393>:
800034a4:	66666537          	lui	a0,0x66666
800034a8:	66750513          	addi	a0,a0,1639 # 66666667 <absimm+0x21374138>
800034ac:	333335b7          	lui	a1,0x33333
800034b0:	33458593          	addi	a1,a1,820 # 33333334 <offset+0x33333288>
800034b4:	00b52633          	slt	a2,a0,a1
800034b8:	5ac0a823          	sw	a2,1456(ra)
800034bc:	00000113          	li	sp,0
800034c0:	00c10463          	beq	sp,a2,800034c8 <inst_394>
800034c4:	7800106f          	j	80004c44 <bad_trap>

800034c8 <inst_394>:
800034c8:	66666537          	lui	a0,0x66666
800034cc:	66750513          	addi	a0,a0,1639 # 66666667 <absimm+0x21374138>
800034d0:	ffff55b7          	lui	a1,0xffff5
800034d4:	afd58593          	addi	a1,a1,-1283 # ffff4afd <imm12+0xffff502d>
800034d8:	00b52633          	slt	a2,a0,a1
800034dc:	5ac0aa23          	sw	a2,1460(ra)
800034e0:	00000113          	li	sp,0
800034e4:	00c10463          	beq	sp,a2,800034ec <inst_395>
800034e8:	75c0106f          	j	80004c44 <bad_trap>

800034ec <inst_395>:
800034ec:	66666537          	lui	a0,0x66666
800034f0:	66750513          	addi	a0,a0,1639 # 66666667 <absimm+0x21374138>
800034f4:	0000b5b7          	lui	a1,0xb
800034f8:	50558593          	addi	a1,a1,1285 # b505 <offset+0xb459>
800034fc:	00b52633          	slt	a2,a0,a1
80003500:	5ac0ac23          	sw	a2,1464(ra)
80003504:	00000113          	li	sp,0
80003508:	00c10463          	beq	sp,a2,80003510 <inst_396>
8000350c:	7380106f          	j	80004c44 <bad_trap>

80003510 <inst_396>:
80003510:	ffff5537          	lui	a0,0xffff5
80003514:	afd50513          	addi	a0,a0,-1283 # ffff4afd <imm12+0xffff502d>
80003518:	00300593          	li	a1,3
8000351c:	00b52633          	slt	a2,a0,a1
80003520:	5ac0ae23          	sw	a2,1468(ra)
80003524:	00100113          	li	sp,1
80003528:	00c10463          	beq	sp,a2,80003530 <inst_397>
8000352c:	7180106f          	j	80004c44 <bad_trap>

80003530 <inst_397>:
80003530:	ffff5537          	lui	a0,0xffff5
80003534:	afd50513          	addi	a0,a0,-1283 # ffff4afd <imm12+0xffff502d>
80003538:	555555b7          	lui	a1,0x55555
8000353c:	55558593          	addi	a1,a1,1365 # 55555555 <absimm+0x10263026>
80003540:	00b52633          	slt	a2,a0,a1
80003544:	5cc0a023          	sw	a2,1472(ra)
80003548:	00100113          	li	sp,1
8000354c:	00c10463          	beq	sp,a2,80003554 <inst_398>
80003550:	6f40106f          	j	80004c44 <bad_trap>

80003554 <inst_398>:
80003554:	ffff5537          	lui	a0,0xffff5
80003558:	afd50513          	addi	a0,a0,-1283 # ffff4afd <imm12+0xffff502d>
8000355c:	aaaab5b7          	lui	a1,0xaaaab
80003560:	aaa58593          	addi	a1,a1,-1366 # aaaaaaaa <imm12+0xaaaaafda>
80003564:	00b52633          	slt	a2,a0,a1
80003568:	5cc0a223          	sw	a2,1476(ra)
8000356c:	00000113          	li	sp,0
80003570:	00c10463          	beq	sp,a2,80003578 <inst_399>
80003574:	6d00106f          	j	80004c44 <bad_trap>

80003578 <inst_399>:
80003578:	ffff5537          	lui	a0,0xffff5
8000357c:	afd50513          	addi	a0,a0,-1283 # ffff4afd <imm12+0xffff502d>
80003580:	00500593          	li	a1,5
80003584:	00b52633          	slt	a2,a0,a1
80003588:	5cc0a423          	sw	a2,1480(ra)
8000358c:	00100113          	li	sp,1
80003590:	00c10463          	beq	sp,a2,80003598 <inst_400>
80003594:	6b00106f          	j	80004c44 <bad_trap>

80003598 <inst_400>:
80003598:	ffff5537          	lui	a0,0xffff5
8000359c:	afd50513          	addi	a0,a0,-1283 # ffff4afd <imm12+0xffff502d>
800035a0:	333335b7          	lui	a1,0x33333
800035a4:	33358593          	addi	a1,a1,819 # 33333333 <offset+0x33333287>
800035a8:	00b52633          	slt	a2,a0,a1
800035ac:	5cc0a623          	sw	a2,1484(ra)
800035b0:	00100113          	li	sp,1
800035b4:	00c10463          	beq	sp,a2,800035bc <inst_401>
800035b8:	68c0106f          	j	80004c44 <bad_trap>

800035bc <inst_401>:
800035bc:	ffff5537          	lui	a0,0xffff5
800035c0:	afd50513          	addi	a0,a0,-1283 # ffff4afd <imm12+0xffff502d>
800035c4:	666665b7          	lui	a1,0x66666
800035c8:	66658593          	addi	a1,a1,1638 # 66666666 <absimm+0x21374137>
800035cc:	00b52633          	slt	a2,a0,a1
800035d0:	5cc0a823          	sw	a2,1488(ra)
800035d4:	00100113          	li	sp,1
800035d8:	00c10463          	beq	sp,a2,800035e0 <inst_402>
800035dc:	6680106f          	j	80004c44 <bad_trap>

800035e0 <inst_402>:
800035e0:	ffff5537          	lui	a0,0xffff5
800035e4:	afd50513          	addi	a0,a0,-1283 # ffff4afd <imm12+0xffff502d>
800035e8:	ffff55b7          	lui	a1,0xffff5
800035ec:	afc58593          	addi	a1,a1,-1284 # ffff4afc <imm12+0xffff502c>
800035f0:	00b52633          	slt	a2,a0,a1
800035f4:	5cc0aa23          	sw	a2,1492(ra)
800035f8:	00000113          	li	sp,0
800035fc:	00c10463          	beq	sp,a2,80003604 <inst_403>
80003600:	6440106f          	j	80004c44 <bad_trap>

80003604 <inst_403>:
80003604:	ffff5537          	lui	a0,0xffff5
80003608:	afd50513          	addi	a0,a0,-1283 # ffff4afd <imm12+0xffff502d>
8000360c:	0000b5b7          	lui	a1,0xb
80003610:	50458593          	addi	a1,a1,1284 # b504 <offset+0xb458>
80003614:	00b52633          	slt	a2,a0,a1
80003618:	5cc0ac23          	sw	a2,1496(ra)
8000361c:	00100113          	li	sp,1
80003620:	00c10463          	beq	sp,a2,80003628 <inst_404>
80003624:	6200106f          	j	80004c44 <bad_trap>

80003628 <inst_404>:
80003628:	ffff5537          	lui	a0,0xffff5
8000362c:	afd50513          	addi	a0,a0,-1283 # ffff4afd <imm12+0xffff502d>
80003630:	00200593          	li	a1,2
80003634:	00b52633          	slt	a2,a0,a1
80003638:	5cc0ae23          	sw	a2,1500(ra)
8000363c:	00100113          	li	sp,1
80003640:	00c10463          	beq	sp,a2,80003648 <inst_405>
80003644:	6000106f          	j	80004c44 <bad_trap>

80003648 <inst_405>:
80003648:	ffff5537          	lui	a0,0xffff5
8000364c:	afd50513          	addi	a0,a0,-1283 # ffff4afd <imm12+0xffff502d>
80003650:	555555b7          	lui	a1,0x55555
80003654:	55458593          	addi	a1,a1,1364 # 55555554 <absimm+0x10263025>
80003658:	00b52633          	slt	a2,a0,a1
8000365c:	5ec0a023          	sw	a2,1504(ra)
80003660:	00100113          	li	sp,1
80003664:	00c10463          	beq	sp,a2,8000366c <inst_406>
80003668:	5dc0106f          	j	80004c44 <bad_trap>

8000366c <inst_406>:
8000366c:	ffff5537          	lui	a0,0xffff5
80003670:	afd50513          	addi	a0,a0,-1283 # ffff4afd <imm12+0xffff502d>
80003674:	00000593          	li	a1,0
80003678:	00b52633          	slt	a2,a0,a1
8000367c:	5ec0a223          	sw	a2,1508(ra)
80003680:	00100113          	li	sp,1
80003684:	00c10463          	beq	sp,a2,8000368c <inst_407>
80003688:	5bc0106f          	j	80004c44 <bad_trap>

8000368c <inst_407>:
8000368c:	ffff5537          	lui	a0,0xffff5
80003690:	afd50513          	addi	a0,a0,-1283 # ffff4afd <imm12+0xffff502d>
80003694:	00400593          	li	a1,4
80003698:	00b52633          	slt	a2,a0,a1
8000369c:	5ec0a423          	sw	a2,1512(ra)
800036a0:	00100113          	li	sp,1
800036a4:	00c10463          	beq	sp,a2,800036ac <inst_408>
800036a8:	59c0106f          	j	80004c44 <bad_trap>

800036ac <inst_408>:
800036ac:	ffff5537          	lui	a0,0xffff5
800036b0:	afd50513          	addi	a0,a0,-1283 # ffff4afd <imm12+0xffff502d>
800036b4:	333335b7          	lui	a1,0x33333
800036b8:	33258593          	addi	a1,a1,818 # 33333332 <offset+0x33333286>
800036bc:	00b52633          	slt	a2,a0,a1
800036c0:	5ec0a623          	sw	a2,1516(ra)
800036c4:	00100113          	li	sp,1
800036c8:	00c10463          	beq	sp,a2,800036d0 <inst_409>
800036cc:	5780106f          	j	80004c44 <bad_trap>

800036d0 <inst_409>:
800036d0:	ffff5537          	lui	a0,0xffff5
800036d4:	afd50513          	addi	a0,a0,-1283 # ffff4afd <imm12+0xffff502d>
800036d8:	666665b7          	lui	a1,0x66666
800036dc:	66558593          	addi	a1,a1,1637 # 66666665 <absimm+0x21374136>
800036e0:	00b52633          	slt	a2,a0,a1
800036e4:	5ec0a823          	sw	a2,1520(ra)
800036e8:	00100113          	li	sp,1
800036ec:	00c10463          	beq	sp,a2,800036f4 <inst_410>
800036f0:	5540106f          	j	80004c44 <bad_trap>

800036f4 <inst_410>:
800036f4:	ffff5537          	lui	a0,0xffff5
800036f8:	afd50513          	addi	a0,a0,-1283 # ffff4afd <imm12+0xffff502d>
800036fc:	0000b5b7          	lui	a1,0xb
80003700:	50358593          	addi	a1,a1,1283 # b503 <offset+0xb457>
80003704:	00b52633          	slt	a2,a0,a1
80003708:	5ec0aa23          	sw	a2,1524(ra)
8000370c:	00100113          	li	sp,1
80003710:	00c10463          	beq	sp,a2,80003718 <inst_411>
80003714:	5300106f          	j	80004c44 <bad_trap>

80003718 <inst_411>:
80003718:	ffff5537          	lui	a0,0xffff5
8000371c:	afd50513          	addi	a0,a0,-1283 # ffff4afd <imm12+0xffff502d>
80003720:	555555b7          	lui	a1,0x55555
80003724:	55658593          	addi	a1,a1,1366 # 55555556 <absimm+0x10263027>
80003728:	00b52633          	slt	a2,a0,a1
8000372c:	5ec0ac23          	sw	a2,1528(ra)
80003730:	00100113          	li	sp,1
80003734:	00c10463          	beq	sp,a2,8000373c <inst_412>
80003738:	50c0106f          	j	80004c44 <bad_trap>

8000373c <inst_412>:
8000373c:	ffff5537          	lui	a0,0xffff5
80003740:	afd50513          	addi	a0,a0,-1283 # ffff4afd <imm12+0xffff502d>
80003744:	aaaab5b7          	lui	a1,0xaaaab
80003748:	aab58593          	addi	a1,a1,-1365 # aaaaaaab <imm12+0xaaaaafdb>
8000374c:	00b52633          	slt	a2,a0,a1
80003750:	5ec0ae23          	sw	a2,1532(ra)
80003754:	00000113          	li	sp,0
80003758:	00c10463          	beq	sp,a2,80003760 <inst_413>
8000375c:	4e80106f          	j	80004c44 <bad_trap>

80003760 <inst_413>:
80003760:	ffff5537          	lui	a0,0xffff5
80003764:	afd50513          	addi	a0,a0,-1283 # ffff4afd <imm12+0xffff502d>
80003768:	00600593          	li	a1,6
8000376c:	00b52633          	slt	a2,a0,a1
80003770:	60c0a023          	sw	a2,1536(ra)
80003774:	00100113          	li	sp,1
80003778:	00c10463          	beq	sp,a2,80003780 <inst_414>
8000377c:	4c80106f          	j	80004c44 <bad_trap>

80003780 <inst_414>:
80003780:	ffff5537          	lui	a0,0xffff5
80003784:	afd50513          	addi	a0,a0,-1283 # ffff4afd <imm12+0xffff502d>
80003788:	333335b7          	lui	a1,0x33333
8000378c:	33458593          	addi	a1,a1,820 # 33333334 <offset+0x33333288>
80003790:	00b52633          	slt	a2,a0,a1
80003794:	60c0a223          	sw	a2,1540(ra)
80003798:	00100113          	li	sp,1
8000379c:	00c10463          	beq	sp,a2,800037a4 <inst_415>
800037a0:	4a40106f          	j	80004c44 <bad_trap>

800037a4 <inst_415>:
800037a4:	ffff5537          	lui	a0,0xffff5
800037a8:	afd50513          	addi	a0,a0,-1283 # ffff4afd <imm12+0xffff502d>
800037ac:	666665b7          	lui	a1,0x66666
800037b0:	66758593          	addi	a1,a1,1639 # 66666667 <absimm+0x21374138>
800037b4:	00b52633          	slt	a2,a0,a1
800037b8:	60c0a423          	sw	a2,1544(ra)
800037bc:	00100113          	li	sp,1
800037c0:	00c10463          	beq	sp,a2,800037c8 <inst_416>
800037c4:	4800106f          	j	80004c44 <bad_trap>

800037c8 <inst_416>:
800037c8:	ffff5537          	lui	a0,0xffff5
800037cc:	afd50513          	addi	a0,a0,-1283 # ffff4afd <imm12+0xffff502d>
800037d0:	ffff55b7          	lui	a1,0xffff5
800037d4:	afd58593          	addi	a1,a1,-1283 # ffff4afd <imm12+0xffff502d>
800037d8:	00b52633          	slt	a2,a0,a1
800037dc:	60c0a623          	sw	a2,1548(ra)
800037e0:	00000113          	li	sp,0
800037e4:	00c10463          	beq	sp,a2,800037ec <inst_417>
800037e8:	45c0106f          	j	80004c44 <bad_trap>

800037ec <inst_417>:
800037ec:	ffff5537          	lui	a0,0xffff5
800037f0:	afd50513          	addi	a0,a0,-1283 # ffff4afd <imm12+0xffff502d>
800037f4:	0000b5b7          	lui	a1,0xb
800037f8:	50558593          	addi	a1,a1,1285 # b505 <offset+0xb459>
800037fc:	00b52633          	slt	a2,a0,a1
80003800:	60c0a823          	sw	a2,1552(ra)
80003804:	00100113          	li	sp,1
80003808:	00c10463          	beq	sp,a2,80003810 <inst_418>
8000380c:	4380106f          	j	80004c44 <bad_trap>

80003810 <inst_418>:
80003810:	0000b537          	lui	a0,0xb
80003814:	50550513          	addi	a0,a0,1285 # b505 <offset+0xb459>
80003818:	00300593          	li	a1,3
8000381c:	00b52633          	slt	a2,a0,a1
80003820:	60c0aa23          	sw	a2,1556(ra)
80003824:	00000113          	li	sp,0
80003828:	00c10463          	beq	sp,a2,80003830 <inst_419>
8000382c:	4180106f          	j	80004c44 <bad_trap>

80003830 <inst_419>:
80003830:	0000b537          	lui	a0,0xb
80003834:	50550513          	addi	a0,a0,1285 # b505 <offset+0xb459>
80003838:	555555b7          	lui	a1,0x55555
8000383c:	55558593          	addi	a1,a1,1365 # 55555555 <absimm+0x10263026>
80003840:	00b52633          	slt	a2,a0,a1
80003844:	60c0ac23          	sw	a2,1560(ra)
80003848:	00100113          	li	sp,1
8000384c:	00c10463          	beq	sp,a2,80003854 <inst_420>
80003850:	3f40106f          	j	80004c44 <bad_trap>

80003854 <inst_420>:
80003854:	0000b537          	lui	a0,0xb
80003858:	50550513          	addi	a0,a0,1285 # b505 <offset+0xb459>
8000385c:	aaaab5b7          	lui	a1,0xaaaab
80003860:	aaa58593          	addi	a1,a1,-1366 # aaaaaaaa <imm12+0xaaaaafda>
80003864:	00b52633          	slt	a2,a0,a1
80003868:	60c0ae23          	sw	a2,1564(ra)
8000386c:	00000113          	li	sp,0
80003870:	00c10463          	beq	sp,a2,80003878 <inst_421>
80003874:	3d00106f          	j	80004c44 <bad_trap>

80003878 <inst_421>:
80003878:	0000b537          	lui	a0,0xb
8000387c:	50550513          	addi	a0,a0,1285 # b505 <offset+0xb459>
80003880:	00500593          	li	a1,5
80003884:	00b52633          	slt	a2,a0,a1
80003888:	62c0a023          	sw	a2,1568(ra)
8000388c:	00000113          	li	sp,0
80003890:	00c10463          	beq	sp,a2,80003898 <inst_422>
80003894:	3b00106f          	j	80004c44 <bad_trap>

80003898 <inst_422>:
80003898:	0000b537          	lui	a0,0xb
8000389c:	50550513          	addi	a0,a0,1285 # b505 <offset+0xb459>
800038a0:	333335b7          	lui	a1,0x33333
800038a4:	33358593          	addi	a1,a1,819 # 33333333 <offset+0x33333287>
800038a8:	00b52633          	slt	a2,a0,a1
800038ac:	62c0a223          	sw	a2,1572(ra)
800038b0:	00100113          	li	sp,1
800038b4:	00c10463          	beq	sp,a2,800038bc <inst_423>
800038b8:	38c0106f          	j	80004c44 <bad_trap>

800038bc <inst_423>:
800038bc:	0000b537          	lui	a0,0xb
800038c0:	50550513          	addi	a0,a0,1285 # b505 <offset+0xb459>
800038c4:	666665b7          	lui	a1,0x66666
800038c8:	66658593          	addi	a1,a1,1638 # 66666666 <absimm+0x21374137>
800038cc:	00b52633          	slt	a2,a0,a1
800038d0:	62c0a423          	sw	a2,1576(ra)
800038d4:	00100113          	li	sp,1
800038d8:	00c10463          	beq	sp,a2,800038e0 <inst_424>
800038dc:	3680106f          	j	80004c44 <bad_trap>

800038e0 <inst_424>:
800038e0:	0000b537          	lui	a0,0xb
800038e4:	50550513          	addi	a0,a0,1285 # b505 <offset+0xb459>
800038e8:	ffff55b7          	lui	a1,0xffff5
800038ec:	afc58593          	addi	a1,a1,-1284 # ffff4afc <imm12+0xffff502c>
800038f0:	00b52633          	slt	a2,a0,a1
800038f4:	62c0a623          	sw	a2,1580(ra)
800038f8:	00000113          	li	sp,0
800038fc:	00c10463          	beq	sp,a2,80003904 <inst_425>
80003900:	3440106f          	j	80004c44 <bad_trap>

80003904 <inst_425>:
80003904:	0000b537          	lui	a0,0xb
80003908:	50550513          	addi	a0,a0,1285 # b505 <offset+0xb459>
8000390c:	0000b5b7          	lui	a1,0xb
80003910:	50458593          	addi	a1,a1,1284 # b504 <offset+0xb458>
80003914:	00b52633          	slt	a2,a0,a1
80003918:	62c0a823          	sw	a2,1584(ra)
8000391c:	00000113          	li	sp,0
80003920:	00c10463          	beq	sp,a2,80003928 <inst_426>
80003924:	3200106f          	j	80004c44 <bad_trap>

80003928 <inst_426>:
80003928:	0000b537          	lui	a0,0xb
8000392c:	50550513          	addi	a0,a0,1285 # b505 <offset+0xb459>
80003930:	00200593          	li	a1,2
80003934:	00b52633          	slt	a2,a0,a1
80003938:	62c0aa23          	sw	a2,1588(ra)
8000393c:	00000113          	li	sp,0
80003940:	00c10463          	beq	sp,a2,80003948 <inst_427>
80003944:	3000106f          	j	80004c44 <bad_trap>

80003948 <inst_427>:
80003948:	0000b537          	lui	a0,0xb
8000394c:	50550513          	addi	a0,a0,1285 # b505 <offset+0xb459>
80003950:	555555b7          	lui	a1,0x55555
80003954:	55458593          	addi	a1,a1,1364 # 55555554 <absimm+0x10263025>
80003958:	00b52633          	slt	a2,a0,a1
8000395c:	62c0ac23          	sw	a2,1592(ra)
80003960:	00100113          	li	sp,1
80003964:	00c10463          	beq	sp,a2,8000396c <inst_428>
80003968:	2dc0106f          	j	80004c44 <bad_trap>

8000396c <inst_428>:
8000396c:	0000b537          	lui	a0,0xb
80003970:	50550513          	addi	a0,a0,1285 # b505 <offset+0xb459>
80003974:	00000593          	li	a1,0
80003978:	00b52633          	slt	a2,a0,a1
8000397c:	62c0ae23          	sw	a2,1596(ra)
80003980:	00000113          	li	sp,0
80003984:	00c10463          	beq	sp,a2,8000398c <inst_429>
80003988:	2bc0106f          	j	80004c44 <bad_trap>

8000398c <inst_429>:
8000398c:	0000b537          	lui	a0,0xb
80003990:	50550513          	addi	a0,a0,1285 # b505 <offset+0xb459>
80003994:	00400593          	li	a1,4
80003998:	00b52633          	slt	a2,a0,a1
8000399c:	64c0a023          	sw	a2,1600(ra)
800039a0:	00000113          	li	sp,0
800039a4:	00c10463          	beq	sp,a2,800039ac <inst_430>
800039a8:	29c0106f          	j	80004c44 <bad_trap>

800039ac <inst_430>:
800039ac:	0000b537          	lui	a0,0xb
800039b0:	50550513          	addi	a0,a0,1285 # b505 <offset+0xb459>
800039b4:	333335b7          	lui	a1,0x33333
800039b8:	33258593          	addi	a1,a1,818 # 33333332 <offset+0x33333286>
800039bc:	00b52633          	slt	a2,a0,a1
800039c0:	64c0a223          	sw	a2,1604(ra)
800039c4:	00100113          	li	sp,1
800039c8:	00c10463          	beq	sp,a2,800039d0 <inst_431>
800039cc:	2780106f          	j	80004c44 <bad_trap>

800039d0 <inst_431>:
800039d0:	0000b537          	lui	a0,0xb
800039d4:	50550513          	addi	a0,a0,1285 # b505 <offset+0xb459>
800039d8:	666665b7          	lui	a1,0x66666
800039dc:	66558593          	addi	a1,a1,1637 # 66666665 <absimm+0x21374136>
800039e0:	00b52633          	slt	a2,a0,a1
800039e4:	64c0a423          	sw	a2,1608(ra)
800039e8:	00100113          	li	sp,1
800039ec:	00c10463          	beq	sp,a2,800039f4 <inst_432>
800039f0:	2540106f          	j	80004c44 <bad_trap>

800039f4 <inst_432>:
800039f4:	0000b537          	lui	a0,0xb
800039f8:	50550513          	addi	a0,a0,1285 # b505 <offset+0xb459>
800039fc:	0000b5b7          	lui	a1,0xb
80003a00:	50358593          	addi	a1,a1,1283 # b503 <offset+0xb457>
80003a04:	00b52633          	slt	a2,a0,a1
80003a08:	64c0a623          	sw	a2,1612(ra)
80003a0c:	00000113          	li	sp,0
80003a10:	00c10463          	beq	sp,a2,80003a18 <inst_433>
80003a14:	2300106f          	j	80004c44 <bad_trap>

80003a18 <inst_433>:
80003a18:	0000b537          	lui	a0,0xb
80003a1c:	50550513          	addi	a0,a0,1285 # b505 <offset+0xb459>
80003a20:	555555b7          	lui	a1,0x55555
80003a24:	55658593          	addi	a1,a1,1366 # 55555556 <absimm+0x10263027>
80003a28:	00b52633          	slt	a2,a0,a1
80003a2c:	64c0a823          	sw	a2,1616(ra)
80003a30:	00100113          	li	sp,1
80003a34:	00c10463          	beq	sp,a2,80003a3c <inst_434>
80003a38:	20c0106f          	j	80004c44 <bad_trap>

80003a3c <inst_434>:
80003a3c:	0000b537          	lui	a0,0xb
80003a40:	50550513          	addi	a0,a0,1285 # b505 <offset+0xb459>
80003a44:	aaaab5b7          	lui	a1,0xaaaab
80003a48:	aab58593          	addi	a1,a1,-1365 # aaaaaaab <imm12+0xaaaaafdb>
80003a4c:	00b52633          	slt	a2,a0,a1
80003a50:	64c0aa23          	sw	a2,1620(ra)
80003a54:	00000113          	li	sp,0
80003a58:	00c10463          	beq	sp,a2,80003a60 <inst_435>
80003a5c:	1e80106f          	j	80004c44 <bad_trap>

80003a60 <inst_435>:
80003a60:	0000b537          	lui	a0,0xb
80003a64:	50550513          	addi	a0,a0,1285 # b505 <offset+0xb459>
80003a68:	00600593          	li	a1,6
80003a6c:	00b52633          	slt	a2,a0,a1
80003a70:	64c0ac23          	sw	a2,1624(ra)
80003a74:	00000113          	li	sp,0
80003a78:	00c10463          	beq	sp,a2,80003a80 <inst_436>
80003a7c:	1c80106f          	j	80004c44 <bad_trap>

80003a80 <inst_436>:
80003a80:	0000b537          	lui	a0,0xb
80003a84:	50550513          	addi	a0,a0,1285 # b505 <offset+0xb459>
80003a88:	333335b7          	lui	a1,0x33333
80003a8c:	33458593          	addi	a1,a1,820 # 33333334 <offset+0x33333288>
80003a90:	00b52633          	slt	a2,a0,a1
80003a94:	64c0ae23          	sw	a2,1628(ra)
80003a98:	00100113          	li	sp,1
80003a9c:	00c10463          	beq	sp,a2,80003aa4 <inst_437>
80003aa0:	1a40106f          	j	80004c44 <bad_trap>

80003aa4 <inst_437>:
80003aa4:	0000b537          	lui	a0,0xb
80003aa8:	50550513          	addi	a0,a0,1285 # b505 <offset+0xb459>
80003aac:	666665b7          	lui	a1,0x66666
80003ab0:	66758593          	addi	a1,a1,1639 # 66666667 <absimm+0x21374138>
80003ab4:	00b52633          	slt	a2,a0,a1
80003ab8:	66c0a023          	sw	a2,1632(ra)
80003abc:	00100113          	li	sp,1
80003ac0:	00c10463          	beq	sp,a2,80003ac8 <inst_438>
80003ac4:	1800106f          	j	80004c44 <bad_trap>

80003ac8 <inst_438>:
80003ac8:	0000b537          	lui	a0,0xb
80003acc:	50550513          	addi	a0,a0,1285 # b505 <offset+0xb459>
80003ad0:	ffff55b7          	lui	a1,0xffff5
80003ad4:	afd58593          	addi	a1,a1,-1283 # ffff4afd <imm12+0xffff502d>
80003ad8:	00b52633          	slt	a2,a0,a1
80003adc:	66c0a223          	sw	a2,1636(ra)
80003ae0:	00000113          	li	sp,0
80003ae4:	00c10463          	beq	sp,a2,80003aec <inst_439>
80003ae8:	15c0106f          	j	80004c44 <bad_trap>

80003aec <inst_439>:
80003aec:	0000b537          	lui	a0,0xb
80003af0:	50550513          	addi	a0,a0,1285 # b505 <offset+0xb459>
80003af4:	0000b5b7          	lui	a1,0xb
80003af8:	50558593          	addi	a1,a1,1285 # b505 <offset+0xb459>
80003afc:	00b52633          	slt	a2,a0,a1
80003b00:	66c0a423          	sw	a2,1640(ra)
80003b04:	00000113          	li	sp,0
80003b08:	00c10463          	beq	sp,a2,80003b10 <inst_440>
80003b0c:	1380106f          	j	80004c44 <bad_trap>

80003b10 <inst_440>:
80003b10:	00000513          	li	a0,0
80003b14:	00200593          	li	a1,2
80003b18:	00b52633          	slt	a2,a0,a1
80003b1c:	66c0a623          	sw	a2,1644(ra)
80003b20:	00100113          	li	sp,1
80003b24:	00c10463          	beq	sp,a2,80003b2c <inst_441>
80003b28:	11c0106f          	j	80004c44 <bad_trap>

80003b2c <inst_441>:
80003b2c:	00000513          	li	a0,0
80003b30:	555555b7          	lui	a1,0x55555
80003b34:	55458593          	addi	a1,a1,1364 # 55555554 <absimm+0x10263025>
80003b38:	00b52633          	slt	a2,a0,a1
80003b3c:	66c0a823          	sw	a2,1648(ra)
80003b40:	00100113          	li	sp,1
80003b44:	00c10463          	beq	sp,a2,80003b4c <inst_442>
80003b48:	0fc0106f          	j	80004c44 <bad_trap>

80003b4c <inst_442>:
80003b4c:	00000513          	li	a0,0
80003b50:	00000593          	li	a1,0
80003b54:	00b52633          	slt	a2,a0,a1
80003b58:	66c0aa23          	sw	a2,1652(ra)
80003b5c:	00000113          	li	sp,0
80003b60:	00c10463          	beq	sp,a2,80003b68 <inst_443>
80003b64:	0e00106f          	j	80004c44 <bad_trap>

80003b68 <inst_443>:
80003b68:	00000513          	li	a0,0
80003b6c:	00400593          	li	a1,4
80003b70:	00b52633          	slt	a2,a0,a1
80003b74:	66c0ac23          	sw	a2,1656(ra)
80003b78:	00100113          	li	sp,1
80003b7c:	00c10463          	beq	sp,a2,80003b84 <inst_444>
80003b80:	0c40106f          	j	80004c44 <bad_trap>

80003b84 <inst_444>:
80003b84:	00000513          	li	a0,0
80003b88:	333335b7          	lui	a1,0x33333
80003b8c:	33258593          	addi	a1,a1,818 # 33333332 <offset+0x33333286>
80003b90:	00b52633          	slt	a2,a0,a1
80003b94:	66c0ae23          	sw	a2,1660(ra)
80003b98:	00100113          	li	sp,1
80003b9c:	00c10463          	beq	sp,a2,80003ba4 <inst_445>
80003ba0:	0a40106f          	j	80004c44 <bad_trap>

80003ba4 <inst_445>:
80003ba4:	00000513          	li	a0,0
80003ba8:	666665b7          	lui	a1,0x66666
80003bac:	66558593          	addi	a1,a1,1637 # 66666665 <absimm+0x21374136>
80003bb0:	00b52633          	slt	a2,a0,a1
80003bb4:	68c0a023          	sw	a2,1664(ra)
80003bb8:	00100113          	li	sp,1
80003bbc:	00c10463          	beq	sp,a2,80003bc4 <inst_446>
80003bc0:	0840106f          	j	80004c44 <bad_trap>

80003bc4 <inst_446>:
80003bc4:	00000513          	li	a0,0
80003bc8:	0000b5b7          	lui	a1,0xb
80003bcc:	50358593          	addi	a1,a1,1283 # b503 <offset+0xb457>
80003bd0:	00b52633          	slt	a2,a0,a1
80003bd4:	68c0a223          	sw	a2,1668(ra)
80003bd8:	00100113          	li	sp,1
80003bdc:	00c10463          	beq	sp,a2,80003be4 <inst_447>
80003be0:	0640106f          	j	80004c44 <bad_trap>

80003be4 <inst_447>:
80003be4:	00000513          	li	a0,0
80003be8:	555555b7          	lui	a1,0x55555
80003bec:	55658593          	addi	a1,a1,1366 # 55555556 <absimm+0x10263027>
80003bf0:	00b52633          	slt	a2,a0,a1
80003bf4:	68c0a423          	sw	a2,1672(ra)
80003bf8:	00100113          	li	sp,1
80003bfc:	00c10463          	beq	sp,a2,80003c04 <inst_448>
80003c00:	0440106f          	j	80004c44 <bad_trap>

80003c04 <inst_448>:
80003c04:	00000513          	li	a0,0
80003c08:	aaaab5b7          	lui	a1,0xaaaab
80003c0c:	aab58593          	addi	a1,a1,-1365 # aaaaaaab <imm12+0xaaaaafdb>
80003c10:	00b52633          	slt	a2,a0,a1
80003c14:	68c0a623          	sw	a2,1676(ra)
80003c18:	00000113          	li	sp,0
80003c1c:	00c10463          	beq	sp,a2,80003c24 <inst_449>
80003c20:	0240106f          	j	80004c44 <bad_trap>

80003c24 <inst_449>:
80003c24:	00000513          	li	a0,0
80003c28:	00600593          	li	a1,6
80003c2c:	00b52633          	slt	a2,a0,a1
80003c30:	68c0a823          	sw	a2,1680(ra)
80003c34:	00100113          	li	sp,1
80003c38:	00c10463          	beq	sp,a2,80003c40 <inst_450>
80003c3c:	0080106f          	j	80004c44 <bad_trap>

80003c40 <inst_450>:
80003c40:	00000513          	li	a0,0
80003c44:	333335b7          	lui	a1,0x33333
80003c48:	33458593          	addi	a1,a1,820 # 33333334 <offset+0x33333288>
80003c4c:	00b52633          	slt	a2,a0,a1
80003c50:	68c0aa23          	sw	a2,1684(ra)
80003c54:	00100113          	li	sp,1
80003c58:	00c10463          	beq	sp,a2,80003c60 <inst_451>
80003c5c:	7e90006f          	j	80004c44 <bad_trap>

80003c60 <inst_451>:
80003c60:	00000513          	li	a0,0
80003c64:	666665b7          	lui	a1,0x66666
80003c68:	66758593          	addi	a1,a1,1639 # 66666667 <absimm+0x21374138>
80003c6c:	00b52633          	slt	a2,a0,a1
80003c70:	68c0ac23          	sw	a2,1688(ra)
80003c74:	00100113          	li	sp,1
80003c78:	7cc116e3          	bne	sp,a2,80004c44 <bad_trap>

80003c7c <inst_452>:
80003c7c:	00000513          	li	a0,0
80003c80:	ffff55b7          	lui	a1,0xffff5
80003c84:	afd58593          	addi	a1,a1,-1283 # ffff4afd <imm12+0xffff502d>
80003c88:	00b52633          	slt	a2,a0,a1
80003c8c:	68c0ae23          	sw	a2,1692(ra)
80003c90:	00000113          	li	sp,0
80003c94:	7ac118e3          	bne	sp,a2,80004c44 <bad_trap>

80003c98 <inst_453>:
80003c98:	00000513          	li	a0,0
80003c9c:	0000b5b7          	lui	a1,0xb
80003ca0:	50558593          	addi	a1,a1,1285 # b505 <offset+0xb459>
80003ca4:	00b52633          	slt	a2,a0,a1
80003ca8:	6ac0a023          	sw	a2,1696(ra)
80003cac:	00100113          	li	sp,1
80003cb0:	78c11ae3          	bne	sp,a2,80004c44 <bad_trap>

80003cb4 <inst_454>:
80003cb4:	00400513          	li	a0,4
80003cb8:	00300593          	li	a1,3
80003cbc:	00b52633          	slt	a2,a0,a1
80003cc0:	6ac0a223          	sw	a2,1700(ra)
80003cc4:	00000113          	li	sp,0
80003cc8:	76c11ee3          	bne	sp,a2,80004c44 <bad_trap>

80003ccc <inst_455>:
80003ccc:	00400513          	li	a0,4
80003cd0:	555555b7          	lui	a1,0x55555
80003cd4:	55558593          	addi	a1,a1,1365 # 55555555 <absimm+0x10263026>
80003cd8:	00b52633          	slt	a2,a0,a1
80003cdc:	6ac0a423          	sw	a2,1704(ra)
80003ce0:	00100113          	li	sp,1
80003ce4:	76c110e3          	bne	sp,a2,80004c44 <bad_trap>

80003ce8 <inst_456>:
80003ce8:	00400513          	li	a0,4
80003cec:	aaaab5b7          	lui	a1,0xaaaab
80003cf0:	aaa58593          	addi	a1,a1,-1366 # aaaaaaaa <imm12+0xaaaaafda>
80003cf4:	00b52633          	slt	a2,a0,a1
80003cf8:	6ac0a623          	sw	a2,1708(ra)
80003cfc:	00000113          	li	sp,0
80003d00:	74c112e3          	bne	sp,a2,80004c44 <bad_trap>

80003d04 <inst_457>:
80003d04:	00400513          	li	a0,4
80003d08:	00500593          	li	a1,5
80003d0c:	00b52633          	slt	a2,a0,a1
80003d10:	6ac0a823          	sw	a2,1712(ra)
80003d14:	00100113          	li	sp,1
80003d18:	72c116e3          	bne	sp,a2,80004c44 <bad_trap>

80003d1c <inst_458>:
80003d1c:	00400513          	li	a0,4
80003d20:	333335b7          	lui	a1,0x33333
80003d24:	33358593          	addi	a1,a1,819 # 33333333 <offset+0x33333287>
80003d28:	00b52633          	slt	a2,a0,a1
80003d2c:	6ac0aa23          	sw	a2,1716(ra)
80003d30:	00100113          	li	sp,1
80003d34:	70c118e3          	bne	sp,a2,80004c44 <bad_trap>

80003d38 <inst_459>:
80003d38:	00400513          	li	a0,4
80003d3c:	666665b7          	lui	a1,0x66666
80003d40:	66658593          	addi	a1,a1,1638 # 66666666 <absimm+0x21374137>
80003d44:	00b52633          	slt	a2,a0,a1
80003d48:	6ac0ac23          	sw	a2,1720(ra)
80003d4c:	00100113          	li	sp,1
80003d50:	6ec11ae3          	bne	sp,a2,80004c44 <bad_trap>

80003d54 <inst_460>:
80003d54:	00400513          	li	a0,4
80003d58:	ffff55b7          	lui	a1,0xffff5
80003d5c:	afc58593          	addi	a1,a1,-1284 # ffff4afc <imm12+0xffff502c>
80003d60:	00b52633          	slt	a2,a0,a1
80003d64:	6ac0ae23          	sw	a2,1724(ra)
80003d68:	00000113          	li	sp,0
80003d6c:	6cc11ce3          	bne	sp,a2,80004c44 <bad_trap>

80003d70 <inst_461>:
80003d70:	00400513          	li	a0,4
80003d74:	0000b5b7          	lui	a1,0xb
80003d78:	50458593          	addi	a1,a1,1284 # b504 <offset+0xb458>
80003d7c:	00b52633          	slt	a2,a0,a1
80003d80:	6cc0a023          	sw	a2,1728(ra)
80003d84:	00100113          	li	sp,1
80003d88:	6ac11ee3          	bne	sp,a2,80004c44 <bad_trap>

80003d8c <inst_462>:
80003d8c:	00400513          	li	a0,4
80003d90:	00200593          	li	a1,2
80003d94:	00b52633          	slt	a2,a0,a1
80003d98:	6cc0a223          	sw	a2,1732(ra)
80003d9c:	00000113          	li	sp,0
80003da0:	6ac112e3          	bne	sp,a2,80004c44 <bad_trap>

80003da4 <inst_463>:
80003da4:	00400513          	li	a0,4
80003da8:	555555b7          	lui	a1,0x55555
80003dac:	55458593          	addi	a1,a1,1364 # 55555554 <absimm+0x10263025>
80003db0:	00b52633          	slt	a2,a0,a1
80003db4:	6cc0a423          	sw	a2,1736(ra)
80003db8:	00100113          	li	sp,1
80003dbc:	68c114e3          	bne	sp,a2,80004c44 <bad_trap>

80003dc0 <inst_464>:
80003dc0:	00400513          	li	a0,4
80003dc4:	00000593          	li	a1,0
80003dc8:	00b52633          	slt	a2,a0,a1
80003dcc:	6cc0a623          	sw	a2,1740(ra)
80003dd0:	00000113          	li	sp,0
80003dd4:	66c118e3          	bne	sp,a2,80004c44 <bad_trap>

80003dd8 <inst_465>:
80003dd8:	00400513          	li	a0,4
80003ddc:	00400593          	li	a1,4
80003de0:	00b52633          	slt	a2,a0,a1
80003de4:	6cc0a823          	sw	a2,1744(ra)
80003de8:	00000113          	li	sp,0
80003dec:	64c11ce3          	bne	sp,a2,80004c44 <bad_trap>

80003df0 <inst_466>:
80003df0:	00400513          	li	a0,4
80003df4:	333335b7          	lui	a1,0x33333
80003df8:	33258593          	addi	a1,a1,818 # 33333332 <offset+0x33333286>
80003dfc:	00b52633          	slt	a2,a0,a1
80003e00:	6cc0aa23          	sw	a2,1748(ra)
80003e04:	00100113          	li	sp,1
80003e08:	62c11ee3          	bne	sp,a2,80004c44 <bad_trap>

80003e0c <inst_467>:
80003e0c:	00400513          	li	a0,4
80003e10:	666665b7          	lui	a1,0x66666
80003e14:	66558593          	addi	a1,a1,1637 # 66666665 <absimm+0x21374136>
80003e18:	00b52633          	slt	a2,a0,a1
80003e1c:	6cc0ac23          	sw	a2,1752(ra)
80003e20:	00100113          	li	sp,1
80003e24:	62c110e3          	bne	sp,a2,80004c44 <bad_trap>

80003e28 <inst_468>:
80003e28:	00400513          	li	a0,4
80003e2c:	0000b5b7          	lui	a1,0xb
80003e30:	50358593          	addi	a1,a1,1283 # b503 <offset+0xb457>
80003e34:	00b52633          	slt	a2,a0,a1
80003e38:	6cc0ae23          	sw	a2,1756(ra)
80003e3c:	00100113          	li	sp,1
80003e40:	60c112e3          	bne	sp,a2,80004c44 <bad_trap>

80003e44 <inst_469>:
80003e44:	00400513          	li	a0,4
80003e48:	555555b7          	lui	a1,0x55555
80003e4c:	55658593          	addi	a1,a1,1366 # 55555556 <absimm+0x10263027>
80003e50:	00b52633          	slt	a2,a0,a1
80003e54:	6ec0a023          	sw	a2,1760(ra)
80003e58:	00100113          	li	sp,1
80003e5c:	5ec114e3          	bne	sp,a2,80004c44 <bad_trap>

80003e60 <inst_470>:
80003e60:	00400513          	li	a0,4
80003e64:	aaaab5b7          	lui	a1,0xaaaab
80003e68:	aab58593          	addi	a1,a1,-1365 # aaaaaaab <imm12+0xaaaaafdb>
80003e6c:	00b52633          	slt	a2,a0,a1
80003e70:	6ec0a223          	sw	a2,1764(ra)
80003e74:	00000113          	li	sp,0
80003e78:	5cc116e3          	bne	sp,a2,80004c44 <bad_trap>

80003e7c <inst_471>:
80003e7c:	00400513          	li	a0,4
80003e80:	00600593          	li	a1,6
80003e84:	00b52633          	slt	a2,a0,a1
80003e88:	6ec0a423          	sw	a2,1768(ra)
80003e8c:	00100113          	li	sp,1
80003e90:	5ac11ae3          	bne	sp,a2,80004c44 <bad_trap>

80003e94 <inst_472>:
80003e94:	00400513          	li	a0,4
80003e98:	333335b7          	lui	a1,0x33333
80003e9c:	33458593          	addi	a1,a1,820 # 33333334 <offset+0x33333288>
80003ea0:	00b52633          	slt	a2,a0,a1
80003ea4:	6ec0a623          	sw	a2,1772(ra)
80003ea8:	00100113          	li	sp,1
80003eac:	58c11ce3          	bne	sp,a2,80004c44 <bad_trap>

80003eb0 <inst_473>:
80003eb0:	00400513          	li	a0,4
80003eb4:	666665b7          	lui	a1,0x66666
80003eb8:	66758593          	addi	a1,a1,1639 # 66666667 <absimm+0x21374138>
80003ebc:	00b52633          	slt	a2,a0,a1
80003ec0:	6ec0a823          	sw	a2,1776(ra)
80003ec4:	00100113          	li	sp,1
80003ec8:	56c11ee3          	bne	sp,a2,80004c44 <bad_trap>

80003ecc <inst_474>:
80003ecc:	00400513          	li	a0,4
80003ed0:	ffff55b7          	lui	a1,0xffff5
80003ed4:	afd58593          	addi	a1,a1,-1283 # ffff4afd <imm12+0xffff502d>
80003ed8:	00b52633          	slt	a2,a0,a1
80003edc:	6ec0aa23          	sw	a2,1780(ra)
80003ee0:	00000113          	li	sp,0
80003ee4:	56c110e3          	bne	sp,a2,80004c44 <bad_trap>

80003ee8 <inst_475>:
80003ee8:	00400513          	li	a0,4
80003eec:	0000b5b7          	lui	a1,0xb
80003ef0:	50558593          	addi	a1,a1,1285 # b505 <offset+0xb459>
80003ef4:	00b52633          	slt	a2,a0,a1
80003ef8:	6ec0ac23          	sw	a2,1784(ra)
80003efc:	00100113          	li	sp,1
80003f00:	54c112e3          	bne	sp,a2,80004c44 <bad_trap>

80003f04 <inst_476>:
80003f04:	33333537          	lui	a0,0x33333
80003f08:	33250513          	addi	a0,a0,818 # 33333332 <offset+0x33333286>
80003f0c:	00300593          	li	a1,3
80003f10:	00b52633          	slt	a2,a0,a1
80003f14:	6ec0ae23          	sw	a2,1788(ra)
80003f18:	00000113          	li	sp,0
80003f1c:	52c114e3          	bne	sp,a2,80004c44 <bad_trap>

80003f20 <inst_477>:
80003f20:	33333537          	lui	a0,0x33333
80003f24:	33250513          	addi	a0,a0,818 # 33333332 <offset+0x33333286>
80003f28:	555555b7          	lui	a1,0x55555
80003f2c:	55558593          	addi	a1,a1,1365 # 55555555 <absimm+0x10263026>
80003f30:	00b52633          	slt	a2,a0,a1
80003f34:	70c0a023          	sw	a2,1792(ra)
80003f38:	00100113          	li	sp,1
80003f3c:	50c114e3          	bne	sp,a2,80004c44 <bad_trap>

80003f40 <inst_478>:
80003f40:	33333537          	lui	a0,0x33333
80003f44:	33250513          	addi	a0,a0,818 # 33333332 <offset+0x33333286>
80003f48:	aaaab5b7          	lui	a1,0xaaaab
80003f4c:	aaa58593          	addi	a1,a1,-1366 # aaaaaaaa <imm12+0xaaaaafda>
80003f50:	00b52633          	slt	a2,a0,a1
80003f54:	70c0a223          	sw	a2,1796(ra)
80003f58:	00000113          	li	sp,0
80003f5c:	4ec114e3          	bne	sp,a2,80004c44 <bad_trap>

80003f60 <inst_479>:
80003f60:	33333537          	lui	a0,0x33333
80003f64:	33250513          	addi	a0,a0,818 # 33333332 <offset+0x33333286>
80003f68:	00500593          	li	a1,5
80003f6c:	00b52633          	slt	a2,a0,a1
80003f70:	70c0a423          	sw	a2,1800(ra)
80003f74:	00000113          	li	sp,0
80003f78:	4cc116e3          	bne	sp,a2,80004c44 <bad_trap>

80003f7c <inst_480>:
80003f7c:	33333537          	lui	a0,0x33333
80003f80:	33250513          	addi	a0,a0,818 # 33333332 <offset+0x33333286>
80003f84:	333335b7          	lui	a1,0x33333
80003f88:	33358593          	addi	a1,a1,819 # 33333333 <offset+0x33333287>
80003f8c:	00b52633          	slt	a2,a0,a1
80003f90:	70c0a623          	sw	a2,1804(ra)
80003f94:	00100113          	li	sp,1
80003f98:	4ac116e3          	bne	sp,a2,80004c44 <bad_trap>

80003f9c <inst_481>:
80003f9c:	33333537          	lui	a0,0x33333
80003fa0:	33250513          	addi	a0,a0,818 # 33333332 <offset+0x33333286>
80003fa4:	666665b7          	lui	a1,0x66666
80003fa8:	66658593          	addi	a1,a1,1638 # 66666666 <absimm+0x21374137>
80003fac:	00b52633          	slt	a2,a0,a1
80003fb0:	70c0a823          	sw	a2,1808(ra)
80003fb4:	00100113          	li	sp,1
80003fb8:	48c116e3          	bne	sp,a2,80004c44 <bad_trap>

80003fbc <inst_482>:
80003fbc:	33333537          	lui	a0,0x33333
80003fc0:	33250513          	addi	a0,a0,818 # 33333332 <offset+0x33333286>
80003fc4:	ffff55b7          	lui	a1,0xffff5
80003fc8:	afc58593          	addi	a1,a1,-1284 # ffff4afc <imm12+0xffff502c>
80003fcc:	00b52633          	slt	a2,a0,a1
80003fd0:	70c0aa23          	sw	a2,1812(ra)
80003fd4:	00000113          	li	sp,0
80003fd8:	46c116e3          	bne	sp,a2,80004c44 <bad_trap>

80003fdc <inst_483>:
80003fdc:	33333537          	lui	a0,0x33333
80003fe0:	33250513          	addi	a0,a0,818 # 33333332 <offset+0x33333286>
80003fe4:	0000b5b7          	lui	a1,0xb
80003fe8:	50458593          	addi	a1,a1,1284 # b504 <offset+0xb458>
80003fec:	00b52633          	slt	a2,a0,a1
80003ff0:	70c0ac23          	sw	a2,1816(ra)
80003ff4:	00000113          	li	sp,0
80003ff8:	44c116e3          	bne	sp,a2,80004c44 <bad_trap>

80003ffc <inst_484>:
80003ffc:	33333537          	lui	a0,0x33333
80004000:	33250513          	addi	a0,a0,818 # 33333332 <offset+0x33333286>
80004004:	00200593          	li	a1,2
80004008:	00b52633          	slt	a2,a0,a1
8000400c:	70c0ae23          	sw	a2,1820(ra)
80004010:	00000113          	li	sp,0
80004014:	42c118e3          	bne	sp,a2,80004c44 <bad_trap>

80004018 <inst_485>:
80004018:	33333537          	lui	a0,0x33333
8000401c:	33250513          	addi	a0,a0,818 # 33333332 <offset+0x33333286>
80004020:	555555b7          	lui	a1,0x55555
80004024:	55458593          	addi	a1,a1,1364 # 55555554 <absimm+0x10263025>
80004028:	00b52633          	slt	a2,a0,a1
8000402c:	72c0a023          	sw	a2,1824(ra)
80004030:	00100113          	li	sp,1
80004034:	40c118e3          	bne	sp,a2,80004c44 <bad_trap>

80004038 <inst_486>:
80004038:	33333537          	lui	a0,0x33333
8000403c:	33250513          	addi	a0,a0,818 # 33333332 <offset+0x33333286>
80004040:	00000593          	li	a1,0
80004044:	00b52633          	slt	a2,a0,a1
80004048:	72c0a223          	sw	a2,1828(ra)
8000404c:	00000113          	li	sp,0
80004050:	3ec11ae3          	bne	sp,a2,80004c44 <bad_trap>

80004054 <inst_487>:
80004054:	33333537          	lui	a0,0x33333
80004058:	33250513          	addi	a0,a0,818 # 33333332 <offset+0x33333286>
8000405c:	00400593          	li	a1,4
80004060:	00b52633          	slt	a2,a0,a1
80004064:	72c0a423          	sw	a2,1832(ra)
80004068:	00000113          	li	sp,0
8000406c:	3cc11ce3          	bne	sp,a2,80004c44 <bad_trap>

80004070 <inst_488>:
80004070:	33333537          	lui	a0,0x33333
80004074:	33250513          	addi	a0,a0,818 # 33333332 <offset+0x33333286>
80004078:	333335b7          	lui	a1,0x33333
8000407c:	33258593          	addi	a1,a1,818 # 33333332 <offset+0x33333286>
80004080:	00b52633          	slt	a2,a0,a1
80004084:	72c0a623          	sw	a2,1836(ra)
80004088:	00000113          	li	sp,0
8000408c:	3ac11ce3          	bne	sp,a2,80004c44 <bad_trap>

80004090 <inst_489>:
80004090:	33333537          	lui	a0,0x33333
80004094:	33250513          	addi	a0,a0,818 # 33333332 <offset+0x33333286>
80004098:	666665b7          	lui	a1,0x66666
8000409c:	66558593          	addi	a1,a1,1637 # 66666665 <absimm+0x21374136>
800040a0:	00b52633          	slt	a2,a0,a1
800040a4:	72c0a823          	sw	a2,1840(ra)
800040a8:	00100113          	li	sp,1
800040ac:	38c11ce3          	bne	sp,a2,80004c44 <bad_trap>

800040b0 <inst_490>:
800040b0:	33333537          	lui	a0,0x33333
800040b4:	33250513          	addi	a0,a0,818 # 33333332 <offset+0x33333286>
800040b8:	0000b5b7          	lui	a1,0xb
800040bc:	50358593          	addi	a1,a1,1283 # b503 <offset+0xb457>
800040c0:	00b52633          	slt	a2,a0,a1
800040c4:	72c0aa23          	sw	a2,1844(ra)
800040c8:	00000113          	li	sp,0
800040cc:	36c11ce3          	bne	sp,a2,80004c44 <bad_trap>

800040d0 <inst_491>:
800040d0:	33333537          	lui	a0,0x33333
800040d4:	33250513          	addi	a0,a0,818 # 33333332 <offset+0x33333286>
800040d8:	555555b7          	lui	a1,0x55555
800040dc:	55658593          	addi	a1,a1,1366 # 55555556 <absimm+0x10263027>
800040e0:	00b52633          	slt	a2,a0,a1
800040e4:	72c0ac23          	sw	a2,1848(ra)
800040e8:	00100113          	li	sp,1
800040ec:	34c11ce3          	bne	sp,a2,80004c44 <bad_trap>

800040f0 <inst_492>:
800040f0:	33333537          	lui	a0,0x33333
800040f4:	33250513          	addi	a0,a0,818 # 33333332 <offset+0x33333286>
800040f8:	aaaab5b7          	lui	a1,0xaaaab
800040fc:	aab58593          	addi	a1,a1,-1365 # aaaaaaab <imm12+0xaaaaafdb>
80004100:	00b52633          	slt	a2,a0,a1
80004104:	72c0ae23          	sw	a2,1852(ra)
80004108:	00000113          	li	sp,0
8000410c:	32c11ce3          	bne	sp,a2,80004c44 <bad_trap>

80004110 <inst_493>:
80004110:	33333537          	lui	a0,0x33333
80004114:	33250513          	addi	a0,a0,818 # 33333332 <offset+0x33333286>
80004118:	00600593          	li	a1,6
8000411c:	00b52633          	slt	a2,a0,a1
80004120:	74c0a023          	sw	a2,1856(ra)
80004124:	00000113          	li	sp,0
80004128:	30c11ee3          	bne	sp,a2,80004c44 <bad_trap>

8000412c <inst_494>:
8000412c:	33333537          	lui	a0,0x33333
80004130:	33250513          	addi	a0,a0,818 # 33333332 <offset+0x33333286>
80004134:	333335b7          	lui	a1,0x33333
80004138:	33458593          	addi	a1,a1,820 # 33333334 <offset+0x33333288>
8000413c:	00b52633          	slt	a2,a0,a1
80004140:	74c0a223          	sw	a2,1860(ra)
80004144:	00100113          	li	sp,1
80004148:	2ec11ee3          	bne	sp,a2,80004c44 <bad_trap>

8000414c <inst_495>:
8000414c:	33333537          	lui	a0,0x33333
80004150:	33250513          	addi	a0,a0,818 # 33333332 <offset+0x33333286>
80004154:	666665b7          	lui	a1,0x66666
80004158:	66758593          	addi	a1,a1,1639 # 66666667 <absimm+0x21374138>
8000415c:	00b52633          	slt	a2,a0,a1
80004160:	74c0a423          	sw	a2,1864(ra)
80004164:	00100113          	li	sp,1
80004168:	2cc11ee3          	bne	sp,a2,80004c44 <bad_trap>

8000416c <inst_496>:
8000416c:	33333537          	lui	a0,0x33333
80004170:	33250513          	addi	a0,a0,818 # 33333332 <offset+0x33333286>
80004174:	ffff55b7          	lui	a1,0xffff5
80004178:	afd58593          	addi	a1,a1,-1283 # ffff4afd <imm12+0xffff502d>
8000417c:	00b52633          	slt	a2,a0,a1
80004180:	74c0a623          	sw	a2,1868(ra)
80004184:	00000113          	li	sp,0
80004188:	2ac11ee3          	bne	sp,a2,80004c44 <bad_trap>

8000418c <inst_497>:
8000418c:	33333537          	lui	a0,0x33333
80004190:	33250513          	addi	a0,a0,818 # 33333332 <offset+0x33333286>
80004194:	0000b5b7          	lui	a1,0xb
80004198:	50558593          	addi	a1,a1,1285 # b505 <offset+0xb459>
8000419c:	00b52633          	slt	a2,a0,a1
800041a0:	74c0a823          	sw	a2,1872(ra)
800041a4:	00000113          	li	sp,0
800041a8:	28c11ee3          	bne	sp,a2,80004c44 <bad_trap>

800041ac <inst_498>:
800041ac:	66666537          	lui	a0,0x66666
800041b0:	66550513          	addi	a0,a0,1637 # 66666665 <absimm+0x21374136>
800041b4:	00300593          	li	a1,3
800041b8:	00b52633          	slt	a2,a0,a1
800041bc:	74c0aa23          	sw	a2,1876(ra)
800041c0:	00000113          	li	sp,0
800041c4:	28c110e3          	bne	sp,a2,80004c44 <bad_trap>

800041c8 <inst_499>:
800041c8:	66666537          	lui	a0,0x66666
800041cc:	66550513          	addi	a0,a0,1637 # 66666665 <absimm+0x21374136>
800041d0:	555555b7          	lui	a1,0x55555
800041d4:	55558593          	addi	a1,a1,1365 # 55555555 <absimm+0x10263026>
800041d8:	00b52633          	slt	a2,a0,a1
800041dc:	74c0ac23          	sw	a2,1880(ra)
800041e0:	00000113          	li	sp,0
800041e4:	26c110e3          	bne	sp,a2,80004c44 <bad_trap>

800041e8 <inst_500>:
800041e8:	66666537          	lui	a0,0x66666
800041ec:	66550513          	addi	a0,a0,1637 # 66666665 <absimm+0x21374136>
800041f0:	aaaab5b7          	lui	a1,0xaaaab
800041f4:	aaa58593          	addi	a1,a1,-1366 # aaaaaaaa <imm12+0xaaaaafda>
800041f8:	00b52633          	slt	a2,a0,a1
800041fc:	74c0ae23          	sw	a2,1884(ra)
80004200:	00000113          	li	sp,0
80004204:	24c110e3          	bne	sp,a2,80004c44 <bad_trap>

80004208 <inst_501>:
80004208:	66666537          	lui	a0,0x66666
8000420c:	66550513          	addi	a0,a0,1637 # 66666665 <absimm+0x21374136>
80004210:	00500593          	li	a1,5
80004214:	00b52633          	slt	a2,a0,a1
80004218:	76c0a023          	sw	a2,1888(ra)
8000421c:	00000113          	li	sp,0
80004220:	22c112e3          	bne	sp,a2,80004c44 <bad_trap>

80004224 <inst_502>:
80004224:	66666537          	lui	a0,0x66666
80004228:	66550513          	addi	a0,a0,1637 # 66666665 <absimm+0x21374136>
8000422c:	333335b7          	lui	a1,0x33333
80004230:	33358593          	addi	a1,a1,819 # 33333333 <offset+0x33333287>
80004234:	00b52633          	slt	a2,a0,a1
80004238:	76c0a223          	sw	a2,1892(ra)
8000423c:	00000113          	li	sp,0
80004240:	20c112e3          	bne	sp,a2,80004c44 <bad_trap>

80004244 <inst_503>:
80004244:	66666537          	lui	a0,0x66666
80004248:	66550513          	addi	a0,a0,1637 # 66666665 <absimm+0x21374136>
8000424c:	666665b7          	lui	a1,0x66666
80004250:	66658593          	addi	a1,a1,1638 # 66666666 <absimm+0x21374137>
80004254:	00b52633          	slt	a2,a0,a1
80004258:	76c0a423          	sw	a2,1896(ra)
8000425c:	00100113          	li	sp,1
80004260:	1ec112e3          	bne	sp,a2,80004c44 <bad_trap>

80004264 <inst_504>:
80004264:	66666537          	lui	a0,0x66666
80004268:	66550513          	addi	a0,a0,1637 # 66666665 <absimm+0x21374136>
8000426c:	ffff55b7          	lui	a1,0xffff5
80004270:	afc58593          	addi	a1,a1,-1284 # ffff4afc <imm12+0xffff502c>
80004274:	00b52633          	slt	a2,a0,a1
80004278:	76c0a623          	sw	a2,1900(ra)
8000427c:	00000113          	li	sp,0
80004280:	1cc112e3          	bne	sp,a2,80004c44 <bad_trap>

80004284 <inst_505>:
80004284:	66666537          	lui	a0,0x66666
80004288:	66550513          	addi	a0,a0,1637 # 66666665 <absimm+0x21374136>
8000428c:	0000b5b7          	lui	a1,0xb
80004290:	50458593          	addi	a1,a1,1284 # b504 <offset+0xb458>
80004294:	00b52633          	slt	a2,a0,a1
80004298:	76c0a823          	sw	a2,1904(ra)
8000429c:	00000113          	li	sp,0
800042a0:	1ac112e3          	bne	sp,a2,80004c44 <bad_trap>

800042a4 <inst_506>:
800042a4:	66666537          	lui	a0,0x66666
800042a8:	66550513          	addi	a0,a0,1637 # 66666665 <absimm+0x21374136>
800042ac:	00200593          	li	a1,2
800042b0:	00b52633          	slt	a2,a0,a1
800042b4:	76c0aa23          	sw	a2,1908(ra)
800042b8:	00000113          	li	sp,0
800042bc:	18c114e3          	bne	sp,a2,80004c44 <bad_trap>

800042c0 <inst_507>:
800042c0:	66666537          	lui	a0,0x66666
800042c4:	66550513          	addi	a0,a0,1637 # 66666665 <absimm+0x21374136>
800042c8:	555555b7          	lui	a1,0x55555
800042cc:	55458593          	addi	a1,a1,1364 # 55555554 <absimm+0x10263025>
800042d0:	00b52633          	slt	a2,a0,a1
800042d4:	76c0ac23          	sw	a2,1912(ra)
800042d8:	00000113          	li	sp,0
800042dc:	16c114e3          	bne	sp,a2,80004c44 <bad_trap>

800042e0 <inst_508>:
800042e0:	66666537          	lui	a0,0x66666
800042e4:	66550513          	addi	a0,a0,1637 # 66666665 <absimm+0x21374136>
800042e8:	00000593          	li	a1,0
800042ec:	00b52633          	slt	a2,a0,a1
800042f0:	76c0ae23          	sw	a2,1916(ra)
800042f4:	00000113          	li	sp,0
800042f8:	14c116e3          	bne	sp,a2,80004c44 <bad_trap>

800042fc <inst_509>:
800042fc:	66666537          	lui	a0,0x66666
80004300:	66550513          	addi	a0,a0,1637 # 66666665 <absimm+0x21374136>
80004304:	00400593          	li	a1,4
80004308:	00b52633          	slt	a2,a0,a1
8000430c:	78c0a023          	sw	a2,1920(ra)
80004310:	00000113          	li	sp,0
80004314:	12c118e3          	bne	sp,a2,80004c44 <bad_trap>

80004318 <inst_510>:
80004318:	66666537          	lui	a0,0x66666
8000431c:	66550513          	addi	a0,a0,1637 # 66666665 <absimm+0x21374136>
80004320:	333335b7          	lui	a1,0x33333
80004324:	33258593          	addi	a1,a1,818 # 33333332 <offset+0x33333286>
80004328:	00b52633          	slt	a2,a0,a1
8000432c:	78c0a223          	sw	a2,1924(ra)
80004330:	00000113          	li	sp,0
80004334:	10c118e3          	bne	sp,a2,80004c44 <bad_trap>

80004338 <inst_511>:
80004338:	66666537          	lui	a0,0x66666
8000433c:	66550513          	addi	a0,a0,1637 # 66666665 <absimm+0x21374136>
80004340:	666665b7          	lui	a1,0x66666
80004344:	66558593          	addi	a1,a1,1637 # 66666665 <absimm+0x21374136>
80004348:	00b52633          	slt	a2,a0,a1
8000434c:	78c0a423          	sw	a2,1928(ra)
80004350:	00000113          	li	sp,0
80004354:	0ec118e3          	bne	sp,a2,80004c44 <bad_trap>

80004358 <inst_512>:
80004358:	66666537          	lui	a0,0x66666
8000435c:	66550513          	addi	a0,a0,1637 # 66666665 <absimm+0x21374136>
80004360:	0000b5b7          	lui	a1,0xb
80004364:	50358593          	addi	a1,a1,1283 # b503 <offset+0xb457>
80004368:	00b52633          	slt	a2,a0,a1
8000436c:	78c0a623          	sw	a2,1932(ra)
80004370:	00000113          	li	sp,0
80004374:	0cc118e3          	bne	sp,a2,80004c44 <bad_trap>

80004378 <inst_513>:
80004378:	66666537          	lui	a0,0x66666
8000437c:	66550513          	addi	a0,a0,1637 # 66666665 <absimm+0x21374136>
80004380:	555555b7          	lui	a1,0x55555
80004384:	55658593          	addi	a1,a1,1366 # 55555556 <absimm+0x10263027>
80004388:	00b52633          	slt	a2,a0,a1
8000438c:	78c0a823          	sw	a2,1936(ra)
80004390:	00000113          	li	sp,0
80004394:	0ac118e3          	bne	sp,a2,80004c44 <bad_trap>

80004398 <inst_514>:
80004398:	66666537          	lui	a0,0x66666
8000439c:	66550513          	addi	a0,a0,1637 # 66666665 <absimm+0x21374136>
800043a0:	aaaab5b7          	lui	a1,0xaaaab
800043a4:	aab58593          	addi	a1,a1,-1365 # aaaaaaab <imm12+0xaaaaafdb>
800043a8:	00b52633          	slt	a2,a0,a1
800043ac:	78c0aa23          	sw	a2,1940(ra)
800043b0:	00000113          	li	sp,0
800043b4:	08c118e3          	bne	sp,a2,80004c44 <bad_trap>

800043b8 <inst_515>:
800043b8:	66666537          	lui	a0,0x66666
800043bc:	66550513          	addi	a0,a0,1637 # 66666665 <absimm+0x21374136>
800043c0:	00600593          	li	a1,6
800043c4:	00b52633          	slt	a2,a0,a1
800043c8:	78c0ac23          	sw	a2,1944(ra)
800043cc:	00000113          	li	sp,0
800043d0:	06c11ae3          	bne	sp,a2,80004c44 <bad_trap>

800043d4 <inst_516>:
800043d4:	66666537          	lui	a0,0x66666
800043d8:	66550513          	addi	a0,a0,1637 # 66666665 <absimm+0x21374136>
800043dc:	333335b7          	lui	a1,0x33333
800043e0:	33458593          	addi	a1,a1,820 # 33333334 <offset+0x33333288>
800043e4:	00b52633          	slt	a2,a0,a1
800043e8:	78c0ae23          	sw	a2,1948(ra)
800043ec:	00000113          	li	sp,0
800043f0:	04c11ae3          	bne	sp,a2,80004c44 <bad_trap>

800043f4 <inst_517>:
800043f4:	66666537          	lui	a0,0x66666
800043f8:	66550513          	addi	a0,a0,1637 # 66666665 <absimm+0x21374136>
800043fc:	666665b7          	lui	a1,0x66666
80004400:	66758593          	addi	a1,a1,1639 # 66666667 <absimm+0x21374138>
80004404:	00b52633          	slt	a2,a0,a1
80004408:	7ac0a023          	sw	a2,1952(ra)
8000440c:	00100113          	li	sp,1
80004410:	02c11ae3          	bne	sp,a2,80004c44 <bad_trap>

80004414 <inst_518>:
80004414:	66666537          	lui	a0,0x66666
80004418:	66550513          	addi	a0,a0,1637 # 66666665 <absimm+0x21374136>
8000441c:	ffff55b7          	lui	a1,0xffff5
80004420:	afd58593          	addi	a1,a1,-1283 # ffff4afd <imm12+0xffff502d>
80004424:	00b52633          	slt	a2,a0,a1
80004428:	7ac0a223          	sw	a2,1956(ra)
8000442c:	00000113          	li	sp,0
80004430:	00c11ae3          	bne	sp,a2,80004c44 <bad_trap>

80004434 <inst_519>:
80004434:	66666537          	lui	a0,0x66666
80004438:	66550513          	addi	a0,a0,1637 # 66666665 <absimm+0x21374136>
8000443c:	0000b5b7          	lui	a1,0xb
80004440:	50558593          	addi	a1,a1,1285 # b505 <offset+0xb459>
80004444:	00b52633          	slt	a2,a0,a1
80004448:	7ac0a423          	sw	a2,1960(ra)
8000444c:	00000113          	li	sp,0
80004450:	7ec11a63          	bne	sp,a2,80004c44 <bad_trap>

80004454 <inst_520>:
80004454:	0000b537          	lui	a0,0xb
80004458:	50350513          	addi	a0,a0,1283 # b503 <offset+0xb457>
8000445c:	00300593          	li	a1,3
80004460:	00b52633          	slt	a2,a0,a1
80004464:	7ac0a623          	sw	a2,1964(ra)
80004468:	00000113          	li	sp,0
8000446c:	7cc11c63          	bne	sp,a2,80004c44 <bad_trap>

80004470 <inst_521>:
80004470:	0000b537          	lui	a0,0xb
80004474:	50350513          	addi	a0,a0,1283 # b503 <offset+0xb457>
80004478:	555555b7          	lui	a1,0x55555
8000447c:	55558593          	addi	a1,a1,1365 # 55555555 <absimm+0x10263026>
80004480:	00b52633          	slt	a2,a0,a1
80004484:	7ac0a823          	sw	a2,1968(ra)
80004488:	00100113          	li	sp,1
8000448c:	7ac11c63          	bne	sp,a2,80004c44 <bad_trap>

80004490 <inst_522>:
80004490:	0000b537          	lui	a0,0xb
80004494:	50350513          	addi	a0,a0,1283 # b503 <offset+0xb457>
80004498:	aaaab5b7          	lui	a1,0xaaaab
8000449c:	aaa58593          	addi	a1,a1,-1366 # aaaaaaaa <imm12+0xaaaaafda>
800044a0:	00b52633          	slt	a2,a0,a1
800044a4:	7ac0aa23          	sw	a2,1972(ra)
800044a8:	00000113          	li	sp,0
800044ac:	78c11c63          	bne	sp,a2,80004c44 <bad_trap>

800044b0 <inst_523>:
800044b0:	0000b537          	lui	a0,0xb
800044b4:	50350513          	addi	a0,a0,1283 # b503 <offset+0xb457>
800044b8:	00500593          	li	a1,5
800044bc:	00b52633          	slt	a2,a0,a1
800044c0:	7ac0ac23          	sw	a2,1976(ra)
800044c4:	00000113          	li	sp,0
800044c8:	76c11e63          	bne	sp,a2,80004c44 <bad_trap>

800044cc <inst_524>:
800044cc:	0000b537          	lui	a0,0xb
800044d0:	50350513          	addi	a0,a0,1283 # b503 <offset+0xb457>
800044d4:	333335b7          	lui	a1,0x33333
800044d8:	33358593          	addi	a1,a1,819 # 33333333 <offset+0x33333287>
800044dc:	00b52633          	slt	a2,a0,a1
800044e0:	7ac0ae23          	sw	a2,1980(ra)
800044e4:	00100113          	li	sp,1
800044e8:	74c11e63          	bne	sp,a2,80004c44 <bad_trap>

800044ec <inst_525>:
800044ec:	0000b537          	lui	a0,0xb
800044f0:	50350513          	addi	a0,a0,1283 # b503 <offset+0xb457>
800044f4:	666665b7          	lui	a1,0x66666
800044f8:	66658593          	addi	a1,a1,1638 # 66666666 <absimm+0x21374137>
800044fc:	00b52633          	slt	a2,a0,a1
80004500:	7cc0a023          	sw	a2,1984(ra)
80004504:	00100113          	li	sp,1
80004508:	72c11e63          	bne	sp,a2,80004c44 <bad_trap>

8000450c <inst_526>:
8000450c:	0000b537          	lui	a0,0xb
80004510:	50350513          	addi	a0,a0,1283 # b503 <offset+0xb457>
80004514:	ffff55b7          	lui	a1,0xffff5
80004518:	afc58593          	addi	a1,a1,-1284 # ffff4afc <imm12+0xffff502c>
8000451c:	00b52633          	slt	a2,a0,a1
80004520:	7cc0a223          	sw	a2,1988(ra)
80004524:	00000113          	li	sp,0
80004528:	70c11e63          	bne	sp,a2,80004c44 <bad_trap>

8000452c <inst_527>:
8000452c:	0000b537          	lui	a0,0xb
80004530:	50350513          	addi	a0,a0,1283 # b503 <offset+0xb457>
80004534:	0000b5b7          	lui	a1,0xb
80004538:	50458593          	addi	a1,a1,1284 # b504 <offset+0xb458>
8000453c:	00b52633          	slt	a2,a0,a1
80004540:	7cc0a423          	sw	a2,1992(ra)
80004544:	00100113          	li	sp,1
80004548:	6ec11e63          	bne	sp,a2,80004c44 <bad_trap>

8000454c <inst_528>:
8000454c:	0000b537          	lui	a0,0xb
80004550:	50350513          	addi	a0,a0,1283 # b503 <offset+0xb457>
80004554:	00200593          	li	a1,2
80004558:	00b52633          	slt	a2,a0,a1
8000455c:	7cc0a623          	sw	a2,1996(ra)
80004560:	00000113          	li	sp,0
80004564:	6ec11063          	bne	sp,a2,80004c44 <bad_trap>

80004568 <inst_529>:
80004568:	0000b537          	lui	a0,0xb
8000456c:	50350513          	addi	a0,a0,1283 # b503 <offset+0xb457>
80004570:	555555b7          	lui	a1,0x55555
80004574:	55458593          	addi	a1,a1,1364 # 55555554 <absimm+0x10263025>
80004578:	00b52633          	slt	a2,a0,a1
8000457c:	7cc0a823          	sw	a2,2000(ra)
80004580:	00100113          	li	sp,1
80004584:	6cc11063          	bne	sp,a2,80004c44 <bad_trap>

80004588 <inst_530>:
80004588:	0000b537          	lui	a0,0xb
8000458c:	50350513          	addi	a0,a0,1283 # b503 <offset+0xb457>
80004590:	00000593          	li	a1,0
80004594:	00b52633          	slt	a2,a0,a1
80004598:	7cc0aa23          	sw	a2,2004(ra)
8000459c:	00000113          	li	sp,0
800045a0:	6ac11263          	bne	sp,a2,80004c44 <bad_trap>

800045a4 <inst_531>:
800045a4:	0000b537          	lui	a0,0xb
800045a8:	50350513          	addi	a0,a0,1283 # b503 <offset+0xb457>
800045ac:	00400593          	li	a1,4
800045b0:	00b52633          	slt	a2,a0,a1
800045b4:	7cc0ac23          	sw	a2,2008(ra)
800045b8:	00000113          	li	sp,0
800045bc:	68c11463          	bne	sp,a2,80004c44 <bad_trap>

800045c0 <inst_532>:
800045c0:	0000b537          	lui	a0,0xb
800045c4:	50350513          	addi	a0,a0,1283 # b503 <offset+0xb457>
800045c8:	333335b7          	lui	a1,0x33333
800045cc:	33258593          	addi	a1,a1,818 # 33333332 <offset+0x33333286>
800045d0:	00b52633          	slt	a2,a0,a1
800045d4:	7cc0ae23          	sw	a2,2012(ra)
800045d8:	00100113          	li	sp,1
800045dc:	66c11463          	bne	sp,a2,80004c44 <bad_trap>

800045e0 <inst_533>:
800045e0:	0000b537          	lui	a0,0xb
800045e4:	50350513          	addi	a0,a0,1283 # b503 <offset+0xb457>
800045e8:	666665b7          	lui	a1,0x66666
800045ec:	66558593          	addi	a1,a1,1637 # 66666665 <absimm+0x21374136>
800045f0:	00b52633          	slt	a2,a0,a1
800045f4:	7ec0a023          	sw	a2,2016(ra)
800045f8:	00100113          	li	sp,1
800045fc:	64c11463          	bne	sp,a2,80004c44 <bad_trap>

80004600 <inst_534>:
80004600:	0000b537          	lui	a0,0xb
80004604:	50350513          	addi	a0,a0,1283 # b503 <offset+0xb457>
80004608:	0000b5b7          	lui	a1,0xb
8000460c:	50358593          	addi	a1,a1,1283 # b503 <offset+0xb457>
80004610:	00b52633          	slt	a2,a0,a1
80004614:	7ec0a223          	sw	a2,2020(ra)
80004618:	00000113          	li	sp,0
8000461c:	62c11463          	bne	sp,a2,80004c44 <bad_trap>

80004620 <inst_535>:
80004620:	0000b537          	lui	a0,0xb
80004624:	50350513          	addi	a0,a0,1283 # b503 <offset+0xb457>
80004628:	555555b7          	lui	a1,0x55555
8000462c:	55658593          	addi	a1,a1,1366 # 55555556 <absimm+0x10263027>
80004630:	00b52633          	slt	a2,a0,a1
80004634:	7ec0a423          	sw	a2,2024(ra)
80004638:	00100113          	li	sp,1
8000463c:	60c11463          	bne	sp,a2,80004c44 <bad_trap>

80004640 <inst_536>:
80004640:	0000b537          	lui	a0,0xb
80004644:	50350513          	addi	a0,a0,1283 # b503 <offset+0xb457>
80004648:	aaaab5b7          	lui	a1,0xaaaab
8000464c:	aab58593          	addi	a1,a1,-1365 # aaaaaaab <imm12+0xaaaaafdb>
80004650:	00b52633          	slt	a2,a0,a1
80004654:	7ec0a623          	sw	a2,2028(ra)
80004658:	00000113          	li	sp,0
8000465c:	5ec11463          	bne	sp,a2,80004c44 <bad_trap>

80004660 <inst_537>:
80004660:	0000b537          	lui	a0,0xb
80004664:	50350513          	addi	a0,a0,1283 # b503 <offset+0xb457>
80004668:	00600593          	li	a1,6
8000466c:	00b52633          	slt	a2,a0,a1
80004670:	7ec0a823          	sw	a2,2032(ra)
80004674:	00000113          	li	sp,0
80004678:	5cc11663          	bne	sp,a2,80004c44 <bad_trap>

8000467c <inst_538>:
8000467c:	0000b537          	lui	a0,0xb
80004680:	50350513          	addi	a0,a0,1283 # b503 <offset+0xb457>
80004684:	333335b7          	lui	a1,0x33333
80004688:	33458593          	addi	a1,a1,820 # 33333334 <offset+0x33333288>
8000468c:	00b52633          	slt	a2,a0,a1
80004690:	7ec0aa23          	sw	a2,2036(ra)
80004694:	00100113          	li	sp,1
80004698:	5ac11663          	bne	sp,a2,80004c44 <bad_trap>

8000469c <inst_539>:
8000469c:	0000b537          	lui	a0,0xb
800046a0:	50350513          	addi	a0,a0,1283 # b503 <offset+0xb457>
800046a4:	666665b7          	lui	a1,0x66666
800046a8:	66758593          	addi	a1,a1,1639 # 66666667 <absimm+0x21374138>
800046ac:	00b52633          	slt	a2,a0,a1
800046b0:	7ec0ac23          	sw	a2,2040(ra)
800046b4:	00100113          	li	sp,1
800046b8:	58c11663          	bne	sp,a2,80004c44 <bad_trap>

800046bc <inst_540>:
800046bc:	0000b537          	lui	a0,0xb
800046c0:	50350513          	addi	a0,a0,1283 # b503 <offset+0xb457>
800046c4:	ffff55b7          	lui	a1,0xffff5
800046c8:	afd58593          	addi	a1,a1,-1283 # ffff4afd <imm12+0xffff502d>
800046cc:	00b52633          	slt	a2,a0,a1
800046d0:	7ec0ae23          	sw	a2,2044(ra)
800046d4:	00000113          	li	sp,0
800046d8:	56c11663          	bne	sp,a2,80004c44 <bad_trap>
800046dc:	00000013          	nop
800046e0:	00002097          	auipc	ra,0x2
800046e4:	19808093          	addi	ra,ra,408 # 80006878 <signature_x1_1>
800046e8:	00000013          	nop
800046ec:	00000013          	nop
800046f0:	00000013          	nop
800046f4:	00000013          	nop
800046f8:	00000013          	nop
800046fc:	00000013          	nop

80004700 <inst_541>:
80004700:	0000b537          	lui	a0,0xb
80004704:	50350513          	addi	a0,a0,1283 # b503 <offset+0xb457>
80004708:	0000b5b7          	lui	a1,0xb
8000470c:	50558593          	addi	a1,a1,1285 # b505 <offset+0xb459>
80004710:	00b52633          	slt	a2,a0,a1
80004714:	00c0a023          	sw	a2,0(ra)
80004718:	00100113          	li	sp,1
8000471c:	52c11463          	bne	sp,a2,80004c44 <bad_trap>

80004720 <inst_542>:
80004720:	55555537          	lui	a0,0x55555
80004724:	55650513          	addi	a0,a0,1366 # 55555556 <absimm+0x10263027>
80004728:	00300593          	li	a1,3
8000472c:	00b52633          	slt	a2,a0,a1
80004730:	00c0a223          	sw	a2,4(ra)
80004734:	00000113          	li	sp,0
80004738:	50c11663          	bne	sp,a2,80004c44 <bad_trap>

8000473c <inst_543>:
8000473c:	55555537          	lui	a0,0x55555
80004740:	55650513          	addi	a0,a0,1366 # 55555556 <absimm+0x10263027>
80004744:	555555b7          	lui	a1,0x55555
80004748:	55558593          	addi	a1,a1,1365 # 55555555 <absimm+0x10263026>
8000474c:	00b52633          	slt	a2,a0,a1
80004750:	00c0a423          	sw	a2,8(ra)
80004754:	00000113          	li	sp,0
80004758:	4ec11663          	bne	sp,a2,80004c44 <bad_trap>

8000475c <inst_544>:
8000475c:	55555537          	lui	a0,0x55555
80004760:	55650513          	addi	a0,a0,1366 # 55555556 <absimm+0x10263027>
80004764:	aaaab5b7          	lui	a1,0xaaaab
80004768:	aaa58593          	addi	a1,a1,-1366 # aaaaaaaa <imm12+0xaaaaafda>
8000476c:	00b52633          	slt	a2,a0,a1
80004770:	00c0a623          	sw	a2,12(ra)
80004774:	00000113          	li	sp,0
80004778:	4cc11663          	bne	sp,a2,80004c44 <bad_trap>

8000477c <inst_545>:
8000477c:	55555537          	lui	a0,0x55555
80004780:	55650513          	addi	a0,a0,1366 # 55555556 <absimm+0x10263027>
80004784:	00500593          	li	a1,5
80004788:	00b52633          	slt	a2,a0,a1
8000478c:	00c0a823          	sw	a2,16(ra)
80004790:	00000113          	li	sp,0
80004794:	4ac11863          	bne	sp,a2,80004c44 <bad_trap>

80004798 <inst_546>:
80004798:	55555537          	lui	a0,0x55555
8000479c:	55650513          	addi	a0,a0,1366 # 55555556 <absimm+0x10263027>
800047a0:	333335b7          	lui	a1,0x33333
800047a4:	33358593          	addi	a1,a1,819 # 33333333 <offset+0x33333287>
800047a8:	00b52633          	slt	a2,a0,a1
800047ac:	00c0aa23          	sw	a2,20(ra)
800047b0:	00000113          	li	sp,0
800047b4:	48c11863          	bne	sp,a2,80004c44 <bad_trap>

800047b8 <inst_547>:
800047b8:	55555537          	lui	a0,0x55555
800047bc:	55650513          	addi	a0,a0,1366 # 55555556 <absimm+0x10263027>
800047c0:	666665b7          	lui	a1,0x66666
800047c4:	66658593          	addi	a1,a1,1638 # 66666666 <absimm+0x21374137>
800047c8:	00b52633          	slt	a2,a0,a1
800047cc:	00c0ac23          	sw	a2,24(ra)
800047d0:	00100113          	li	sp,1
800047d4:	46c11863          	bne	sp,a2,80004c44 <bad_trap>

800047d8 <inst_548>:
800047d8:	55555537          	lui	a0,0x55555
800047dc:	55650513          	addi	a0,a0,1366 # 55555556 <absimm+0x10263027>
800047e0:	ffff55b7          	lui	a1,0xffff5
800047e4:	afc58593          	addi	a1,a1,-1284 # ffff4afc <imm12+0xffff502c>
800047e8:	00b52633          	slt	a2,a0,a1
800047ec:	00c0ae23          	sw	a2,28(ra)
800047f0:	00000113          	li	sp,0
800047f4:	44c11863          	bne	sp,a2,80004c44 <bad_trap>

800047f8 <inst_549>:
800047f8:	55555537          	lui	a0,0x55555
800047fc:	55650513          	addi	a0,a0,1366 # 55555556 <absimm+0x10263027>
80004800:	0000b5b7          	lui	a1,0xb
80004804:	50458593          	addi	a1,a1,1284 # b504 <offset+0xb458>
80004808:	00b52633          	slt	a2,a0,a1
8000480c:	02c0a023          	sw	a2,32(ra)
80004810:	00000113          	li	sp,0
80004814:	42c11863          	bne	sp,a2,80004c44 <bad_trap>

80004818 <inst_550>:
80004818:	55555537          	lui	a0,0x55555
8000481c:	55650513          	addi	a0,a0,1366 # 55555556 <absimm+0x10263027>
80004820:	00200593          	li	a1,2
80004824:	00b52633          	slt	a2,a0,a1
80004828:	02c0a223          	sw	a2,36(ra)
8000482c:	00000113          	li	sp,0
80004830:	40c11a63          	bne	sp,a2,80004c44 <bad_trap>

80004834 <inst_551>:
80004834:	55555537          	lui	a0,0x55555
80004838:	55650513          	addi	a0,a0,1366 # 55555556 <absimm+0x10263027>
8000483c:	555555b7          	lui	a1,0x55555
80004840:	55458593          	addi	a1,a1,1364 # 55555554 <absimm+0x10263025>
80004844:	00b52633          	slt	a2,a0,a1
80004848:	02c0a423          	sw	a2,40(ra)
8000484c:	00000113          	li	sp,0
80004850:	3ec11a63          	bne	sp,a2,80004c44 <bad_trap>

80004854 <inst_552>:
80004854:	55555537          	lui	a0,0x55555
80004858:	55650513          	addi	a0,a0,1366 # 55555556 <absimm+0x10263027>
8000485c:	00000593          	li	a1,0
80004860:	00b52633          	slt	a2,a0,a1
80004864:	02c0a623          	sw	a2,44(ra)
80004868:	00000113          	li	sp,0
8000486c:	3cc11c63          	bne	sp,a2,80004c44 <bad_trap>

80004870 <inst_553>:
80004870:	55555537          	lui	a0,0x55555
80004874:	55650513          	addi	a0,a0,1366 # 55555556 <absimm+0x10263027>
80004878:	00400593          	li	a1,4
8000487c:	00b52633          	slt	a2,a0,a1
80004880:	02c0a823          	sw	a2,48(ra)
80004884:	00000113          	li	sp,0
80004888:	3ac11e63          	bne	sp,a2,80004c44 <bad_trap>

8000488c <inst_554>:
8000488c:	55555537          	lui	a0,0x55555
80004890:	55650513          	addi	a0,a0,1366 # 55555556 <absimm+0x10263027>
80004894:	333335b7          	lui	a1,0x33333
80004898:	33258593          	addi	a1,a1,818 # 33333332 <offset+0x33333286>
8000489c:	00b52633          	slt	a2,a0,a1
800048a0:	02c0aa23          	sw	a2,52(ra)
800048a4:	00000113          	li	sp,0
800048a8:	38c11e63          	bne	sp,a2,80004c44 <bad_trap>

800048ac <inst_555>:
800048ac:	55555537          	lui	a0,0x55555
800048b0:	55650513          	addi	a0,a0,1366 # 55555556 <absimm+0x10263027>
800048b4:	666665b7          	lui	a1,0x66666
800048b8:	66558593          	addi	a1,a1,1637 # 66666665 <absimm+0x21374136>
800048bc:	00b52633          	slt	a2,a0,a1
800048c0:	02c0ac23          	sw	a2,56(ra)
800048c4:	00100113          	li	sp,1
800048c8:	36c11e63          	bne	sp,a2,80004c44 <bad_trap>

800048cc <inst_556>:
800048cc:	55555537          	lui	a0,0x55555
800048d0:	55650513          	addi	a0,a0,1366 # 55555556 <absimm+0x10263027>
800048d4:	0000b5b7          	lui	a1,0xb
800048d8:	50358593          	addi	a1,a1,1283 # b503 <offset+0xb457>
800048dc:	00b52633          	slt	a2,a0,a1
800048e0:	02c0ae23          	sw	a2,60(ra)
800048e4:	00000113          	li	sp,0
800048e8:	34c11e63          	bne	sp,a2,80004c44 <bad_trap>

800048ec <inst_557>:
800048ec:	55555537          	lui	a0,0x55555
800048f0:	55650513          	addi	a0,a0,1366 # 55555556 <absimm+0x10263027>
800048f4:	555555b7          	lui	a1,0x55555
800048f8:	55658593          	addi	a1,a1,1366 # 55555556 <absimm+0x10263027>
800048fc:	00b52633          	slt	a2,a0,a1
80004900:	04c0a023          	sw	a2,64(ra)
80004904:	00000113          	li	sp,0
80004908:	32c11e63          	bne	sp,a2,80004c44 <bad_trap>

8000490c <inst_558>:
8000490c:	55555537          	lui	a0,0x55555
80004910:	55650513          	addi	a0,a0,1366 # 55555556 <absimm+0x10263027>
80004914:	aaaab5b7          	lui	a1,0xaaaab
80004918:	aab58593          	addi	a1,a1,-1365 # aaaaaaab <imm12+0xaaaaafdb>
8000491c:	00b52633          	slt	a2,a0,a1
80004920:	04c0a223          	sw	a2,68(ra)
80004924:	00000113          	li	sp,0
80004928:	30c11e63          	bne	sp,a2,80004c44 <bad_trap>

8000492c <inst_559>:
8000492c:	55555537          	lui	a0,0x55555
80004930:	55650513          	addi	a0,a0,1366 # 55555556 <absimm+0x10263027>
80004934:	00600593          	li	a1,6
80004938:	00b52633          	slt	a2,a0,a1
8000493c:	04c0a423          	sw	a2,72(ra)
80004940:	00000113          	li	sp,0
80004944:	30c11063          	bne	sp,a2,80004c44 <bad_trap>

80004948 <inst_560>:
80004948:	55555537          	lui	a0,0x55555
8000494c:	55650513          	addi	a0,a0,1366 # 55555556 <absimm+0x10263027>
80004950:	333335b7          	lui	a1,0x33333
80004954:	33458593          	addi	a1,a1,820 # 33333334 <offset+0x33333288>
80004958:	00b52633          	slt	a2,a0,a1
8000495c:	04c0a623          	sw	a2,76(ra)
80004960:	00000113          	li	sp,0
80004964:	2ec11063          	bne	sp,a2,80004c44 <bad_trap>

80004968 <inst_561>:
80004968:	55555537          	lui	a0,0x55555
8000496c:	55650513          	addi	a0,a0,1366 # 55555556 <absimm+0x10263027>
80004970:	666665b7          	lui	a1,0x66666
80004974:	66758593          	addi	a1,a1,1639 # 66666667 <absimm+0x21374138>
80004978:	00b52633          	slt	a2,a0,a1
8000497c:	04c0a823          	sw	a2,80(ra)
80004980:	00100113          	li	sp,1
80004984:	2cc11063          	bne	sp,a2,80004c44 <bad_trap>

80004988 <inst_562>:
80004988:	55555537          	lui	a0,0x55555
8000498c:	55650513          	addi	a0,a0,1366 # 55555556 <absimm+0x10263027>
80004990:	ffff55b7          	lui	a1,0xffff5
80004994:	afd58593          	addi	a1,a1,-1283 # ffff4afd <imm12+0xffff502d>
80004998:	00b52633          	slt	a2,a0,a1
8000499c:	04c0aa23          	sw	a2,84(ra)
800049a0:	00000113          	li	sp,0
800049a4:	2ac11063          	bne	sp,a2,80004c44 <bad_trap>

800049a8 <inst_563>:
800049a8:	55555537          	lui	a0,0x55555
800049ac:	55650513          	addi	a0,a0,1366 # 55555556 <absimm+0x10263027>
800049b0:	0000b5b7          	lui	a1,0xb
800049b4:	50558593          	addi	a1,a1,1285 # b505 <offset+0xb459>
800049b8:	00b52633          	slt	a2,a0,a1
800049bc:	04c0ac23          	sw	a2,88(ra)
800049c0:	00000113          	li	sp,0
800049c4:	28c11063          	bne	sp,a2,80004c44 <bad_trap>

800049c8 <inst_564>:
800049c8:	aaaab537          	lui	a0,0xaaaab
800049cc:	aab50513          	addi	a0,a0,-1365 # aaaaaaab <imm12+0xaaaaafdb>
800049d0:	00300593          	li	a1,3
800049d4:	00b52633          	slt	a2,a0,a1
800049d8:	04c0ae23          	sw	a2,92(ra)
800049dc:	00100113          	li	sp,1
800049e0:	26c11263          	bne	sp,a2,80004c44 <bad_trap>

800049e4 <inst_565>:
800049e4:	aaaab537          	lui	a0,0xaaaab
800049e8:	aab50513          	addi	a0,a0,-1365 # aaaaaaab <imm12+0xaaaaafdb>
800049ec:	555555b7          	lui	a1,0x55555
800049f0:	55558593          	addi	a1,a1,1365 # 55555555 <absimm+0x10263026>
800049f4:	00b52633          	slt	a2,a0,a1
800049f8:	06c0a023          	sw	a2,96(ra)
800049fc:	00100113          	li	sp,1
80004a00:	24c11263          	bne	sp,a2,80004c44 <bad_trap>

80004a04 <inst_566>:
80004a04:	aaaab537          	lui	a0,0xaaaab
80004a08:	aab50513          	addi	a0,a0,-1365 # aaaaaaab <imm12+0xaaaaafdb>
80004a0c:	aaaab5b7          	lui	a1,0xaaaab
80004a10:	aaa58593          	addi	a1,a1,-1366 # aaaaaaaa <imm12+0xaaaaafda>
80004a14:	00b52633          	slt	a2,a0,a1
80004a18:	06c0a223          	sw	a2,100(ra)
80004a1c:	00000113          	li	sp,0
80004a20:	22c11263          	bne	sp,a2,80004c44 <bad_trap>

80004a24 <inst_567>:
80004a24:	aaaab537          	lui	a0,0xaaaab
80004a28:	aab50513          	addi	a0,a0,-1365 # aaaaaaab <imm12+0xaaaaafdb>
80004a2c:	00500593          	li	a1,5
80004a30:	00b52633          	slt	a2,a0,a1
80004a34:	06c0a423          	sw	a2,104(ra)
80004a38:	00100113          	li	sp,1
80004a3c:	20c11463          	bne	sp,a2,80004c44 <bad_trap>

80004a40 <inst_568>:
80004a40:	aaaab537          	lui	a0,0xaaaab
80004a44:	aab50513          	addi	a0,a0,-1365 # aaaaaaab <imm12+0xaaaaafdb>
80004a48:	333335b7          	lui	a1,0x33333
80004a4c:	33358593          	addi	a1,a1,819 # 33333333 <offset+0x33333287>
80004a50:	00b52633          	slt	a2,a0,a1
80004a54:	06c0a623          	sw	a2,108(ra)
80004a58:	00100113          	li	sp,1
80004a5c:	1ec11463          	bne	sp,a2,80004c44 <bad_trap>

80004a60 <inst_569>:
80004a60:	aaaab537          	lui	a0,0xaaaab
80004a64:	aab50513          	addi	a0,a0,-1365 # aaaaaaab <imm12+0xaaaaafdb>
80004a68:	666665b7          	lui	a1,0x66666
80004a6c:	66658593          	addi	a1,a1,1638 # 66666666 <absimm+0x21374137>
80004a70:	00b52633          	slt	a2,a0,a1
80004a74:	06c0a823          	sw	a2,112(ra)
80004a78:	00100113          	li	sp,1
80004a7c:	1cc11463          	bne	sp,a2,80004c44 <bad_trap>

80004a80 <inst_570>:
80004a80:	aaaab537          	lui	a0,0xaaaab
80004a84:	aab50513          	addi	a0,a0,-1365 # aaaaaaab <imm12+0xaaaaafdb>
80004a88:	ffff55b7          	lui	a1,0xffff5
80004a8c:	afc58593          	addi	a1,a1,-1284 # ffff4afc <imm12+0xffff502c>
80004a90:	00b52633          	slt	a2,a0,a1
80004a94:	06c0aa23          	sw	a2,116(ra)
80004a98:	00100113          	li	sp,1
80004a9c:	1ac11463          	bne	sp,a2,80004c44 <bad_trap>

80004aa0 <inst_571>:
80004aa0:	aaaab537          	lui	a0,0xaaaab
80004aa4:	aab50513          	addi	a0,a0,-1365 # aaaaaaab <imm12+0xaaaaafdb>
80004aa8:	0000b5b7          	lui	a1,0xb
80004aac:	50458593          	addi	a1,a1,1284 # b504 <offset+0xb458>
80004ab0:	00b52633          	slt	a2,a0,a1
80004ab4:	06c0ac23          	sw	a2,120(ra)
80004ab8:	00100113          	li	sp,1
80004abc:	18c11463          	bne	sp,a2,80004c44 <bad_trap>

80004ac0 <inst_572>:
80004ac0:	aaaab537          	lui	a0,0xaaaab
80004ac4:	aab50513          	addi	a0,a0,-1365 # aaaaaaab <imm12+0xaaaaafdb>
80004ac8:	00200593          	li	a1,2
80004acc:	00b52633          	slt	a2,a0,a1
80004ad0:	06c0ae23          	sw	a2,124(ra)
80004ad4:	00100113          	li	sp,1
80004ad8:	16c11663          	bne	sp,a2,80004c44 <bad_trap>

80004adc <inst_573>:
80004adc:	aaaab537          	lui	a0,0xaaaab
80004ae0:	aab50513          	addi	a0,a0,-1365 # aaaaaaab <imm12+0xaaaaafdb>
80004ae4:	555555b7          	lui	a1,0x55555
80004ae8:	55458593          	addi	a1,a1,1364 # 55555554 <absimm+0x10263025>
80004aec:	00b52633          	slt	a2,a0,a1
80004af0:	08c0a023          	sw	a2,128(ra)
80004af4:	00100113          	li	sp,1
80004af8:	14c11663          	bne	sp,a2,80004c44 <bad_trap>

80004afc <inst_574>:
80004afc:	aaaab537          	lui	a0,0xaaaab
80004b00:	aab50513          	addi	a0,a0,-1365 # aaaaaaab <imm12+0xaaaaafdb>
80004b04:	00000593          	li	a1,0
80004b08:	00b52633          	slt	a2,a0,a1
80004b0c:	08c0a223          	sw	a2,132(ra)
80004b10:	00100113          	li	sp,1
80004b14:	12c11863          	bne	sp,a2,80004c44 <bad_trap>

80004b18 <inst_575>:
80004b18:	aaaab537          	lui	a0,0xaaaab
80004b1c:	aab50513          	addi	a0,a0,-1365 # aaaaaaab <imm12+0xaaaaafdb>
80004b20:	00400593          	li	a1,4
80004b24:	00b52633          	slt	a2,a0,a1
80004b28:	08c0a423          	sw	a2,136(ra)
80004b2c:	00100113          	li	sp,1
80004b30:	10c11a63          	bne	sp,a2,80004c44 <bad_trap>

80004b34 <inst_576>:
80004b34:	aaaab537          	lui	a0,0xaaaab
80004b38:	aab50513          	addi	a0,a0,-1365 # aaaaaaab <imm12+0xaaaaafdb>
80004b3c:	333335b7          	lui	a1,0x33333
80004b40:	33258593          	addi	a1,a1,818 # 33333332 <offset+0x33333286>
80004b44:	00b52633          	slt	a2,a0,a1
80004b48:	08c0a623          	sw	a2,140(ra)
80004b4c:	00100113          	li	sp,1
80004b50:	0ec11a63          	bne	sp,a2,80004c44 <bad_trap>

80004b54 <inst_577>:
80004b54:	aaaab537          	lui	a0,0xaaaab
80004b58:	aab50513          	addi	a0,a0,-1365 # aaaaaaab <imm12+0xaaaaafdb>
80004b5c:	666665b7          	lui	a1,0x66666
80004b60:	66558593          	addi	a1,a1,1637 # 66666665 <absimm+0x21374136>
80004b64:	00b52633          	slt	a2,a0,a1
80004b68:	08c0a823          	sw	a2,144(ra)
80004b6c:	00100113          	li	sp,1
80004b70:	0cc11a63          	bne	sp,a2,80004c44 <bad_trap>

80004b74 <inst_578>:
80004b74:	aaaab537          	lui	a0,0xaaaab
80004b78:	aab50513          	addi	a0,a0,-1365 # aaaaaaab <imm12+0xaaaaafdb>
80004b7c:	0000b5b7          	lui	a1,0xb
80004b80:	50358593          	addi	a1,a1,1283 # b503 <offset+0xb457>
80004b84:	00b52633          	slt	a2,a0,a1
80004b88:	08c0aa23          	sw	a2,148(ra)
80004b8c:	00100113          	li	sp,1
80004b90:	0ac11a63          	bne	sp,a2,80004c44 <bad_trap>

80004b94 <inst_579>:
80004b94:	aaaab537          	lui	a0,0xaaaab
80004b98:	aab50513          	addi	a0,a0,-1365 # aaaaaaab <imm12+0xaaaaafdb>
80004b9c:	555555b7          	lui	a1,0x55555
80004ba0:	55658593          	addi	a1,a1,1366 # 55555556 <absimm+0x10263027>
80004ba4:	00b52633          	slt	a2,a0,a1
80004ba8:	08c0ac23          	sw	a2,152(ra)
80004bac:	00100113          	li	sp,1
80004bb0:	08c11a63          	bne	sp,a2,80004c44 <bad_trap>

80004bb4 <inst_580>:
80004bb4:	ffffc537          	lui	a0,0xffffc
80004bb8:	fff50513          	addi	a0,a0,-1 # ffffbfff <imm12+0xffffc52f>
80004bbc:	ff700593          	li	a1,-9
80004bc0:	00b52633          	slt	a2,a0,a1
80004bc4:	08c0ae23          	sw	a2,156(ra)
80004bc8:	00100113          	li	sp,1
80004bcc:	06c11c63          	bne	sp,a2,80004c44 <bad_trap>

80004bd0 <inst_581>:
80004bd0:	ffffc537          	lui	a0,0xffffc
80004bd4:	fff50513          	addi	a0,a0,-1 # ffffbfff <imm12+0xffffc52f>
80004bd8:	001005b7          	lui	a1,0x100
80004bdc:	00b52633          	slt	a2,a0,a1
80004be0:	0ac0a023          	sw	a2,160(ra)
80004be4:	00100113          	li	sp,1
80004be8:	04c11e63          	bne	sp,a2,80004c44 <bad_trap>

80004bec <inst_582>:
80004bec:	00400513          	li	a0,4
80004bf0:	002005b7          	lui	a1,0x200
80004bf4:	00b52633          	slt	a2,a0,a1
80004bf8:	0ac0a223          	sw	a2,164(ra)
80004bfc:	00100113          	li	sp,1
80004c00:	04c11263          	bne	sp,a2,80004c44 <bad_trap>

80004c04 <inst_583>:
80004c04:	00900513          	li	a0,9
80004c08:	004005b7          	lui	a1,0x400
80004c0c:	00b52633          	slt	a2,a0,a1
80004c10:	0ac0a423          	sw	a2,168(ra)
80004c14:	00100113          	li	sp,1
80004c18:	02c11663          	bne	sp,a2,80004c44 <bad_trap>

80004c1c <cleanup_epilogs>:
80004c1c:	0200006f          	j	80004c3c <exit_cleanup>

80004c20 <abort_tests>:
80004c20:	17812483          	lw	s1,376(sp) # 2178 <offset+0x20cc>
80004c24:	18012303          	lw	t1,384(sp)
80004c28:	00930333          	add	t1,t1,s1
80004c2c:	bad0e337          	lui	t1,0xbad0e
80004c30:	ad030313          	addi	t1,t1,-1328 # bad0dad0 <imm12+0xbad0e000>
80004c34:	fe64ae23          	sw	t1,-4(s1) # 1fffc <offset+0x1ff50>
80004c38:	0040006f          	j	80004c3c <exit_cleanup>

80004c3c <exit_cleanup>:
80004c3c:	00000513          	li	a0,0
80004c40:	010000ef          	jal	ra,80004c50 <halt>

80004c44 <bad_trap>:
80004c44:	00100513          	li	a0,1
80004c48:	008000ef          	jal	ra,80004c50 <halt>
80004c4c:	0000                	unimp
	...

80004c50 <halt>:
80004c50:	0000006f          	j	80004c50 <halt>

80004c54 <_trm_init>:
80004c54:	ff010113          	addi	sp,sp,-16
80004c58:	00000517          	auipc	a0,0x0
80004c5c:	01450513          	addi	a0,a0,20 # 80004c6c <_etext>
80004c60:	00112623          	sw	ra,12(sp)
80004c64:	bacfb0ef          	jal	ra,80000010 <main>
80004c68:	0000006f          	j	80004c68 <_trm_init+0x14>
