
test/sltiu-riscv32-ni.elf:     file format elf32-littleriscv


Disassembly of section .text:

80000000 <_start>:
80000000:	00000413          	li	s0,0
80000004:	00017117          	auipc	sp,0x17
80000008:	ffc10113          	addi	sp,sp,-4 # 80017000 <_end>
8000000c:	011040ef          	jal	ra,8000481c <_trm_init>

80000010 <main>:
80000010:	010000ef          	jal	ra,80000020 <rvtest_entry_point>
80000014:	00000513          	li	a0,0
80000018:	00008067          	ret
8000001c:	0000                	unimp
	...

80000020 <rvtest_entry_point>:
80000020:	7d5c0837          	lui	a6,0x7d5c0
80000024:	ddb80813          	addi	a6,a6,-549 # 7d5bfddb <absimm+0x382cd8ac>
80000028:	00785893          	srli	a7,a6,0x7
8000002c:	01985793          	srli	a5,a6,0x19
80000030:	00f8e8b3          	or	a7,a7,a5
80000034:	0078d913          	srli	s2,a7,0x7
80000038:	0198d793          	srli	a5,a7,0x19
8000003c:	00f96933          	or	s2,s2,a5
80000040:	00795993          	srli	s3,s2,0x7
80000044:	01995793          	srli	a5,s2,0x19
80000048:	00f9e9b3          	or	s3,s3,a5
8000004c:	0079da13          	srli	s4,s3,0x7
80000050:	0199d793          	srli	a5,s3,0x19
80000054:	00fa6a33          	or	s4,s4,a5
80000058:	007a5a93          	srli	s5,s4,0x7
8000005c:	019a5793          	srli	a5,s4,0x19
80000060:	00faeab3          	or	s5,s5,a5
80000064:	007adb13          	srli	s6,s5,0x7
80000068:	019ad793          	srli	a5,s5,0x19
8000006c:	00fb6b33          	or	s6,s6,a5
80000070:	007b5b93          	srli	s7,s6,0x7
80000074:	019b5793          	srli	a5,s6,0x19
80000078:	00fbebb3          	or	s7,s7,a5
8000007c:	007bdc13          	srli	s8,s7,0x7
80000080:	019bd793          	srli	a5,s7,0x19
80000084:	00fc6c33          	or	s8,s8,a5
80000088:	007c5c93          	srli	s9,s8,0x7
8000008c:	019c5793          	srli	a5,s8,0x19
80000090:	00fcecb3          	or	s9,s9,a5
80000094:	007cdd13          	srli	s10,s9,0x7
80000098:	019cd793          	srli	a5,s9,0x19
8000009c:	00fd6d33          	or	s10,s10,a5
800000a0:	007d5d93          	srli	s11,s10,0x7
800000a4:	019d5793          	srli	a5,s10,0x19
800000a8:	00fdedb3          	or	s11,s11,a5
800000ac:	007dde13          	srli	t3,s11,0x7
800000b0:	019dd793          	srli	a5,s11,0x19
800000b4:	00fe6e33          	or	t3,t3,a5
800000b8:	007e5e93          	srli	t4,t3,0x7
800000bc:	019e5793          	srli	a5,t3,0x19
800000c0:	00feeeb3          	or	t4,t4,a5
800000c4:	007edf13          	srli	t5,t4,0x7
800000c8:	019ed793          	srli	a5,t4,0x19
800000cc:	00ff6f33          	or	t5,t5,a5
800000d0:	feedc0b7          	lui	ra,0xfeedc
800000d4:	ead08093          	addi	ra,ra,-339 # feedbead <imm12+0xfeedc3dd>
800000d8:	0070d113          	srli	sp,ra,0x7
800000dc:	0190d793          	srli	a5,ra,0x19
800000e0:	00f16133          	or	sp,sp,a5
800000e4:	00715193          	srli	gp,sp,0x7
800000e8:	01915793          	srli	a5,sp,0x19
800000ec:	00f1e1b3          	or	gp,gp,a5
800000f0:	0071d213          	srli	tp,gp,0x7
800000f4:	0191d793          	srli	a5,gp,0x19
800000f8:	00f26233          	or	tp,tp,a5
800000fc:	00725293          	srli	t0,tp,0x7
80000100:	01925793          	srli	a5,tp,0x19
80000104:	00f2e2b3          	or	t0,t0,a5
80000108:	0072d313          	srli	t1,t0,0x7
8000010c:	0192d793          	srli	a5,t0,0x19
80000110:	00f36333          	or	t1,t1,a5
80000114:	00735393          	srli	t2,t1,0x7
80000118:	01935793          	srli	a5,t1,0x19
8000011c:	00f3e3b3          	or	t2,t2,a5
80000120:	0073d413          	srli	s0,t2,0x7
80000124:	0193d793          	srli	a5,t2,0x19
80000128:	00f46433          	or	s0,s0,a5
8000012c:	00745493          	srli	s1,s0,0x7
80000130:	01945793          	srli	a5,s0,0x19
80000134:	00f4e4b3          	or	s1,s1,a5
80000138:	0074d513          	srli	a0,s1,0x7
8000013c:	0194d793          	srli	a5,s1,0x19
80000140:	00f56533          	or	a0,a0,a5
80000144:	00755593          	srli	a1,a0,0x7
80000148:	01955793          	srli	a5,a0,0x19
8000014c:	00f5e5b3          	or	a1,a1,a5
80000150:	0075d613          	srli	a2,a1,0x7
80000154:	0195d793          	srli	a5,a1,0x19
80000158:	00f66633          	or	a2,a2,a5
8000015c:	00765693          	srli	a3,a2,0x7
80000160:	01965793          	srli	a5,a2,0x19
80000164:	00f6e6b3          	or	a3,a3,a5

80000168 <rvtest_code_begin>:
80000168:	00000013          	nop
8000016c:	00000013          	nop
80000170:	00000013          	nop
80000174:	00000013          	nop
80000178:	00000013          	nop
8000017c:	00000013          	nop
80000180:	00006397          	auipc	t2,0x6
80000184:	e8438393          	addi	t2,t2,-380 # 80006004 <signature_x7_0>
80000188:	00000013          	nop
8000018c:	00000013          	nop
80000190:	00000013          	nop
80000194:	00000013          	nop
80000198:	00000013          	nop
8000019c:	00000013          	nop

800001a0 <inst_0>:
800001a0:	40000b93          	li	s7,1024
800001a4:	000bbe13          	sltiu	t3,s7,0
800001a8:	01c3a023          	sw	t3,0(t2)
800001ac:	00000913          	li	s2,0
800001b0:	01c90463          	beq	s2,t3,800001b8 <inst_1>
800001b4:	6480406f          	j	800047fc <bad_trap>

800001b8 <inst_1>:
800001b8:	00001137          	lui	sp,0x1
800001bc:	80010113          	addi	sp,sp,-2048 # 800 <offset+0x55c>
800001c0:	fff13113          	sltiu	sp,sp,-1
800001c4:	0023a223          	sw	sp,4(t2)
800001c8:	00100913          	li	s2,1
800001cc:	00290463          	beq	s2,sp,800001d4 <inst_2>
800001d0:	62c0406f          	j	800047fc <bad_trap>

800001d4 <inst_2>:
800001d4:	00400193          	li	gp,4
800001d8:	0011bc93          	seqz	s9,gp
800001dc:	0193a423          	sw	s9,8(t2)
800001e0:	00000913          	li	s2,0
800001e4:	01990463          	beq	s2,s9,800001ec <inst_3>
800001e8:	6140406f          	j	800047fc <bad_trap>

800001ec <inst_3>:
800001ec:	00000993          	li	s3,0
800001f0:	0069b593          	sltiu	a1,s3,6
800001f4:	00b3a623          	sw	a1,12(t2)
800001f8:	00100913          	li	s2,1
800001fc:	00b90463          	beq	s2,a1,80000204 <inst_4>
80000200:	5fc0406f          	j	800047fc <bad_trap>

80000204 <inst_4>:
80000204:	fff00713          	li	a4,-1
80000208:	02c73793          	sltiu	a5,a4,44
8000020c:	00f3a823          	sw	a5,16(t2)
80000210:	00000913          	li	s2,0
80000214:	00f90463          	beq	s2,a5,8000021c <inst_5>
80000218:	5e40406f          	j	800047fc <bad_trap>

8000021c <inst_5>:
8000021c:	00100693          	li	a3,1
80000220:	0006b213          	sltiu	tp,a3,0
80000224:	0043aa23          	sw	tp,20(t2)
80000228:	00000913          	li	s2,0
8000022c:	00490463          	beq	s2,tp,80000234 <inst_6>
80000230:	5cc0406f          	j	800047fc <bad_trap>

80000234 <inst_6>:
80000234:	00d00d13          	li	s10,13
80000238:	00dd3193          	sltiu	gp,s10,13
8000023c:	0033ac23          	sw	gp,24(t2)
80000240:	00000913          	li	s2,0
80000244:	00390463          	beq	s2,gp,8000024c <inst_7>
80000248:	5b40406f          	j	800047fc <bad_trap>

8000024c <inst_7>:
8000024c:	aaaaba37          	lui	s4,0xaaaab
80000250:	aaaa0a13          	addi	s4,s4,-1366 # aaaaaaaa <imm12+0xaaaaafda>
80000254:	002a3e93          	sltiu	t4,s4,2
80000258:	01d3ae23          	sw	t4,28(t2)
8000025c:	00000913          	li	s2,0
80000260:	01d90463          	beq	s2,t4,80000268 <inst_8>
80000264:	5980406f          	j	800047fc <bad_trap>

80000268 <inst_8>:
80000268:	80000db7          	lui	s11,0x80000
8000026c:	fffd8d93          	addi	s11,s11,-1 # 7fffffff <imm12+0x8000052f>
80000270:	004db813          	sltiu	a6,s11,4
80000274:	0303a023          	sw	a6,32(t2)
80000278:	00000913          	li	s2,0
8000027c:	01090463          	beq	s2,a6,80000284 <inst_9>
80000280:	57c0406f          	j	800047fc <bad_trap>

80000284 <inst_9>:
80000284:	ff0008b7          	lui	a7,0xff000
80000288:	fff88893          	addi	a7,a7,-1 # feffffff <imm12+0xff00052f>
8000028c:	0088ba13          	sltiu	s4,a7,8
80000290:	0343a223          	sw	s4,36(t2)
80000294:	00000913          	li	s2,0
80000298:	01490463          	beq	s2,s4,800002a0 <inst_10>
8000029c:	5600406f          	j	800047fc <bad_trap>

800002a0 <inst_10>:
800002a0:	00001fb7          	lui	t6,0x1
800002a4:	800f8f93          	addi	t6,t6,-2048 # 800 <offset+0x55c>
800002a8:	010fb413          	sltiu	s0,t6,16
800002ac:	0283a423          	sw	s0,40(t2)
800002b0:	00000913          	li	s2,0
800002b4:	00890463          	beq	s2,s0,800002bc <inst_11>
800002b8:	5440406f          	j	800047fc <bad_trap>

800002bc <inst_11>:
800002bc:	00c00c13          	li	s8,12
800002c0:	020c3b93          	sltiu	s7,s8,32
800002c4:	0373a623          	sw	s7,44(t2)
800002c8:	00100913          	li	s2,1
800002cc:	01790463          	beq	s2,s7,800002d4 <inst_12>
800002d0:	52c0406f          	j	800047fc <bad_trap>

800002d4 <inst_12>:
800002d4:	55555cb7          	lui	s9,0x55555
800002d8:	555c8c93          	addi	s9,s9,1365 # 55555555 <absimm+0x10263026>
800002dc:	040cbd13          	sltiu	s10,s9,64
800002e0:	03a3a823          	sw	s10,48(t2)
800002e4:	00000913          	li	s2,0
800002e8:	01a90463          	beq	s2,s10,800002f0 <inst_13>
800002ec:	5100406f          	j	800047fc <bad_trap>

800002f0 <inst_13>:
800002f0:	00080b37          	lui	s6,0x80
800002f4:	080b3313          	sltiu	t1,s6,128
800002f8:	0263aa23          	sw	t1,52(t2)
800002fc:	00000913          	li	s2,0
80000300:	00690463          	beq	s2,t1,80000308 <inst_14>
80000304:	4f80406f          	j	800047fc <bad_trap>

80000308 <inst_14>:
80000308:	ff700613          	li	a2,-9
8000030c:	10063293          	sltiu	t0,a2,256
80000310:	0253ac23          	sw	t0,56(t2)
80000314:	00000913          	li	s2,0
80000318:	00590463          	beq	s2,t0,80000320 <inst_15>
8000031c:	4e00406f          	j	800047fc <bad_trap>

80000320 <inst_15>:
80000320:	800004b7          	lui	s1,0x80000
80000324:	2004b093          	sltiu	ra,s1,512
80000328:	0213ae23          	sw	ra,60(t2)
8000032c:	00000913          	li	s2,0
80000330:	00190463          	beq	s2,ra,80000338 <inst_16>
80000334:	4c80406f          	j	800047fc <bad_trap>

80000338 <inst_16>:
80000338:	fffc0e37          	lui	t3,0xfffc0
8000033c:	fffe0e13          	addi	t3,t3,-1 # fffbffff <imm12+0xfffc052f>
80000340:	400e3513          	sltiu	a0,t3,1024
80000344:	04a3a023          	sw	a0,64(t2)
80000348:	00000913          	li	s2,0
8000034c:	00a90463          	beq	s2,a0,80000354 <inst_17>
80000350:	4ac0406f          	j	800047fc <bad_trap>

80000354 <inst_17>:
80000354:	00000a93          	li	s5,0
80000358:	800abf93          	sltiu	t6,s5,-2048
8000035c:	05f3a223          	sw	t6,68(t2)
80000360:	00100193          	li	gp,1
80000364:	01f18463          	beq	gp,t6,8000036c <inst_17+0x18>
80000368:	4940406f          	j	800047fc <bad_trap>
8000036c:	00000013          	nop
80000370:	00000013          	nop
80000374:	00000013          	nop
80000378:	00000013          	nop
8000037c:	00000013          	nop
80000380:	00006117          	auipc	sp,0x6
80000384:	ccc10113          	addi	sp,sp,-820 # 8000604c <signature_x2_0>
80000388:	00000013          	nop
8000038c:	00000013          	nop
80000390:	00000013          	nop
80000394:	00000013          	nop
80000398:	00000013          	nop
8000039c:	00000013          	nop

800003a0 <inst_18>:
800003a0:	00000013          	nop
800003a4:	ffe03a93          	sltiu	s5,zero,-2
800003a8:	01512023          	sw	s5,0(sp)
800003ac:	00100193          	li	gp,1
800003b0:	01518463          	beq	gp,s5,800003b8 <inst_19>
800003b4:	4480406f          	j	800047fc <bad_trap>

800003b8 <inst_19>:
800003b8:	01200593          	li	a1,18
800003bc:	ffd5b713          	sltiu	a4,a1,-3
800003c0:	00e12223          	sw	a4,4(sp)
800003c4:	00100193          	li	gp,1
800003c8:	00e18463          	beq	gp,a4,800003d0 <inst_20>
800003cc:	4300406f          	j	800047fc <bad_trap>

800003d0 <inst_20>:
800003d0:	00600f13          	li	t5,6
800003d4:	ffbf3693          	sltiu	a3,t5,-5
800003d8:	00d12423          	sw	a3,8(sp)
800003dc:	00100193          	li	gp,1
800003e0:	00d18463          	beq	gp,a3,800003e8 <inst_21>
800003e4:	4180406f          	j	800047fc <bad_trap>

800003e8 <inst_21>:
800003e8:	40000eb7          	lui	t4,0x40000
800003ec:	ff7eb893          	sltiu	a7,t4,-9
800003f0:	01112623          	sw	a7,12(sp)
800003f4:	00100193          	li	gp,1
800003f8:	01118463          	beq	gp,a7,80000400 <inst_22>
800003fc:	4000406f          	j	800047fc <bad_trap>

80000400 <inst_22>:
80000400:	fbf00413          	li	s0,-65
80000404:	fef43c13          	sltiu	s8,s0,-17
80000408:	01812823          	sw	s8,16(sp)
8000040c:	00100193          	li	gp,1
80000410:	01818463          	beq	gp,s8,80000418 <inst_23>
80000414:	3e80406f          	j	800047fc <bad_trap>

80000418 <inst_23>:
80000418:	00500093          	li	ra,5
8000041c:	fdf0bd93          	sltiu	s11,ra,-33
80000420:	01b12a23          	sw	s11,20(sp)
80000424:	00100193          	li	gp,1
80000428:	01b18463          	beq	gp,s11,80000430 <inst_24>
8000042c:	3d00406f          	j	800047fc <bad_trap>

80000430 <inst_24>:
80000430:	00300393          	li	t2,3
80000434:	fbf3bf13          	sltiu	t5,t2,-65
80000438:	01e12c23          	sw	t5,24(sp)
8000043c:	00100193          	li	gp,1
80000440:	01e18463          	beq	gp,t5,80000448 <inst_25>
80000444:	3b80406f          	j	800047fc <bad_trap>

80000448 <inst_25>:
80000448:	000402b7          	lui	t0,0x40
8000044c:	f7f2bb13          	sltiu	s6,t0,-129
80000450:	01612e23          	sw	s6,28(sp)
80000454:	00100193          	li	gp,1
80000458:	01618463          	beq	gp,s6,80000460 <inst_26>
8000045c:	3a00406f          	j	800047fc <bad_trap>

80000460 <inst_26>:
80000460:	00e00793          	li	a5,14
80000464:	eff7b013          	sltiu	zero,a5,-257
80000468:	02012023          	sw	zero,32(sp)
8000046c:	00000193          	li	gp,0
80000470:	00018463          	beqz	gp,80000478 <inst_27>
80000474:	3880406f          	j	800047fc <bad_trap>

80000478 <inst_27>:
80000478:	00300313          	li	t1,3
8000047c:	dff33393          	sltiu	t2,t1,-513
80000480:	02712223          	sw	t2,36(sp)
80000484:	00100193          	li	gp,1
80000488:	00718463          	beq	gp,t2,80000490 <inst_28>
8000048c:	3700406f          	j	800047fc <bad_trap>

80000490 <inst_28>:
80000490:	80000937          	lui	s2,0x80000
80000494:	fff90913          	addi	s2,s2,-1 # 7fffffff <imm12+0x8000052f>
80000498:	bff93613          	sltiu	a2,s2,-1025
8000049c:	02c12423          	sw	a2,40(sp)
800004a0:	00100193          	li	gp,1
800004a4:	00c18463          	beq	gp,a2,800004ac <inst_29>
800004a8:	3540406f          	j	800047fc <bad_trap>

800004ac <inst_29>:
800004ac:	01000837          	lui	a6,0x1000
800004b0:	7ff83913          	sltiu	s2,a6,2047
800004b4:	03212623          	sw	s2,44(sp)
800004b8:	00000193          	li	gp,0
800004bc:	01218463          	beq	gp,s2,800004c4 <inst_30>
800004c0:	33c0406f          	j	800047fc <bad_trap>

800004c4 <inst_30>:
800004c4:	fc000237          	lui	tp,0xfc000
800004c8:	fff20213          	addi	tp,tp,-1 # fbffffff <imm12+0xfc00052f>
800004cc:	55523493          	sltiu	s1,tp,1365
800004d0:	02912823          	sw	s1,48(sp)
800004d4:	00000193          	li	gp,0
800004d8:	00918463          	beq	gp,s1,800004e0 <inst_31>
800004dc:	3200406f          	j	800047fc <bad_trap>

800004e0 <inst_31>:
800004e0:	fffff537          	lui	a0,0xfffff
800004e4:	7ff50513          	addi	a0,a0,2047 # fffff7ff <imm12+0xfffffd2f>
800004e8:	aaa53993          	sltiu	s3,a0,-1366
800004ec:	03312a23          	sw	s3,52(sp)
800004f0:	00100193          	li	gp,1
800004f4:	01318463          	beq	gp,s3,800004fc <inst_32>
800004f8:	3040406f          	j	800047fc <bad_trap>

800004fc <inst_32>:
800004fc:	00200513          	li	a0,2
80000500:	02053593          	sltiu	a1,a0,32
80000504:	02b12c23          	sw	a1,56(sp)
80000508:	00100193          	li	gp,1
8000050c:	00b18463          	beq	gp,a1,80000514 <inst_33>
80000510:	2ec0406f          	j	800047fc <bad_trap>

80000514 <inst_33>:
80000514:	00800513          	li	a0,8
80000518:	08053593          	sltiu	a1,a0,128
8000051c:	02b12e23          	sw	a1,60(sp)
80000520:	00100193          	li	gp,1
80000524:	00b18463          	beq	gp,a1,8000052c <inst_34>
80000528:	2d40406f          	j	800047fc <bad_trap>

8000052c <inst_34>:
8000052c:	02000513          	li	a0,32
80000530:	80053593          	sltiu	a1,a0,-2048
80000534:	04b12023          	sw	a1,64(sp)
80000538:	00100193          	li	gp,1
8000053c:	00b18463          	beq	gp,a1,80000544 <inst_35>
80000540:	2bc0406f          	j	800047fc <bad_trap>

80000544 <inst_35>:
80000544:	04000513          	li	a0,64
80000548:	00253593          	sltiu	a1,a0,2
8000054c:	04b12223          	sw	a1,68(sp)
80000550:	00000193          	li	gp,0
80000554:	00b18463          	beq	gp,a1,8000055c <inst_36>
80000558:	2a40406f          	j	800047fc <bad_trap>

8000055c <inst_36>:
8000055c:	08000513          	li	a0,128
80000560:	ff753593          	sltiu	a1,a0,-9
80000564:	04b12423          	sw	a1,72(sp)
80000568:	00100193          	li	gp,1
8000056c:	00b18463          	beq	gp,a1,80000574 <inst_37>
80000570:	28c0406f          	j	800047fc <bad_trap>

80000574 <inst_37>:
80000574:	10000513          	li	a0,256
80000578:	fdf53593          	sltiu	a1,a0,-33
8000057c:	04b12623          	sw	a1,76(sp)
80000580:	00100193          	li	gp,1
80000584:	00b18463          	beq	gp,a1,8000058c <inst_38>
80000588:	2740406f          	j	800047fc <bad_trap>

8000058c <inst_38>:
8000058c:	20000513          	li	a0,512
80000590:	ff753593          	sltiu	a1,a0,-9
80000594:	04b12823          	sw	a1,80(sp)
80000598:	00100193          	li	gp,1
8000059c:	00b18463          	beq	gp,a1,800005a4 <inst_39>
800005a0:	25c0406f          	j	800047fc <bad_trap>

800005a4 <inst_39>:
800005a4:	00001537          	lui	a0,0x1
800005a8:	02e53593          	sltiu	a1,a0,46
800005ac:	04b12a23          	sw	a1,84(sp)
800005b0:	00000193          	li	gp,0
800005b4:	00b18463          	beq	gp,a1,800005bc <inst_40>
800005b8:	2440406f          	j	800047fc <bad_trap>

800005bc <inst_40>:
800005bc:	00002537          	lui	a0,0x2
800005c0:	02e53593          	sltiu	a1,a0,46
800005c4:	04b12c23          	sw	a1,88(sp)
800005c8:	00000193          	li	gp,0
800005cc:	00b18463          	beq	gp,a1,800005d4 <inst_41>
800005d0:	22c0406f          	j	800047fc <bad_trap>

800005d4 <inst_41>:
800005d4:	00004537          	lui	a0,0x4
800005d8:	00753593          	sltiu	a1,a0,7
800005dc:	04b12e23          	sw	a1,92(sp)
800005e0:	00000193          	li	gp,0
800005e4:	00b18463          	beq	gp,a1,800005ec <inst_42>
800005e8:	2140406f          	j	800047fc <bad_trap>

800005ec <inst_42>:
800005ec:	00008537          	lui	a0,0x8
800005f0:	00253593          	sltiu	a1,a0,2
800005f4:	06b12023          	sw	a1,96(sp)
800005f8:	00000193          	li	gp,0
800005fc:	00b18463          	beq	gp,a1,80000604 <inst_43>
80000600:	1fc0406f          	j	800047fc <bad_trap>

80000604 <inst_43>:
80000604:	00010537          	lui	a0,0x10
80000608:	00553593          	sltiu	a1,a0,5
8000060c:	06b12223          	sw	a1,100(sp)
80000610:	00000193          	li	gp,0
80000614:	00b18463          	beq	gp,a1,8000061c <inst_44>
80000618:	1e40406f          	j	800047fc <bad_trap>

8000061c <inst_44>:
8000061c:	00020537          	lui	a0,0x20
80000620:	02e53593          	sltiu	a1,a0,46
80000624:	06b12423          	sw	a1,104(sp)
80000628:	00000193          	li	gp,0
8000062c:	00b18463          	beq	gp,a1,80000634 <inst_45>
80000630:	1cc0406f          	j	800047fc <bad_trap>

80000634 <inst_45>:
80000634:	00100537          	lui	a0,0x100
80000638:	01053593          	sltiu	a1,a0,16
8000063c:	06b12623          	sw	a1,108(sp)
80000640:	00000193          	li	gp,0
80000644:	00b18463          	beq	gp,a1,8000064c <inst_46>
80000648:	1b40406f          	j	800047fc <bad_trap>

8000064c <inst_46>:
8000064c:	00200537          	lui	a0,0x200
80000650:	00553593          	sltiu	a1,a0,5
80000654:	06b12823          	sw	a1,112(sp)
80000658:	00000193          	li	gp,0
8000065c:	00b18463          	beq	gp,a1,80000664 <inst_47>
80000660:	19c0406f          	j	800047fc <bad_trap>

80000664 <inst_47>:
80000664:	00400537          	lui	a0,0x400
80000668:	fdf53593          	sltiu	a1,a0,-33
8000066c:	06b12a23          	sw	a1,116(sp)
80000670:	00100193          	li	gp,1
80000674:	00b18463          	beq	gp,a1,8000067c <inst_48>
80000678:	1840406f          	j	800047fc <bad_trap>

8000067c <inst_48>:
8000067c:	00800537          	lui	a0,0x800
80000680:	80053593          	sltiu	a1,a0,-2048
80000684:	06b12c23          	sw	a1,120(sp)
80000688:	00100193          	li	gp,1
8000068c:	00b18463          	beq	gp,a1,80000694 <inst_49>
80000690:	16c0406f          	j	800047fc <bad_trap>

80000694 <inst_49>:
80000694:	02000537          	lui	a0,0x2000
80000698:	00853593          	sltiu	a1,a0,8
8000069c:	06b12e23          	sw	a1,124(sp)
800006a0:	00000193          	li	gp,0
800006a4:	00b18463          	beq	gp,a1,800006ac <inst_50>
800006a8:	1540406f          	j	800047fc <bad_trap>

800006ac <inst_50>:
800006ac:	04000537          	lui	a0,0x4000
800006b0:	80053593          	sltiu	a1,a0,-2048
800006b4:	08b12023          	sw	a1,128(sp)
800006b8:	00100193          	li	gp,1
800006bc:	00b18463          	beq	gp,a1,800006c4 <inst_51>
800006c0:	13c0406f          	j	800047fc <bad_trap>

800006c4 <inst_51>:
800006c4:	08000537          	lui	a0,0x8000
800006c8:	00c53593          	sltiu	a1,a0,12
800006cc:	08b12223          	sw	a1,132(sp)
800006d0:	00000193          	li	gp,0
800006d4:	00b18463          	beq	gp,a1,800006dc <inst_52>
800006d8:	1240406f          	j	800047fc <bad_trap>

800006dc <inst_52>:
800006dc:	10000537          	lui	a0,0x10000
800006e0:	fbf53593          	sltiu	a1,a0,-65
800006e4:	08b12423          	sw	a1,136(sp)
800006e8:	00100193          	li	gp,1
800006ec:	00b18463          	beq	gp,a1,800006f4 <inst_53>
800006f0:	10c0406f          	j	800047fc <bad_trap>

800006f4 <inst_53>:
800006f4:	20000537          	lui	a0,0x20000
800006f8:	01053593          	sltiu	a1,a0,16
800006fc:	08b12623          	sw	a1,140(sp)
80000700:	00000193          	li	gp,0
80000704:	00b18463          	beq	gp,a1,8000070c <inst_54>
80000708:	0f40406f          	j	800047fc <bad_trap>

8000070c <inst_54>:
8000070c:	ffe00513          	li	a0,-2
80000710:	fef53593          	sltiu	a1,a0,-17
80000714:	08b12823          	sw	a1,144(sp)
80000718:	00000193          	li	gp,0
8000071c:	00b18463          	beq	gp,a1,80000724 <inst_55>
80000720:	0dc0406f          	j	800047fc <bad_trap>

80000724 <inst_55>:
80000724:	ffd00513          	li	a0,-3
80000728:	fff53593          	sltiu	a1,a0,-1
8000072c:	08b12a23          	sw	a1,148(sp)
80000730:	00100193          	li	gp,1
80000734:	00b18463          	beq	gp,a1,8000073c <inst_56>
80000738:	0c40406f          	j	800047fc <bad_trap>

8000073c <inst_56>:
8000073c:	ffb00513          	li	a0,-5
80000740:	02053593          	sltiu	a1,a0,32
80000744:	08b12c23          	sw	a1,152(sp)
80000748:	00000193          	li	gp,0
8000074c:	00b18463          	beq	gp,a1,80000754 <inst_57>
80000750:	0ac0406f          	j	800047fc <bad_trap>

80000754 <inst_57>:
80000754:	fef00513          	li	a0,-17
80000758:	fff53593          	sltiu	a1,a0,-1
8000075c:	08b12e23          	sw	a1,156(sp)
80000760:	00100193          	li	gp,1
80000764:	00b18463          	beq	gp,a1,8000076c <inst_58>
80000768:	0940406f          	j	800047fc <bad_trap>

8000076c <inst_58>:
8000076c:	fdf00513          	li	a0,-33
80000770:	eff53593          	sltiu	a1,a0,-257
80000774:	0ab12023          	sw	a1,160(sp)
80000778:	00000193          	li	gp,0
8000077c:	00b18463          	beq	gp,a1,80000784 <inst_59>
80000780:	07c0406f          	j	800047fc <bad_trap>

80000784 <inst_59>:
80000784:	f7f00513          	li	a0,-129
80000788:	01053593          	sltiu	a1,a0,16
8000078c:	0ab12223          	sw	a1,164(sp)
80000790:	00000193          	li	gp,0
80000794:	00b18463          	beq	gp,a1,8000079c <inst_60>
80000798:	0640406f          	j	800047fc <bad_trap>

8000079c <inst_60>:
8000079c:	eff00513          	li	a0,-257
800007a0:	00453593          	sltiu	a1,a0,4
800007a4:	0ab12423          	sw	a1,168(sp)
800007a8:	00000193          	li	gp,0
800007ac:	00b18463          	beq	gp,a1,800007b4 <inst_61>
800007b0:	04c0406f          	j	800047fc <bad_trap>

800007b4 <inst_61>:
800007b4:	dff00513          	li	a0,-513
800007b8:	02d53593          	sltiu	a1,a0,45
800007bc:	0ab12623          	sw	a1,172(sp)
800007c0:	00000193          	li	gp,0
800007c4:	00b18463          	beq	gp,a1,800007cc <inst_62>
800007c8:	0340406f          	j	800047fc <bad_trap>

800007cc <inst_62>:
800007cc:	bff00513          	li	a0,-1025
800007d0:	00f53593          	sltiu	a1,a0,15
800007d4:	0ab12823          	sw	a1,176(sp)
800007d8:	00000193          	li	gp,0
800007dc:	00b18463          	beq	gp,a1,800007e4 <inst_63>
800007e0:	01c0406f          	j	800047fc <bad_trap>

800007e4 <inst_63>:
800007e4:	fffff537          	lui	a0,0xfffff
800007e8:	fff50513          	addi	a0,a0,-1 # ffffefff <imm12+0xfffff52f>
800007ec:	02e53593          	sltiu	a1,a0,46
800007f0:	0ab12a23          	sw	a1,180(sp)
800007f4:	00000193          	li	gp,0
800007f8:	00b18463          	beq	gp,a1,80000800 <inst_64>
800007fc:	0000406f          	j	800047fc <bad_trap>

80000800 <inst_64>:
80000800:	ffffe537          	lui	a0,0xffffe
80000804:	fff50513          	addi	a0,a0,-1 # ffffdfff <imm12+0xffffe52f>
80000808:	00d53593          	sltiu	a1,a0,13
8000080c:	0ab12c23          	sw	a1,184(sp)
80000810:	00000193          	li	gp,0
80000814:	00b18463          	beq	gp,a1,8000081c <inst_65>
80000818:	7e50306f          	j	800047fc <bad_trap>

8000081c <inst_65>:
8000081c:	ffffc537          	lui	a0,0xffffc
80000820:	fff50513          	addi	a0,a0,-1 # ffffbfff <imm12+0xffffc52f>
80000824:	33353593          	sltiu	a1,a0,819
80000828:	0ab12e23          	sw	a1,188(sp)
8000082c:	00000193          	li	gp,0
80000830:	00b18463          	beq	gp,a1,80000838 <inst_66>
80000834:	7c90306f          	j	800047fc <bad_trap>

80000838 <inst_66>:
80000838:	ffff8537          	lui	a0,0xffff8
8000083c:	fff50513          	addi	a0,a0,-1 # ffff7fff <imm12+0xffff852f>
80000840:	00153593          	seqz	a1,a0
80000844:	0cb12023          	sw	a1,192(sp)
80000848:	00000193          	li	gp,0
8000084c:	00b18463          	beq	gp,a1,80000854 <inst_67>
80000850:	7ad0306f          	j	800047fc <bad_trap>

80000854 <inst_67>:
80000854:	ffff0537          	lui	a0,0xffff0
80000858:	fff50513          	addi	a0,a0,-1 # fffeffff <imm12+0xffff052f>
8000085c:	04053593          	sltiu	a1,a0,64
80000860:	0cb12223          	sw	a1,196(sp)
80000864:	00000193          	li	gp,0
80000868:	00b18463          	beq	gp,a1,80000870 <inst_68>
8000086c:	7910306f          	j	800047fc <bad_trap>

80000870 <inst_68>:
80000870:	fffe0537          	lui	a0,0xfffe0
80000874:	fff50513          	addi	a0,a0,-1 # fffdffff <imm12+0xfffe052f>
80000878:	00553593          	sltiu	a1,a0,5
8000087c:	0cb12423          	sw	a1,200(sp)
80000880:	00000193          	li	gp,0
80000884:	00b18463          	beq	gp,a1,8000088c <inst_69>
80000888:	7750306f          	j	800047fc <bad_trap>

8000088c <inst_69>:
8000088c:	fff80537          	lui	a0,0xfff80
80000890:	fff50513          	addi	a0,a0,-1 # fff7ffff <imm12+0xfff8052f>
80000894:	00453593          	sltiu	a1,a0,4
80000898:	0cb12623          	sw	a1,204(sp)
8000089c:	00000193          	li	gp,0
800008a0:	00b18463          	beq	gp,a1,800008a8 <inst_70>
800008a4:	7590306f          	j	800047fc <bad_trap>

800008a8 <inst_70>:
800008a8:	fff00537          	lui	a0,0xfff00
800008ac:	fff50513          	addi	a0,a0,-1 # ffefffff <imm12+0xfff0052f>
800008b0:	55553593          	sltiu	a1,a0,1365
800008b4:	0cb12823          	sw	a1,208(sp)
800008b8:	00000193          	li	gp,0
800008bc:	00b18463          	beq	gp,a1,800008c4 <inst_71>
800008c0:	73d0306f          	j	800047fc <bad_trap>

800008c4 <inst_71>:
800008c4:	ffe00537          	lui	a0,0xffe00
800008c8:	fff50513          	addi	a0,a0,-1 # ffdfffff <imm12+0xffe0052f>
800008cc:	00253593          	sltiu	a1,a0,2
800008d0:	0cb12a23          	sw	a1,212(sp)
800008d4:	00000193          	li	gp,0
800008d8:	00b18463          	beq	gp,a1,800008e0 <inst_72>
800008dc:	7210306f          	j	800047fc <bad_trap>

800008e0 <inst_72>:
800008e0:	ffc00537          	lui	a0,0xffc00
800008e4:	fff50513          	addi	a0,a0,-1 # ffbfffff <imm12+0xffc0052f>
800008e8:	55653593          	sltiu	a1,a0,1366
800008ec:	0cb12c23          	sw	a1,216(sp)
800008f0:	00000193          	li	gp,0
800008f4:	00b18463          	beq	gp,a1,800008fc <inst_73>
800008f8:	7050306f          	j	800047fc <bad_trap>

800008fc <inst_73>:
800008fc:	ff800537          	lui	a0,0xff800
80000900:	fff50513          	addi	a0,a0,-1 # ff7fffff <imm12+0xff80052f>
80000904:	ffe53593          	sltiu	a1,a0,-2
80000908:	0cb12e23          	sw	a1,220(sp)
8000090c:	00100193          	li	gp,1
80000910:	00b18463          	beq	gp,a1,80000918 <inst_74>
80000914:	6e90306f          	j	800047fc <bad_trap>

80000918 <inst_74>:
80000918:	fe000537          	lui	a0,0xfe000
8000091c:	fff50513          	addi	a0,a0,-1 # fdffffff <imm12+0xfe00052f>
80000920:	00d53593          	sltiu	a1,a0,13
80000924:	0eb12023          	sw	a1,224(sp)
80000928:	00000193          	li	gp,0
8000092c:	00b18463          	beq	gp,a1,80000934 <inst_75>
80000930:	6cd0306f          	j	800047fc <bad_trap>

80000934 <inst_75>:
80000934:	f8000537          	lui	a0,0xf8000
80000938:	fff50513          	addi	a0,a0,-1 # f7ffffff <imm12+0xf800052f>
8000093c:	80053593          	sltiu	a1,a0,-2048
80000940:	0eb12223          	sw	a1,228(sp)
80000944:	00100193          	li	gp,1
80000948:	00b18463          	beq	gp,a1,80000950 <inst_76>
8000094c:	6b10306f          	j	800047fc <bad_trap>

80000950 <inst_76>:
80000950:	f0000537          	lui	a0,0xf0000
80000954:	fff50513          	addi	a0,a0,-1 # efffffff <imm12+0xf000052f>
80000958:	00653593          	sltiu	a1,a0,6
8000095c:	0eb12423          	sw	a1,232(sp)
80000960:	00000193          	li	gp,0
80000964:	00b18463          	beq	gp,a1,8000096c <inst_77>
80000968:	6950306f          	j	800047fc <bad_trap>

8000096c <inst_77>:
8000096c:	e0000537          	lui	a0,0xe0000
80000970:	fff50513          	addi	a0,a0,-1 # dfffffff <imm12+0xe000052f>
80000974:	04053593          	sltiu	a1,a0,64
80000978:	0eb12623          	sw	a1,236(sp)
8000097c:	00000193          	li	gp,0
80000980:	00b18463          	beq	gp,a1,80000988 <inst_78>
80000984:	6790306f          	j	800047fc <bad_trap>

80000988 <inst_78>:
80000988:	c0000537          	lui	a0,0xc0000
8000098c:	fff50513          	addi	a0,a0,-1 # bfffffff <imm12+0xc000052f>
80000990:	00653593          	sltiu	a1,a0,6
80000994:	0eb12823          	sw	a1,240(sp)
80000998:	00000193          	li	gp,0
8000099c:	00b18463          	beq	gp,a1,800009a4 <inst_79>
800009a0:	65d0306f          	j	800047fc <bad_trap>

800009a4 <inst_79>:
800009a4:	00300513          	li	a0,3
800009a8:	00353593          	sltiu	a1,a0,3
800009ac:	0eb12a23          	sw	a1,244(sp)
800009b0:	00000193          	li	gp,0
800009b4:	00b18463          	beq	gp,a1,800009bc <inst_80>
800009b8:	6450306f          	j	800047fc <bad_trap>

800009bc <inst_80>:
800009bc:	00300513          	li	a0,3
800009c0:	55553593          	sltiu	a1,a0,1365
800009c4:	0eb12c23          	sw	a1,248(sp)
800009c8:	00100193          	li	gp,1
800009cc:	00b18463          	beq	gp,a1,800009d4 <inst_81>
800009d0:	62d0306f          	j	800047fc <bad_trap>

800009d4 <inst_81>:
800009d4:	00300513          	li	a0,3
800009d8:	aaa53593          	sltiu	a1,a0,-1366
800009dc:	0eb12e23          	sw	a1,252(sp)
800009e0:	00100193          	li	gp,1
800009e4:	00b18463          	beq	gp,a1,800009ec <inst_82>
800009e8:	6150306f          	j	800047fc <bad_trap>

800009ec <inst_82>:
800009ec:	00300513          	li	a0,3
800009f0:	00553593          	sltiu	a1,a0,5
800009f4:	10b12023          	sw	a1,256(sp)
800009f8:	00100193          	li	gp,1
800009fc:	00b18463          	beq	gp,a1,80000a04 <inst_83>
80000a00:	5fd0306f          	j	800047fc <bad_trap>

80000a04 <inst_83>:
80000a04:	00300513          	li	a0,3
80000a08:	33353593          	sltiu	a1,a0,819
80000a0c:	10b12223          	sw	a1,260(sp)
80000a10:	00100193          	li	gp,1
80000a14:	00b18463          	beq	gp,a1,80000a1c <inst_84>
80000a18:	5e50306f          	j	800047fc <bad_trap>

80000a1c <inst_84>:
80000a1c:	00300513          	li	a0,3
80000a20:	66653593          	sltiu	a1,a0,1638
80000a24:	10b12423          	sw	a1,264(sp)
80000a28:	00100193          	li	gp,1
80000a2c:	00b18463          	beq	gp,a1,80000a34 <inst_85>
80000a30:	5cd0306f          	j	800047fc <bad_trap>

80000a34 <inst_85>:
80000a34:	00300513          	li	a0,3
80000a38:	02d53593          	sltiu	a1,a0,45
80000a3c:	10b12623          	sw	a1,268(sp)
80000a40:	00100193          	li	gp,1
80000a44:	00b18463          	beq	gp,a1,80000a4c <inst_86>
80000a48:	5b50306f          	j	800047fc <bad_trap>

80000a4c <inst_86>:
80000a4c:	00300513          	li	a0,3
80000a50:	00053593          	sltiu	a1,a0,0
80000a54:	10b12823          	sw	a1,272(sp)
80000a58:	00000193          	li	gp,0
80000a5c:	00b18463          	beq	gp,a1,80000a64 <inst_87>
80000a60:	59d0306f          	j	800047fc <bad_trap>

80000a64 <inst_87>:
80000a64:	00300513          	li	a0,3
80000a68:	03f53593          	sltiu	a1,a0,63
80000a6c:	10b12a23          	sw	a1,276(sp)
80000a70:	00100193          	li	gp,1
80000a74:	00b18463          	beq	gp,a1,80000a7c <inst_88>
80000a78:	5850306f          	j	800047fc <bad_trap>

80000a7c <inst_88>:
80000a7c:	00300513          	li	a0,3
80000a80:	00253593          	sltiu	a1,a0,2
80000a84:	10b12c23          	sw	a1,280(sp)
80000a88:	00000193          	li	gp,0
80000a8c:	00b18463          	beq	gp,a1,80000a94 <inst_89>
80000a90:	56d0306f          	j	800047fc <bad_trap>

80000a94 <inst_89>:
80000a94:	00300513          	li	a0,3
80000a98:	55453593          	sltiu	a1,a0,1364
80000a9c:	10b12e23          	sw	a1,284(sp)
80000aa0:	00100193          	li	gp,1
80000aa4:	00b18463          	beq	gp,a1,80000aac <inst_90>
80000aa8:	5550306f          	j	800047fc <bad_trap>

80000aac <inst_90>:
80000aac:	00300513          	li	a0,3
80000ab0:	aa953593          	sltiu	a1,a0,-1367
80000ab4:	12b12023          	sw	a1,288(sp)
80000ab8:	00100193          	li	gp,1
80000abc:	00b18463          	beq	gp,a1,80000ac4 <inst_91>
80000ac0:	53d0306f          	j	800047fc <bad_trap>

80000ac4 <inst_91>:
80000ac4:	00300513          	li	a0,3
80000ac8:	00453593          	sltiu	a1,a0,4
80000acc:	12b12223          	sw	a1,292(sp)
80000ad0:	00100193          	li	gp,1
80000ad4:	00b18463          	beq	gp,a1,80000adc <inst_92>
80000ad8:	5250306f          	j	800047fc <bad_trap>

80000adc <inst_92>:
80000adc:	00300513          	li	a0,3
80000ae0:	33253593          	sltiu	a1,a0,818
80000ae4:	12b12423          	sw	a1,296(sp)
80000ae8:	00100193          	li	gp,1
80000aec:	00b18463          	beq	gp,a1,80000af4 <inst_93>
80000af0:	50d0306f          	j	800047fc <bad_trap>

80000af4 <inst_93>:
80000af4:	00300513          	li	a0,3
80000af8:	66553593          	sltiu	a1,a0,1637
80000afc:	12b12623          	sw	a1,300(sp)
80000b00:	00100193          	li	gp,1
80000b04:	00b18463          	beq	gp,a1,80000b0c <inst_94>
80000b08:	4f50306f          	j	800047fc <bad_trap>

80000b0c <inst_94>:
80000b0c:	00300513          	li	a0,3
80000b10:	02c53593          	sltiu	a1,a0,44
80000b14:	12b12823          	sw	a1,304(sp)
80000b18:	00100193          	li	gp,1
80000b1c:	00b18463          	beq	gp,a1,80000b24 <inst_95>
80000b20:	4dd0306f          	j	800047fc <bad_trap>

80000b24 <inst_95>:
80000b24:	00300513          	li	a0,3
80000b28:	03e53593          	sltiu	a1,a0,62
80000b2c:	12b12a23          	sw	a1,308(sp)
80000b30:	00100193          	li	gp,1
80000b34:	00b18463          	beq	gp,a1,80000b3c <inst_96>
80000b38:	4c50306f          	j	800047fc <bad_trap>

80000b3c <inst_96>:
80000b3c:	00300513          	li	a0,3
80000b40:	55653593          	sltiu	a1,a0,1366
80000b44:	12b12c23          	sw	a1,312(sp)
80000b48:	00100193          	li	gp,1
80000b4c:	00b18463          	beq	gp,a1,80000b54 <inst_97>
80000b50:	4ad0306f          	j	800047fc <bad_trap>

80000b54 <inst_97>:
80000b54:	00300513          	li	a0,3
80000b58:	aab53593          	sltiu	a1,a0,-1365
80000b5c:	12b12e23          	sw	a1,316(sp)
80000b60:	00100193          	li	gp,1
80000b64:	00b18463          	beq	gp,a1,80000b6c <inst_98>
80000b68:	4950306f          	j	800047fc <bad_trap>

80000b6c <inst_98>:
80000b6c:	00300513          	li	a0,3
80000b70:	00653593          	sltiu	a1,a0,6
80000b74:	14b12023          	sw	a1,320(sp)
80000b78:	00100193          	li	gp,1
80000b7c:	00b18463          	beq	gp,a1,80000b84 <inst_99>
80000b80:	47d0306f          	j	800047fc <bad_trap>

80000b84 <inst_99>:
80000b84:	00300513          	li	a0,3
80000b88:	33453593          	sltiu	a1,a0,820
80000b8c:	14b12223          	sw	a1,324(sp)
80000b90:	00100193          	li	gp,1
80000b94:	00b18463          	beq	gp,a1,80000b9c <inst_100>
80000b98:	4650306f          	j	800047fc <bad_trap>

80000b9c <inst_100>:
80000b9c:	00300513          	li	a0,3
80000ba0:	66753593          	sltiu	a1,a0,1639
80000ba4:	14b12423          	sw	a1,328(sp)
80000ba8:	00100193          	li	gp,1
80000bac:	00b18463          	beq	gp,a1,80000bb4 <inst_101>
80000bb0:	44d0306f          	j	800047fc <bad_trap>

80000bb4 <inst_101>:
80000bb4:	00300513          	li	a0,3
80000bb8:	02e53593          	sltiu	a1,a0,46
80000bbc:	14b12623          	sw	a1,332(sp)
80000bc0:	00100193          	li	gp,1
80000bc4:	00b18463          	beq	gp,a1,80000bcc <inst_102>
80000bc8:	4350306f          	j	800047fc <bad_trap>

80000bcc <inst_102>:
80000bcc:	00300513          	li	a0,3
80000bd0:	00153593          	seqz	a1,a0
80000bd4:	14b12823          	sw	a1,336(sp)
80000bd8:	00000193          	li	gp,0
80000bdc:	00b18463          	beq	gp,a1,80000be4 <inst_103>
80000be0:	41d0306f          	j	800047fc <bad_trap>

80000be4 <inst_103>:
80000be4:	00300513          	li	a0,3
80000be8:	04053593          	sltiu	a1,a0,64
80000bec:	14b12a23          	sw	a1,340(sp)
80000bf0:	00100193          	li	gp,1
80000bf4:	00b18463          	beq	gp,a1,80000bfc <inst_104>
80000bf8:	4050306f          	j	800047fc <bad_trap>

80000bfc <inst_104>:
80000bfc:	55555537          	lui	a0,0x55555
80000c00:	55550513          	addi	a0,a0,1365 # 55555555 <absimm+0x10263026>
80000c04:	00353593          	sltiu	a1,a0,3
80000c08:	14b12c23          	sw	a1,344(sp)
80000c0c:	00000193          	li	gp,0
80000c10:	00b18463          	beq	gp,a1,80000c18 <inst_105>
80000c14:	3e90306f          	j	800047fc <bad_trap>

80000c18 <inst_105>:
80000c18:	55555537          	lui	a0,0x55555
80000c1c:	55550513          	addi	a0,a0,1365 # 55555555 <absimm+0x10263026>
80000c20:	55553593          	sltiu	a1,a0,1365
80000c24:	14b12e23          	sw	a1,348(sp)
80000c28:	00000193          	li	gp,0
80000c2c:	00b18463          	beq	gp,a1,80000c34 <inst_106>
80000c30:	3cd0306f          	j	800047fc <bad_trap>

80000c34 <inst_106>:
80000c34:	55555537          	lui	a0,0x55555
80000c38:	55550513          	addi	a0,a0,1365 # 55555555 <absimm+0x10263026>
80000c3c:	aaa53593          	sltiu	a1,a0,-1366
80000c40:	16b12023          	sw	a1,352(sp)
80000c44:	00100193          	li	gp,1
80000c48:	00b18463          	beq	gp,a1,80000c50 <inst_107>
80000c4c:	3b10306f          	j	800047fc <bad_trap>

80000c50 <inst_107>:
80000c50:	55555537          	lui	a0,0x55555
80000c54:	55550513          	addi	a0,a0,1365 # 55555555 <absimm+0x10263026>
80000c58:	00553593          	sltiu	a1,a0,5
80000c5c:	16b12223          	sw	a1,356(sp)
80000c60:	00000193          	li	gp,0
80000c64:	00b18463          	beq	gp,a1,80000c6c <inst_108>
80000c68:	3950306f          	j	800047fc <bad_trap>

80000c6c <inst_108>:
80000c6c:	55555537          	lui	a0,0x55555
80000c70:	55550513          	addi	a0,a0,1365 # 55555555 <absimm+0x10263026>
80000c74:	33353593          	sltiu	a1,a0,819
80000c78:	16b12423          	sw	a1,360(sp)
80000c7c:	00000193          	li	gp,0
80000c80:	00b18463          	beq	gp,a1,80000c88 <inst_109>
80000c84:	3790306f          	j	800047fc <bad_trap>

80000c88 <inst_109>:
80000c88:	55555537          	lui	a0,0x55555
80000c8c:	55550513          	addi	a0,a0,1365 # 55555555 <absimm+0x10263026>
80000c90:	66653593          	sltiu	a1,a0,1638
80000c94:	16b12623          	sw	a1,364(sp)
80000c98:	00000193          	li	gp,0
80000c9c:	00b18463          	beq	gp,a1,80000ca4 <inst_110>
80000ca0:	35d0306f          	j	800047fc <bad_trap>

80000ca4 <inst_110>:
80000ca4:	55555537          	lui	a0,0x55555
80000ca8:	55550513          	addi	a0,a0,1365 # 55555555 <absimm+0x10263026>
80000cac:	02d53593          	sltiu	a1,a0,45
80000cb0:	16b12823          	sw	a1,368(sp)
80000cb4:	00000193          	li	gp,0
80000cb8:	00b18463          	beq	gp,a1,80000cc0 <inst_111>
80000cbc:	3410306f          	j	800047fc <bad_trap>

80000cc0 <inst_111>:
80000cc0:	55555537          	lui	a0,0x55555
80000cc4:	55550513          	addi	a0,a0,1365 # 55555555 <absimm+0x10263026>
80000cc8:	00053593          	sltiu	a1,a0,0
80000ccc:	16b12a23          	sw	a1,372(sp)
80000cd0:	00000193          	li	gp,0
80000cd4:	00b18463          	beq	gp,a1,80000cdc <inst_112>
80000cd8:	3250306f          	j	800047fc <bad_trap>

80000cdc <inst_112>:
80000cdc:	55555537          	lui	a0,0x55555
80000ce0:	55550513          	addi	a0,a0,1365 # 55555555 <absimm+0x10263026>
80000ce4:	03f53593          	sltiu	a1,a0,63
80000ce8:	16b12c23          	sw	a1,376(sp)
80000cec:	00000193          	li	gp,0
80000cf0:	00b18463          	beq	gp,a1,80000cf8 <inst_113>
80000cf4:	3090306f          	j	800047fc <bad_trap>

80000cf8 <inst_113>:
80000cf8:	55555537          	lui	a0,0x55555
80000cfc:	55550513          	addi	a0,a0,1365 # 55555555 <absimm+0x10263026>
80000d00:	00253593          	sltiu	a1,a0,2
80000d04:	16b12e23          	sw	a1,380(sp)
80000d08:	00000193          	li	gp,0
80000d0c:	00b18463          	beq	gp,a1,80000d14 <inst_114>
80000d10:	2ed0306f          	j	800047fc <bad_trap>

80000d14 <inst_114>:
80000d14:	55555537          	lui	a0,0x55555
80000d18:	55550513          	addi	a0,a0,1365 # 55555555 <absimm+0x10263026>
80000d1c:	55453593          	sltiu	a1,a0,1364
80000d20:	18b12023          	sw	a1,384(sp)
80000d24:	00000193          	li	gp,0
80000d28:	00b18463          	beq	gp,a1,80000d30 <inst_115>
80000d2c:	2d10306f          	j	800047fc <bad_trap>

80000d30 <inst_115>:
80000d30:	55555537          	lui	a0,0x55555
80000d34:	55550513          	addi	a0,a0,1365 # 55555555 <absimm+0x10263026>
80000d38:	aa953593          	sltiu	a1,a0,-1367
80000d3c:	18b12223          	sw	a1,388(sp)
80000d40:	00100193          	li	gp,1
80000d44:	00b18463          	beq	gp,a1,80000d4c <inst_116>
80000d48:	2b50306f          	j	800047fc <bad_trap>

80000d4c <inst_116>:
80000d4c:	55555537          	lui	a0,0x55555
80000d50:	55550513          	addi	a0,a0,1365 # 55555555 <absimm+0x10263026>
80000d54:	00453593          	sltiu	a1,a0,4
80000d58:	18b12423          	sw	a1,392(sp)
80000d5c:	00000193          	li	gp,0
80000d60:	00b18463          	beq	gp,a1,80000d68 <inst_117>
80000d64:	2990306f          	j	800047fc <bad_trap>

80000d68 <inst_117>:
80000d68:	55555537          	lui	a0,0x55555
80000d6c:	55550513          	addi	a0,a0,1365 # 55555555 <absimm+0x10263026>
80000d70:	33253593          	sltiu	a1,a0,818
80000d74:	18b12623          	sw	a1,396(sp)
80000d78:	00000193          	li	gp,0
80000d7c:	00b18463          	beq	gp,a1,80000d84 <inst_118>
80000d80:	27d0306f          	j	800047fc <bad_trap>

80000d84 <inst_118>:
80000d84:	55555537          	lui	a0,0x55555
80000d88:	55550513          	addi	a0,a0,1365 # 55555555 <absimm+0x10263026>
80000d8c:	66553593          	sltiu	a1,a0,1637
80000d90:	18b12823          	sw	a1,400(sp)
80000d94:	00000193          	li	gp,0
80000d98:	00b18463          	beq	gp,a1,80000da0 <inst_119>
80000d9c:	2610306f          	j	800047fc <bad_trap>

80000da0 <inst_119>:
80000da0:	55555537          	lui	a0,0x55555
80000da4:	55550513          	addi	a0,a0,1365 # 55555555 <absimm+0x10263026>
80000da8:	02c53593          	sltiu	a1,a0,44
80000dac:	18b12a23          	sw	a1,404(sp)
80000db0:	00000193          	li	gp,0
80000db4:	00b18463          	beq	gp,a1,80000dbc <inst_120>
80000db8:	2450306f          	j	800047fc <bad_trap>

80000dbc <inst_120>:
80000dbc:	55555537          	lui	a0,0x55555
80000dc0:	55550513          	addi	a0,a0,1365 # 55555555 <absimm+0x10263026>
80000dc4:	03e53593          	sltiu	a1,a0,62
80000dc8:	18b12c23          	sw	a1,408(sp)
80000dcc:	00000193          	li	gp,0
80000dd0:	00b18463          	beq	gp,a1,80000dd8 <inst_121>
80000dd4:	2290306f          	j	800047fc <bad_trap>

80000dd8 <inst_121>:
80000dd8:	55555537          	lui	a0,0x55555
80000ddc:	55550513          	addi	a0,a0,1365 # 55555555 <absimm+0x10263026>
80000de0:	55653593          	sltiu	a1,a0,1366
80000de4:	18b12e23          	sw	a1,412(sp)
80000de8:	00000193          	li	gp,0
80000dec:	00b18463          	beq	gp,a1,80000df4 <inst_122>
80000df0:	20d0306f          	j	800047fc <bad_trap>

80000df4 <inst_122>:
80000df4:	55555537          	lui	a0,0x55555
80000df8:	55550513          	addi	a0,a0,1365 # 55555555 <absimm+0x10263026>
80000dfc:	aab53593          	sltiu	a1,a0,-1365
80000e00:	1ab12023          	sw	a1,416(sp)
80000e04:	00100193          	li	gp,1
80000e08:	00b18463          	beq	gp,a1,80000e10 <inst_123>
80000e0c:	1f10306f          	j	800047fc <bad_trap>

80000e10 <inst_123>:
80000e10:	55555537          	lui	a0,0x55555
80000e14:	55550513          	addi	a0,a0,1365 # 55555555 <absimm+0x10263026>
80000e18:	00653593          	sltiu	a1,a0,6
80000e1c:	1ab12223          	sw	a1,420(sp)
80000e20:	00000193          	li	gp,0
80000e24:	00b18463          	beq	gp,a1,80000e2c <inst_124>
80000e28:	1d50306f          	j	800047fc <bad_trap>

80000e2c <inst_124>:
80000e2c:	55555537          	lui	a0,0x55555
80000e30:	55550513          	addi	a0,a0,1365 # 55555555 <absimm+0x10263026>
80000e34:	33453593          	sltiu	a1,a0,820
80000e38:	1ab12423          	sw	a1,424(sp)
80000e3c:	00000193          	li	gp,0
80000e40:	00b18463          	beq	gp,a1,80000e48 <inst_125>
80000e44:	1b90306f          	j	800047fc <bad_trap>

80000e48 <inst_125>:
80000e48:	55555537          	lui	a0,0x55555
80000e4c:	55550513          	addi	a0,a0,1365 # 55555555 <absimm+0x10263026>
80000e50:	66753593          	sltiu	a1,a0,1639
80000e54:	1ab12623          	sw	a1,428(sp)
80000e58:	00000193          	li	gp,0
80000e5c:	00b18463          	beq	gp,a1,80000e64 <inst_126>
80000e60:	19d0306f          	j	800047fc <bad_trap>

80000e64 <inst_126>:
80000e64:	55555537          	lui	a0,0x55555
80000e68:	55550513          	addi	a0,a0,1365 # 55555555 <absimm+0x10263026>
80000e6c:	02e53593          	sltiu	a1,a0,46
80000e70:	1ab12823          	sw	a1,432(sp)
80000e74:	00000193          	li	gp,0
80000e78:	00b18463          	beq	gp,a1,80000e80 <inst_127>
80000e7c:	1810306f          	j	800047fc <bad_trap>

80000e80 <inst_127>:
80000e80:	55555537          	lui	a0,0x55555
80000e84:	55550513          	addi	a0,a0,1365 # 55555555 <absimm+0x10263026>
80000e88:	00153593          	seqz	a1,a0
80000e8c:	1ab12a23          	sw	a1,436(sp)
80000e90:	00000193          	li	gp,0
80000e94:	00b18463          	beq	gp,a1,80000e9c <inst_128>
80000e98:	1650306f          	j	800047fc <bad_trap>

80000e9c <inst_128>:
80000e9c:	aaaab537          	lui	a0,0xaaaab
80000ea0:	aaa50513          	addi	a0,a0,-1366 # aaaaaaaa <imm12+0xaaaaafda>
80000ea4:	00353593          	sltiu	a1,a0,3
80000ea8:	1ab12c23          	sw	a1,440(sp)
80000eac:	00000193          	li	gp,0
80000eb0:	00b18463          	beq	gp,a1,80000eb8 <inst_129>
80000eb4:	1490306f          	j	800047fc <bad_trap>

80000eb8 <inst_129>:
80000eb8:	aaaab537          	lui	a0,0xaaaab
80000ebc:	aaa50513          	addi	a0,a0,-1366 # aaaaaaaa <imm12+0xaaaaafda>
80000ec0:	55553593          	sltiu	a1,a0,1365
80000ec4:	1ab12e23          	sw	a1,444(sp)
80000ec8:	00000193          	li	gp,0
80000ecc:	00b18463          	beq	gp,a1,80000ed4 <inst_130>
80000ed0:	12d0306f          	j	800047fc <bad_trap>

80000ed4 <inst_130>:
80000ed4:	aaaab537          	lui	a0,0xaaaab
80000ed8:	aaa50513          	addi	a0,a0,-1366 # aaaaaaaa <imm12+0xaaaaafda>
80000edc:	aaa53593          	sltiu	a1,a0,-1366
80000ee0:	1cb12023          	sw	a1,448(sp)
80000ee4:	00100193          	li	gp,1
80000ee8:	00b18463          	beq	gp,a1,80000ef0 <inst_131>
80000eec:	1110306f          	j	800047fc <bad_trap>

80000ef0 <inst_131>:
80000ef0:	aaaab537          	lui	a0,0xaaaab
80000ef4:	aaa50513          	addi	a0,a0,-1366 # aaaaaaaa <imm12+0xaaaaafda>
80000ef8:	00553593          	sltiu	a1,a0,5
80000efc:	1cb12223          	sw	a1,452(sp)
80000f00:	00000193          	li	gp,0
80000f04:	00b18463          	beq	gp,a1,80000f0c <inst_132>
80000f08:	0f50306f          	j	800047fc <bad_trap>

80000f0c <inst_132>:
80000f0c:	aaaab537          	lui	a0,0xaaaab
80000f10:	aaa50513          	addi	a0,a0,-1366 # aaaaaaaa <imm12+0xaaaaafda>
80000f14:	33353593          	sltiu	a1,a0,819
80000f18:	1cb12423          	sw	a1,456(sp)
80000f1c:	00000193          	li	gp,0
80000f20:	00b18463          	beq	gp,a1,80000f28 <inst_133>
80000f24:	0d90306f          	j	800047fc <bad_trap>

80000f28 <inst_133>:
80000f28:	aaaab537          	lui	a0,0xaaaab
80000f2c:	aaa50513          	addi	a0,a0,-1366 # aaaaaaaa <imm12+0xaaaaafda>
80000f30:	66653593          	sltiu	a1,a0,1638
80000f34:	1cb12623          	sw	a1,460(sp)
80000f38:	00000193          	li	gp,0
80000f3c:	00b18463          	beq	gp,a1,80000f44 <inst_134>
80000f40:	0bd0306f          	j	800047fc <bad_trap>

80000f44 <inst_134>:
80000f44:	aaaab537          	lui	a0,0xaaaab
80000f48:	aaa50513          	addi	a0,a0,-1366 # aaaaaaaa <imm12+0xaaaaafda>
80000f4c:	02d53593          	sltiu	a1,a0,45
80000f50:	1cb12823          	sw	a1,464(sp)
80000f54:	00000193          	li	gp,0
80000f58:	00b18463          	beq	gp,a1,80000f60 <inst_135>
80000f5c:	0a10306f          	j	800047fc <bad_trap>

80000f60 <inst_135>:
80000f60:	aaaab537          	lui	a0,0xaaaab
80000f64:	aaa50513          	addi	a0,a0,-1366 # aaaaaaaa <imm12+0xaaaaafda>
80000f68:	00053593          	sltiu	a1,a0,0
80000f6c:	1cb12a23          	sw	a1,468(sp)
80000f70:	00000193          	li	gp,0
80000f74:	00b18463          	beq	gp,a1,80000f7c <inst_136>
80000f78:	0850306f          	j	800047fc <bad_trap>

80000f7c <inst_136>:
80000f7c:	aaaab537          	lui	a0,0xaaaab
80000f80:	aaa50513          	addi	a0,a0,-1366 # aaaaaaaa <imm12+0xaaaaafda>
80000f84:	03f53593          	sltiu	a1,a0,63
80000f88:	1cb12c23          	sw	a1,472(sp)
80000f8c:	00000193          	li	gp,0
80000f90:	00b18463          	beq	gp,a1,80000f98 <inst_137>
80000f94:	0690306f          	j	800047fc <bad_trap>

80000f98 <inst_137>:
80000f98:	aaaab537          	lui	a0,0xaaaab
80000f9c:	aaa50513          	addi	a0,a0,-1366 # aaaaaaaa <imm12+0xaaaaafda>
80000fa0:	55453593          	sltiu	a1,a0,1364
80000fa4:	1cb12e23          	sw	a1,476(sp)
80000fa8:	00000193          	li	gp,0
80000fac:	00b18463          	beq	gp,a1,80000fb4 <inst_138>
80000fb0:	04d0306f          	j	800047fc <bad_trap>

80000fb4 <inst_138>:
80000fb4:	aaaab537          	lui	a0,0xaaaab
80000fb8:	aaa50513          	addi	a0,a0,-1366 # aaaaaaaa <imm12+0xaaaaafda>
80000fbc:	aa953593          	sltiu	a1,a0,-1367
80000fc0:	1eb12023          	sw	a1,480(sp)
80000fc4:	00100193          	li	gp,1
80000fc8:	00b18463          	beq	gp,a1,80000fd0 <inst_139>
80000fcc:	0310306f          	j	800047fc <bad_trap>

80000fd0 <inst_139>:
80000fd0:	aaaab537          	lui	a0,0xaaaab
80000fd4:	aaa50513          	addi	a0,a0,-1366 # aaaaaaaa <imm12+0xaaaaafda>
80000fd8:	00453593          	sltiu	a1,a0,4
80000fdc:	1eb12223          	sw	a1,484(sp)
80000fe0:	00000193          	li	gp,0
80000fe4:	00b18463          	beq	gp,a1,80000fec <inst_140>
80000fe8:	0150306f          	j	800047fc <bad_trap>

80000fec <inst_140>:
80000fec:	aaaab537          	lui	a0,0xaaaab
80000ff0:	aaa50513          	addi	a0,a0,-1366 # aaaaaaaa <imm12+0xaaaaafda>
80000ff4:	33253593          	sltiu	a1,a0,818
80000ff8:	1eb12423          	sw	a1,488(sp)
80000ffc:	00000193          	li	gp,0
80001000:	00b18463          	beq	gp,a1,80001008 <inst_141>
80001004:	7f80306f          	j	800047fc <bad_trap>

80001008 <inst_141>:
80001008:	aaaab537          	lui	a0,0xaaaab
8000100c:	aaa50513          	addi	a0,a0,-1366 # aaaaaaaa <imm12+0xaaaaafda>
80001010:	66553593          	sltiu	a1,a0,1637
80001014:	1eb12623          	sw	a1,492(sp)
80001018:	00000193          	li	gp,0
8000101c:	00b18463          	beq	gp,a1,80001024 <inst_142>
80001020:	7dc0306f          	j	800047fc <bad_trap>

80001024 <inst_142>:
80001024:	aaaab537          	lui	a0,0xaaaab
80001028:	aaa50513          	addi	a0,a0,-1366 # aaaaaaaa <imm12+0xaaaaafda>
8000102c:	02c53593          	sltiu	a1,a0,44
80001030:	1eb12823          	sw	a1,496(sp)
80001034:	00000193          	li	gp,0
80001038:	00b18463          	beq	gp,a1,80001040 <inst_143>
8000103c:	7c00306f          	j	800047fc <bad_trap>

80001040 <inst_143>:
80001040:	aaaab537          	lui	a0,0xaaaab
80001044:	aaa50513          	addi	a0,a0,-1366 # aaaaaaaa <imm12+0xaaaaafda>
80001048:	03e53593          	sltiu	a1,a0,62
8000104c:	1eb12a23          	sw	a1,500(sp)
80001050:	00000193          	li	gp,0
80001054:	00b18463          	beq	gp,a1,8000105c <inst_144>
80001058:	7a40306f          	j	800047fc <bad_trap>

8000105c <inst_144>:
8000105c:	aaaab537          	lui	a0,0xaaaab
80001060:	aaa50513          	addi	a0,a0,-1366 # aaaaaaaa <imm12+0xaaaaafda>
80001064:	55653593          	sltiu	a1,a0,1366
80001068:	1eb12c23          	sw	a1,504(sp)
8000106c:	00000193          	li	gp,0
80001070:	00b18463          	beq	gp,a1,80001078 <inst_145>
80001074:	7880306f          	j	800047fc <bad_trap>

80001078 <inst_145>:
80001078:	aaaab537          	lui	a0,0xaaaab
8000107c:	aaa50513          	addi	a0,a0,-1366 # aaaaaaaa <imm12+0xaaaaafda>
80001080:	aab53593          	sltiu	a1,a0,-1365
80001084:	1eb12e23          	sw	a1,508(sp)
80001088:	00100193          	li	gp,1
8000108c:	00b18463          	beq	gp,a1,80001094 <inst_146>
80001090:	76c0306f          	j	800047fc <bad_trap>

80001094 <inst_146>:
80001094:	aaaab537          	lui	a0,0xaaaab
80001098:	aaa50513          	addi	a0,a0,-1366 # aaaaaaaa <imm12+0xaaaaafda>
8000109c:	00653593          	sltiu	a1,a0,6
800010a0:	20b12023          	sw	a1,512(sp)
800010a4:	00000193          	li	gp,0
800010a8:	00b18463          	beq	gp,a1,800010b0 <inst_147>
800010ac:	7500306f          	j	800047fc <bad_trap>

800010b0 <inst_147>:
800010b0:	aaaab537          	lui	a0,0xaaaab
800010b4:	aaa50513          	addi	a0,a0,-1366 # aaaaaaaa <imm12+0xaaaaafda>
800010b8:	33453593          	sltiu	a1,a0,820
800010bc:	20b12223          	sw	a1,516(sp)
800010c0:	00000193          	li	gp,0
800010c4:	00b18463          	beq	gp,a1,800010cc <inst_148>
800010c8:	7340306f          	j	800047fc <bad_trap>

800010cc <inst_148>:
800010cc:	aaaab537          	lui	a0,0xaaaab
800010d0:	aaa50513          	addi	a0,a0,-1366 # aaaaaaaa <imm12+0xaaaaafda>
800010d4:	66753593          	sltiu	a1,a0,1639
800010d8:	20b12423          	sw	a1,520(sp)
800010dc:	00000193          	li	gp,0
800010e0:	00b18463          	beq	gp,a1,800010e8 <inst_149>
800010e4:	7180306f          	j	800047fc <bad_trap>

800010e8 <inst_149>:
800010e8:	aaaab537          	lui	a0,0xaaaab
800010ec:	aaa50513          	addi	a0,a0,-1366 # aaaaaaaa <imm12+0xaaaaafda>
800010f0:	02e53593          	sltiu	a1,a0,46
800010f4:	20b12623          	sw	a1,524(sp)
800010f8:	00000193          	li	gp,0
800010fc:	00b18463          	beq	gp,a1,80001104 <inst_150>
80001100:	6fc0306f          	j	800047fc <bad_trap>

80001104 <inst_150>:
80001104:	aaaab537          	lui	a0,0xaaaab
80001108:	aaa50513          	addi	a0,a0,-1366 # aaaaaaaa <imm12+0xaaaaafda>
8000110c:	00153593          	seqz	a1,a0
80001110:	20b12823          	sw	a1,528(sp)
80001114:	00000193          	li	gp,0
80001118:	00b18463          	beq	gp,a1,80001120 <inst_151>
8000111c:	6e00306f          	j	800047fc <bad_trap>

80001120 <inst_151>:
80001120:	aaaab537          	lui	a0,0xaaaab
80001124:	aaa50513          	addi	a0,a0,-1366 # aaaaaaaa <imm12+0xaaaaafda>
80001128:	04053593          	sltiu	a1,a0,64
8000112c:	20b12a23          	sw	a1,532(sp)
80001130:	00000193          	li	gp,0
80001134:	00b18463          	beq	gp,a1,8000113c <inst_152>
80001138:	6c40306f          	j	800047fc <bad_trap>

8000113c <inst_152>:
8000113c:	00500513          	li	a0,5
80001140:	00353593          	sltiu	a1,a0,3
80001144:	20b12c23          	sw	a1,536(sp)
80001148:	00000193          	li	gp,0
8000114c:	00b18463          	beq	gp,a1,80001154 <inst_153>
80001150:	6ac0306f          	j	800047fc <bad_trap>

80001154 <inst_153>:
80001154:	00500513          	li	a0,5
80001158:	55553593          	sltiu	a1,a0,1365
8000115c:	20b12e23          	sw	a1,540(sp)
80001160:	00100193          	li	gp,1
80001164:	00b18463          	beq	gp,a1,8000116c <inst_154>
80001168:	6940306f          	j	800047fc <bad_trap>

8000116c <inst_154>:
8000116c:	00500513          	li	a0,5
80001170:	aaa53593          	sltiu	a1,a0,-1366
80001174:	22b12023          	sw	a1,544(sp)
80001178:	00100193          	li	gp,1
8000117c:	00b18463          	beq	gp,a1,80001184 <inst_155>
80001180:	67c0306f          	j	800047fc <bad_trap>

80001184 <inst_155>:
80001184:	00500513          	li	a0,5
80001188:	00553593          	sltiu	a1,a0,5
8000118c:	22b12223          	sw	a1,548(sp)
80001190:	00000193          	li	gp,0
80001194:	00b18463          	beq	gp,a1,8000119c <inst_156>
80001198:	6640306f          	j	800047fc <bad_trap>

8000119c <inst_156>:
8000119c:	00500513          	li	a0,5
800011a0:	33353593          	sltiu	a1,a0,819
800011a4:	22b12423          	sw	a1,552(sp)
800011a8:	00100193          	li	gp,1
800011ac:	00b18463          	beq	gp,a1,800011b4 <inst_157>
800011b0:	64c0306f          	j	800047fc <bad_trap>

800011b4 <inst_157>:
800011b4:	00500513          	li	a0,5
800011b8:	66653593          	sltiu	a1,a0,1638
800011bc:	22b12623          	sw	a1,556(sp)
800011c0:	00100193          	li	gp,1
800011c4:	00b18463          	beq	gp,a1,800011cc <inst_158>
800011c8:	6340306f          	j	800047fc <bad_trap>

800011cc <inst_158>:
800011cc:	00500513          	li	a0,5
800011d0:	02d53593          	sltiu	a1,a0,45
800011d4:	22b12823          	sw	a1,560(sp)
800011d8:	00100193          	li	gp,1
800011dc:	00b18463          	beq	gp,a1,800011e4 <inst_159>
800011e0:	61c0306f          	j	800047fc <bad_trap>

800011e4 <inst_159>:
800011e4:	00500513          	li	a0,5
800011e8:	00053593          	sltiu	a1,a0,0
800011ec:	22b12a23          	sw	a1,564(sp)
800011f0:	00000193          	li	gp,0
800011f4:	00b18463          	beq	gp,a1,800011fc <inst_160>
800011f8:	6040306f          	j	800047fc <bad_trap>

800011fc <inst_160>:
800011fc:	00500513          	li	a0,5
80001200:	03f53593          	sltiu	a1,a0,63
80001204:	22b12c23          	sw	a1,568(sp)
80001208:	00100193          	li	gp,1
8000120c:	00b18463          	beq	gp,a1,80001214 <inst_161>
80001210:	5ec0306f          	j	800047fc <bad_trap>

80001214 <inst_161>:
80001214:	00500513          	li	a0,5
80001218:	00253593          	sltiu	a1,a0,2
8000121c:	22b12e23          	sw	a1,572(sp)
80001220:	00000193          	li	gp,0
80001224:	00b18463          	beq	gp,a1,8000122c <inst_162>
80001228:	5d40306f          	j	800047fc <bad_trap>

8000122c <inst_162>:
8000122c:	00500513          	li	a0,5
80001230:	55453593          	sltiu	a1,a0,1364
80001234:	24b12023          	sw	a1,576(sp)
80001238:	00100193          	li	gp,1
8000123c:	00b18463          	beq	gp,a1,80001244 <inst_163>
80001240:	5bc0306f          	j	800047fc <bad_trap>

80001244 <inst_163>:
80001244:	00500513          	li	a0,5
80001248:	aa953593          	sltiu	a1,a0,-1367
8000124c:	24b12223          	sw	a1,580(sp)
80001250:	00100193          	li	gp,1
80001254:	00b18463          	beq	gp,a1,8000125c <inst_164>
80001258:	5a40306f          	j	800047fc <bad_trap>

8000125c <inst_164>:
8000125c:	00500513          	li	a0,5
80001260:	00453593          	sltiu	a1,a0,4
80001264:	24b12423          	sw	a1,584(sp)
80001268:	00000193          	li	gp,0
8000126c:	00b18463          	beq	gp,a1,80001274 <inst_165>
80001270:	58c0306f          	j	800047fc <bad_trap>

80001274 <inst_165>:
80001274:	00500513          	li	a0,5
80001278:	33253593          	sltiu	a1,a0,818
8000127c:	24b12623          	sw	a1,588(sp)
80001280:	00100193          	li	gp,1
80001284:	00b18463          	beq	gp,a1,8000128c <inst_166>
80001288:	5740306f          	j	800047fc <bad_trap>

8000128c <inst_166>:
8000128c:	00500513          	li	a0,5
80001290:	66553593          	sltiu	a1,a0,1637
80001294:	24b12823          	sw	a1,592(sp)
80001298:	00100193          	li	gp,1
8000129c:	00b18463          	beq	gp,a1,800012a4 <inst_167>
800012a0:	55c0306f          	j	800047fc <bad_trap>

800012a4 <inst_167>:
800012a4:	00500513          	li	a0,5
800012a8:	02c53593          	sltiu	a1,a0,44
800012ac:	24b12a23          	sw	a1,596(sp)
800012b0:	00100193          	li	gp,1
800012b4:	00b18463          	beq	gp,a1,800012bc <inst_168>
800012b8:	5440306f          	j	800047fc <bad_trap>

800012bc <inst_168>:
800012bc:	00500513          	li	a0,5
800012c0:	03e53593          	sltiu	a1,a0,62
800012c4:	24b12c23          	sw	a1,600(sp)
800012c8:	00100193          	li	gp,1
800012cc:	00b18463          	beq	gp,a1,800012d4 <inst_169>
800012d0:	52c0306f          	j	800047fc <bad_trap>

800012d4 <inst_169>:
800012d4:	00500513          	li	a0,5
800012d8:	55653593          	sltiu	a1,a0,1366
800012dc:	24b12e23          	sw	a1,604(sp)
800012e0:	00100193          	li	gp,1
800012e4:	00b18463          	beq	gp,a1,800012ec <inst_170>
800012e8:	5140306f          	j	800047fc <bad_trap>

800012ec <inst_170>:
800012ec:	00500513          	li	a0,5
800012f0:	aab53593          	sltiu	a1,a0,-1365
800012f4:	26b12023          	sw	a1,608(sp)
800012f8:	00100193          	li	gp,1
800012fc:	00b18463          	beq	gp,a1,80001304 <inst_171>
80001300:	4fc0306f          	j	800047fc <bad_trap>

80001304 <inst_171>:
80001304:	00500513          	li	a0,5
80001308:	00653593          	sltiu	a1,a0,6
8000130c:	26b12223          	sw	a1,612(sp)
80001310:	00100193          	li	gp,1
80001314:	00b18463          	beq	gp,a1,8000131c <inst_172>
80001318:	4e40306f          	j	800047fc <bad_trap>

8000131c <inst_172>:
8000131c:	00500513          	li	a0,5
80001320:	33453593          	sltiu	a1,a0,820
80001324:	26b12423          	sw	a1,616(sp)
80001328:	00100193          	li	gp,1
8000132c:	00b18463          	beq	gp,a1,80001334 <inst_173>
80001330:	4cc0306f          	j	800047fc <bad_trap>

80001334 <inst_173>:
80001334:	00500513          	li	a0,5
80001338:	66753593          	sltiu	a1,a0,1639
8000133c:	26b12623          	sw	a1,620(sp)
80001340:	00100193          	li	gp,1
80001344:	00b18463          	beq	gp,a1,8000134c <inst_174>
80001348:	4b40306f          	j	800047fc <bad_trap>

8000134c <inst_174>:
8000134c:	00500513          	li	a0,5
80001350:	02e53593          	sltiu	a1,a0,46
80001354:	26b12823          	sw	a1,624(sp)
80001358:	00100193          	li	gp,1
8000135c:	00b18463          	beq	gp,a1,80001364 <inst_175>
80001360:	49c0306f          	j	800047fc <bad_trap>

80001364 <inst_175>:
80001364:	00500513          	li	a0,5
80001368:	00153593          	seqz	a1,a0
8000136c:	26b12a23          	sw	a1,628(sp)
80001370:	00000193          	li	gp,0
80001374:	00b18463          	beq	gp,a1,8000137c <inst_176>
80001378:	4840306f          	j	800047fc <bad_trap>

8000137c <inst_176>:
8000137c:	00500513          	li	a0,5
80001380:	04053593          	sltiu	a1,a0,64
80001384:	26b12c23          	sw	a1,632(sp)
80001388:	00100193          	li	gp,1
8000138c:	00b18463          	beq	gp,a1,80001394 <inst_177>
80001390:	46c0306f          	j	800047fc <bad_trap>

80001394 <inst_177>:
80001394:	33333537          	lui	a0,0x33333
80001398:	33350513          	addi	a0,a0,819 # 33333333 <offset+0x3333308f>
8000139c:	00353593          	sltiu	a1,a0,3
800013a0:	26b12e23          	sw	a1,636(sp)
800013a4:	00000193          	li	gp,0
800013a8:	00b18463          	beq	gp,a1,800013b0 <inst_178>
800013ac:	4500306f          	j	800047fc <bad_trap>

800013b0 <inst_178>:
800013b0:	33333537          	lui	a0,0x33333
800013b4:	33350513          	addi	a0,a0,819 # 33333333 <offset+0x3333308f>
800013b8:	55553593          	sltiu	a1,a0,1365
800013bc:	28b12023          	sw	a1,640(sp)
800013c0:	00000193          	li	gp,0
800013c4:	00b18463          	beq	gp,a1,800013cc <inst_179>
800013c8:	4340306f          	j	800047fc <bad_trap>

800013cc <inst_179>:
800013cc:	33333537          	lui	a0,0x33333
800013d0:	33350513          	addi	a0,a0,819 # 33333333 <offset+0x3333308f>
800013d4:	aaa53593          	sltiu	a1,a0,-1366
800013d8:	28b12223          	sw	a1,644(sp)
800013dc:	00100193          	li	gp,1
800013e0:	00b18463          	beq	gp,a1,800013e8 <inst_180>
800013e4:	4180306f          	j	800047fc <bad_trap>

800013e8 <inst_180>:
800013e8:	33333537          	lui	a0,0x33333
800013ec:	33350513          	addi	a0,a0,819 # 33333333 <offset+0x3333308f>
800013f0:	00553593          	sltiu	a1,a0,5
800013f4:	28b12423          	sw	a1,648(sp)
800013f8:	00000193          	li	gp,0
800013fc:	00b18463          	beq	gp,a1,80001404 <inst_181>
80001400:	3fc0306f          	j	800047fc <bad_trap>

80001404 <inst_181>:
80001404:	33333537          	lui	a0,0x33333
80001408:	33350513          	addi	a0,a0,819 # 33333333 <offset+0x3333308f>
8000140c:	33353593          	sltiu	a1,a0,819
80001410:	28b12623          	sw	a1,652(sp)
80001414:	00000193          	li	gp,0
80001418:	00b18463          	beq	gp,a1,80001420 <inst_182>
8000141c:	3e00306f          	j	800047fc <bad_trap>

80001420 <inst_182>:
80001420:	33333537          	lui	a0,0x33333
80001424:	33350513          	addi	a0,a0,819 # 33333333 <offset+0x3333308f>
80001428:	66653593          	sltiu	a1,a0,1638
8000142c:	28b12823          	sw	a1,656(sp)
80001430:	00000193          	li	gp,0
80001434:	00b18463          	beq	gp,a1,8000143c <inst_183>
80001438:	3c40306f          	j	800047fc <bad_trap>

8000143c <inst_183>:
8000143c:	33333537          	lui	a0,0x33333
80001440:	33350513          	addi	a0,a0,819 # 33333333 <offset+0x3333308f>
80001444:	02d53593          	sltiu	a1,a0,45
80001448:	28b12a23          	sw	a1,660(sp)
8000144c:	00000193          	li	gp,0
80001450:	00b18463          	beq	gp,a1,80001458 <inst_184>
80001454:	3a80306f          	j	800047fc <bad_trap>

80001458 <inst_184>:
80001458:	33333537          	lui	a0,0x33333
8000145c:	33350513          	addi	a0,a0,819 # 33333333 <offset+0x3333308f>
80001460:	00053593          	sltiu	a1,a0,0
80001464:	28b12c23          	sw	a1,664(sp)
80001468:	00000193          	li	gp,0
8000146c:	00b18463          	beq	gp,a1,80001474 <inst_185>
80001470:	38c0306f          	j	800047fc <bad_trap>

80001474 <inst_185>:
80001474:	33333537          	lui	a0,0x33333
80001478:	33350513          	addi	a0,a0,819 # 33333333 <offset+0x3333308f>
8000147c:	03f53593          	sltiu	a1,a0,63
80001480:	28b12e23          	sw	a1,668(sp)
80001484:	00000193          	li	gp,0
80001488:	00b18463          	beq	gp,a1,80001490 <inst_186>
8000148c:	3700306f          	j	800047fc <bad_trap>

80001490 <inst_186>:
80001490:	33333537          	lui	a0,0x33333
80001494:	33350513          	addi	a0,a0,819 # 33333333 <offset+0x3333308f>
80001498:	00253593          	sltiu	a1,a0,2
8000149c:	2ab12023          	sw	a1,672(sp)
800014a0:	00000193          	li	gp,0
800014a4:	00b18463          	beq	gp,a1,800014ac <inst_187>
800014a8:	3540306f          	j	800047fc <bad_trap>

800014ac <inst_187>:
800014ac:	33333537          	lui	a0,0x33333
800014b0:	33350513          	addi	a0,a0,819 # 33333333 <offset+0x3333308f>
800014b4:	55453593          	sltiu	a1,a0,1364
800014b8:	2ab12223          	sw	a1,676(sp)
800014bc:	00000193          	li	gp,0
800014c0:	00b18463          	beq	gp,a1,800014c8 <inst_188>
800014c4:	3380306f          	j	800047fc <bad_trap>

800014c8 <inst_188>:
800014c8:	33333537          	lui	a0,0x33333
800014cc:	33350513          	addi	a0,a0,819 # 33333333 <offset+0x3333308f>
800014d0:	aa953593          	sltiu	a1,a0,-1367
800014d4:	2ab12423          	sw	a1,680(sp)
800014d8:	00100193          	li	gp,1
800014dc:	00b18463          	beq	gp,a1,800014e4 <inst_189>
800014e0:	31c0306f          	j	800047fc <bad_trap>

800014e4 <inst_189>:
800014e4:	33333537          	lui	a0,0x33333
800014e8:	33350513          	addi	a0,a0,819 # 33333333 <offset+0x3333308f>
800014ec:	00453593          	sltiu	a1,a0,4
800014f0:	2ab12623          	sw	a1,684(sp)
800014f4:	00000193          	li	gp,0
800014f8:	00b18463          	beq	gp,a1,80001500 <inst_190>
800014fc:	3000306f          	j	800047fc <bad_trap>

80001500 <inst_190>:
80001500:	33333537          	lui	a0,0x33333
80001504:	33350513          	addi	a0,a0,819 # 33333333 <offset+0x3333308f>
80001508:	33253593          	sltiu	a1,a0,818
8000150c:	2ab12823          	sw	a1,688(sp)
80001510:	00000193          	li	gp,0
80001514:	00b18463          	beq	gp,a1,8000151c <inst_191>
80001518:	2e40306f          	j	800047fc <bad_trap>

8000151c <inst_191>:
8000151c:	33333537          	lui	a0,0x33333
80001520:	33350513          	addi	a0,a0,819 # 33333333 <offset+0x3333308f>
80001524:	66553593          	sltiu	a1,a0,1637
80001528:	2ab12a23          	sw	a1,692(sp)
8000152c:	00000193          	li	gp,0
80001530:	00b18463          	beq	gp,a1,80001538 <inst_192>
80001534:	2c80306f          	j	800047fc <bad_trap>

80001538 <inst_192>:
80001538:	33333537          	lui	a0,0x33333
8000153c:	33350513          	addi	a0,a0,819 # 33333333 <offset+0x3333308f>
80001540:	02c53593          	sltiu	a1,a0,44
80001544:	2ab12c23          	sw	a1,696(sp)
80001548:	00000193          	li	gp,0
8000154c:	00b18463          	beq	gp,a1,80001554 <inst_193>
80001550:	2ac0306f          	j	800047fc <bad_trap>

80001554 <inst_193>:
80001554:	33333537          	lui	a0,0x33333
80001558:	33350513          	addi	a0,a0,819 # 33333333 <offset+0x3333308f>
8000155c:	03e53593          	sltiu	a1,a0,62
80001560:	2ab12e23          	sw	a1,700(sp)
80001564:	00000193          	li	gp,0
80001568:	00b18463          	beq	gp,a1,80001570 <inst_194>
8000156c:	2900306f          	j	800047fc <bad_trap>

80001570 <inst_194>:
80001570:	33333537          	lui	a0,0x33333
80001574:	33350513          	addi	a0,a0,819 # 33333333 <offset+0x3333308f>
80001578:	55653593          	sltiu	a1,a0,1366
8000157c:	2cb12023          	sw	a1,704(sp)
80001580:	00000193          	li	gp,0
80001584:	00b18463          	beq	gp,a1,8000158c <inst_195>
80001588:	2740306f          	j	800047fc <bad_trap>

8000158c <inst_195>:
8000158c:	33333537          	lui	a0,0x33333
80001590:	33350513          	addi	a0,a0,819 # 33333333 <offset+0x3333308f>
80001594:	aab53593          	sltiu	a1,a0,-1365
80001598:	2cb12223          	sw	a1,708(sp)
8000159c:	00100193          	li	gp,1
800015a0:	00b18463          	beq	gp,a1,800015a8 <inst_196>
800015a4:	2580306f          	j	800047fc <bad_trap>

800015a8 <inst_196>:
800015a8:	33333537          	lui	a0,0x33333
800015ac:	33350513          	addi	a0,a0,819 # 33333333 <offset+0x3333308f>
800015b0:	00653593          	sltiu	a1,a0,6
800015b4:	2cb12423          	sw	a1,712(sp)
800015b8:	00000193          	li	gp,0
800015bc:	00b18463          	beq	gp,a1,800015c4 <inst_197>
800015c0:	23c0306f          	j	800047fc <bad_trap>

800015c4 <inst_197>:
800015c4:	33333537          	lui	a0,0x33333
800015c8:	33350513          	addi	a0,a0,819 # 33333333 <offset+0x3333308f>
800015cc:	33453593          	sltiu	a1,a0,820
800015d0:	2cb12623          	sw	a1,716(sp)
800015d4:	00000193          	li	gp,0
800015d8:	00b18463          	beq	gp,a1,800015e0 <inst_198>
800015dc:	2200306f          	j	800047fc <bad_trap>

800015e0 <inst_198>:
800015e0:	33333537          	lui	a0,0x33333
800015e4:	33350513          	addi	a0,a0,819 # 33333333 <offset+0x3333308f>
800015e8:	66753593          	sltiu	a1,a0,1639
800015ec:	2cb12823          	sw	a1,720(sp)
800015f0:	00000193          	li	gp,0
800015f4:	00b18463          	beq	gp,a1,800015fc <inst_199>
800015f8:	2040306f          	j	800047fc <bad_trap>

800015fc <inst_199>:
800015fc:	33333537          	lui	a0,0x33333
80001600:	33350513          	addi	a0,a0,819 # 33333333 <offset+0x3333308f>
80001604:	02e53593          	sltiu	a1,a0,46
80001608:	2cb12a23          	sw	a1,724(sp)
8000160c:	00000193          	li	gp,0
80001610:	00b18463          	beq	gp,a1,80001618 <inst_200>
80001614:	1e80306f          	j	800047fc <bad_trap>

80001618 <inst_200>:
80001618:	33333537          	lui	a0,0x33333
8000161c:	33350513          	addi	a0,a0,819 # 33333333 <offset+0x3333308f>
80001620:	00153593          	seqz	a1,a0
80001624:	2cb12c23          	sw	a1,728(sp)
80001628:	00000193          	li	gp,0
8000162c:	00b18463          	beq	gp,a1,80001634 <inst_201>
80001630:	1cc0306f          	j	800047fc <bad_trap>

80001634 <inst_201>:
80001634:	33333537          	lui	a0,0x33333
80001638:	33350513          	addi	a0,a0,819 # 33333333 <offset+0x3333308f>
8000163c:	04053593          	sltiu	a1,a0,64
80001640:	2cb12e23          	sw	a1,732(sp)
80001644:	00000193          	li	gp,0
80001648:	00b18463          	beq	gp,a1,80001650 <inst_202>
8000164c:	1b00306f          	j	800047fc <bad_trap>

80001650 <inst_202>:
80001650:	66666537          	lui	a0,0x66666
80001654:	66650513          	addi	a0,a0,1638 # 66666666 <absimm+0x21374137>
80001658:	00353593          	sltiu	a1,a0,3
8000165c:	2eb12023          	sw	a1,736(sp)
80001660:	00000193          	li	gp,0
80001664:	00b18463          	beq	gp,a1,8000166c <inst_203>
80001668:	1940306f          	j	800047fc <bad_trap>

8000166c <inst_203>:
8000166c:	66666537          	lui	a0,0x66666
80001670:	66650513          	addi	a0,a0,1638 # 66666666 <absimm+0x21374137>
80001674:	55553593          	sltiu	a1,a0,1365
80001678:	2eb12223          	sw	a1,740(sp)
8000167c:	00000193          	li	gp,0
80001680:	00b18463          	beq	gp,a1,80001688 <inst_204>
80001684:	1780306f          	j	800047fc <bad_trap>

80001688 <inst_204>:
80001688:	66666537          	lui	a0,0x66666
8000168c:	66650513          	addi	a0,a0,1638 # 66666666 <absimm+0x21374137>
80001690:	aaa53593          	sltiu	a1,a0,-1366
80001694:	2eb12423          	sw	a1,744(sp)
80001698:	00100193          	li	gp,1
8000169c:	00b18463          	beq	gp,a1,800016a4 <inst_205>
800016a0:	15c0306f          	j	800047fc <bad_trap>

800016a4 <inst_205>:
800016a4:	66666537          	lui	a0,0x66666
800016a8:	66650513          	addi	a0,a0,1638 # 66666666 <absimm+0x21374137>
800016ac:	00553593          	sltiu	a1,a0,5
800016b0:	2eb12623          	sw	a1,748(sp)
800016b4:	00000193          	li	gp,0
800016b8:	00b18463          	beq	gp,a1,800016c0 <inst_206>
800016bc:	1400306f          	j	800047fc <bad_trap>

800016c0 <inst_206>:
800016c0:	66666537          	lui	a0,0x66666
800016c4:	66650513          	addi	a0,a0,1638 # 66666666 <absimm+0x21374137>
800016c8:	33353593          	sltiu	a1,a0,819
800016cc:	2eb12823          	sw	a1,752(sp)
800016d0:	00000193          	li	gp,0
800016d4:	00b18463          	beq	gp,a1,800016dc <inst_207>
800016d8:	1240306f          	j	800047fc <bad_trap>

800016dc <inst_207>:
800016dc:	66666537          	lui	a0,0x66666
800016e0:	66650513          	addi	a0,a0,1638 # 66666666 <absimm+0x21374137>
800016e4:	66653593          	sltiu	a1,a0,1638
800016e8:	2eb12a23          	sw	a1,756(sp)
800016ec:	00000193          	li	gp,0
800016f0:	00b18463          	beq	gp,a1,800016f8 <inst_208>
800016f4:	1080306f          	j	800047fc <bad_trap>

800016f8 <inst_208>:
800016f8:	66666537          	lui	a0,0x66666
800016fc:	66650513          	addi	a0,a0,1638 # 66666666 <absimm+0x21374137>
80001700:	02d53593          	sltiu	a1,a0,45
80001704:	2eb12c23          	sw	a1,760(sp)
80001708:	00000193          	li	gp,0
8000170c:	00b18463          	beq	gp,a1,80001714 <inst_209>
80001710:	0ec0306f          	j	800047fc <bad_trap>

80001714 <inst_209>:
80001714:	66666537          	lui	a0,0x66666
80001718:	66650513          	addi	a0,a0,1638 # 66666666 <absimm+0x21374137>
8000171c:	00053593          	sltiu	a1,a0,0
80001720:	2eb12e23          	sw	a1,764(sp)
80001724:	00000193          	li	gp,0
80001728:	00b18463          	beq	gp,a1,80001730 <inst_210>
8000172c:	0d00306f          	j	800047fc <bad_trap>

80001730 <inst_210>:
80001730:	66666537          	lui	a0,0x66666
80001734:	66650513          	addi	a0,a0,1638 # 66666666 <absimm+0x21374137>
80001738:	03f53593          	sltiu	a1,a0,63
8000173c:	30b12023          	sw	a1,768(sp)
80001740:	00000193          	li	gp,0
80001744:	00b18463          	beq	gp,a1,8000174c <inst_211>
80001748:	0b40306f          	j	800047fc <bad_trap>

8000174c <inst_211>:
8000174c:	66666537          	lui	a0,0x66666
80001750:	66650513          	addi	a0,a0,1638 # 66666666 <absimm+0x21374137>
80001754:	00253593          	sltiu	a1,a0,2
80001758:	30b12223          	sw	a1,772(sp)
8000175c:	00000193          	li	gp,0
80001760:	00b18463          	beq	gp,a1,80001768 <inst_212>
80001764:	0980306f          	j	800047fc <bad_trap>

80001768 <inst_212>:
80001768:	66666537          	lui	a0,0x66666
8000176c:	66650513          	addi	a0,a0,1638 # 66666666 <absimm+0x21374137>
80001770:	55453593          	sltiu	a1,a0,1364
80001774:	30b12423          	sw	a1,776(sp)
80001778:	00000193          	li	gp,0
8000177c:	00b18463          	beq	gp,a1,80001784 <inst_213>
80001780:	07c0306f          	j	800047fc <bad_trap>

80001784 <inst_213>:
80001784:	66666537          	lui	a0,0x66666
80001788:	66650513          	addi	a0,a0,1638 # 66666666 <absimm+0x21374137>
8000178c:	aa953593          	sltiu	a1,a0,-1367
80001790:	30b12623          	sw	a1,780(sp)
80001794:	00100193          	li	gp,1
80001798:	00b18463          	beq	gp,a1,800017a0 <inst_214>
8000179c:	0600306f          	j	800047fc <bad_trap>

800017a0 <inst_214>:
800017a0:	66666537          	lui	a0,0x66666
800017a4:	66650513          	addi	a0,a0,1638 # 66666666 <absimm+0x21374137>
800017a8:	00453593          	sltiu	a1,a0,4
800017ac:	30b12823          	sw	a1,784(sp)
800017b0:	00000193          	li	gp,0
800017b4:	00b18463          	beq	gp,a1,800017bc <inst_215>
800017b8:	0440306f          	j	800047fc <bad_trap>

800017bc <inst_215>:
800017bc:	66666537          	lui	a0,0x66666
800017c0:	66650513          	addi	a0,a0,1638 # 66666666 <absimm+0x21374137>
800017c4:	33253593          	sltiu	a1,a0,818
800017c8:	30b12a23          	sw	a1,788(sp)
800017cc:	00000193          	li	gp,0
800017d0:	00b18463          	beq	gp,a1,800017d8 <inst_216>
800017d4:	0280306f          	j	800047fc <bad_trap>

800017d8 <inst_216>:
800017d8:	66666537          	lui	a0,0x66666
800017dc:	66650513          	addi	a0,a0,1638 # 66666666 <absimm+0x21374137>
800017e0:	66553593          	sltiu	a1,a0,1637
800017e4:	30b12c23          	sw	a1,792(sp)
800017e8:	00000193          	li	gp,0
800017ec:	00b18463          	beq	gp,a1,800017f4 <inst_217>
800017f0:	00c0306f          	j	800047fc <bad_trap>

800017f4 <inst_217>:
800017f4:	66666537          	lui	a0,0x66666
800017f8:	66650513          	addi	a0,a0,1638 # 66666666 <absimm+0x21374137>
800017fc:	02c53593          	sltiu	a1,a0,44
80001800:	30b12e23          	sw	a1,796(sp)
80001804:	00000193          	li	gp,0
80001808:	00b18463          	beq	gp,a1,80001810 <inst_218>
8000180c:	7f10206f          	j	800047fc <bad_trap>

80001810 <inst_218>:
80001810:	66666537          	lui	a0,0x66666
80001814:	66650513          	addi	a0,a0,1638 # 66666666 <absimm+0x21374137>
80001818:	03e53593          	sltiu	a1,a0,62
8000181c:	32b12023          	sw	a1,800(sp)
80001820:	00000193          	li	gp,0
80001824:	00b18463          	beq	gp,a1,8000182c <inst_219>
80001828:	7d50206f          	j	800047fc <bad_trap>

8000182c <inst_219>:
8000182c:	66666537          	lui	a0,0x66666
80001830:	66650513          	addi	a0,a0,1638 # 66666666 <absimm+0x21374137>
80001834:	55653593          	sltiu	a1,a0,1366
80001838:	32b12223          	sw	a1,804(sp)
8000183c:	00000193          	li	gp,0
80001840:	00b18463          	beq	gp,a1,80001848 <inst_220>
80001844:	7b90206f          	j	800047fc <bad_trap>

80001848 <inst_220>:
80001848:	66666537          	lui	a0,0x66666
8000184c:	66650513          	addi	a0,a0,1638 # 66666666 <absimm+0x21374137>
80001850:	aab53593          	sltiu	a1,a0,-1365
80001854:	32b12423          	sw	a1,808(sp)
80001858:	00100193          	li	gp,1
8000185c:	00b18463          	beq	gp,a1,80001864 <inst_221>
80001860:	79d0206f          	j	800047fc <bad_trap>

80001864 <inst_221>:
80001864:	66666537          	lui	a0,0x66666
80001868:	66650513          	addi	a0,a0,1638 # 66666666 <absimm+0x21374137>
8000186c:	00653593          	sltiu	a1,a0,6
80001870:	32b12623          	sw	a1,812(sp)
80001874:	00000193          	li	gp,0
80001878:	00b18463          	beq	gp,a1,80001880 <inst_222>
8000187c:	7810206f          	j	800047fc <bad_trap>

80001880 <inst_222>:
80001880:	66666537          	lui	a0,0x66666
80001884:	66650513          	addi	a0,a0,1638 # 66666666 <absimm+0x21374137>
80001888:	33453593          	sltiu	a1,a0,820
8000188c:	32b12823          	sw	a1,816(sp)
80001890:	00000193          	li	gp,0
80001894:	00b18463          	beq	gp,a1,8000189c <inst_223>
80001898:	7650206f          	j	800047fc <bad_trap>

8000189c <inst_223>:
8000189c:	66666537          	lui	a0,0x66666
800018a0:	66650513          	addi	a0,a0,1638 # 66666666 <absimm+0x21374137>
800018a4:	66753593          	sltiu	a1,a0,1639
800018a8:	32b12a23          	sw	a1,820(sp)
800018ac:	00000193          	li	gp,0
800018b0:	00b18463          	beq	gp,a1,800018b8 <inst_224>
800018b4:	7490206f          	j	800047fc <bad_trap>

800018b8 <inst_224>:
800018b8:	66666537          	lui	a0,0x66666
800018bc:	66650513          	addi	a0,a0,1638 # 66666666 <absimm+0x21374137>
800018c0:	02e53593          	sltiu	a1,a0,46
800018c4:	32b12c23          	sw	a1,824(sp)
800018c8:	00000193          	li	gp,0
800018cc:	00b18463          	beq	gp,a1,800018d4 <inst_225>
800018d0:	72d0206f          	j	800047fc <bad_trap>

800018d4 <inst_225>:
800018d4:	66666537          	lui	a0,0x66666
800018d8:	66650513          	addi	a0,a0,1638 # 66666666 <absimm+0x21374137>
800018dc:	00153593          	seqz	a1,a0
800018e0:	32b12e23          	sw	a1,828(sp)
800018e4:	00000193          	li	gp,0
800018e8:	00b18463          	beq	gp,a1,800018f0 <inst_226>
800018ec:	7110206f          	j	800047fc <bad_trap>

800018f0 <inst_226>:
800018f0:	66666537          	lui	a0,0x66666
800018f4:	66650513          	addi	a0,a0,1638 # 66666666 <absimm+0x21374137>
800018f8:	04053593          	sltiu	a1,a0,64
800018fc:	34b12023          	sw	a1,832(sp)
80001900:	00000193          	li	gp,0
80001904:	00b18463          	beq	gp,a1,8000190c <inst_227>
80001908:	6f50206f          	j	800047fc <bad_trap>

8000190c <inst_227>:
8000190c:	0000b537          	lui	a0,0xb
80001910:	50450513          	addi	a0,a0,1284 # b504 <offset+0xb260>
80001914:	00353593          	sltiu	a1,a0,3
80001918:	34b12223          	sw	a1,836(sp)
8000191c:	00000193          	li	gp,0
80001920:	00b18463          	beq	gp,a1,80001928 <inst_228>
80001924:	6d90206f          	j	800047fc <bad_trap>

80001928 <inst_228>:
80001928:	0000b537          	lui	a0,0xb
8000192c:	50450513          	addi	a0,a0,1284 # b504 <offset+0xb260>
80001930:	55553593          	sltiu	a1,a0,1365
80001934:	34b12423          	sw	a1,840(sp)
80001938:	00000193          	li	gp,0
8000193c:	00b18463          	beq	gp,a1,80001944 <inst_229>
80001940:	6bd0206f          	j	800047fc <bad_trap>

80001944 <inst_229>:
80001944:	0000b537          	lui	a0,0xb
80001948:	50450513          	addi	a0,a0,1284 # b504 <offset+0xb260>
8000194c:	aaa53593          	sltiu	a1,a0,-1366
80001950:	34b12623          	sw	a1,844(sp)
80001954:	00100193          	li	gp,1
80001958:	00b18463          	beq	gp,a1,80001960 <inst_230>
8000195c:	6a10206f          	j	800047fc <bad_trap>

80001960 <inst_230>:
80001960:	0000b537          	lui	a0,0xb
80001964:	50450513          	addi	a0,a0,1284 # b504 <offset+0xb260>
80001968:	00553593          	sltiu	a1,a0,5
8000196c:	34b12823          	sw	a1,848(sp)
80001970:	00000193          	li	gp,0
80001974:	00b18463          	beq	gp,a1,8000197c <inst_231>
80001978:	6850206f          	j	800047fc <bad_trap>

8000197c <inst_231>:
8000197c:	0000b537          	lui	a0,0xb
80001980:	50450513          	addi	a0,a0,1284 # b504 <offset+0xb260>
80001984:	33353593          	sltiu	a1,a0,819
80001988:	34b12a23          	sw	a1,852(sp)
8000198c:	00000193          	li	gp,0
80001990:	00b18463          	beq	gp,a1,80001998 <inst_232>
80001994:	6690206f          	j	800047fc <bad_trap>

80001998 <inst_232>:
80001998:	0000b537          	lui	a0,0xb
8000199c:	50450513          	addi	a0,a0,1284 # b504 <offset+0xb260>
800019a0:	66653593          	sltiu	a1,a0,1638
800019a4:	34b12c23          	sw	a1,856(sp)
800019a8:	00000193          	li	gp,0
800019ac:	00b18463          	beq	gp,a1,800019b4 <inst_233>
800019b0:	64d0206f          	j	800047fc <bad_trap>

800019b4 <inst_233>:
800019b4:	0000b537          	lui	a0,0xb
800019b8:	50450513          	addi	a0,a0,1284 # b504 <offset+0xb260>
800019bc:	02d53593          	sltiu	a1,a0,45
800019c0:	34b12e23          	sw	a1,860(sp)
800019c4:	00000193          	li	gp,0
800019c8:	00b18463          	beq	gp,a1,800019d0 <inst_234>
800019cc:	6310206f          	j	800047fc <bad_trap>

800019d0 <inst_234>:
800019d0:	0000b537          	lui	a0,0xb
800019d4:	50450513          	addi	a0,a0,1284 # b504 <offset+0xb260>
800019d8:	00053593          	sltiu	a1,a0,0
800019dc:	36b12023          	sw	a1,864(sp)
800019e0:	00000193          	li	gp,0
800019e4:	00b18463          	beq	gp,a1,800019ec <inst_235>
800019e8:	6150206f          	j	800047fc <bad_trap>

800019ec <inst_235>:
800019ec:	0000b537          	lui	a0,0xb
800019f0:	50450513          	addi	a0,a0,1284 # b504 <offset+0xb260>
800019f4:	03f53593          	sltiu	a1,a0,63
800019f8:	36b12223          	sw	a1,868(sp)
800019fc:	00000193          	li	gp,0
80001a00:	00b18463          	beq	gp,a1,80001a08 <inst_236>
80001a04:	5f90206f          	j	800047fc <bad_trap>

80001a08 <inst_236>:
80001a08:	0000b537          	lui	a0,0xb
80001a0c:	50450513          	addi	a0,a0,1284 # b504 <offset+0xb260>
80001a10:	00253593          	sltiu	a1,a0,2
80001a14:	36b12423          	sw	a1,872(sp)
80001a18:	00000193          	li	gp,0
80001a1c:	00b18463          	beq	gp,a1,80001a24 <inst_237>
80001a20:	5dd0206f          	j	800047fc <bad_trap>

80001a24 <inst_237>:
80001a24:	0000b537          	lui	a0,0xb
80001a28:	50450513          	addi	a0,a0,1284 # b504 <offset+0xb260>
80001a2c:	55453593          	sltiu	a1,a0,1364
80001a30:	36b12623          	sw	a1,876(sp)
80001a34:	00000193          	li	gp,0
80001a38:	00b18463          	beq	gp,a1,80001a40 <inst_238>
80001a3c:	5c10206f          	j	800047fc <bad_trap>

80001a40 <inst_238>:
80001a40:	0000b537          	lui	a0,0xb
80001a44:	50450513          	addi	a0,a0,1284 # b504 <offset+0xb260>
80001a48:	aa953593          	sltiu	a1,a0,-1367
80001a4c:	36b12823          	sw	a1,880(sp)
80001a50:	00100193          	li	gp,1
80001a54:	00b18463          	beq	gp,a1,80001a5c <inst_239>
80001a58:	5a50206f          	j	800047fc <bad_trap>

80001a5c <inst_239>:
80001a5c:	0000b537          	lui	a0,0xb
80001a60:	50450513          	addi	a0,a0,1284 # b504 <offset+0xb260>
80001a64:	00453593          	sltiu	a1,a0,4
80001a68:	36b12a23          	sw	a1,884(sp)
80001a6c:	00000193          	li	gp,0
80001a70:	00b18463          	beq	gp,a1,80001a78 <inst_240>
80001a74:	5890206f          	j	800047fc <bad_trap>

80001a78 <inst_240>:
80001a78:	0000b537          	lui	a0,0xb
80001a7c:	50450513          	addi	a0,a0,1284 # b504 <offset+0xb260>
80001a80:	33253593          	sltiu	a1,a0,818
80001a84:	36b12c23          	sw	a1,888(sp)
80001a88:	00000193          	li	gp,0
80001a8c:	00b18463          	beq	gp,a1,80001a94 <inst_241>
80001a90:	56d0206f          	j	800047fc <bad_trap>

80001a94 <inst_241>:
80001a94:	0000b537          	lui	a0,0xb
80001a98:	50450513          	addi	a0,a0,1284 # b504 <offset+0xb260>
80001a9c:	66553593          	sltiu	a1,a0,1637
80001aa0:	36b12e23          	sw	a1,892(sp)
80001aa4:	00000193          	li	gp,0
80001aa8:	00b18463          	beq	gp,a1,80001ab0 <inst_242>
80001aac:	5510206f          	j	800047fc <bad_trap>

80001ab0 <inst_242>:
80001ab0:	0000b537          	lui	a0,0xb
80001ab4:	50450513          	addi	a0,a0,1284 # b504 <offset+0xb260>
80001ab8:	02c53593          	sltiu	a1,a0,44
80001abc:	38b12023          	sw	a1,896(sp)
80001ac0:	00000193          	li	gp,0
80001ac4:	00b18463          	beq	gp,a1,80001acc <inst_243>
80001ac8:	5350206f          	j	800047fc <bad_trap>

80001acc <inst_243>:
80001acc:	0000b537          	lui	a0,0xb
80001ad0:	50450513          	addi	a0,a0,1284 # b504 <offset+0xb260>
80001ad4:	03e53593          	sltiu	a1,a0,62
80001ad8:	38b12223          	sw	a1,900(sp)
80001adc:	00000193          	li	gp,0
80001ae0:	00b18463          	beq	gp,a1,80001ae8 <inst_244>
80001ae4:	5190206f          	j	800047fc <bad_trap>

80001ae8 <inst_244>:
80001ae8:	0000b537          	lui	a0,0xb
80001aec:	50450513          	addi	a0,a0,1284 # b504 <offset+0xb260>
80001af0:	55653593          	sltiu	a1,a0,1366
80001af4:	38b12423          	sw	a1,904(sp)
80001af8:	00000193          	li	gp,0
80001afc:	00b18463          	beq	gp,a1,80001b04 <inst_245>
80001b00:	4fd0206f          	j	800047fc <bad_trap>

80001b04 <inst_245>:
80001b04:	0000b537          	lui	a0,0xb
80001b08:	50450513          	addi	a0,a0,1284 # b504 <offset+0xb260>
80001b0c:	aab53593          	sltiu	a1,a0,-1365
80001b10:	38b12623          	sw	a1,908(sp)
80001b14:	00100193          	li	gp,1
80001b18:	00b18463          	beq	gp,a1,80001b20 <inst_246>
80001b1c:	4e10206f          	j	800047fc <bad_trap>

80001b20 <inst_246>:
80001b20:	0000b537          	lui	a0,0xb
80001b24:	50450513          	addi	a0,a0,1284 # b504 <offset+0xb260>
80001b28:	00653593          	sltiu	a1,a0,6
80001b2c:	38b12823          	sw	a1,912(sp)
80001b30:	00000193          	li	gp,0
80001b34:	00b18463          	beq	gp,a1,80001b3c <inst_247>
80001b38:	4c50206f          	j	800047fc <bad_trap>

80001b3c <inst_247>:
80001b3c:	0000b537          	lui	a0,0xb
80001b40:	50450513          	addi	a0,a0,1284 # b504 <offset+0xb260>
80001b44:	33453593          	sltiu	a1,a0,820
80001b48:	38b12a23          	sw	a1,916(sp)
80001b4c:	00000193          	li	gp,0
80001b50:	00b18463          	beq	gp,a1,80001b58 <inst_248>
80001b54:	4a90206f          	j	800047fc <bad_trap>

80001b58 <inst_248>:
80001b58:	0000b537          	lui	a0,0xb
80001b5c:	50450513          	addi	a0,a0,1284 # b504 <offset+0xb260>
80001b60:	66753593          	sltiu	a1,a0,1639
80001b64:	38b12c23          	sw	a1,920(sp)
80001b68:	00000193          	li	gp,0
80001b6c:	00b18463          	beq	gp,a1,80001b74 <inst_249>
80001b70:	48d0206f          	j	800047fc <bad_trap>

80001b74 <inst_249>:
80001b74:	0000b537          	lui	a0,0xb
80001b78:	50450513          	addi	a0,a0,1284 # b504 <offset+0xb260>
80001b7c:	02e53593          	sltiu	a1,a0,46
80001b80:	38b12e23          	sw	a1,924(sp)
80001b84:	00000193          	li	gp,0
80001b88:	00b18463          	beq	gp,a1,80001b90 <inst_250>
80001b8c:	4710206f          	j	800047fc <bad_trap>

80001b90 <inst_250>:
80001b90:	0000b537          	lui	a0,0xb
80001b94:	50450513          	addi	a0,a0,1284 # b504 <offset+0xb260>
80001b98:	00153593          	seqz	a1,a0
80001b9c:	3ab12023          	sw	a1,928(sp)
80001ba0:	00000193          	li	gp,0
80001ba4:	00b18463          	beq	gp,a1,80001bac <inst_251>
80001ba8:	4550206f          	j	800047fc <bad_trap>

80001bac <inst_251>:
80001bac:	0000b537          	lui	a0,0xb
80001bb0:	50450513          	addi	a0,a0,1284 # b504 <offset+0xb260>
80001bb4:	04053593          	sltiu	a1,a0,64
80001bb8:	3ab12223          	sw	a1,932(sp)
80001bbc:	00000193          	li	gp,0
80001bc0:	00b18463          	beq	gp,a1,80001bc8 <inst_252>
80001bc4:	4390206f          	j	800047fc <bad_trap>

80001bc8 <inst_252>:
80001bc8:	00000513          	li	a0,0
80001bcc:	00353593          	sltiu	a1,a0,3
80001bd0:	3ab12423          	sw	a1,936(sp)
80001bd4:	00100193          	li	gp,1
80001bd8:	00b18463          	beq	gp,a1,80001be0 <inst_253>
80001bdc:	4210206f          	j	800047fc <bad_trap>

80001be0 <inst_253>:
80001be0:	00000513          	li	a0,0
80001be4:	55553593          	sltiu	a1,a0,1365
80001be8:	3ab12623          	sw	a1,940(sp)
80001bec:	00100193          	li	gp,1
80001bf0:	00b18463          	beq	gp,a1,80001bf8 <inst_254>
80001bf4:	4090206f          	j	800047fc <bad_trap>

80001bf8 <inst_254>:
80001bf8:	00000513          	li	a0,0
80001bfc:	aaa53593          	sltiu	a1,a0,-1366
80001c00:	3ab12823          	sw	a1,944(sp)
80001c04:	00100193          	li	gp,1
80001c08:	00b18463          	beq	gp,a1,80001c10 <inst_255>
80001c0c:	3f10206f          	j	800047fc <bad_trap>

80001c10 <inst_255>:
80001c10:	00000513          	li	a0,0
80001c14:	00553593          	sltiu	a1,a0,5
80001c18:	3ab12a23          	sw	a1,948(sp)
80001c1c:	00100193          	li	gp,1
80001c20:	00b18463          	beq	gp,a1,80001c28 <inst_256>
80001c24:	3d90206f          	j	800047fc <bad_trap>

80001c28 <inst_256>:
80001c28:	00000513          	li	a0,0
80001c2c:	33353593          	sltiu	a1,a0,819
80001c30:	3ab12c23          	sw	a1,952(sp)
80001c34:	00100193          	li	gp,1
80001c38:	00b18463          	beq	gp,a1,80001c40 <inst_257>
80001c3c:	3c10206f          	j	800047fc <bad_trap>

80001c40 <inst_257>:
80001c40:	00000513          	li	a0,0
80001c44:	66653593          	sltiu	a1,a0,1638
80001c48:	3ab12e23          	sw	a1,956(sp)
80001c4c:	00100193          	li	gp,1
80001c50:	00b18463          	beq	gp,a1,80001c58 <inst_258>
80001c54:	3a90206f          	j	800047fc <bad_trap>

80001c58 <inst_258>:
80001c58:	00000513          	li	a0,0
80001c5c:	02d53593          	sltiu	a1,a0,45
80001c60:	3cb12023          	sw	a1,960(sp)
80001c64:	00100193          	li	gp,1
80001c68:	00b18463          	beq	gp,a1,80001c70 <inst_259>
80001c6c:	3910206f          	j	800047fc <bad_trap>

80001c70 <inst_259>:
80001c70:	00000513          	li	a0,0
80001c74:	00053593          	sltiu	a1,a0,0
80001c78:	3cb12223          	sw	a1,964(sp)
80001c7c:	00000193          	li	gp,0
80001c80:	00b18463          	beq	gp,a1,80001c88 <inst_260>
80001c84:	3790206f          	j	800047fc <bad_trap>

80001c88 <inst_260>:
80001c88:	00000513          	li	a0,0
80001c8c:	03f53593          	sltiu	a1,a0,63
80001c90:	3cb12423          	sw	a1,968(sp)
80001c94:	00100193          	li	gp,1
80001c98:	00b18463          	beq	gp,a1,80001ca0 <inst_261>
80001c9c:	3610206f          	j	800047fc <bad_trap>

80001ca0 <inst_261>:
80001ca0:	00000513          	li	a0,0
80001ca4:	00253593          	sltiu	a1,a0,2
80001ca8:	3cb12623          	sw	a1,972(sp)
80001cac:	00100193          	li	gp,1
80001cb0:	00b18463          	beq	gp,a1,80001cb8 <inst_262>
80001cb4:	3490206f          	j	800047fc <bad_trap>

80001cb8 <inst_262>:
80001cb8:	00000513          	li	a0,0
80001cbc:	55453593          	sltiu	a1,a0,1364
80001cc0:	3cb12823          	sw	a1,976(sp)
80001cc4:	00100193          	li	gp,1
80001cc8:	00b18463          	beq	gp,a1,80001cd0 <inst_263>
80001ccc:	3310206f          	j	800047fc <bad_trap>

80001cd0 <inst_263>:
80001cd0:	00000513          	li	a0,0
80001cd4:	aa953593          	sltiu	a1,a0,-1367
80001cd8:	3cb12a23          	sw	a1,980(sp)
80001cdc:	00100193          	li	gp,1
80001ce0:	00b18463          	beq	gp,a1,80001ce8 <inst_264>
80001ce4:	3190206f          	j	800047fc <bad_trap>

80001ce8 <inst_264>:
80001ce8:	00000513          	li	a0,0
80001cec:	00453593          	sltiu	a1,a0,4
80001cf0:	3cb12c23          	sw	a1,984(sp)
80001cf4:	00100193          	li	gp,1
80001cf8:	00b18463          	beq	gp,a1,80001d00 <inst_265>
80001cfc:	3010206f          	j	800047fc <bad_trap>

80001d00 <inst_265>:
80001d00:	00000513          	li	a0,0
80001d04:	33253593          	sltiu	a1,a0,818
80001d08:	3cb12e23          	sw	a1,988(sp)
80001d0c:	00100193          	li	gp,1
80001d10:	00b18463          	beq	gp,a1,80001d18 <inst_266>
80001d14:	2e90206f          	j	800047fc <bad_trap>

80001d18 <inst_266>:
80001d18:	00000513          	li	a0,0
80001d1c:	66553593          	sltiu	a1,a0,1637
80001d20:	3eb12023          	sw	a1,992(sp)
80001d24:	00100193          	li	gp,1
80001d28:	00b18463          	beq	gp,a1,80001d30 <inst_267>
80001d2c:	2d10206f          	j	800047fc <bad_trap>

80001d30 <inst_267>:
80001d30:	00000513          	li	a0,0
80001d34:	02c53593          	sltiu	a1,a0,44
80001d38:	3eb12223          	sw	a1,996(sp)
80001d3c:	00100193          	li	gp,1
80001d40:	00b18463          	beq	gp,a1,80001d48 <inst_268>
80001d44:	2b90206f          	j	800047fc <bad_trap>

80001d48 <inst_268>:
80001d48:	00000513          	li	a0,0
80001d4c:	03e53593          	sltiu	a1,a0,62
80001d50:	3eb12423          	sw	a1,1000(sp)
80001d54:	00100193          	li	gp,1
80001d58:	00b18463          	beq	gp,a1,80001d60 <inst_269>
80001d5c:	2a10206f          	j	800047fc <bad_trap>

80001d60 <inst_269>:
80001d60:	00000513          	li	a0,0
80001d64:	55653593          	sltiu	a1,a0,1366
80001d68:	3eb12623          	sw	a1,1004(sp)
80001d6c:	00100193          	li	gp,1
80001d70:	00b18463          	beq	gp,a1,80001d78 <inst_270>
80001d74:	2890206f          	j	800047fc <bad_trap>

80001d78 <inst_270>:
80001d78:	00000513          	li	a0,0
80001d7c:	aab53593          	sltiu	a1,a0,-1365
80001d80:	3eb12823          	sw	a1,1008(sp)
80001d84:	00100193          	li	gp,1
80001d88:	00b18463          	beq	gp,a1,80001d90 <inst_271>
80001d8c:	2710206f          	j	800047fc <bad_trap>

80001d90 <inst_271>:
80001d90:	00000513          	li	a0,0
80001d94:	33453593          	sltiu	a1,a0,820
80001d98:	3eb12a23          	sw	a1,1012(sp)
80001d9c:	00100193          	li	gp,1
80001da0:	00b18463          	beq	gp,a1,80001da8 <inst_272>
80001da4:	2590206f          	j	800047fc <bad_trap>

80001da8 <inst_272>:
80001da8:	00000513          	li	a0,0
80001dac:	66753593          	sltiu	a1,a0,1639
80001db0:	3eb12c23          	sw	a1,1016(sp)
80001db4:	00100193          	li	gp,1
80001db8:	00b18463          	beq	gp,a1,80001dc0 <inst_273>
80001dbc:	2410206f          	j	800047fc <bad_trap>

80001dc0 <inst_273>:
80001dc0:	00000513          	li	a0,0
80001dc4:	02e53593          	sltiu	a1,a0,46
80001dc8:	3eb12e23          	sw	a1,1020(sp)
80001dcc:	00100193          	li	gp,1
80001dd0:	00b18463          	beq	gp,a1,80001dd8 <inst_274>
80001dd4:	2290206f          	j	800047fc <bad_trap>

80001dd8 <inst_274>:
80001dd8:	00000513          	li	a0,0
80001ddc:	00153593          	seqz	a1,a0
80001de0:	40b12023          	sw	a1,1024(sp)
80001de4:	00100193          	li	gp,1
80001de8:	00b18463          	beq	gp,a1,80001df0 <inst_275>
80001dec:	2110206f          	j	800047fc <bad_trap>

80001df0 <inst_275>:
80001df0:	00000513          	li	a0,0
80001df4:	04053593          	sltiu	a1,a0,64
80001df8:	40b12223          	sw	a1,1028(sp)
80001dfc:	00100193          	li	gp,1
80001e00:	00b18463          	beq	gp,a1,80001e08 <inst_276>
80001e04:	1f90206f          	j	800047fc <bad_trap>

80001e08 <inst_276>:
80001e08:	00010537          	lui	a0,0x10
80001e0c:	fff50513          	addi	a0,a0,-1 # ffff <offset+0xfd5b>
80001e10:	00353593          	sltiu	a1,a0,3
80001e14:	40b12423          	sw	a1,1032(sp)
80001e18:	00000193          	li	gp,0
80001e1c:	00b18463          	beq	gp,a1,80001e24 <inst_277>
80001e20:	1dd0206f          	j	800047fc <bad_trap>

80001e24 <inst_277>:
80001e24:	00010537          	lui	a0,0x10
80001e28:	fff50513          	addi	a0,a0,-1 # ffff <offset+0xfd5b>
80001e2c:	55553593          	sltiu	a1,a0,1365
80001e30:	40b12623          	sw	a1,1036(sp)
80001e34:	00000193          	li	gp,0
80001e38:	00b18463          	beq	gp,a1,80001e40 <inst_278>
80001e3c:	1c10206f          	j	800047fc <bad_trap>

80001e40 <inst_278>:
80001e40:	00010537          	lui	a0,0x10
80001e44:	fff50513          	addi	a0,a0,-1 # ffff <offset+0xfd5b>
80001e48:	aaa53593          	sltiu	a1,a0,-1366
80001e4c:	40b12823          	sw	a1,1040(sp)
80001e50:	00100193          	li	gp,1
80001e54:	00b18463          	beq	gp,a1,80001e5c <inst_279>
80001e58:	1a50206f          	j	800047fc <bad_trap>

80001e5c <inst_279>:
80001e5c:	00010537          	lui	a0,0x10
80001e60:	fff50513          	addi	a0,a0,-1 # ffff <offset+0xfd5b>
80001e64:	00553593          	sltiu	a1,a0,5
80001e68:	40b12a23          	sw	a1,1044(sp)
80001e6c:	00000193          	li	gp,0
80001e70:	00b18463          	beq	gp,a1,80001e78 <inst_280>
80001e74:	1890206f          	j	800047fc <bad_trap>

80001e78 <inst_280>:
80001e78:	00010537          	lui	a0,0x10
80001e7c:	fff50513          	addi	a0,a0,-1 # ffff <offset+0xfd5b>
80001e80:	33353593          	sltiu	a1,a0,819
80001e84:	40b12c23          	sw	a1,1048(sp)
80001e88:	00000193          	li	gp,0
80001e8c:	00b18463          	beq	gp,a1,80001e94 <inst_281>
80001e90:	16d0206f          	j	800047fc <bad_trap>

80001e94 <inst_281>:
80001e94:	00010537          	lui	a0,0x10
80001e98:	fff50513          	addi	a0,a0,-1 # ffff <offset+0xfd5b>
80001e9c:	66653593          	sltiu	a1,a0,1638
80001ea0:	40b12e23          	sw	a1,1052(sp)
80001ea4:	00000193          	li	gp,0
80001ea8:	00b18463          	beq	gp,a1,80001eb0 <inst_282>
80001eac:	1510206f          	j	800047fc <bad_trap>

80001eb0 <inst_282>:
80001eb0:	00010537          	lui	a0,0x10
80001eb4:	fff50513          	addi	a0,a0,-1 # ffff <offset+0xfd5b>
80001eb8:	02d53593          	sltiu	a1,a0,45
80001ebc:	42b12023          	sw	a1,1056(sp)
80001ec0:	00000193          	li	gp,0
80001ec4:	00b18463          	beq	gp,a1,80001ecc <inst_283>
80001ec8:	1350206f          	j	800047fc <bad_trap>

80001ecc <inst_283>:
80001ecc:	00010537          	lui	a0,0x10
80001ed0:	fff50513          	addi	a0,a0,-1 # ffff <offset+0xfd5b>
80001ed4:	00053593          	sltiu	a1,a0,0
80001ed8:	42b12223          	sw	a1,1060(sp)
80001edc:	00000193          	li	gp,0
80001ee0:	00b18463          	beq	gp,a1,80001ee8 <inst_284>
80001ee4:	1190206f          	j	800047fc <bad_trap>

80001ee8 <inst_284>:
80001ee8:	00010537          	lui	a0,0x10
80001eec:	fff50513          	addi	a0,a0,-1 # ffff <offset+0xfd5b>
80001ef0:	03f53593          	sltiu	a1,a0,63
80001ef4:	42b12423          	sw	a1,1064(sp)
80001ef8:	00000193          	li	gp,0
80001efc:	00b18463          	beq	gp,a1,80001f04 <inst_285>
80001f00:	0fd0206f          	j	800047fc <bad_trap>

80001f04 <inst_285>:
80001f04:	00010537          	lui	a0,0x10
80001f08:	fff50513          	addi	a0,a0,-1 # ffff <offset+0xfd5b>
80001f0c:	00253593          	sltiu	a1,a0,2
80001f10:	42b12623          	sw	a1,1068(sp)
80001f14:	00000193          	li	gp,0
80001f18:	00b18463          	beq	gp,a1,80001f20 <inst_286>
80001f1c:	0e10206f          	j	800047fc <bad_trap>

80001f20 <inst_286>:
80001f20:	00010537          	lui	a0,0x10
80001f24:	fff50513          	addi	a0,a0,-1 # ffff <offset+0xfd5b>
80001f28:	55453593          	sltiu	a1,a0,1364
80001f2c:	42b12823          	sw	a1,1072(sp)
80001f30:	00000193          	li	gp,0
80001f34:	00b18463          	beq	gp,a1,80001f3c <inst_287>
80001f38:	0c50206f          	j	800047fc <bad_trap>

80001f3c <inst_287>:
80001f3c:	00010537          	lui	a0,0x10
80001f40:	fff50513          	addi	a0,a0,-1 # ffff <offset+0xfd5b>
80001f44:	aa953593          	sltiu	a1,a0,-1367
80001f48:	42b12a23          	sw	a1,1076(sp)
80001f4c:	00100193          	li	gp,1
80001f50:	00b18463          	beq	gp,a1,80001f58 <inst_288>
80001f54:	0a90206f          	j	800047fc <bad_trap>

80001f58 <inst_288>:
80001f58:	00010537          	lui	a0,0x10
80001f5c:	fff50513          	addi	a0,a0,-1 # ffff <offset+0xfd5b>
80001f60:	00453593          	sltiu	a1,a0,4
80001f64:	42b12c23          	sw	a1,1080(sp)
80001f68:	00000193          	li	gp,0
80001f6c:	00b18463          	beq	gp,a1,80001f74 <inst_289>
80001f70:	08d0206f          	j	800047fc <bad_trap>

80001f74 <inst_289>:
80001f74:	00010537          	lui	a0,0x10
80001f78:	fff50513          	addi	a0,a0,-1 # ffff <offset+0xfd5b>
80001f7c:	33253593          	sltiu	a1,a0,818
80001f80:	42b12e23          	sw	a1,1084(sp)
80001f84:	00000193          	li	gp,0
80001f88:	00b18463          	beq	gp,a1,80001f90 <inst_290>
80001f8c:	0710206f          	j	800047fc <bad_trap>

80001f90 <inst_290>:
80001f90:	00010537          	lui	a0,0x10
80001f94:	fff50513          	addi	a0,a0,-1 # ffff <offset+0xfd5b>
80001f98:	66553593          	sltiu	a1,a0,1637
80001f9c:	44b12023          	sw	a1,1088(sp)
80001fa0:	00000193          	li	gp,0
80001fa4:	00b18463          	beq	gp,a1,80001fac <inst_291>
80001fa8:	0550206f          	j	800047fc <bad_trap>

80001fac <inst_291>:
80001fac:	00010537          	lui	a0,0x10
80001fb0:	fff50513          	addi	a0,a0,-1 # ffff <offset+0xfd5b>
80001fb4:	02c53593          	sltiu	a1,a0,44
80001fb8:	44b12223          	sw	a1,1092(sp)
80001fbc:	00000193          	li	gp,0
80001fc0:	00b18463          	beq	gp,a1,80001fc8 <inst_292>
80001fc4:	0390206f          	j	800047fc <bad_trap>

80001fc8 <inst_292>:
80001fc8:	00010537          	lui	a0,0x10
80001fcc:	fff50513          	addi	a0,a0,-1 # ffff <offset+0xfd5b>
80001fd0:	03e53593          	sltiu	a1,a0,62
80001fd4:	44b12423          	sw	a1,1096(sp)
80001fd8:	00000193          	li	gp,0
80001fdc:	00b18463          	beq	gp,a1,80001fe4 <inst_293>
80001fe0:	01d0206f          	j	800047fc <bad_trap>

80001fe4 <inst_293>:
80001fe4:	00010537          	lui	a0,0x10
80001fe8:	fff50513          	addi	a0,a0,-1 # ffff <offset+0xfd5b>
80001fec:	55653593          	sltiu	a1,a0,1366
80001ff0:	44b12623          	sw	a1,1100(sp)
80001ff4:	00000193          	li	gp,0
80001ff8:	00b18463          	beq	gp,a1,80002000 <inst_294>
80001ffc:	0010206f          	j	800047fc <bad_trap>

80002000 <inst_294>:
80002000:	00010537          	lui	a0,0x10
80002004:	fff50513          	addi	a0,a0,-1 # ffff <offset+0xfd5b>
80002008:	aab53593          	sltiu	a1,a0,-1365
8000200c:	44b12823          	sw	a1,1104(sp)
80002010:	00100193          	li	gp,1
80002014:	00b18463          	beq	gp,a1,8000201c <inst_295>
80002018:	7e40206f          	j	800047fc <bad_trap>

8000201c <inst_295>:
8000201c:	00010537          	lui	a0,0x10
80002020:	fff50513          	addi	a0,a0,-1 # ffff <offset+0xfd5b>
80002024:	00653593          	sltiu	a1,a0,6
80002028:	44b12a23          	sw	a1,1108(sp)
8000202c:	00000193          	li	gp,0
80002030:	00b18463          	beq	gp,a1,80002038 <inst_296>
80002034:	7c80206f          	j	800047fc <bad_trap>

80002038 <inst_296>:
80002038:	00010537          	lui	a0,0x10
8000203c:	fff50513          	addi	a0,a0,-1 # ffff <offset+0xfd5b>
80002040:	33453593          	sltiu	a1,a0,820
80002044:	44b12c23          	sw	a1,1112(sp)
80002048:	00000193          	li	gp,0
8000204c:	00b18463          	beq	gp,a1,80002054 <inst_297>
80002050:	7ac0206f          	j	800047fc <bad_trap>

80002054 <inst_297>:
80002054:	00010537          	lui	a0,0x10
80002058:	fff50513          	addi	a0,a0,-1 # ffff <offset+0xfd5b>
8000205c:	66753593          	sltiu	a1,a0,1639
80002060:	44b12e23          	sw	a1,1116(sp)
80002064:	00000193          	li	gp,0
80002068:	00b18463          	beq	gp,a1,80002070 <inst_298>
8000206c:	7900206f          	j	800047fc <bad_trap>

80002070 <inst_298>:
80002070:	00010537          	lui	a0,0x10
80002074:	fff50513          	addi	a0,a0,-1 # ffff <offset+0xfd5b>
80002078:	02e53593          	sltiu	a1,a0,46
8000207c:	46b12023          	sw	a1,1120(sp)
80002080:	00000193          	li	gp,0
80002084:	00b18463          	beq	gp,a1,8000208c <inst_299>
80002088:	7740206f          	j	800047fc <bad_trap>

8000208c <inst_299>:
8000208c:	00010537          	lui	a0,0x10
80002090:	fff50513          	addi	a0,a0,-1 # ffff <offset+0xfd5b>
80002094:	00153593          	seqz	a1,a0
80002098:	46b12223          	sw	a1,1124(sp)
8000209c:	00000193          	li	gp,0
800020a0:	00b18463          	beq	gp,a1,800020a8 <inst_300>
800020a4:	7580206f          	j	800047fc <bad_trap>

800020a8 <inst_300>:
800020a8:	00010537          	lui	a0,0x10
800020ac:	fff50513          	addi	a0,a0,-1 # ffff <offset+0xfd5b>
800020b0:	04053593          	sltiu	a1,a0,64
800020b4:	46b12423          	sw	a1,1128(sp)
800020b8:	00000193          	li	gp,0
800020bc:	00b18463          	beq	gp,a1,800020c4 <inst_301>
800020c0:	73c0206f          	j	800047fc <bad_trap>

800020c4 <inst_301>:
800020c4:	00200513          	li	a0,2
800020c8:	00353593          	sltiu	a1,a0,3
800020cc:	46b12623          	sw	a1,1132(sp)
800020d0:	00100193          	li	gp,1
800020d4:	00b18463          	beq	gp,a1,800020dc <inst_302>
800020d8:	7240206f          	j	800047fc <bad_trap>

800020dc <inst_302>:
800020dc:	00200513          	li	a0,2
800020e0:	55553593          	sltiu	a1,a0,1365
800020e4:	46b12823          	sw	a1,1136(sp)
800020e8:	00100193          	li	gp,1
800020ec:	00b18463          	beq	gp,a1,800020f4 <inst_303>
800020f0:	70c0206f          	j	800047fc <bad_trap>

800020f4 <inst_303>:
800020f4:	00200513          	li	a0,2
800020f8:	aaa53593          	sltiu	a1,a0,-1366
800020fc:	46b12a23          	sw	a1,1140(sp)
80002100:	00100193          	li	gp,1
80002104:	00b18463          	beq	gp,a1,8000210c <inst_304>
80002108:	6f40206f          	j	800047fc <bad_trap>

8000210c <inst_304>:
8000210c:	00200513          	li	a0,2
80002110:	00553593          	sltiu	a1,a0,5
80002114:	46b12c23          	sw	a1,1144(sp)
80002118:	00100193          	li	gp,1
8000211c:	00b18463          	beq	gp,a1,80002124 <inst_305>
80002120:	6dc0206f          	j	800047fc <bad_trap>

80002124 <inst_305>:
80002124:	00200513          	li	a0,2
80002128:	33353593          	sltiu	a1,a0,819
8000212c:	46b12e23          	sw	a1,1148(sp)
80002130:	00100193          	li	gp,1
80002134:	00b18463          	beq	gp,a1,8000213c <inst_306>
80002138:	6c40206f          	j	800047fc <bad_trap>

8000213c <inst_306>:
8000213c:	00200513          	li	a0,2
80002140:	66653593          	sltiu	a1,a0,1638
80002144:	48b12023          	sw	a1,1152(sp)
80002148:	00100193          	li	gp,1
8000214c:	00b18463          	beq	gp,a1,80002154 <inst_307>
80002150:	6ac0206f          	j	800047fc <bad_trap>

80002154 <inst_307>:
80002154:	00200513          	li	a0,2
80002158:	02d53593          	sltiu	a1,a0,45
8000215c:	48b12223          	sw	a1,1156(sp)
80002160:	00100193          	li	gp,1
80002164:	00b18463          	beq	gp,a1,8000216c <inst_308>
80002168:	6940206f          	j	800047fc <bad_trap>

8000216c <inst_308>:
8000216c:	00200513          	li	a0,2
80002170:	00053593          	sltiu	a1,a0,0
80002174:	48b12423          	sw	a1,1160(sp)
80002178:	00000193          	li	gp,0
8000217c:	00b18463          	beq	gp,a1,80002184 <inst_309>
80002180:	67c0206f          	j	800047fc <bad_trap>

80002184 <inst_309>:
80002184:	00200513          	li	a0,2
80002188:	03f53593          	sltiu	a1,a0,63
8000218c:	48b12623          	sw	a1,1164(sp)
80002190:	00100193          	li	gp,1
80002194:	00b18463          	beq	gp,a1,8000219c <inst_310>
80002198:	6640206f          	j	800047fc <bad_trap>

8000219c <inst_310>:
8000219c:	00200513          	li	a0,2
800021a0:	00253593          	sltiu	a1,a0,2
800021a4:	48b12823          	sw	a1,1168(sp)
800021a8:	00000193          	li	gp,0
800021ac:	00b18463          	beq	gp,a1,800021b4 <inst_311>
800021b0:	64c0206f          	j	800047fc <bad_trap>

800021b4 <inst_311>:
800021b4:	00200513          	li	a0,2
800021b8:	55453593          	sltiu	a1,a0,1364
800021bc:	48b12a23          	sw	a1,1172(sp)
800021c0:	00100193          	li	gp,1
800021c4:	00b18463          	beq	gp,a1,800021cc <inst_312>
800021c8:	6340206f          	j	800047fc <bad_trap>

800021cc <inst_312>:
800021cc:	00200513          	li	a0,2
800021d0:	aa953593          	sltiu	a1,a0,-1367
800021d4:	48b12c23          	sw	a1,1176(sp)
800021d8:	00100193          	li	gp,1
800021dc:	00b18463          	beq	gp,a1,800021e4 <inst_313>
800021e0:	61c0206f          	j	800047fc <bad_trap>

800021e4 <inst_313>:
800021e4:	00200513          	li	a0,2
800021e8:	00453593          	sltiu	a1,a0,4
800021ec:	48b12e23          	sw	a1,1180(sp)
800021f0:	00100193          	li	gp,1
800021f4:	00b18463          	beq	gp,a1,800021fc <inst_314>
800021f8:	6040206f          	j	800047fc <bad_trap>

800021fc <inst_314>:
800021fc:	00200513          	li	a0,2
80002200:	33253593          	sltiu	a1,a0,818
80002204:	4ab12023          	sw	a1,1184(sp)
80002208:	00100193          	li	gp,1
8000220c:	00b18463          	beq	gp,a1,80002214 <inst_315>
80002210:	5ec0206f          	j	800047fc <bad_trap>

80002214 <inst_315>:
80002214:	00200513          	li	a0,2
80002218:	66553593          	sltiu	a1,a0,1637
8000221c:	4ab12223          	sw	a1,1188(sp)
80002220:	00100193          	li	gp,1
80002224:	00b18463          	beq	gp,a1,8000222c <inst_316>
80002228:	5d40206f          	j	800047fc <bad_trap>

8000222c <inst_316>:
8000222c:	00200513          	li	a0,2
80002230:	02c53593          	sltiu	a1,a0,44
80002234:	4ab12423          	sw	a1,1192(sp)
80002238:	00100193          	li	gp,1
8000223c:	00b18463          	beq	gp,a1,80002244 <inst_317>
80002240:	5bc0206f          	j	800047fc <bad_trap>

80002244 <inst_317>:
80002244:	00200513          	li	a0,2
80002248:	03e53593          	sltiu	a1,a0,62
8000224c:	4ab12623          	sw	a1,1196(sp)
80002250:	00100193          	li	gp,1
80002254:	00b18463          	beq	gp,a1,8000225c <inst_318>
80002258:	5a40206f          	j	800047fc <bad_trap>

8000225c <inst_318>:
8000225c:	00200513          	li	a0,2
80002260:	55653593          	sltiu	a1,a0,1366
80002264:	4ab12823          	sw	a1,1200(sp)
80002268:	00100193          	li	gp,1
8000226c:	00b18463          	beq	gp,a1,80002274 <inst_319>
80002270:	58c0206f          	j	800047fc <bad_trap>

80002274 <inst_319>:
80002274:	00200513          	li	a0,2
80002278:	aab53593          	sltiu	a1,a0,-1365
8000227c:	4ab12a23          	sw	a1,1204(sp)
80002280:	00100193          	li	gp,1
80002284:	00b18463          	beq	gp,a1,8000228c <inst_320>
80002288:	5740206f          	j	800047fc <bad_trap>

8000228c <inst_320>:
8000228c:	00200513          	li	a0,2
80002290:	00653593          	sltiu	a1,a0,6
80002294:	4ab12c23          	sw	a1,1208(sp)
80002298:	00100193          	li	gp,1
8000229c:	00b18463          	beq	gp,a1,800022a4 <inst_321>
800022a0:	55c0206f          	j	800047fc <bad_trap>

800022a4 <inst_321>:
800022a4:	00200513          	li	a0,2
800022a8:	33453593          	sltiu	a1,a0,820
800022ac:	4ab12e23          	sw	a1,1212(sp)
800022b0:	00100193          	li	gp,1
800022b4:	00b18463          	beq	gp,a1,800022bc <inst_322>
800022b8:	5440206f          	j	800047fc <bad_trap>

800022bc <inst_322>:
800022bc:	00200513          	li	a0,2
800022c0:	66753593          	sltiu	a1,a0,1639
800022c4:	4cb12023          	sw	a1,1216(sp)
800022c8:	00100193          	li	gp,1
800022cc:	00b18463          	beq	gp,a1,800022d4 <inst_323>
800022d0:	52c0206f          	j	800047fc <bad_trap>

800022d4 <inst_323>:
800022d4:	00200513          	li	a0,2
800022d8:	02e53593          	sltiu	a1,a0,46
800022dc:	4cb12223          	sw	a1,1220(sp)
800022e0:	00100193          	li	gp,1
800022e4:	00b18463          	beq	gp,a1,800022ec <inst_324>
800022e8:	5140206f          	j	800047fc <bad_trap>

800022ec <inst_324>:
800022ec:	00200513          	li	a0,2
800022f0:	00153593          	seqz	a1,a0
800022f4:	4cb12423          	sw	a1,1224(sp)
800022f8:	00000193          	li	gp,0
800022fc:	00b18463          	beq	gp,a1,80002304 <inst_325>
80002300:	4fc0206f          	j	800047fc <bad_trap>

80002304 <inst_325>:
80002304:	00200513          	li	a0,2
80002308:	04053593          	sltiu	a1,a0,64
8000230c:	4cb12623          	sw	a1,1228(sp)
80002310:	00100193          	li	gp,1
80002314:	00b18463          	beq	gp,a1,8000231c <inst_326>
80002318:	4e40206f          	j	800047fc <bad_trap>

8000231c <inst_326>:
8000231c:	55555537          	lui	a0,0x55555
80002320:	55450513          	addi	a0,a0,1364 # 55555554 <absimm+0x10263025>
80002324:	00353593          	sltiu	a1,a0,3
80002328:	4cb12823          	sw	a1,1232(sp)
8000232c:	00000193          	li	gp,0
80002330:	00b18463          	beq	gp,a1,80002338 <inst_327>
80002334:	4c80206f          	j	800047fc <bad_trap>

80002338 <inst_327>:
80002338:	55555537          	lui	a0,0x55555
8000233c:	55450513          	addi	a0,a0,1364 # 55555554 <absimm+0x10263025>
80002340:	55553593          	sltiu	a1,a0,1365
80002344:	4cb12a23          	sw	a1,1236(sp)
80002348:	00000193          	li	gp,0
8000234c:	00b18463          	beq	gp,a1,80002354 <inst_328>
80002350:	4ac0206f          	j	800047fc <bad_trap>

80002354 <inst_328>:
80002354:	55555537          	lui	a0,0x55555
80002358:	55450513          	addi	a0,a0,1364 # 55555554 <absimm+0x10263025>
8000235c:	aaa53593          	sltiu	a1,a0,-1366
80002360:	4cb12c23          	sw	a1,1240(sp)
80002364:	00100193          	li	gp,1
80002368:	00b18463          	beq	gp,a1,80002370 <inst_329>
8000236c:	4900206f          	j	800047fc <bad_trap>

80002370 <inst_329>:
80002370:	55555537          	lui	a0,0x55555
80002374:	55450513          	addi	a0,a0,1364 # 55555554 <absimm+0x10263025>
80002378:	00553593          	sltiu	a1,a0,5
8000237c:	4cb12e23          	sw	a1,1244(sp)
80002380:	00000193          	li	gp,0
80002384:	00b18463          	beq	gp,a1,8000238c <inst_330>
80002388:	4740206f          	j	800047fc <bad_trap>

8000238c <inst_330>:
8000238c:	55555537          	lui	a0,0x55555
80002390:	55450513          	addi	a0,a0,1364 # 55555554 <absimm+0x10263025>
80002394:	33353593          	sltiu	a1,a0,819
80002398:	4eb12023          	sw	a1,1248(sp)
8000239c:	00000193          	li	gp,0
800023a0:	00b18463          	beq	gp,a1,800023a8 <inst_331>
800023a4:	4580206f          	j	800047fc <bad_trap>

800023a8 <inst_331>:
800023a8:	55555537          	lui	a0,0x55555
800023ac:	55450513          	addi	a0,a0,1364 # 55555554 <absimm+0x10263025>
800023b0:	66653593          	sltiu	a1,a0,1638
800023b4:	4eb12223          	sw	a1,1252(sp)
800023b8:	00000193          	li	gp,0
800023bc:	00b18463          	beq	gp,a1,800023c4 <inst_332>
800023c0:	43c0206f          	j	800047fc <bad_trap>

800023c4 <inst_332>:
800023c4:	55555537          	lui	a0,0x55555
800023c8:	55450513          	addi	a0,a0,1364 # 55555554 <absimm+0x10263025>
800023cc:	02d53593          	sltiu	a1,a0,45
800023d0:	4eb12423          	sw	a1,1256(sp)
800023d4:	00000193          	li	gp,0
800023d8:	00b18463          	beq	gp,a1,800023e0 <inst_333>
800023dc:	4200206f          	j	800047fc <bad_trap>

800023e0 <inst_333>:
800023e0:	55555537          	lui	a0,0x55555
800023e4:	55450513          	addi	a0,a0,1364 # 55555554 <absimm+0x10263025>
800023e8:	00053593          	sltiu	a1,a0,0
800023ec:	4eb12623          	sw	a1,1260(sp)
800023f0:	00000193          	li	gp,0
800023f4:	00b18463          	beq	gp,a1,800023fc <inst_334>
800023f8:	4040206f          	j	800047fc <bad_trap>

800023fc <inst_334>:
800023fc:	55555537          	lui	a0,0x55555
80002400:	55450513          	addi	a0,a0,1364 # 55555554 <absimm+0x10263025>
80002404:	03f53593          	sltiu	a1,a0,63
80002408:	4eb12823          	sw	a1,1264(sp)
8000240c:	00000193          	li	gp,0
80002410:	00b18463          	beq	gp,a1,80002418 <inst_335>
80002414:	3e80206f          	j	800047fc <bad_trap>

80002418 <inst_335>:
80002418:	55555537          	lui	a0,0x55555
8000241c:	55450513          	addi	a0,a0,1364 # 55555554 <absimm+0x10263025>
80002420:	00253593          	sltiu	a1,a0,2
80002424:	4eb12a23          	sw	a1,1268(sp)
80002428:	00000193          	li	gp,0
8000242c:	00b18463          	beq	gp,a1,80002434 <inst_336>
80002430:	3cc0206f          	j	800047fc <bad_trap>

80002434 <inst_336>:
80002434:	55555537          	lui	a0,0x55555
80002438:	55450513          	addi	a0,a0,1364 # 55555554 <absimm+0x10263025>
8000243c:	55453593          	sltiu	a1,a0,1364
80002440:	4eb12c23          	sw	a1,1272(sp)
80002444:	00000193          	li	gp,0
80002448:	00b18463          	beq	gp,a1,80002450 <inst_337>
8000244c:	3b00206f          	j	800047fc <bad_trap>

80002450 <inst_337>:
80002450:	55555537          	lui	a0,0x55555
80002454:	55450513          	addi	a0,a0,1364 # 55555554 <absimm+0x10263025>
80002458:	aa953593          	sltiu	a1,a0,-1367
8000245c:	4eb12e23          	sw	a1,1276(sp)
80002460:	00100193          	li	gp,1
80002464:	00b18463          	beq	gp,a1,8000246c <inst_338>
80002468:	3940206f          	j	800047fc <bad_trap>

8000246c <inst_338>:
8000246c:	55555537          	lui	a0,0x55555
80002470:	55450513          	addi	a0,a0,1364 # 55555554 <absimm+0x10263025>
80002474:	00453593          	sltiu	a1,a0,4
80002478:	50b12023          	sw	a1,1280(sp)
8000247c:	00000193          	li	gp,0
80002480:	00b18463          	beq	gp,a1,80002488 <inst_339>
80002484:	3780206f          	j	800047fc <bad_trap>

80002488 <inst_339>:
80002488:	55555537          	lui	a0,0x55555
8000248c:	55450513          	addi	a0,a0,1364 # 55555554 <absimm+0x10263025>
80002490:	33253593          	sltiu	a1,a0,818
80002494:	50b12223          	sw	a1,1284(sp)
80002498:	00000193          	li	gp,0
8000249c:	00b18463          	beq	gp,a1,800024a4 <inst_340>
800024a0:	35c0206f          	j	800047fc <bad_trap>

800024a4 <inst_340>:
800024a4:	55555537          	lui	a0,0x55555
800024a8:	55450513          	addi	a0,a0,1364 # 55555554 <absimm+0x10263025>
800024ac:	66553593          	sltiu	a1,a0,1637
800024b0:	50b12423          	sw	a1,1288(sp)
800024b4:	00000193          	li	gp,0
800024b8:	00b18463          	beq	gp,a1,800024c0 <inst_341>
800024bc:	3400206f          	j	800047fc <bad_trap>

800024c0 <inst_341>:
800024c0:	55555537          	lui	a0,0x55555
800024c4:	55450513          	addi	a0,a0,1364 # 55555554 <absimm+0x10263025>
800024c8:	02c53593          	sltiu	a1,a0,44
800024cc:	50b12623          	sw	a1,1292(sp)
800024d0:	00000193          	li	gp,0
800024d4:	00b18463          	beq	gp,a1,800024dc <inst_342>
800024d8:	3240206f          	j	800047fc <bad_trap>

800024dc <inst_342>:
800024dc:	55555537          	lui	a0,0x55555
800024e0:	55450513          	addi	a0,a0,1364 # 55555554 <absimm+0x10263025>
800024e4:	03e53593          	sltiu	a1,a0,62
800024e8:	50b12823          	sw	a1,1296(sp)
800024ec:	00000193          	li	gp,0
800024f0:	00b18463          	beq	gp,a1,800024f8 <inst_343>
800024f4:	3080206f          	j	800047fc <bad_trap>

800024f8 <inst_343>:
800024f8:	55555537          	lui	a0,0x55555
800024fc:	55450513          	addi	a0,a0,1364 # 55555554 <absimm+0x10263025>
80002500:	55653593          	sltiu	a1,a0,1366
80002504:	50b12a23          	sw	a1,1300(sp)
80002508:	00000193          	li	gp,0
8000250c:	00b18463          	beq	gp,a1,80002514 <inst_344>
80002510:	2ec0206f          	j	800047fc <bad_trap>

80002514 <inst_344>:
80002514:	55555537          	lui	a0,0x55555
80002518:	55450513          	addi	a0,a0,1364 # 55555554 <absimm+0x10263025>
8000251c:	aab53593          	sltiu	a1,a0,-1365
80002520:	50b12c23          	sw	a1,1304(sp)
80002524:	00100193          	li	gp,1
80002528:	00b18463          	beq	gp,a1,80002530 <inst_345>
8000252c:	2d00206f          	j	800047fc <bad_trap>

80002530 <inst_345>:
80002530:	55555537          	lui	a0,0x55555
80002534:	55450513          	addi	a0,a0,1364 # 55555554 <absimm+0x10263025>
80002538:	00653593          	sltiu	a1,a0,6
8000253c:	50b12e23          	sw	a1,1308(sp)
80002540:	00000193          	li	gp,0
80002544:	00b18463          	beq	gp,a1,8000254c <inst_346>
80002548:	2b40206f          	j	800047fc <bad_trap>

8000254c <inst_346>:
8000254c:	55555537          	lui	a0,0x55555
80002550:	55450513          	addi	a0,a0,1364 # 55555554 <absimm+0x10263025>
80002554:	33453593          	sltiu	a1,a0,820
80002558:	52b12023          	sw	a1,1312(sp)
8000255c:	00000193          	li	gp,0
80002560:	00b18463          	beq	gp,a1,80002568 <inst_347>
80002564:	2980206f          	j	800047fc <bad_trap>

80002568 <inst_347>:
80002568:	55555537          	lui	a0,0x55555
8000256c:	55450513          	addi	a0,a0,1364 # 55555554 <absimm+0x10263025>
80002570:	66753593          	sltiu	a1,a0,1639
80002574:	52b12223          	sw	a1,1316(sp)
80002578:	00000193          	li	gp,0
8000257c:	00b18463          	beq	gp,a1,80002584 <inst_348>
80002580:	27c0206f          	j	800047fc <bad_trap>

80002584 <inst_348>:
80002584:	55555537          	lui	a0,0x55555
80002588:	55450513          	addi	a0,a0,1364 # 55555554 <absimm+0x10263025>
8000258c:	02e53593          	sltiu	a1,a0,46
80002590:	52b12423          	sw	a1,1320(sp)
80002594:	00000193          	li	gp,0
80002598:	00b18463          	beq	gp,a1,800025a0 <inst_349>
8000259c:	2600206f          	j	800047fc <bad_trap>

800025a0 <inst_349>:
800025a0:	55555537          	lui	a0,0x55555
800025a4:	55450513          	addi	a0,a0,1364 # 55555554 <absimm+0x10263025>
800025a8:	00153593          	seqz	a1,a0
800025ac:	52b12623          	sw	a1,1324(sp)
800025b0:	00000193          	li	gp,0
800025b4:	00b18463          	beq	gp,a1,800025bc <inst_350>
800025b8:	2440206f          	j	800047fc <bad_trap>

800025bc <inst_350>:
800025bc:	55555537          	lui	a0,0x55555
800025c0:	55450513          	addi	a0,a0,1364 # 55555554 <absimm+0x10263025>
800025c4:	04053593          	sltiu	a1,a0,64
800025c8:	52b12823          	sw	a1,1328(sp)
800025cc:	00000193          	li	gp,0
800025d0:	00b18463          	beq	gp,a1,800025d8 <inst_351>
800025d4:	2280206f          	j	800047fc <bad_trap>

800025d8 <inst_351>:
800025d8:	aaaab537          	lui	a0,0xaaaab
800025dc:	aa950513          	addi	a0,a0,-1367 # aaaaaaa9 <imm12+0xaaaaafd9>
800025e0:	00353593          	sltiu	a1,a0,3
800025e4:	52b12a23          	sw	a1,1332(sp)
800025e8:	00000193          	li	gp,0
800025ec:	00b18463          	beq	gp,a1,800025f4 <inst_352>
800025f0:	20c0206f          	j	800047fc <bad_trap>

800025f4 <inst_352>:
800025f4:	aaaab537          	lui	a0,0xaaaab
800025f8:	aa950513          	addi	a0,a0,-1367 # aaaaaaa9 <imm12+0xaaaaafd9>
800025fc:	55553593          	sltiu	a1,a0,1365
80002600:	52b12c23          	sw	a1,1336(sp)
80002604:	00000193          	li	gp,0
80002608:	00b18463          	beq	gp,a1,80002610 <inst_353>
8000260c:	1f00206f          	j	800047fc <bad_trap>

80002610 <inst_353>:
80002610:	aaaab537          	lui	a0,0xaaaab
80002614:	aa950513          	addi	a0,a0,-1367 # aaaaaaa9 <imm12+0xaaaaafd9>
80002618:	aaa53593          	sltiu	a1,a0,-1366
8000261c:	52b12e23          	sw	a1,1340(sp)
80002620:	00100193          	li	gp,1
80002624:	00b18463          	beq	gp,a1,8000262c <inst_354>
80002628:	1d40206f          	j	800047fc <bad_trap>

8000262c <inst_354>:
8000262c:	aaaab537          	lui	a0,0xaaaab
80002630:	aa950513          	addi	a0,a0,-1367 # aaaaaaa9 <imm12+0xaaaaafd9>
80002634:	00553593          	sltiu	a1,a0,5
80002638:	54b12023          	sw	a1,1344(sp)
8000263c:	00000193          	li	gp,0
80002640:	00b18463          	beq	gp,a1,80002648 <inst_355>
80002644:	1b80206f          	j	800047fc <bad_trap>

80002648 <inst_355>:
80002648:	aaaab537          	lui	a0,0xaaaab
8000264c:	aa950513          	addi	a0,a0,-1367 # aaaaaaa9 <imm12+0xaaaaafd9>
80002650:	33353593          	sltiu	a1,a0,819
80002654:	54b12223          	sw	a1,1348(sp)
80002658:	00000193          	li	gp,0
8000265c:	00b18463          	beq	gp,a1,80002664 <inst_356>
80002660:	19c0206f          	j	800047fc <bad_trap>

80002664 <inst_356>:
80002664:	aaaab537          	lui	a0,0xaaaab
80002668:	aa950513          	addi	a0,a0,-1367 # aaaaaaa9 <imm12+0xaaaaafd9>
8000266c:	66653593          	sltiu	a1,a0,1638
80002670:	54b12423          	sw	a1,1352(sp)
80002674:	00000193          	li	gp,0
80002678:	00b18463          	beq	gp,a1,80002680 <inst_357>
8000267c:	1800206f          	j	800047fc <bad_trap>

80002680 <inst_357>:
80002680:	aaaab537          	lui	a0,0xaaaab
80002684:	aa950513          	addi	a0,a0,-1367 # aaaaaaa9 <imm12+0xaaaaafd9>
80002688:	02d53593          	sltiu	a1,a0,45
8000268c:	54b12623          	sw	a1,1356(sp)
80002690:	00000193          	li	gp,0
80002694:	00b18463          	beq	gp,a1,8000269c <inst_358>
80002698:	1640206f          	j	800047fc <bad_trap>

8000269c <inst_358>:
8000269c:	aaaab537          	lui	a0,0xaaaab
800026a0:	aa950513          	addi	a0,a0,-1367 # aaaaaaa9 <imm12+0xaaaaafd9>
800026a4:	00053593          	sltiu	a1,a0,0
800026a8:	54b12823          	sw	a1,1360(sp)
800026ac:	00000193          	li	gp,0
800026b0:	00b18463          	beq	gp,a1,800026b8 <inst_359>
800026b4:	1480206f          	j	800047fc <bad_trap>

800026b8 <inst_359>:
800026b8:	aaaab537          	lui	a0,0xaaaab
800026bc:	aa950513          	addi	a0,a0,-1367 # aaaaaaa9 <imm12+0xaaaaafd9>
800026c0:	03f53593          	sltiu	a1,a0,63
800026c4:	54b12a23          	sw	a1,1364(sp)
800026c8:	00000193          	li	gp,0
800026cc:	00b18463          	beq	gp,a1,800026d4 <inst_360>
800026d0:	12c0206f          	j	800047fc <bad_trap>

800026d4 <inst_360>:
800026d4:	aaaab537          	lui	a0,0xaaaab
800026d8:	aa950513          	addi	a0,a0,-1367 # aaaaaaa9 <imm12+0xaaaaafd9>
800026dc:	00253593          	sltiu	a1,a0,2
800026e0:	54b12c23          	sw	a1,1368(sp)
800026e4:	00000193          	li	gp,0
800026e8:	00b18463          	beq	gp,a1,800026f0 <inst_361>
800026ec:	1100206f          	j	800047fc <bad_trap>

800026f0 <inst_361>:
800026f0:	aaaab537          	lui	a0,0xaaaab
800026f4:	aa950513          	addi	a0,a0,-1367 # aaaaaaa9 <imm12+0xaaaaafd9>
800026f8:	55453593          	sltiu	a1,a0,1364
800026fc:	54b12e23          	sw	a1,1372(sp)
80002700:	00000193          	li	gp,0
80002704:	00b18463          	beq	gp,a1,8000270c <inst_362>
80002708:	0f40206f          	j	800047fc <bad_trap>

8000270c <inst_362>:
8000270c:	aaaab537          	lui	a0,0xaaaab
80002710:	aa950513          	addi	a0,a0,-1367 # aaaaaaa9 <imm12+0xaaaaafd9>
80002714:	aa953593          	sltiu	a1,a0,-1367
80002718:	56b12023          	sw	a1,1376(sp)
8000271c:	00100193          	li	gp,1
80002720:	00b18463          	beq	gp,a1,80002728 <inst_363>
80002724:	0d80206f          	j	800047fc <bad_trap>

80002728 <inst_363>:
80002728:	aaaab537          	lui	a0,0xaaaab
8000272c:	aa950513          	addi	a0,a0,-1367 # aaaaaaa9 <imm12+0xaaaaafd9>
80002730:	00453593          	sltiu	a1,a0,4
80002734:	56b12223          	sw	a1,1380(sp)
80002738:	00000193          	li	gp,0
8000273c:	00b18463          	beq	gp,a1,80002744 <inst_364>
80002740:	0bc0206f          	j	800047fc <bad_trap>

80002744 <inst_364>:
80002744:	aaaab537          	lui	a0,0xaaaab
80002748:	aa950513          	addi	a0,a0,-1367 # aaaaaaa9 <imm12+0xaaaaafd9>
8000274c:	33253593          	sltiu	a1,a0,818
80002750:	56b12423          	sw	a1,1384(sp)
80002754:	00000193          	li	gp,0
80002758:	00b18463          	beq	gp,a1,80002760 <inst_365>
8000275c:	0a00206f          	j	800047fc <bad_trap>

80002760 <inst_365>:
80002760:	aaaab537          	lui	a0,0xaaaab
80002764:	aa950513          	addi	a0,a0,-1367 # aaaaaaa9 <imm12+0xaaaaafd9>
80002768:	66553593          	sltiu	a1,a0,1637
8000276c:	56b12623          	sw	a1,1388(sp)
80002770:	00000193          	li	gp,0
80002774:	00b18463          	beq	gp,a1,8000277c <inst_366>
80002778:	0840206f          	j	800047fc <bad_trap>

8000277c <inst_366>:
8000277c:	aaaab537          	lui	a0,0xaaaab
80002780:	aa950513          	addi	a0,a0,-1367 # aaaaaaa9 <imm12+0xaaaaafd9>
80002784:	02c53593          	sltiu	a1,a0,44
80002788:	56b12823          	sw	a1,1392(sp)
8000278c:	00000193          	li	gp,0
80002790:	00b18463          	beq	gp,a1,80002798 <inst_367>
80002794:	0680206f          	j	800047fc <bad_trap>

80002798 <inst_367>:
80002798:	aaaab537          	lui	a0,0xaaaab
8000279c:	aa950513          	addi	a0,a0,-1367 # aaaaaaa9 <imm12+0xaaaaafd9>
800027a0:	03e53593          	sltiu	a1,a0,62
800027a4:	56b12a23          	sw	a1,1396(sp)
800027a8:	00000193          	li	gp,0
800027ac:	00b18463          	beq	gp,a1,800027b4 <inst_368>
800027b0:	04c0206f          	j	800047fc <bad_trap>

800027b4 <inst_368>:
800027b4:	aaaab537          	lui	a0,0xaaaab
800027b8:	aa950513          	addi	a0,a0,-1367 # aaaaaaa9 <imm12+0xaaaaafd9>
800027bc:	55653593          	sltiu	a1,a0,1366
800027c0:	56b12c23          	sw	a1,1400(sp)
800027c4:	00000193          	li	gp,0
800027c8:	00b18463          	beq	gp,a1,800027d0 <inst_369>
800027cc:	0300206f          	j	800047fc <bad_trap>

800027d0 <inst_369>:
800027d0:	aaaab537          	lui	a0,0xaaaab
800027d4:	aa950513          	addi	a0,a0,-1367 # aaaaaaa9 <imm12+0xaaaaafd9>
800027d8:	aab53593          	sltiu	a1,a0,-1365
800027dc:	56b12e23          	sw	a1,1404(sp)
800027e0:	00100193          	li	gp,1
800027e4:	00b18463          	beq	gp,a1,800027ec <inst_370>
800027e8:	0140206f          	j	800047fc <bad_trap>

800027ec <inst_370>:
800027ec:	aaaab537          	lui	a0,0xaaaab
800027f0:	aa950513          	addi	a0,a0,-1367 # aaaaaaa9 <imm12+0xaaaaafd9>
800027f4:	00653593          	sltiu	a1,a0,6
800027f8:	58b12023          	sw	a1,1408(sp)
800027fc:	00000193          	li	gp,0
80002800:	00b18463          	beq	gp,a1,80002808 <inst_371>
80002804:	7f90106f          	j	800047fc <bad_trap>

80002808 <inst_371>:
80002808:	aaaab537          	lui	a0,0xaaaab
8000280c:	aa950513          	addi	a0,a0,-1367 # aaaaaaa9 <imm12+0xaaaaafd9>
80002810:	33453593          	sltiu	a1,a0,820
80002814:	58b12223          	sw	a1,1412(sp)
80002818:	00000193          	li	gp,0
8000281c:	00b18463          	beq	gp,a1,80002824 <inst_372>
80002820:	7dd0106f          	j	800047fc <bad_trap>

80002824 <inst_372>:
80002824:	aaaab537          	lui	a0,0xaaaab
80002828:	aa950513          	addi	a0,a0,-1367 # aaaaaaa9 <imm12+0xaaaaafd9>
8000282c:	66753593          	sltiu	a1,a0,1639
80002830:	58b12423          	sw	a1,1416(sp)
80002834:	00000193          	li	gp,0
80002838:	00b18463          	beq	gp,a1,80002840 <inst_373>
8000283c:	7c10106f          	j	800047fc <bad_trap>

80002840 <inst_373>:
80002840:	aaaab537          	lui	a0,0xaaaab
80002844:	aa950513          	addi	a0,a0,-1367 # aaaaaaa9 <imm12+0xaaaaafd9>
80002848:	02e53593          	sltiu	a1,a0,46
8000284c:	58b12623          	sw	a1,1420(sp)
80002850:	00000193          	li	gp,0
80002854:	00b18463          	beq	gp,a1,8000285c <inst_374>
80002858:	7a50106f          	j	800047fc <bad_trap>

8000285c <inst_374>:
8000285c:	aaaab537          	lui	a0,0xaaaab
80002860:	aa950513          	addi	a0,a0,-1367 # aaaaaaa9 <imm12+0xaaaaafd9>
80002864:	00153593          	seqz	a1,a0
80002868:	58b12823          	sw	a1,1424(sp)
8000286c:	00000193          	li	gp,0
80002870:	00b18463          	beq	gp,a1,80002878 <inst_375>
80002874:	7890106f          	j	800047fc <bad_trap>

80002878 <inst_375>:
80002878:	aaaab537          	lui	a0,0xaaaab
8000287c:	aa950513          	addi	a0,a0,-1367 # aaaaaaa9 <imm12+0xaaaaafd9>
80002880:	04053593          	sltiu	a1,a0,64
80002884:	58b12a23          	sw	a1,1428(sp)
80002888:	00000193          	li	gp,0
8000288c:	00b18463          	beq	gp,a1,80002894 <inst_376>
80002890:	76d0106f          	j	800047fc <bad_trap>

80002894 <inst_376>:
80002894:	00400513          	li	a0,4
80002898:	00353593          	sltiu	a1,a0,3
8000289c:	58b12c23          	sw	a1,1432(sp)
800028a0:	00000193          	li	gp,0
800028a4:	00b18463          	beq	gp,a1,800028ac <inst_377>
800028a8:	7550106f          	j	800047fc <bad_trap>

800028ac <inst_377>:
800028ac:	00400513          	li	a0,4
800028b0:	55553593          	sltiu	a1,a0,1365
800028b4:	58b12e23          	sw	a1,1436(sp)
800028b8:	00100193          	li	gp,1
800028bc:	00b18463          	beq	gp,a1,800028c4 <inst_378>
800028c0:	73d0106f          	j	800047fc <bad_trap>

800028c4 <inst_378>:
800028c4:	00400513          	li	a0,4
800028c8:	aaa53593          	sltiu	a1,a0,-1366
800028cc:	5ab12023          	sw	a1,1440(sp)
800028d0:	00100193          	li	gp,1
800028d4:	00b18463          	beq	gp,a1,800028dc <inst_379>
800028d8:	7250106f          	j	800047fc <bad_trap>

800028dc <inst_379>:
800028dc:	00400513          	li	a0,4
800028e0:	00553593          	sltiu	a1,a0,5
800028e4:	5ab12223          	sw	a1,1444(sp)
800028e8:	00100193          	li	gp,1
800028ec:	00b18463          	beq	gp,a1,800028f4 <inst_380>
800028f0:	70d0106f          	j	800047fc <bad_trap>

800028f4 <inst_380>:
800028f4:	00400513          	li	a0,4
800028f8:	33353593          	sltiu	a1,a0,819
800028fc:	5ab12423          	sw	a1,1448(sp)
80002900:	00100193          	li	gp,1
80002904:	00b18463          	beq	gp,a1,8000290c <inst_381>
80002908:	6f50106f          	j	800047fc <bad_trap>

8000290c <inst_381>:
8000290c:	00400513          	li	a0,4
80002910:	66653593          	sltiu	a1,a0,1638
80002914:	5ab12623          	sw	a1,1452(sp)
80002918:	00100193          	li	gp,1
8000291c:	00b18463          	beq	gp,a1,80002924 <inst_382>
80002920:	6dd0106f          	j	800047fc <bad_trap>

80002924 <inst_382>:
80002924:	00400513          	li	a0,4
80002928:	02d53593          	sltiu	a1,a0,45
8000292c:	5ab12823          	sw	a1,1456(sp)
80002930:	00100193          	li	gp,1
80002934:	00b18463          	beq	gp,a1,8000293c <inst_383>
80002938:	6c50106f          	j	800047fc <bad_trap>

8000293c <inst_383>:
8000293c:	00400513          	li	a0,4
80002940:	00053593          	sltiu	a1,a0,0
80002944:	5ab12a23          	sw	a1,1460(sp)
80002948:	00000193          	li	gp,0
8000294c:	00b18463          	beq	gp,a1,80002954 <inst_384>
80002950:	6ad0106f          	j	800047fc <bad_trap>

80002954 <inst_384>:
80002954:	00400513          	li	a0,4
80002958:	03f53593          	sltiu	a1,a0,63
8000295c:	5ab12c23          	sw	a1,1464(sp)
80002960:	00100193          	li	gp,1
80002964:	00b18463          	beq	gp,a1,8000296c <inst_385>
80002968:	6950106f          	j	800047fc <bad_trap>

8000296c <inst_385>:
8000296c:	00400513          	li	a0,4
80002970:	00253593          	sltiu	a1,a0,2
80002974:	5ab12e23          	sw	a1,1468(sp)
80002978:	00000193          	li	gp,0
8000297c:	00b18463          	beq	gp,a1,80002984 <inst_386>
80002980:	67d0106f          	j	800047fc <bad_trap>

80002984 <inst_386>:
80002984:	00400513          	li	a0,4
80002988:	55453593          	sltiu	a1,a0,1364
8000298c:	5cb12023          	sw	a1,1472(sp)
80002990:	00100193          	li	gp,1
80002994:	00b18463          	beq	gp,a1,8000299c <inst_387>
80002998:	6650106f          	j	800047fc <bad_trap>

8000299c <inst_387>:
8000299c:	00400513          	li	a0,4
800029a0:	aa953593          	sltiu	a1,a0,-1367
800029a4:	5cb12223          	sw	a1,1476(sp)
800029a8:	00100193          	li	gp,1
800029ac:	00b18463          	beq	gp,a1,800029b4 <inst_388>
800029b0:	64d0106f          	j	800047fc <bad_trap>

800029b4 <inst_388>:
800029b4:	00400513          	li	a0,4
800029b8:	00453593          	sltiu	a1,a0,4
800029bc:	5cb12423          	sw	a1,1480(sp)
800029c0:	00000193          	li	gp,0
800029c4:	00b18463          	beq	gp,a1,800029cc <inst_389>
800029c8:	6350106f          	j	800047fc <bad_trap>

800029cc <inst_389>:
800029cc:	00400513          	li	a0,4
800029d0:	33253593          	sltiu	a1,a0,818
800029d4:	5cb12623          	sw	a1,1484(sp)
800029d8:	00100193          	li	gp,1
800029dc:	00b18463          	beq	gp,a1,800029e4 <inst_390>
800029e0:	61d0106f          	j	800047fc <bad_trap>

800029e4 <inst_390>:
800029e4:	00400513          	li	a0,4
800029e8:	66553593          	sltiu	a1,a0,1637
800029ec:	5cb12823          	sw	a1,1488(sp)
800029f0:	00100193          	li	gp,1
800029f4:	00b18463          	beq	gp,a1,800029fc <inst_391>
800029f8:	6050106f          	j	800047fc <bad_trap>

800029fc <inst_391>:
800029fc:	00400513          	li	a0,4
80002a00:	02c53593          	sltiu	a1,a0,44
80002a04:	5cb12a23          	sw	a1,1492(sp)
80002a08:	00100193          	li	gp,1
80002a0c:	00b18463          	beq	gp,a1,80002a14 <inst_392>
80002a10:	5ed0106f          	j	800047fc <bad_trap>

80002a14 <inst_392>:
80002a14:	00400513          	li	a0,4
80002a18:	03e53593          	sltiu	a1,a0,62
80002a1c:	5cb12c23          	sw	a1,1496(sp)
80002a20:	00100193          	li	gp,1
80002a24:	00b18463          	beq	gp,a1,80002a2c <inst_393>
80002a28:	5d50106f          	j	800047fc <bad_trap>

80002a2c <inst_393>:
80002a2c:	00400513          	li	a0,4
80002a30:	55653593          	sltiu	a1,a0,1366
80002a34:	5cb12e23          	sw	a1,1500(sp)
80002a38:	00100193          	li	gp,1
80002a3c:	00b18463          	beq	gp,a1,80002a44 <inst_394>
80002a40:	5bd0106f          	j	800047fc <bad_trap>

80002a44 <inst_394>:
80002a44:	00400513          	li	a0,4
80002a48:	aab53593          	sltiu	a1,a0,-1365
80002a4c:	5eb12023          	sw	a1,1504(sp)
80002a50:	00100193          	li	gp,1
80002a54:	00b18463          	beq	gp,a1,80002a5c <inst_395>
80002a58:	5a50106f          	j	800047fc <bad_trap>

80002a5c <inst_395>:
80002a5c:	00400513          	li	a0,4
80002a60:	00653593          	sltiu	a1,a0,6
80002a64:	5eb12223          	sw	a1,1508(sp)
80002a68:	00100193          	li	gp,1
80002a6c:	00b18463          	beq	gp,a1,80002a74 <inst_396>
80002a70:	58d0106f          	j	800047fc <bad_trap>

80002a74 <inst_396>:
80002a74:	00400513          	li	a0,4
80002a78:	33453593          	sltiu	a1,a0,820
80002a7c:	5eb12423          	sw	a1,1512(sp)
80002a80:	00100193          	li	gp,1
80002a84:	00b18463          	beq	gp,a1,80002a8c <inst_397>
80002a88:	5750106f          	j	800047fc <bad_trap>

80002a8c <inst_397>:
80002a8c:	00400513          	li	a0,4
80002a90:	66753593          	sltiu	a1,a0,1639
80002a94:	5eb12623          	sw	a1,1516(sp)
80002a98:	00100193          	li	gp,1
80002a9c:	00b18463          	beq	gp,a1,80002aa4 <inst_398>
80002aa0:	55d0106f          	j	800047fc <bad_trap>

80002aa4 <inst_398>:
80002aa4:	00400513          	li	a0,4
80002aa8:	02e53593          	sltiu	a1,a0,46
80002aac:	5eb12823          	sw	a1,1520(sp)
80002ab0:	00100193          	li	gp,1
80002ab4:	00b18463          	beq	gp,a1,80002abc <inst_399>
80002ab8:	5450106f          	j	800047fc <bad_trap>

80002abc <inst_399>:
80002abc:	00400513          	li	a0,4
80002ac0:	04053593          	sltiu	a1,a0,64
80002ac4:	5eb12a23          	sw	a1,1524(sp)
80002ac8:	00100193          	li	gp,1
80002acc:	00b18463          	beq	gp,a1,80002ad4 <inst_400>
80002ad0:	52d0106f          	j	800047fc <bad_trap>

80002ad4 <inst_400>:
80002ad4:	33333537          	lui	a0,0x33333
80002ad8:	33250513          	addi	a0,a0,818 # 33333332 <offset+0x3333308e>
80002adc:	00353593          	sltiu	a1,a0,3
80002ae0:	5eb12c23          	sw	a1,1528(sp)
80002ae4:	00000193          	li	gp,0
80002ae8:	00b18463          	beq	gp,a1,80002af0 <inst_401>
80002aec:	5110106f          	j	800047fc <bad_trap>

80002af0 <inst_401>:
80002af0:	33333537          	lui	a0,0x33333
80002af4:	33250513          	addi	a0,a0,818 # 33333332 <offset+0x3333308e>
80002af8:	55553593          	sltiu	a1,a0,1365
80002afc:	5eb12e23          	sw	a1,1532(sp)
80002b00:	00000193          	li	gp,0
80002b04:	00b18463          	beq	gp,a1,80002b0c <inst_402>
80002b08:	4f50106f          	j	800047fc <bad_trap>

80002b0c <inst_402>:
80002b0c:	33333537          	lui	a0,0x33333
80002b10:	33250513          	addi	a0,a0,818 # 33333332 <offset+0x3333308e>
80002b14:	aaa53593          	sltiu	a1,a0,-1366
80002b18:	60b12023          	sw	a1,1536(sp)
80002b1c:	00100193          	li	gp,1
80002b20:	00b18463          	beq	gp,a1,80002b28 <inst_403>
80002b24:	4d90106f          	j	800047fc <bad_trap>

80002b28 <inst_403>:
80002b28:	33333537          	lui	a0,0x33333
80002b2c:	33250513          	addi	a0,a0,818 # 33333332 <offset+0x3333308e>
80002b30:	00553593          	sltiu	a1,a0,5
80002b34:	60b12223          	sw	a1,1540(sp)
80002b38:	00000193          	li	gp,0
80002b3c:	00b18463          	beq	gp,a1,80002b44 <inst_404>
80002b40:	4bd0106f          	j	800047fc <bad_trap>

80002b44 <inst_404>:
80002b44:	33333537          	lui	a0,0x33333
80002b48:	33250513          	addi	a0,a0,818 # 33333332 <offset+0x3333308e>
80002b4c:	33353593          	sltiu	a1,a0,819
80002b50:	60b12423          	sw	a1,1544(sp)
80002b54:	00000193          	li	gp,0
80002b58:	00b18463          	beq	gp,a1,80002b60 <inst_405>
80002b5c:	4a10106f          	j	800047fc <bad_trap>

80002b60 <inst_405>:
80002b60:	33333537          	lui	a0,0x33333
80002b64:	33250513          	addi	a0,a0,818 # 33333332 <offset+0x3333308e>
80002b68:	66653593          	sltiu	a1,a0,1638
80002b6c:	60b12623          	sw	a1,1548(sp)
80002b70:	00000193          	li	gp,0
80002b74:	00b18463          	beq	gp,a1,80002b7c <inst_406>
80002b78:	4850106f          	j	800047fc <bad_trap>

80002b7c <inst_406>:
80002b7c:	33333537          	lui	a0,0x33333
80002b80:	33250513          	addi	a0,a0,818 # 33333332 <offset+0x3333308e>
80002b84:	02d53593          	sltiu	a1,a0,45
80002b88:	60b12823          	sw	a1,1552(sp)
80002b8c:	00000193          	li	gp,0
80002b90:	00b18463          	beq	gp,a1,80002b98 <inst_407>
80002b94:	4690106f          	j	800047fc <bad_trap>

80002b98 <inst_407>:
80002b98:	33333537          	lui	a0,0x33333
80002b9c:	33250513          	addi	a0,a0,818 # 33333332 <offset+0x3333308e>
80002ba0:	00053593          	sltiu	a1,a0,0
80002ba4:	60b12a23          	sw	a1,1556(sp)
80002ba8:	00000193          	li	gp,0
80002bac:	00b18463          	beq	gp,a1,80002bb4 <inst_408>
80002bb0:	44d0106f          	j	800047fc <bad_trap>

80002bb4 <inst_408>:
80002bb4:	33333537          	lui	a0,0x33333
80002bb8:	33250513          	addi	a0,a0,818 # 33333332 <offset+0x3333308e>
80002bbc:	03f53593          	sltiu	a1,a0,63
80002bc0:	60b12c23          	sw	a1,1560(sp)
80002bc4:	00000193          	li	gp,0
80002bc8:	00b18463          	beq	gp,a1,80002bd0 <inst_409>
80002bcc:	4310106f          	j	800047fc <bad_trap>

80002bd0 <inst_409>:
80002bd0:	33333537          	lui	a0,0x33333
80002bd4:	33250513          	addi	a0,a0,818 # 33333332 <offset+0x3333308e>
80002bd8:	00253593          	sltiu	a1,a0,2
80002bdc:	60b12e23          	sw	a1,1564(sp)
80002be0:	00000193          	li	gp,0
80002be4:	00b18463          	beq	gp,a1,80002bec <inst_410>
80002be8:	4150106f          	j	800047fc <bad_trap>

80002bec <inst_410>:
80002bec:	33333537          	lui	a0,0x33333
80002bf0:	33250513          	addi	a0,a0,818 # 33333332 <offset+0x3333308e>
80002bf4:	55453593          	sltiu	a1,a0,1364
80002bf8:	62b12023          	sw	a1,1568(sp)
80002bfc:	00000193          	li	gp,0
80002c00:	00b18463          	beq	gp,a1,80002c08 <inst_411>
80002c04:	3f90106f          	j	800047fc <bad_trap>

80002c08 <inst_411>:
80002c08:	33333537          	lui	a0,0x33333
80002c0c:	33250513          	addi	a0,a0,818 # 33333332 <offset+0x3333308e>
80002c10:	aa953593          	sltiu	a1,a0,-1367
80002c14:	62b12223          	sw	a1,1572(sp)
80002c18:	00100193          	li	gp,1
80002c1c:	00b18463          	beq	gp,a1,80002c24 <inst_412>
80002c20:	3dd0106f          	j	800047fc <bad_trap>

80002c24 <inst_412>:
80002c24:	33333537          	lui	a0,0x33333
80002c28:	33250513          	addi	a0,a0,818 # 33333332 <offset+0x3333308e>
80002c2c:	00453593          	sltiu	a1,a0,4
80002c30:	62b12423          	sw	a1,1576(sp)
80002c34:	00000193          	li	gp,0
80002c38:	00b18463          	beq	gp,a1,80002c40 <inst_413>
80002c3c:	3c10106f          	j	800047fc <bad_trap>

80002c40 <inst_413>:
80002c40:	33333537          	lui	a0,0x33333
80002c44:	33250513          	addi	a0,a0,818 # 33333332 <offset+0x3333308e>
80002c48:	33253593          	sltiu	a1,a0,818
80002c4c:	62b12623          	sw	a1,1580(sp)
80002c50:	00000193          	li	gp,0
80002c54:	00b18463          	beq	gp,a1,80002c5c <inst_414>
80002c58:	3a50106f          	j	800047fc <bad_trap>

80002c5c <inst_414>:
80002c5c:	33333537          	lui	a0,0x33333
80002c60:	33250513          	addi	a0,a0,818 # 33333332 <offset+0x3333308e>
80002c64:	66553593          	sltiu	a1,a0,1637
80002c68:	62b12823          	sw	a1,1584(sp)
80002c6c:	00000193          	li	gp,0
80002c70:	00b18463          	beq	gp,a1,80002c78 <inst_415>
80002c74:	3890106f          	j	800047fc <bad_trap>

80002c78 <inst_415>:
80002c78:	33333537          	lui	a0,0x33333
80002c7c:	33250513          	addi	a0,a0,818 # 33333332 <offset+0x3333308e>
80002c80:	02c53593          	sltiu	a1,a0,44
80002c84:	62b12a23          	sw	a1,1588(sp)
80002c88:	00000193          	li	gp,0
80002c8c:	00b18463          	beq	gp,a1,80002c94 <inst_416>
80002c90:	36d0106f          	j	800047fc <bad_trap>

80002c94 <inst_416>:
80002c94:	33333537          	lui	a0,0x33333
80002c98:	33250513          	addi	a0,a0,818 # 33333332 <offset+0x3333308e>
80002c9c:	03e53593          	sltiu	a1,a0,62
80002ca0:	62b12c23          	sw	a1,1592(sp)
80002ca4:	00000193          	li	gp,0
80002ca8:	00b18463          	beq	gp,a1,80002cb0 <inst_417>
80002cac:	3510106f          	j	800047fc <bad_trap>

80002cb0 <inst_417>:
80002cb0:	33333537          	lui	a0,0x33333
80002cb4:	33250513          	addi	a0,a0,818 # 33333332 <offset+0x3333308e>
80002cb8:	55653593          	sltiu	a1,a0,1366
80002cbc:	62b12e23          	sw	a1,1596(sp)
80002cc0:	00000193          	li	gp,0
80002cc4:	00b18463          	beq	gp,a1,80002ccc <inst_418>
80002cc8:	3350106f          	j	800047fc <bad_trap>

80002ccc <inst_418>:
80002ccc:	33333537          	lui	a0,0x33333
80002cd0:	33250513          	addi	a0,a0,818 # 33333332 <offset+0x3333308e>
80002cd4:	aab53593          	sltiu	a1,a0,-1365
80002cd8:	64b12023          	sw	a1,1600(sp)
80002cdc:	00100193          	li	gp,1
80002ce0:	00b18463          	beq	gp,a1,80002ce8 <inst_419>
80002ce4:	3190106f          	j	800047fc <bad_trap>

80002ce8 <inst_419>:
80002ce8:	33333537          	lui	a0,0x33333
80002cec:	33250513          	addi	a0,a0,818 # 33333332 <offset+0x3333308e>
80002cf0:	00653593          	sltiu	a1,a0,6
80002cf4:	64b12223          	sw	a1,1604(sp)
80002cf8:	00000193          	li	gp,0
80002cfc:	00b18463          	beq	gp,a1,80002d04 <inst_420>
80002d00:	2fd0106f          	j	800047fc <bad_trap>

80002d04 <inst_420>:
80002d04:	33333537          	lui	a0,0x33333
80002d08:	33250513          	addi	a0,a0,818 # 33333332 <offset+0x3333308e>
80002d0c:	33453593          	sltiu	a1,a0,820
80002d10:	64b12423          	sw	a1,1608(sp)
80002d14:	00000193          	li	gp,0
80002d18:	00b18463          	beq	gp,a1,80002d20 <inst_421>
80002d1c:	2e10106f          	j	800047fc <bad_trap>

80002d20 <inst_421>:
80002d20:	33333537          	lui	a0,0x33333
80002d24:	33250513          	addi	a0,a0,818 # 33333332 <offset+0x3333308e>
80002d28:	66753593          	sltiu	a1,a0,1639
80002d2c:	64b12623          	sw	a1,1612(sp)
80002d30:	00000193          	li	gp,0
80002d34:	00b18463          	beq	gp,a1,80002d3c <inst_422>
80002d38:	2c50106f          	j	800047fc <bad_trap>

80002d3c <inst_422>:
80002d3c:	33333537          	lui	a0,0x33333
80002d40:	33250513          	addi	a0,a0,818 # 33333332 <offset+0x3333308e>
80002d44:	02e53593          	sltiu	a1,a0,46
80002d48:	64b12823          	sw	a1,1616(sp)
80002d4c:	00000193          	li	gp,0
80002d50:	00b18463          	beq	gp,a1,80002d58 <inst_423>
80002d54:	2a90106f          	j	800047fc <bad_trap>

80002d58 <inst_423>:
80002d58:	33333537          	lui	a0,0x33333
80002d5c:	33250513          	addi	a0,a0,818 # 33333332 <offset+0x3333308e>
80002d60:	00153593          	seqz	a1,a0
80002d64:	64b12a23          	sw	a1,1620(sp)
80002d68:	00000193          	li	gp,0
80002d6c:	00b18463          	beq	gp,a1,80002d74 <inst_424>
80002d70:	28d0106f          	j	800047fc <bad_trap>

80002d74 <inst_424>:
80002d74:	33333537          	lui	a0,0x33333
80002d78:	33250513          	addi	a0,a0,818 # 33333332 <offset+0x3333308e>
80002d7c:	04053593          	sltiu	a1,a0,64
80002d80:	64b12c23          	sw	a1,1624(sp)
80002d84:	00000193          	li	gp,0
80002d88:	00b18463          	beq	gp,a1,80002d90 <inst_425>
80002d8c:	2710106f          	j	800047fc <bad_trap>

80002d90 <inst_425>:
80002d90:	66666537          	lui	a0,0x66666
80002d94:	66550513          	addi	a0,a0,1637 # 66666665 <absimm+0x21374136>
80002d98:	00353593          	sltiu	a1,a0,3
80002d9c:	64b12e23          	sw	a1,1628(sp)
80002da0:	00000193          	li	gp,0
80002da4:	00b18463          	beq	gp,a1,80002dac <inst_426>
80002da8:	2550106f          	j	800047fc <bad_trap>

80002dac <inst_426>:
80002dac:	66666537          	lui	a0,0x66666
80002db0:	66550513          	addi	a0,a0,1637 # 66666665 <absimm+0x21374136>
80002db4:	55553593          	sltiu	a1,a0,1365
80002db8:	66b12023          	sw	a1,1632(sp)
80002dbc:	00000193          	li	gp,0
80002dc0:	00b18463          	beq	gp,a1,80002dc8 <inst_427>
80002dc4:	2390106f          	j	800047fc <bad_trap>

80002dc8 <inst_427>:
80002dc8:	66666537          	lui	a0,0x66666
80002dcc:	66550513          	addi	a0,a0,1637 # 66666665 <absimm+0x21374136>
80002dd0:	aaa53593          	sltiu	a1,a0,-1366
80002dd4:	66b12223          	sw	a1,1636(sp)
80002dd8:	00100193          	li	gp,1
80002ddc:	00b18463          	beq	gp,a1,80002de4 <inst_428>
80002de0:	21d0106f          	j	800047fc <bad_trap>

80002de4 <inst_428>:
80002de4:	66666537          	lui	a0,0x66666
80002de8:	66550513          	addi	a0,a0,1637 # 66666665 <absimm+0x21374136>
80002dec:	00553593          	sltiu	a1,a0,5
80002df0:	66b12423          	sw	a1,1640(sp)
80002df4:	00000193          	li	gp,0
80002df8:	00b18463          	beq	gp,a1,80002e00 <inst_429>
80002dfc:	2010106f          	j	800047fc <bad_trap>

80002e00 <inst_429>:
80002e00:	66666537          	lui	a0,0x66666
80002e04:	66550513          	addi	a0,a0,1637 # 66666665 <absimm+0x21374136>
80002e08:	33353593          	sltiu	a1,a0,819
80002e0c:	66b12623          	sw	a1,1644(sp)
80002e10:	00000193          	li	gp,0
80002e14:	00b18463          	beq	gp,a1,80002e1c <inst_430>
80002e18:	1e50106f          	j	800047fc <bad_trap>

80002e1c <inst_430>:
80002e1c:	66666537          	lui	a0,0x66666
80002e20:	66550513          	addi	a0,a0,1637 # 66666665 <absimm+0x21374136>
80002e24:	66653593          	sltiu	a1,a0,1638
80002e28:	66b12823          	sw	a1,1648(sp)
80002e2c:	00000193          	li	gp,0
80002e30:	00b18463          	beq	gp,a1,80002e38 <inst_431>
80002e34:	1c90106f          	j	800047fc <bad_trap>

80002e38 <inst_431>:
80002e38:	66666537          	lui	a0,0x66666
80002e3c:	66550513          	addi	a0,a0,1637 # 66666665 <absimm+0x21374136>
80002e40:	02d53593          	sltiu	a1,a0,45
80002e44:	66b12a23          	sw	a1,1652(sp)
80002e48:	00000193          	li	gp,0
80002e4c:	00b18463          	beq	gp,a1,80002e54 <inst_432>
80002e50:	1ad0106f          	j	800047fc <bad_trap>

80002e54 <inst_432>:
80002e54:	66666537          	lui	a0,0x66666
80002e58:	66550513          	addi	a0,a0,1637 # 66666665 <absimm+0x21374136>
80002e5c:	00053593          	sltiu	a1,a0,0
80002e60:	66b12c23          	sw	a1,1656(sp)
80002e64:	00000193          	li	gp,0
80002e68:	00b18463          	beq	gp,a1,80002e70 <inst_433>
80002e6c:	1910106f          	j	800047fc <bad_trap>

80002e70 <inst_433>:
80002e70:	66666537          	lui	a0,0x66666
80002e74:	66550513          	addi	a0,a0,1637 # 66666665 <absimm+0x21374136>
80002e78:	03f53593          	sltiu	a1,a0,63
80002e7c:	66b12e23          	sw	a1,1660(sp)
80002e80:	00000193          	li	gp,0
80002e84:	00b18463          	beq	gp,a1,80002e8c <inst_434>
80002e88:	1750106f          	j	800047fc <bad_trap>

80002e8c <inst_434>:
80002e8c:	66666537          	lui	a0,0x66666
80002e90:	66550513          	addi	a0,a0,1637 # 66666665 <absimm+0x21374136>
80002e94:	00253593          	sltiu	a1,a0,2
80002e98:	68b12023          	sw	a1,1664(sp)
80002e9c:	00000193          	li	gp,0
80002ea0:	00b18463          	beq	gp,a1,80002ea8 <inst_435>
80002ea4:	1590106f          	j	800047fc <bad_trap>

80002ea8 <inst_435>:
80002ea8:	66666537          	lui	a0,0x66666
80002eac:	66550513          	addi	a0,a0,1637 # 66666665 <absimm+0x21374136>
80002eb0:	55453593          	sltiu	a1,a0,1364
80002eb4:	68b12223          	sw	a1,1668(sp)
80002eb8:	00000193          	li	gp,0
80002ebc:	00b18463          	beq	gp,a1,80002ec4 <inst_436>
80002ec0:	13d0106f          	j	800047fc <bad_trap>

80002ec4 <inst_436>:
80002ec4:	66666537          	lui	a0,0x66666
80002ec8:	66550513          	addi	a0,a0,1637 # 66666665 <absimm+0x21374136>
80002ecc:	aa953593          	sltiu	a1,a0,-1367
80002ed0:	68b12423          	sw	a1,1672(sp)
80002ed4:	00100193          	li	gp,1
80002ed8:	00b18463          	beq	gp,a1,80002ee0 <inst_437>
80002edc:	1210106f          	j	800047fc <bad_trap>

80002ee0 <inst_437>:
80002ee0:	66666537          	lui	a0,0x66666
80002ee4:	66550513          	addi	a0,a0,1637 # 66666665 <absimm+0x21374136>
80002ee8:	00453593          	sltiu	a1,a0,4
80002eec:	68b12623          	sw	a1,1676(sp)
80002ef0:	00000193          	li	gp,0
80002ef4:	00b18463          	beq	gp,a1,80002efc <inst_438>
80002ef8:	1050106f          	j	800047fc <bad_trap>

80002efc <inst_438>:
80002efc:	66666537          	lui	a0,0x66666
80002f00:	66550513          	addi	a0,a0,1637 # 66666665 <absimm+0x21374136>
80002f04:	33253593          	sltiu	a1,a0,818
80002f08:	68b12823          	sw	a1,1680(sp)
80002f0c:	00000193          	li	gp,0
80002f10:	00b18463          	beq	gp,a1,80002f18 <inst_439>
80002f14:	0e90106f          	j	800047fc <bad_trap>

80002f18 <inst_439>:
80002f18:	66666537          	lui	a0,0x66666
80002f1c:	66550513          	addi	a0,a0,1637 # 66666665 <absimm+0x21374136>
80002f20:	66553593          	sltiu	a1,a0,1637
80002f24:	68b12a23          	sw	a1,1684(sp)
80002f28:	00000193          	li	gp,0
80002f2c:	00b18463          	beq	gp,a1,80002f34 <inst_440>
80002f30:	0cd0106f          	j	800047fc <bad_trap>

80002f34 <inst_440>:
80002f34:	66666537          	lui	a0,0x66666
80002f38:	66550513          	addi	a0,a0,1637 # 66666665 <absimm+0x21374136>
80002f3c:	02c53593          	sltiu	a1,a0,44
80002f40:	68b12c23          	sw	a1,1688(sp)
80002f44:	00000193          	li	gp,0
80002f48:	00b18463          	beq	gp,a1,80002f50 <inst_441>
80002f4c:	0b10106f          	j	800047fc <bad_trap>

80002f50 <inst_441>:
80002f50:	66666537          	lui	a0,0x66666
80002f54:	66550513          	addi	a0,a0,1637 # 66666665 <absimm+0x21374136>
80002f58:	03e53593          	sltiu	a1,a0,62
80002f5c:	68b12e23          	sw	a1,1692(sp)
80002f60:	00000193          	li	gp,0
80002f64:	00b18463          	beq	gp,a1,80002f6c <inst_442>
80002f68:	0950106f          	j	800047fc <bad_trap>

80002f6c <inst_442>:
80002f6c:	66666537          	lui	a0,0x66666
80002f70:	66550513          	addi	a0,a0,1637 # 66666665 <absimm+0x21374136>
80002f74:	55653593          	sltiu	a1,a0,1366
80002f78:	6ab12023          	sw	a1,1696(sp)
80002f7c:	00000193          	li	gp,0
80002f80:	00b18463          	beq	gp,a1,80002f88 <inst_443>
80002f84:	0790106f          	j	800047fc <bad_trap>

80002f88 <inst_443>:
80002f88:	00010537          	lui	a0,0x10
80002f8c:	ffe50513          	addi	a0,a0,-2 # fffe <offset+0xfd5a>
80002f90:	66553593          	sltiu	a1,a0,1637
80002f94:	6ab12223          	sw	a1,1700(sp)
80002f98:	00000193          	li	gp,0
80002f9c:	00b18463          	beq	gp,a1,80002fa4 <inst_444>
80002fa0:	05d0106f          	j	800047fc <bad_trap>

80002fa4 <inst_444>:
80002fa4:	00010537          	lui	a0,0x10
80002fa8:	ffe50513          	addi	a0,a0,-2 # fffe <offset+0xfd5a>
80002fac:	02c53593          	sltiu	a1,a0,44
80002fb0:	6ab12423          	sw	a1,1704(sp)
80002fb4:	00000193          	li	gp,0
80002fb8:	00b18463          	beq	gp,a1,80002fc0 <inst_445>
80002fbc:	0410106f          	j	800047fc <bad_trap>

80002fc0 <inst_445>:
80002fc0:	00010537          	lui	a0,0x10
80002fc4:	ffe50513          	addi	a0,a0,-2 # fffe <offset+0xfd5a>
80002fc8:	03e53593          	sltiu	a1,a0,62
80002fcc:	6ab12623          	sw	a1,1708(sp)
80002fd0:	00000193          	li	gp,0
80002fd4:	00b18463          	beq	gp,a1,80002fdc <inst_446>
80002fd8:	0250106f          	j	800047fc <bad_trap>

80002fdc <inst_446>:
80002fdc:	00010537          	lui	a0,0x10
80002fe0:	ffe50513          	addi	a0,a0,-2 # fffe <offset+0xfd5a>
80002fe4:	55653593          	sltiu	a1,a0,1366
80002fe8:	6ab12823          	sw	a1,1712(sp)
80002fec:	00000193          	li	gp,0
80002ff0:	00b18463          	beq	gp,a1,80002ff8 <inst_447>
80002ff4:	0090106f          	j	800047fc <bad_trap>

80002ff8 <inst_447>:
80002ff8:	00010537          	lui	a0,0x10
80002ffc:	ffe50513          	addi	a0,a0,-2 # fffe <offset+0xfd5a>
80003000:	aab53593          	sltiu	a1,a0,-1365
80003004:	6ab12a23          	sw	a1,1716(sp)
80003008:	00100193          	li	gp,1
8000300c:	00b18463          	beq	gp,a1,80003014 <inst_448>
80003010:	7ec0106f          	j	800047fc <bad_trap>

80003014 <inst_448>:
80003014:	00010537          	lui	a0,0x10
80003018:	ffe50513          	addi	a0,a0,-2 # fffe <offset+0xfd5a>
8000301c:	00653593          	sltiu	a1,a0,6
80003020:	6ab12c23          	sw	a1,1720(sp)
80003024:	00000193          	li	gp,0
80003028:	00b18463          	beq	gp,a1,80003030 <inst_449>
8000302c:	7d00106f          	j	800047fc <bad_trap>

80003030 <inst_449>:
80003030:	00010537          	lui	a0,0x10
80003034:	ffe50513          	addi	a0,a0,-2 # fffe <offset+0xfd5a>
80003038:	33453593          	sltiu	a1,a0,820
8000303c:	6ab12e23          	sw	a1,1724(sp)
80003040:	00000193          	li	gp,0
80003044:	00b18463          	beq	gp,a1,8000304c <inst_450>
80003048:	7b40106f          	j	800047fc <bad_trap>

8000304c <inst_450>:
8000304c:	00010537          	lui	a0,0x10
80003050:	ffe50513          	addi	a0,a0,-2 # fffe <offset+0xfd5a>
80003054:	66753593          	sltiu	a1,a0,1639
80003058:	6cb12023          	sw	a1,1728(sp)
8000305c:	00000193          	li	gp,0
80003060:	00b18463          	beq	gp,a1,80003068 <inst_451>
80003064:	7980106f          	j	800047fc <bad_trap>

80003068 <inst_451>:
80003068:	00010537          	lui	a0,0x10
8000306c:	ffe50513          	addi	a0,a0,-2 # fffe <offset+0xfd5a>
80003070:	02e53593          	sltiu	a1,a0,46
80003074:	6cb12223          	sw	a1,1732(sp)
80003078:	00000193          	li	gp,0
8000307c:	00b18463          	beq	gp,a1,80003084 <inst_452>
80003080:	77c0106f          	j	800047fc <bad_trap>

80003084 <inst_452>:
80003084:	00010537          	lui	a0,0x10
80003088:	ffe50513          	addi	a0,a0,-2 # fffe <offset+0xfd5a>
8000308c:	00153593          	seqz	a1,a0
80003090:	6cb12423          	sw	a1,1736(sp)
80003094:	00000193          	li	gp,0
80003098:	00b18463          	beq	gp,a1,800030a0 <inst_453>
8000309c:	7600106f          	j	800047fc <bad_trap>

800030a0 <inst_453>:
800030a0:	00010537          	lui	a0,0x10
800030a4:	ffe50513          	addi	a0,a0,-2 # fffe <offset+0xfd5a>
800030a8:	04053593          	sltiu	a1,a0,64
800030ac:	6cb12623          	sw	a1,1740(sp)
800030b0:	00000193          	li	gp,0
800030b4:	00b18463          	beq	gp,a1,800030bc <inst_454>
800030b8:	7440106f          	j	800047fc <bad_trap>

800030bc <inst_454>:
800030bc:	55555537          	lui	a0,0x55555
800030c0:	55650513          	addi	a0,a0,1366 # 55555556 <absimm+0x10263027>
800030c4:	00353593          	sltiu	a1,a0,3
800030c8:	6cb12823          	sw	a1,1744(sp)
800030cc:	00000193          	li	gp,0
800030d0:	00b18463          	beq	gp,a1,800030d8 <inst_455>
800030d4:	7280106f          	j	800047fc <bad_trap>

800030d8 <inst_455>:
800030d8:	55555537          	lui	a0,0x55555
800030dc:	55650513          	addi	a0,a0,1366 # 55555556 <absimm+0x10263027>
800030e0:	55553593          	sltiu	a1,a0,1365
800030e4:	6cb12a23          	sw	a1,1748(sp)
800030e8:	00000193          	li	gp,0
800030ec:	00b18463          	beq	gp,a1,800030f4 <inst_456>
800030f0:	70c0106f          	j	800047fc <bad_trap>

800030f4 <inst_456>:
800030f4:	55555537          	lui	a0,0x55555
800030f8:	55650513          	addi	a0,a0,1366 # 55555556 <absimm+0x10263027>
800030fc:	aaa53593          	sltiu	a1,a0,-1366
80003100:	6cb12c23          	sw	a1,1752(sp)
80003104:	00100193          	li	gp,1
80003108:	00b18463          	beq	gp,a1,80003110 <inst_457>
8000310c:	6f00106f          	j	800047fc <bad_trap>

80003110 <inst_457>:
80003110:	55555537          	lui	a0,0x55555
80003114:	55650513          	addi	a0,a0,1366 # 55555556 <absimm+0x10263027>
80003118:	00553593          	sltiu	a1,a0,5
8000311c:	6cb12e23          	sw	a1,1756(sp)
80003120:	00000193          	li	gp,0
80003124:	00b18463          	beq	gp,a1,8000312c <inst_458>
80003128:	6d40106f          	j	800047fc <bad_trap>

8000312c <inst_458>:
8000312c:	55555537          	lui	a0,0x55555
80003130:	55650513          	addi	a0,a0,1366 # 55555556 <absimm+0x10263027>
80003134:	33353593          	sltiu	a1,a0,819
80003138:	6eb12023          	sw	a1,1760(sp)
8000313c:	00000193          	li	gp,0
80003140:	00b18463          	beq	gp,a1,80003148 <inst_459>
80003144:	6b80106f          	j	800047fc <bad_trap>

80003148 <inst_459>:
80003148:	55555537          	lui	a0,0x55555
8000314c:	55650513          	addi	a0,a0,1366 # 55555556 <absimm+0x10263027>
80003150:	66653593          	sltiu	a1,a0,1638
80003154:	6eb12223          	sw	a1,1764(sp)
80003158:	00000193          	li	gp,0
8000315c:	00b18463          	beq	gp,a1,80003164 <inst_460>
80003160:	69c0106f          	j	800047fc <bad_trap>

80003164 <inst_460>:
80003164:	55555537          	lui	a0,0x55555
80003168:	55650513          	addi	a0,a0,1366 # 55555556 <absimm+0x10263027>
8000316c:	02d53593          	sltiu	a1,a0,45
80003170:	6eb12423          	sw	a1,1768(sp)
80003174:	00000193          	li	gp,0
80003178:	00b18463          	beq	gp,a1,80003180 <inst_461>
8000317c:	6800106f          	j	800047fc <bad_trap>

80003180 <inst_461>:
80003180:	55555537          	lui	a0,0x55555
80003184:	55650513          	addi	a0,a0,1366 # 55555556 <absimm+0x10263027>
80003188:	00053593          	sltiu	a1,a0,0
8000318c:	6eb12623          	sw	a1,1772(sp)
80003190:	00000193          	li	gp,0
80003194:	00b18463          	beq	gp,a1,8000319c <inst_462>
80003198:	6640106f          	j	800047fc <bad_trap>

8000319c <inst_462>:
8000319c:	55555537          	lui	a0,0x55555
800031a0:	55650513          	addi	a0,a0,1366 # 55555556 <absimm+0x10263027>
800031a4:	03f53593          	sltiu	a1,a0,63
800031a8:	6eb12823          	sw	a1,1776(sp)
800031ac:	00000193          	li	gp,0
800031b0:	00b18463          	beq	gp,a1,800031b8 <inst_463>
800031b4:	6480106f          	j	800047fc <bad_trap>

800031b8 <inst_463>:
800031b8:	55555537          	lui	a0,0x55555
800031bc:	55650513          	addi	a0,a0,1366 # 55555556 <absimm+0x10263027>
800031c0:	00253593          	sltiu	a1,a0,2
800031c4:	6eb12a23          	sw	a1,1780(sp)
800031c8:	00000193          	li	gp,0
800031cc:	00b18463          	beq	gp,a1,800031d4 <inst_464>
800031d0:	62c0106f          	j	800047fc <bad_trap>

800031d4 <inst_464>:
800031d4:	55555537          	lui	a0,0x55555
800031d8:	55650513          	addi	a0,a0,1366 # 55555556 <absimm+0x10263027>
800031dc:	55453593          	sltiu	a1,a0,1364
800031e0:	6eb12c23          	sw	a1,1784(sp)
800031e4:	00000193          	li	gp,0
800031e8:	00b18463          	beq	gp,a1,800031f0 <inst_465>
800031ec:	6100106f          	j	800047fc <bad_trap>

800031f0 <inst_465>:
800031f0:	55555537          	lui	a0,0x55555
800031f4:	55650513          	addi	a0,a0,1366 # 55555556 <absimm+0x10263027>
800031f8:	aa953593          	sltiu	a1,a0,-1367
800031fc:	6eb12e23          	sw	a1,1788(sp)
80003200:	00100193          	li	gp,1
80003204:	00b18463          	beq	gp,a1,8000320c <inst_466>
80003208:	5f40106f          	j	800047fc <bad_trap>

8000320c <inst_466>:
8000320c:	55555537          	lui	a0,0x55555
80003210:	55650513          	addi	a0,a0,1366 # 55555556 <absimm+0x10263027>
80003214:	00453593          	sltiu	a1,a0,4
80003218:	70b12023          	sw	a1,1792(sp)
8000321c:	00000193          	li	gp,0
80003220:	00b18463          	beq	gp,a1,80003228 <inst_467>
80003224:	5d80106f          	j	800047fc <bad_trap>

80003228 <inst_467>:
80003228:	55555537          	lui	a0,0x55555
8000322c:	55650513          	addi	a0,a0,1366 # 55555556 <absimm+0x10263027>
80003230:	33253593          	sltiu	a1,a0,818
80003234:	70b12223          	sw	a1,1796(sp)
80003238:	00000193          	li	gp,0
8000323c:	00b18463          	beq	gp,a1,80003244 <inst_468>
80003240:	5bc0106f          	j	800047fc <bad_trap>

80003244 <inst_468>:
80003244:	55555537          	lui	a0,0x55555
80003248:	55650513          	addi	a0,a0,1366 # 55555556 <absimm+0x10263027>
8000324c:	66553593          	sltiu	a1,a0,1637
80003250:	70b12423          	sw	a1,1800(sp)
80003254:	00000193          	li	gp,0
80003258:	00b18463          	beq	gp,a1,80003260 <inst_469>
8000325c:	5a00106f          	j	800047fc <bad_trap>

80003260 <inst_469>:
80003260:	55555537          	lui	a0,0x55555
80003264:	55650513          	addi	a0,a0,1366 # 55555556 <absimm+0x10263027>
80003268:	02c53593          	sltiu	a1,a0,44
8000326c:	70b12623          	sw	a1,1804(sp)
80003270:	00000193          	li	gp,0
80003274:	00b18463          	beq	gp,a1,8000327c <inst_470>
80003278:	5840106f          	j	800047fc <bad_trap>

8000327c <inst_470>:
8000327c:	55555537          	lui	a0,0x55555
80003280:	55650513          	addi	a0,a0,1366 # 55555556 <absimm+0x10263027>
80003284:	03e53593          	sltiu	a1,a0,62
80003288:	70b12823          	sw	a1,1808(sp)
8000328c:	00000193          	li	gp,0
80003290:	00b18463          	beq	gp,a1,80003298 <inst_471>
80003294:	5680106f          	j	800047fc <bad_trap>

80003298 <inst_471>:
80003298:	55555537          	lui	a0,0x55555
8000329c:	55650513          	addi	a0,a0,1366 # 55555556 <absimm+0x10263027>
800032a0:	55653593          	sltiu	a1,a0,1366
800032a4:	70b12a23          	sw	a1,1812(sp)
800032a8:	00000193          	li	gp,0
800032ac:	00b18463          	beq	gp,a1,800032b4 <inst_472>
800032b0:	54c0106f          	j	800047fc <bad_trap>

800032b4 <inst_472>:
800032b4:	55555537          	lui	a0,0x55555
800032b8:	55650513          	addi	a0,a0,1366 # 55555556 <absimm+0x10263027>
800032bc:	aab53593          	sltiu	a1,a0,-1365
800032c0:	70b12c23          	sw	a1,1816(sp)
800032c4:	00100193          	li	gp,1
800032c8:	00b18463          	beq	gp,a1,800032d0 <inst_473>
800032cc:	5300106f          	j	800047fc <bad_trap>

800032d0 <inst_473>:
800032d0:	55555537          	lui	a0,0x55555
800032d4:	55650513          	addi	a0,a0,1366 # 55555556 <absimm+0x10263027>
800032d8:	00653593          	sltiu	a1,a0,6
800032dc:	70b12e23          	sw	a1,1820(sp)
800032e0:	00000193          	li	gp,0
800032e4:	00b18463          	beq	gp,a1,800032ec <inst_474>
800032e8:	5140106f          	j	800047fc <bad_trap>

800032ec <inst_474>:
800032ec:	55555537          	lui	a0,0x55555
800032f0:	55650513          	addi	a0,a0,1366 # 55555556 <absimm+0x10263027>
800032f4:	33453593          	sltiu	a1,a0,820
800032f8:	72b12023          	sw	a1,1824(sp)
800032fc:	00000193          	li	gp,0
80003300:	00b18463          	beq	gp,a1,80003308 <inst_475>
80003304:	4f80106f          	j	800047fc <bad_trap>

80003308 <inst_475>:
80003308:	55555537          	lui	a0,0x55555
8000330c:	55650513          	addi	a0,a0,1366 # 55555556 <absimm+0x10263027>
80003310:	66753593          	sltiu	a1,a0,1639
80003314:	72b12223          	sw	a1,1828(sp)
80003318:	00000193          	li	gp,0
8000331c:	00b18463          	beq	gp,a1,80003324 <inst_476>
80003320:	4dc0106f          	j	800047fc <bad_trap>

80003324 <inst_476>:
80003324:	55555537          	lui	a0,0x55555
80003328:	55650513          	addi	a0,a0,1366 # 55555556 <absimm+0x10263027>
8000332c:	02e53593          	sltiu	a1,a0,46
80003330:	72b12423          	sw	a1,1832(sp)
80003334:	00000193          	li	gp,0
80003338:	00b18463          	beq	gp,a1,80003340 <inst_477>
8000333c:	4c00106f          	j	800047fc <bad_trap>

80003340 <inst_477>:
80003340:	55555537          	lui	a0,0x55555
80003344:	55650513          	addi	a0,a0,1366 # 55555556 <absimm+0x10263027>
80003348:	00153593          	seqz	a1,a0
8000334c:	72b12623          	sw	a1,1836(sp)
80003350:	00000193          	li	gp,0
80003354:	00b18463          	beq	gp,a1,8000335c <inst_478>
80003358:	4a40106f          	j	800047fc <bad_trap>

8000335c <inst_478>:
8000335c:	55555537          	lui	a0,0x55555
80003360:	55650513          	addi	a0,a0,1366 # 55555556 <absimm+0x10263027>
80003364:	04053593          	sltiu	a1,a0,64
80003368:	72b12823          	sw	a1,1840(sp)
8000336c:	00000193          	li	gp,0
80003370:	00b18463          	beq	gp,a1,80003378 <inst_479>
80003374:	4880106f          	j	800047fc <bad_trap>

80003378 <inst_479>:
80003378:	aaaab537          	lui	a0,0xaaaab
8000337c:	aab50513          	addi	a0,a0,-1365 # aaaaaaab <imm12+0xaaaaafdb>
80003380:	00353593          	sltiu	a1,a0,3
80003384:	72b12a23          	sw	a1,1844(sp)
80003388:	00000193          	li	gp,0
8000338c:	00b18463          	beq	gp,a1,80003394 <inst_480>
80003390:	46c0106f          	j	800047fc <bad_trap>

80003394 <inst_480>:
80003394:	aaaab537          	lui	a0,0xaaaab
80003398:	aab50513          	addi	a0,a0,-1365 # aaaaaaab <imm12+0xaaaaafdb>
8000339c:	55553593          	sltiu	a1,a0,1365
800033a0:	72b12c23          	sw	a1,1848(sp)
800033a4:	00000193          	li	gp,0
800033a8:	00b18463          	beq	gp,a1,800033b0 <inst_481>
800033ac:	4500106f          	j	800047fc <bad_trap>

800033b0 <inst_481>:
800033b0:	aaaab537          	lui	a0,0xaaaab
800033b4:	aab50513          	addi	a0,a0,-1365 # aaaaaaab <imm12+0xaaaaafdb>
800033b8:	aaa53593          	sltiu	a1,a0,-1366
800033bc:	72b12e23          	sw	a1,1852(sp)
800033c0:	00100193          	li	gp,1
800033c4:	00b18463          	beq	gp,a1,800033cc <inst_482>
800033c8:	4340106f          	j	800047fc <bad_trap>

800033cc <inst_482>:
800033cc:	aaaab537          	lui	a0,0xaaaab
800033d0:	aab50513          	addi	a0,a0,-1365 # aaaaaaab <imm12+0xaaaaafdb>
800033d4:	00553593          	sltiu	a1,a0,5
800033d8:	74b12023          	sw	a1,1856(sp)
800033dc:	00000193          	li	gp,0
800033e0:	00b18463          	beq	gp,a1,800033e8 <inst_483>
800033e4:	4180106f          	j	800047fc <bad_trap>

800033e8 <inst_483>:
800033e8:	aaaab537          	lui	a0,0xaaaab
800033ec:	aab50513          	addi	a0,a0,-1365 # aaaaaaab <imm12+0xaaaaafdb>
800033f0:	33353593          	sltiu	a1,a0,819
800033f4:	74b12223          	sw	a1,1860(sp)
800033f8:	00000193          	li	gp,0
800033fc:	00b18463          	beq	gp,a1,80003404 <inst_484>
80003400:	3fc0106f          	j	800047fc <bad_trap>

80003404 <inst_484>:
80003404:	aaaab537          	lui	a0,0xaaaab
80003408:	aab50513          	addi	a0,a0,-1365 # aaaaaaab <imm12+0xaaaaafdb>
8000340c:	66653593          	sltiu	a1,a0,1638
80003410:	74b12423          	sw	a1,1864(sp)
80003414:	00000193          	li	gp,0
80003418:	00b18463          	beq	gp,a1,80003420 <inst_485>
8000341c:	3e00106f          	j	800047fc <bad_trap>

80003420 <inst_485>:
80003420:	aaaab537          	lui	a0,0xaaaab
80003424:	aab50513          	addi	a0,a0,-1365 # aaaaaaab <imm12+0xaaaaafdb>
80003428:	02d53593          	sltiu	a1,a0,45
8000342c:	74b12623          	sw	a1,1868(sp)
80003430:	00000193          	li	gp,0
80003434:	00b18463          	beq	gp,a1,8000343c <inst_486>
80003438:	3c40106f          	j	800047fc <bad_trap>

8000343c <inst_486>:
8000343c:	aaaab537          	lui	a0,0xaaaab
80003440:	aab50513          	addi	a0,a0,-1365 # aaaaaaab <imm12+0xaaaaafdb>
80003444:	00053593          	sltiu	a1,a0,0
80003448:	74b12823          	sw	a1,1872(sp)
8000344c:	00000193          	li	gp,0
80003450:	00b18463          	beq	gp,a1,80003458 <inst_487>
80003454:	3a80106f          	j	800047fc <bad_trap>

80003458 <inst_487>:
80003458:	aaaab537          	lui	a0,0xaaaab
8000345c:	aab50513          	addi	a0,a0,-1365 # aaaaaaab <imm12+0xaaaaafdb>
80003460:	03f53593          	sltiu	a1,a0,63
80003464:	74b12a23          	sw	a1,1876(sp)
80003468:	00000193          	li	gp,0
8000346c:	00b18463          	beq	gp,a1,80003474 <inst_488>
80003470:	38c0106f          	j	800047fc <bad_trap>

80003474 <inst_488>:
80003474:	aaaab537          	lui	a0,0xaaaab
80003478:	aab50513          	addi	a0,a0,-1365 # aaaaaaab <imm12+0xaaaaafdb>
8000347c:	00253593          	sltiu	a1,a0,2
80003480:	74b12c23          	sw	a1,1880(sp)
80003484:	00000193          	li	gp,0
80003488:	00b18463          	beq	gp,a1,80003490 <inst_489>
8000348c:	3700106f          	j	800047fc <bad_trap>

80003490 <inst_489>:
80003490:	aaaab537          	lui	a0,0xaaaab
80003494:	aab50513          	addi	a0,a0,-1365 # aaaaaaab <imm12+0xaaaaafdb>
80003498:	55453593          	sltiu	a1,a0,1364
8000349c:	74b12e23          	sw	a1,1884(sp)
800034a0:	00000193          	li	gp,0
800034a4:	00b18463          	beq	gp,a1,800034ac <inst_490>
800034a8:	3540106f          	j	800047fc <bad_trap>

800034ac <inst_490>:
800034ac:	aaaab537          	lui	a0,0xaaaab
800034b0:	aab50513          	addi	a0,a0,-1365 # aaaaaaab <imm12+0xaaaaafdb>
800034b4:	aa953593          	sltiu	a1,a0,-1367
800034b8:	76b12023          	sw	a1,1888(sp)
800034bc:	00100193          	li	gp,1
800034c0:	00b18463          	beq	gp,a1,800034c8 <inst_491>
800034c4:	3380106f          	j	800047fc <bad_trap>

800034c8 <inst_491>:
800034c8:	aaaab537          	lui	a0,0xaaaab
800034cc:	aab50513          	addi	a0,a0,-1365 # aaaaaaab <imm12+0xaaaaafdb>
800034d0:	00453593          	sltiu	a1,a0,4
800034d4:	76b12223          	sw	a1,1892(sp)
800034d8:	00000193          	li	gp,0
800034dc:	00b18463          	beq	gp,a1,800034e4 <inst_492>
800034e0:	31c0106f          	j	800047fc <bad_trap>

800034e4 <inst_492>:
800034e4:	aaaab537          	lui	a0,0xaaaab
800034e8:	aab50513          	addi	a0,a0,-1365 # aaaaaaab <imm12+0xaaaaafdb>
800034ec:	33253593          	sltiu	a1,a0,818
800034f0:	76b12423          	sw	a1,1896(sp)
800034f4:	00000193          	li	gp,0
800034f8:	00b18463          	beq	gp,a1,80003500 <inst_493>
800034fc:	3000106f          	j	800047fc <bad_trap>

80003500 <inst_493>:
80003500:	aaaab537          	lui	a0,0xaaaab
80003504:	aab50513          	addi	a0,a0,-1365 # aaaaaaab <imm12+0xaaaaafdb>
80003508:	66553593          	sltiu	a1,a0,1637
8000350c:	76b12623          	sw	a1,1900(sp)
80003510:	00000193          	li	gp,0
80003514:	00b18463          	beq	gp,a1,8000351c <inst_494>
80003518:	2e40106f          	j	800047fc <bad_trap>

8000351c <inst_494>:
8000351c:	aaaab537          	lui	a0,0xaaaab
80003520:	aab50513          	addi	a0,a0,-1365 # aaaaaaab <imm12+0xaaaaafdb>
80003524:	02c53593          	sltiu	a1,a0,44
80003528:	76b12823          	sw	a1,1904(sp)
8000352c:	00000193          	li	gp,0
80003530:	00b18463          	beq	gp,a1,80003538 <inst_495>
80003534:	2c80106f          	j	800047fc <bad_trap>

80003538 <inst_495>:
80003538:	aaaab537          	lui	a0,0xaaaab
8000353c:	aab50513          	addi	a0,a0,-1365 # aaaaaaab <imm12+0xaaaaafdb>
80003540:	03e53593          	sltiu	a1,a0,62
80003544:	76b12a23          	sw	a1,1908(sp)
80003548:	00000193          	li	gp,0
8000354c:	00b18463          	beq	gp,a1,80003554 <inst_496>
80003550:	2ac0106f          	j	800047fc <bad_trap>

80003554 <inst_496>:
80003554:	aaaab537          	lui	a0,0xaaaab
80003558:	aab50513          	addi	a0,a0,-1365 # aaaaaaab <imm12+0xaaaaafdb>
8000355c:	55653593          	sltiu	a1,a0,1366
80003560:	76b12c23          	sw	a1,1912(sp)
80003564:	00000193          	li	gp,0
80003568:	00b18463          	beq	gp,a1,80003570 <inst_497>
8000356c:	2900106f          	j	800047fc <bad_trap>

80003570 <inst_497>:
80003570:	aaaab537          	lui	a0,0xaaaab
80003574:	aab50513          	addi	a0,a0,-1365 # aaaaaaab <imm12+0xaaaaafdb>
80003578:	aab53593          	sltiu	a1,a0,-1365
8000357c:	76b12e23          	sw	a1,1916(sp)
80003580:	00100193          	li	gp,1
80003584:	00b18463          	beq	gp,a1,8000358c <inst_498>
80003588:	2740106f          	j	800047fc <bad_trap>

8000358c <inst_498>:
8000358c:	aaaab537          	lui	a0,0xaaaab
80003590:	aab50513          	addi	a0,a0,-1365 # aaaaaaab <imm12+0xaaaaafdb>
80003594:	00653593          	sltiu	a1,a0,6
80003598:	78b12023          	sw	a1,1920(sp)
8000359c:	00000193          	li	gp,0
800035a0:	00b18463          	beq	gp,a1,800035a8 <inst_499>
800035a4:	2580106f          	j	800047fc <bad_trap>

800035a8 <inst_499>:
800035a8:	aaaab537          	lui	a0,0xaaaab
800035ac:	aab50513          	addi	a0,a0,-1365 # aaaaaaab <imm12+0xaaaaafdb>
800035b0:	33453593          	sltiu	a1,a0,820
800035b4:	78b12223          	sw	a1,1924(sp)
800035b8:	00000193          	li	gp,0
800035bc:	00b18463          	beq	gp,a1,800035c4 <inst_500>
800035c0:	23c0106f          	j	800047fc <bad_trap>

800035c4 <inst_500>:
800035c4:	aaaab537          	lui	a0,0xaaaab
800035c8:	aab50513          	addi	a0,a0,-1365 # aaaaaaab <imm12+0xaaaaafdb>
800035cc:	66753593          	sltiu	a1,a0,1639
800035d0:	78b12423          	sw	a1,1928(sp)
800035d4:	00000193          	li	gp,0
800035d8:	00b18463          	beq	gp,a1,800035e0 <inst_501>
800035dc:	2200106f          	j	800047fc <bad_trap>

800035e0 <inst_501>:
800035e0:	aaaab537          	lui	a0,0xaaaab
800035e4:	aab50513          	addi	a0,a0,-1365 # aaaaaaab <imm12+0xaaaaafdb>
800035e8:	02e53593          	sltiu	a1,a0,46
800035ec:	78b12623          	sw	a1,1932(sp)
800035f0:	00000193          	li	gp,0
800035f4:	00b18463          	beq	gp,a1,800035fc <inst_502>
800035f8:	2040106f          	j	800047fc <bad_trap>

800035fc <inst_502>:
800035fc:	aaaab537          	lui	a0,0xaaaab
80003600:	aab50513          	addi	a0,a0,-1365 # aaaaaaab <imm12+0xaaaaafdb>
80003604:	00153593          	seqz	a1,a0
80003608:	78b12823          	sw	a1,1936(sp)
8000360c:	00000193          	li	gp,0
80003610:	00b18463          	beq	gp,a1,80003618 <inst_503>
80003614:	1e80106f          	j	800047fc <bad_trap>

80003618 <inst_503>:
80003618:	aaaab537          	lui	a0,0xaaaab
8000361c:	aab50513          	addi	a0,a0,-1365 # aaaaaaab <imm12+0xaaaaafdb>
80003620:	04053593          	sltiu	a1,a0,64
80003624:	78b12a23          	sw	a1,1940(sp)
80003628:	00000193          	li	gp,0
8000362c:	00b18463          	beq	gp,a1,80003634 <inst_504>
80003630:	1cc0106f          	j	800047fc <bad_trap>

80003634 <inst_504>:
80003634:	00600513          	li	a0,6
80003638:	00353593          	sltiu	a1,a0,3
8000363c:	78b12c23          	sw	a1,1944(sp)
80003640:	00000193          	li	gp,0
80003644:	00b18463          	beq	gp,a1,8000364c <inst_505>
80003648:	1b40106f          	j	800047fc <bad_trap>

8000364c <inst_505>:
8000364c:	00600513          	li	a0,6
80003650:	55553593          	sltiu	a1,a0,1365
80003654:	78b12e23          	sw	a1,1948(sp)
80003658:	00100193          	li	gp,1
8000365c:	00b18463          	beq	gp,a1,80003664 <inst_506>
80003660:	19c0106f          	j	800047fc <bad_trap>

80003664 <inst_506>:
80003664:	00600513          	li	a0,6
80003668:	aaa53593          	sltiu	a1,a0,-1366
8000366c:	7ab12023          	sw	a1,1952(sp)
80003670:	00100193          	li	gp,1
80003674:	00b18463          	beq	gp,a1,8000367c <inst_507>
80003678:	1840106f          	j	800047fc <bad_trap>

8000367c <inst_507>:
8000367c:	00600513          	li	a0,6
80003680:	00553593          	sltiu	a1,a0,5
80003684:	7ab12223          	sw	a1,1956(sp)
80003688:	00000193          	li	gp,0
8000368c:	00b18463          	beq	gp,a1,80003694 <inst_508>
80003690:	16c0106f          	j	800047fc <bad_trap>

80003694 <inst_508>:
80003694:	00600513          	li	a0,6
80003698:	33353593          	sltiu	a1,a0,819
8000369c:	7ab12423          	sw	a1,1960(sp)
800036a0:	00100193          	li	gp,1
800036a4:	00b18463          	beq	gp,a1,800036ac <inst_509>
800036a8:	1540106f          	j	800047fc <bad_trap>

800036ac <inst_509>:
800036ac:	00600513          	li	a0,6
800036b0:	66653593          	sltiu	a1,a0,1638
800036b4:	7ab12623          	sw	a1,1964(sp)
800036b8:	00100193          	li	gp,1
800036bc:	00b18463          	beq	gp,a1,800036c4 <inst_510>
800036c0:	13c0106f          	j	800047fc <bad_trap>

800036c4 <inst_510>:
800036c4:	00600513          	li	a0,6
800036c8:	02d53593          	sltiu	a1,a0,45
800036cc:	7ab12823          	sw	a1,1968(sp)
800036d0:	00100193          	li	gp,1
800036d4:	00b18463          	beq	gp,a1,800036dc <inst_511>
800036d8:	1240106f          	j	800047fc <bad_trap>

800036dc <inst_511>:
800036dc:	00600513          	li	a0,6
800036e0:	00053593          	sltiu	a1,a0,0
800036e4:	7ab12a23          	sw	a1,1972(sp)
800036e8:	00000193          	li	gp,0
800036ec:	00b18463          	beq	gp,a1,800036f4 <inst_512>
800036f0:	10c0106f          	j	800047fc <bad_trap>

800036f4 <inst_512>:
800036f4:	00600513          	li	a0,6
800036f8:	03f53593          	sltiu	a1,a0,63
800036fc:	7ab12c23          	sw	a1,1976(sp)
80003700:	00100193          	li	gp,1
80003704:	00b18463          	beq	gp,a1,8000370c <inst_513>
80003708:	0f40106f          	j	800047fc <bad_trap>

8000370c <inst_513>:
8000370c:	00600513          	li	a0,6
80003710:	00253593          	sltiu	a1,a0,2
80003714:	7ab12e23          	sw	a1,1980(sp)
80003718:	00000193          	li	gp,0
8000371c:	00b18463          	beq	gp,a1,80003724 <inst_514>
80003720:	0dc0106f          	j	800047fc <bad_trap>

80003724 <inst_514>:
80003724:	00600513          	li	a0,6
80003728:	55453593          	sltiu	a1,a0,1364
8000372c:	7cb12023          	sw	a1,1984(sp)
80003730:	00100193          	li	gp,1
80003734:	00b18463          	beq	gp,a1,8000373c <inst_515>
80003738:	0c40106f          	j	800047fc <bad_trap>

8000373c <inst_515>:
8000373c:	00600513          	li	a0,6
80003740:	aa953593          	sltiu	a1,a0,-1367
80003744:	7cb12223          	sw	a1,1988(sp)
80003748:	00100193          	li	gp,1
8000374c:	00b18463          	beq	gp,a1,80003754 <inst_516>
80003750:	0ac0106f          	j	800047fc <bad_trap>

80003754 <inst_516>:
80003754:	00600513          	li	a0,6
80003758:	00453593          	sltiu	a1,a0,4
8000375c:	7cb12423          	sw	a1,1992(sp)
80003760:	00000193          	li	gp,0
80003764:	00b18463          	beq	gp,a1,8000376c <inst_517>
80003768:	0940106f          	j	800047fc <bad_trap>

8000376c <inst_517>:
8000376c:	00600513          	li	a0,6
80003770:	33253593          	sltiu	a1,a0,818
80003774:	7cb12623          	sw	a1,1996(sp)
80003778:	00100193          	li	gp,1
8000377c:	00b18463          	beq	gp,a1,80003784 <inst_518>
80003780:	07c0106f          	j	800047fc <bad_trap>

80003784 <inst_518>:
80003784:	00600513          	li	a0,6
80003788:	66553593          	sltiu	a1,a0,1637
8000378c:	7cb12823          	sw	a1,2000(sp)
80003790:	00100193          	li	gp,1
80003794:	00b18463          	beq	gp,a1,8000379c <inst_519>
80003798:	0640106f          	j	800047fc <bad_trap>

8000379c <inst_519>:
8000379c:	00600513          	li	a0,6
800037a0:	02c53593          	sltiu	a1,a0,44
800037a4:	7cb12a23          	sw	a1,2004(sp)
800037a8:	00100193          	li	gp,1
800037ac:	00b18463          	beq	gp,a1,800037b4 <inst_520>
800037b0:	04c0106f          	j	800047fc <bad_trap>

800037b4 <inst_520>:
800037b4:	00600513          	li	a0,6
800037b8:	03e53593          	sltiu	a1,a0,62
800037bc:	7cb12c23          	sw	a1,2008(sp)
800037c0:	00100193          	li	gp,1
800037c4:	00b18463          	beq	gp,a1,800037cc <inst_521>
800037c8:	0340106f          	j	800047fc <bad_trap>

800037cc <inst_521>:
800037cc:	00600513          	li	a0,6
800037d0:	55653593          	sltiu	a1,a0,1366
800037d4:	7cb12e23          	sw	a1,2012(sp)
800037d8:	00100193          	li	gp,1
800037dc:	00b18463          	beq	gp,a1,800037e4 <inst_522>
800037e0:	01c0106f          	j	800047fc <bad_trap>

800037e4 <inst_522>:
800037e4:	00600513          	li	a0,6
800037e8:	aab53593          	sltiu	a1,a0,-1365
800037ec:	7eb12023          	sw	a1,2016(sp)
800037f0:	00100193          	li	gp,1
800037f4:	00b18463          	beq	gp,a1,800037fc <inst_523>
800037f8:	0040106f          	j	800047fc <bad_trap>

800037fc <inst_523>:
800037fc:	00600513          	li	a0,6
80003800:	00653593          	sltiu	a1,a0,6
80003804:	7eb12223          	sw	a1,2020(sp)
80003808:	00000193          	li	gp,0
8000380c:	00b18463          	beq	gp,a1,80003814 <inst_524>
80003810:	7ed0006f          	j	800047fc <bad_trap>

80003814 <inst_524>:
80003814:	00600513          	li	a0,6
80003818:	33453593          	sltiu	a1,a0,820
8000381c:	7eb12423          	sw	a1,2024(sp)
80003820:	00100193          	li	gp,1
80003824:	7cb19ce3          	bne	gp,a1,800047fc <bad_trap>

80003828 <inst_525>:
80003828:	00600513          	li	a0,6
8000382c:	66753593          	sltiu	a1,a0,1639
80003830:	7eb12623          	sw	a1,2028(sp)
80003834:	00100193          	li	gp,1
80003838:	7cb192e3          	bne	gp,a1,800047fc <bad_trap>

8000383c <inst_526>:
8000383c:	00600513          	li	a0,6
80003840:	02e53593          	sltiu	a1,a0,46
80003844:	7eb12823          	sw	a1,2032(sp)
80003848:	00100193          	li	gp,1
8000384c:	7ab198e3          	bne	gp,a1,800047fc <bad_trap>

80003850 <inst_527>:
80003850:	00600513          	li	a0,6
80003854:	00153593          	seqz	a1,a0
80003858:	7eb12a23          	sw	a1,2036(sp)
8000385c:	00000193          	li	gp,0
80003860:	78b19ee3          	bne	gp,a1,800047fc <bad_trap>

80003864 <inst_528>:
80003864:	00600513          	li	a0,6
80003868:	04053593          	sltiu	a1,a0,64
8000386c:	7eb12c23          	sw	a1,2040(sp)
80003870:	00100193          	li	gp,1
80003874:	78b194e3          	bne	gp,a1,800047fc <bad_trap>

80003878 <inst_529>:
80003878:	33333537          	lui	a0,0x33333
8000387c:	33450513          	addi	a0,a0,820 # 33333334 <offset+0x33333090>
80003880:	00353593          	sltiu	a1,a0,3
80003884:	7eb12e23          	sw	a1,2044(sp)
80003888:	00000193          	li	gp,0
8000388c:	76b198e3          	bne	gp,a1,800047fc <bad_trap>
80003890:	00000013          	nop
80003894:	00000013          	nop
80003898:	00000013          	nop
8000389c:	00000013          	nop
800038a0:	00003117          	auipc	sp,0x3
800038a4:	fac10113          	addi	sp,sp,-84 # 8000684c <signature_x2_1>
800038a8:	00000013          	nop
800038ac:	00000013          	nop
800038b0:	00000013          	nop
800038b4:	00000013          	nop
800038b8:	00000013          	nop
800038bc:	00000013          	nop

800038c0 <inst_530>:
800038c0:	33333537          	lui	a0,0x33333
800038c4:	33450513          	addi	a0,a0,820 # 33333334 <offset+0x33333090>
800038c8:	55553593          	sltiu	a1,a0,1365
800038cc:	00b12023          	sw	a1,0(sp)
800038d0:	00000193          	li	gp,0
800038d4:	72b194e3          	bne	gp,a1,800047fc <bad_trap>

800038d8 <inst_531>:
800038d8:	33333537          	lui	a0,0x33333
800038dc:	33450513          	addi	a0,a0,820 # 33333334 <offset+0x33333090>
800038e0:	aaa53593          	sltiu	a1,a0,-1366
800038e4:	00b12223          	sw	a1,4(sp)
800038e8:	00100193          	li	gp,1
800038ec:	70b198e3          	bne	gp,a1,800047fc <bad_trap>

800038f0 <inst_532>:
800038f0:	33333537          	lui	a0,0x33333
800038f4:	33450513          	addi	a0,a0,820 # 33333334 <offset+0x33333090>
800038f8:	00553593          	sltiu	a1,a0,5
800038fc:	00b12423          	sw	a1,8(sp)
80003900:	00000193          	li	gp,0
80003904:	6eb19ce3          	bne	gp,a1,800047fc <bad_trap>

80003908 <inst_533>:
80003908:	33333537          	lui	a0,0x33333
8000390c:	33450513          	addi	a0,a0,820 # 33333334 <offset+0x33333090>
80003910:	33353593          	sltiu	a1,a0,819
80003914:	00b12623          	sw	a1,12(sp)
80003918:	00000193          	li	gp,0
8000391c:	6eb190e3          	bne	gp,a1,800047fc <bad_trap>

80003920 <inst_534>:
80003920:	33333537          	lui	a0,0x33333
80003924:	33450513          	addi	a0,a0,820 # 33333334 <offset+0x33333090>
80003928:	66653593          	sltiu	a1,a0,1638
8000392c:	00b12823          	sw	a1,16(sp)
80003930:	00000193          	li	gp,0
80003934:	6cb194e3          	bne	gp,a1,800047fc <bad_trap>

80003938 <inst_535>:
80003938:	33333537          	lui	a0,0x33333
8000393c:	33450513          	addi	a0,a0,820 # 33333334 <offset+0x33333090>
80003940:	02d53593          	sltiu	a1,a0,45
80003944:	00b12a23          	sw	a1,20(sp)
80003948:	00000193          	li	gp,0
8000394c:	6ab198e3          	bne	gp,a1,800047fc <bad_trap>

80003950 <inst_536>:
80003950:	33333537          	lui	a0,0x33333
80003954:	33450513          	addi	a0,a0,820 # 33333334 <offset+0x33333090>
80003958:	00053593          	sltiu	a1,a0,0
8000395c:	00b12c23          	sw	a1,24(sp)
80003960:	00000193          	li	gp,0
80003964:	68b19ce3          	bne	gp,a1,800047fc <bad_trap>

80003968 <inst_537>:
80003968:	33333537          	lui	a0,0x33333
8000396c:	33450513          	addi	a0,a0,820 # 33333334 <offset+0x33333090>
80003970:	03f53593          	sltiu	a1,a0,63
80003974:	00b12e23          	sw	a1,28(sp)
80003978:	00000193          	li	gp,0
8000397c:	68b190e3          	bne	gp,a1,800047fc <bad_trap>

80003980 <inst_538>:
80003980:	33333537          	lui	a0,0x33333
80003984:	33450513          	addi	a0,a0,820 # 33333334 <offset+0x33333090>
80003988:	00253593          	sltiu	a1,a0,2
8000398c:	02b12023          	sw	a1,32(sp)
80003990:	00000193          	li	gp,0
80003994:	66b194e3          	bne	gp,a1,800047fc <bad_trap>

80003998 <inst_539>:
80003998:	33333537          	lui	a0,0x33333
8000399c:	33450513          	addi	a0,a0,820 # 33333334 <offset+0x33333090>
800039a0:	55453593          	sltiu	a1,a0,1364
800039a4:	02b12223          	sw	a1,36(sp)
800039a8:	00000193          	li	gp,0
800039ac:	64b198e3          	bne	gp,a1,800047fc <bad_trap>

800039b0 <inst_540>:
800039b0:	33333537          	lui	a0,0x33333
800039b4:	33450513          	addi	a0,a0,820 # 33333334 <offset+0x33333090>
800039b8:	aa953593          	sltiu	a1,a0,-1367
800039bc:	02b12423          	sw	a1,40(sp)
800039c0:	00100193          	li	gp,1
800039c4:	62b19ce3          	bne	gp,a1,800047fc <bad_trap>

800039c8 <inst_541>:
800039c8:	33333537          	lui	a0,0x33333
800039cc:	33450513          	addi	a0,a0,820 # 33333334 <offset+0x33333090>
800039d0:	00453593          	sltiu	a1,a0,4
800039d4:	02b12623          	sw	a1,44(sp)
800039d8:	00000193          	li	gp,0
800039dc:	62b190e3          	bne	gp,a1,800047fc <bad_trap>

800039e0 <inst_542>:
800039e0:	33333537          	lui	a0,0x33333
800039e4:	33450513          	addi	a0,a0,820 # 33333334 <offset+0x33333090>
800039e8:	33253593          	sltiu	a1,a0,818
800039ec:	02b12823          	sw	a1,48(sp)
800039f0:	00000193          	li	gp,0
800039f4:	60b194e3          	bne	gp,a1,800047fc <bad_trap>

800039f8 <inst_543>:
800039f8:	33333537          	lui	a0,0x33333
800039fc:	33450513          	addi	a0,a0,820 # 33333334 <offset+0x33333090>
80003a00:	66553593          	sltiu	a1,a0,1637
80003a04:	02b12a23          	sw	a1,52(sp)
80003a08:	00000193          	li	gp,0
80003a0c:	5eb198e3          	bne	gp,a1,800047fc <bad_trap>

80003a10 <inst_544>:
80003a10:	33333537          	lui	a0,0x33333
80003a14:	33450513          	addi	a0,a0,820 # 33333334 <offset+0x33333090>
80003a18:	02c53593          	sltiu	a1,a0,44
80003a1c:	02b12c23          	sw	a1,56(sp)
80003a20:	00000193          	li	gp,0
80003a24:	5cb19ce3          	bne	gp,a1,800047fc <bad_trap>

80003a28 <inst_545>:
80003a28:	33333537          	lui	a0,0x33333
80003a2c:	33450513          	addi	a0,a0,820 # 33333334 <offset+0x33333090>
80003a30:	03e53593          	sltiu	a1,a0,62
80003a34:	02b12e23          	sw	a1,60(sp)
80003a38:	00000193          	li	gp,0
80003a3c:	5cb190e3          	bne	gp,a1,800047fc <bad_trap>

80003a40 <inst_546>:
80003a40:	33333537          	lui	a0,0x33333
80003a44:	33450513          	addi	a0,a0,820 # 33333334 <offset+0x33333090>
80003a48:	55653593          	sltiu	a1,a0,1366
80003a4c:	04b12023          	sw	a1,64(sp)
80003a50:	00000193          	li	gp,0
80003a54:	5ab194e3          	bne	gp,a1,800047fc <bad_trap>

80003a58 <inst_547>:
80003a58:	33333537          	lui	a0,0x33333
80003a5c:	33450513          	addi	a0,a0,820 # 33333334 <offset+0x33333090>
80003a60:	aab53593          	sltiu	a1,a0,-1365
80003a64:	04b12223          	sw	a1,68(sp)
80003a68:	00100193          	li	gp,1
80003a6c:	58b198e3          	bne	gp,a1,800047fc <bad_trap>

80003a70 <inst_548>:
80003a70:	33333537          	lui	a0,0x33333
80003a74:	33450513          	addi	a0,a0,820 # 33333334 <offset+0x33333090>
80003a78:	00653593          	sltiu	a1,a0,6
80003a7c:	04b12423          	sw	a1,72(sp)
80003a80:	00000193          	li	gp,0
80003a84:	56b19ce3          	bne	gp,a1,800047fc <bad_trap>

80003a88 <inst_549>:
80003a88:	33333537          	lui	a0,0x33333
80003a8c:	33450513          	addi	a0,a0,820 # 33333334 <offset+0x33333090>
80003a90:	33453593          	sltiu	a1,a0,820
80003a94:	04b12623          	sw	a1,76(sp)
80003a98:	00000193          	li	gp,0
80003a9c:	56b190e3          	bne	gp,a1,800047fc <bad_trap>

80003aa0 <inst_550>:
80003aa0:	33333537          	lui	a0,0x33333
80003aa4:	33450513          	addi	a0,a0,820 # 33333334 <offset+0x33333090>
80003aa8:	66753593          	sltiu	a1,a0,1639
80003aac:	04b12823          	sw	a1,80(sp)
80003ab0:	00000193          	li	gp,0
80003ab4:	54b194e3          	bne	gp,a1,800047fc <bad_trap>

80003ab8 <inst_551>:
80003ab8:	33333537          	lui	a0,0x33333
80003abc:	33450513          	addi	a0,a0,820 # 33333334 <offset+0x33333090>
80003ac0:	02e53593          	sltiu	a1,a0,46
80003ac4:	04b12a23          	sw	a1,84(sp)
80003ac8:	00000193          	li	gp,0
80003acc:	52b198e3          	bne	gp,a1,800047fc <bad_trap>

80003ad0 <inst_552>:
80003ad0:	33333537          	lui	a0,0x33333
80003ad4:	33450513          	addi	a0,a0,820 # 33333334 <offset+0x33333090>
80003ad8:	00153593          	seqz	a1,a0
80003adc:	04b12c23          	sw	a1,88(sp)
80003ae0:	00000193          	li	gp,0
80003ae4:	50b19ce3          	bne	gp,a1,800047fc <bad_trap>

80003ae8 <inst_553>:
80003ae8:	33333537          	lui	a0,0x33333
80003aec:	33450513          	addi	a0,a0,820 # 33333334 <offset+0x33333090>
80003af0:	04053593          	sltiu	a1,a0,64
80003af4:	04b12e23          	sw	a1,92(sp)
80003af8:	00000193          	li	gp,0
80003afc:	50b190e3          	bne	gp,a1,800047fc <bad_trap>

80003b00 <inst_554>:
80003b00:	66666537          	lui	a0,0x66666
80003b04:	66750513          	addi	a0,a0,1639 # 66666667 <absimm+0x21374138>
80003b08:	00353593          	sltiu	a1,a0,3
80003b0c:	06b12023          	sw	a1,96(sp)
80003b10:	00000193          	li	gp,0
80003b14:	4eb194e3          	bne	gp,a1,800047fc <bad_trap>

80003b18 <inst_555>:
80003b18:	66666537          	lui	a0,0x66666
80003b1c:	66750513          	addi	a0,a0,1639 # 66666667 <absimm+0x21374138>
80003b20:	55553593          	sltiu	a1,a0,1365
80003b24:	06b12223          	sw	a1,100(sp)
80003b28:	00000193          	li	gp,0
80003b2c:	4cb198e3          	bne	gp,a1,800047fc <bad_trap>

80003b30 <inst_556>:
80003b30:	66666537          	lui	a0,0x66666
80003b34:	66750513          	addi	a0,a0,1639 # 66666667 <absimm+0x21374138>
80003b38:	aaa53593          	sltiu	a1,a0,-1366
80003b3c:	06b12423          	sw	a1,104(sp)
80003b40:	00100193          	li	gp,1
80003b44:	4ab19ce3          	bne	gp,a1,800047fc <bad_trap>

80003b48 <inst_557>:
80003b48:	66666537          	lui	a0,0x66666
80003b4c:	66750513          	addi	a0,a0,1639 # 66666667 <absimm+0x21374138>
80003b50:	00553593          	sltiu	a1,a0,5
80003b54:	06b12623          	sw	a1,108(sp)
80003b58:	00000193          	li	gp,0
80003b5c:	4ab190e3          	bne	gp,a1,800047fc <bad_trap>

80003b60 <inst_558>:
80003b60:	66666537          	lui	a0,0x66666
80003b64:	66750513          	addi	a0,a0,1639 # 66666667 <absimm+0x21374138>
80003b68:	33353593          	sltiu	a1,a0,819
80003b6c:	06b12823          	sw	a1,112(sp)
80003b70:	00000193          	li	gp,0
80003b74:	48b194e3          	bne	gp,a1,800047fc <bad_trap>

80003b78 <inst_559>:
80003b78:	66666537          	lui	a0,0x66666
80003b7c:	66750513          	addi	a0,a0,1639 # 66666667 <absimm+0x21374138>
80003b80:	66653593          	sltiu	a1,a0,1638
80003b84:	06b12a23          	sw	a1,116(sp)
80003b88:	00000193          	li	gp,0
80003b8c:	46b198e3          	bne	gp,a1,800047fc <bad_trap>

80003b90 <inst_560>:
80003b90:	66666537          	lui	a0,0x66666
80003b94:	66750513          	addi	a0,a0,1639 # 66666667 <absimm+0x21374138>
80003b98:	02d53593          	sltiu	a1,a0,45
80003b9c:	06b12c23          	sw	a1,120(sp)
80003ba0:	00000193          	li	gp,0
80003ba4:	44b19ce3          	bne	gp,a1,800047fc <bad_trap>

80003ba8 <inst_561>:
80003ba8:	66666537          	lui	a0,0x66666
80003bac:	66750513          	addi	a0,a0,1639 # 66666667 <absimm+0x21374138>
80003bb0:	00053593          	sltiu	a1,a0,0
80003bb4:	06b12e23          	sw	a1,124(sp)
80003bb8:	00000193          	li	gp,0
80003bbc:	44b190e3          	bne	gp,a1,800047fc <bad_trap>

80003bc0 <inst_562>:
80003bc0:	66666537          	lui	a0,0x66666
80003bc4:	66750513          	addi	a0,a0,1639 # 66666667 <absimm+0x21374138>
80003bc8:	03f53593          	sltiu	a1,a0,63
80003bcc:	08b12023          	sw	a1,128(sp)
80003bd0:	00000193          	li	gp,0
80003bd4:	42b194e3          	bne	gp,a1,800047fc <bad_trap>

80003bd8 <inst_563>:
80003bd8:	66666537          	lui	a0,0x66666
80003bdc:	66750513          	addi	a0,a0,1639 # 66666667 <absimm+0x21374138>
80003be0:	00253593          	sltiu	a1,a0,2
80003be4:	08b12223          	sw	a1,132(sp)
80003be8:	00000193          	li	gp,0
80003bec:	40b198e3          	bne	gp,a1,800047fc <bad_trap>

80003bf0 <inst_564>:
80003bf0:	66666537          	lui	a0,0x66666
80003bf4:	66750513          	addi	a0,a0,1639 # 66666667 <absimm+0x21374138>
80003bf8:	55453593          	sltiu	a1,a0,1364
80003bfc:	08b12423          	sw	a1,136(sp)
80003c00:	00000193          	li	gp,0
80003c04:	3eb19ce3          	bne	gp,a1,800047fc <bad_trap>

80003c08 <inst_565>:
80003c08:	66666537          	lui	a0,0x66666
80003c0c:	66750513          	addi	a0,a0,1639 # 66666667 <absimm+0x21374138>
80003c10:	aa953593          	sltiu	a1,a0,-1367
80003c14:	08b12623          	sw	a1,140(sp)
80003c18:	00100193          	li	gp,1
80003c1c:	3eb190e3          	bne	gp,a1,800047fc <bad_trap>

80003c20 <inst_566>:
80003c20:	66666537          	lui	a0,0x66666
80003c24:	66750513          	addi	a0,a0,1639 # 66666667 <absimm+0x21374138>
80003c28:	00453593          	sltiu	a1,a0,4
80003c2c:	08b12823          	sw	a1,144(sp)
80003c30:	00000193          	li	gp,0
80003c34:	3cb194e3          	bne	gp,a1,800047fc <bad_trap>

80003c38 <inst_567>:
80003c38:	66666537          	lui	a0,0x66666
80003c3c:	66750513          	addi	a0,a0,1639 # 66666667 <absimm+0x21374138>
80003c40:	33253593          	sltiu	a1,a0,818
80003c44:	08b12a23          	sw	a1,148(sp)
80003c48:	00000193          	li	gp,0
80003c4c:	3ab198e3          	bne	gp,a1,800047fc <bad_trap>

80003c50 <inst_568>:
80003c50:	66666537          	lui	a0,0x66666
80003c54:	66750513          	addi	a0,a0,1639 # 66666667 <absimm+0x21374138>
80003c58:	66553593          	sltiu	a1,a0,1637
80003c5c:	08b12c23          	sw	a1,152(sp)
80003c60:	00000193          	li	gp,0
80003c64:	38b19ce3          	bne	gp,a1,800047fc <bad_trap>

80003c68 <inst_569>:
80003c68:	66666537          	lui	a0,0x66666
80003c6c:	66750513          	addi	a0,a0,1639 # 66666667 <absimm+0x21374138>
80003c70:	02c53593          	sltiu	a1,a0,44
80003c74:	08b12e23          	sw	a1,156(sp)
80003c78:	00000193          	li	gp,0
80003c7c:	38b190e3          	bne	gp,a1,800047fc <bad_trap>

80003c80 <inst_570>:
80003c80:	66666537          	lui	a0,0x66666
80003c84:	66750513          	addi	a0,a0,1639 # 66666667 <absimm+0x21374138>
80003c88:	03e53593          	sltiu	a1,a0,62
80003c8c:	0ab12023          	sw	a1,160(sp)
80003c90:	00000193          	li	gp,0
80003c94:	36b194e3          	bne	gp,a1,800047fc <bad_trap>

80003c98 <inst_571>:
80003c98:	00010537          	lui	a0,0x10
80003c9c:	ffe50513          	addi	a0,a0,-2 # fffe <offset+0xfd5a>
80003ca0:	66653593          	sltiu	a1,a0,1638
80003ca4:	0ab12223          	sw	a1,164(sp)
80003ca8:	00000193          	li	gp,0
80003cac:	34b198e3          	bne	gp,a1,800047fc <bad_trap>

80003cb0 <inst_572>:
80003cb0:	66666537          	lui	a0,0x66666
80003cb4:	66750513          	addi	a0,a0,1639 # 66666667 <absimm+0x21374138>
80003cb8:	55653593          	sltiu	a1,a0,1366
80003cbc:	0ab12423          	sw	a1,168(sp)
80003cc0:	00000193          	li	gp,0
80003cc4:	32b19ce3          	bne	gp,a1,800047fc <bad_trap>

80003cc8 <inst_573>:
80003cc8:	66666537          	lui	a0,0x66666
80003ccc:	66750513          	addi	a0,a0,1639 # 66666667 <absimm+0x21374138>
80003cd0:	aab53593          	sltiu	a1,a0,-1365
80003cd4:	0ab12623          	sw	a1,172(sp)
80003cd8:	00100193          	li	gp,1
80003cdc:	32b190e3          	bne	gp,a1,800047fc <bad_trap>

80003ce0 <inst_574>:
80003ce0:	66666537          	lui	a0,0x66666
80003ce4:	66750513          	addi	a0,a0,1639 # 66666667 <absimm+0x21374138>
80003ce8:	00653593          	sltiu	a1,a0,6
80003cec:	0ab12823          	sw	a1,176(sp)
80003cf0:	00000193          	li	gp,0
80003cf4:	30b194e3          	bne	gp,a1,800047fc <bad_trap>

80003cf8 <inst_575>:
80003cf8:	66666537          	lui	a0,0x66666
80003cfc:	66750513          	addi	a0,a0,1639 # 66666667 <absimm+0x21374138>
80003d00:	33453593          	sltiu	a1,a0,820
80003d04:	0ab12a23          	sw	a1,180(sp)
80003d08:	00000193          	li	gp,0
80003d0c:	2eb198e3          	bne	gp,a1,800047fc <bad_trap>

80003d10 <inst_576>:
80003d10:	66666537          	lui	a0,0x66666
80003d14:	66750513          	addi	a0,a0,1639 # 66666667 <absimm+0x21374138>
80003d18:	66753593          	sltiu	a1,a0,1639
80003d1c:	0ab12c23          	sw	a1,184(sp)
80003d20:	00000193          	li	gp,0
80003d24:	2cb19ce3          	bne	gp,a1,800047fc <bad_trap>

80003d28 <inst_577>:
80003d28:	66666537          	lui	a0,0x66666
80003d2c:	66750513          	addi	a0,a0,1639 # 66666667 <absimm+0x21374138>
80003d30:	02e53593          	sltiu	a1,a0,46
80003d34:	0ab12e23          	sw	a1,188(sp)
80003d38:	00000193          	li	gp,0
80003d3c:	2cb190e3          	bne	gp,a1,800047fc <bad_trap>

80003d40 <inst_578>:
80003d40:	66666537          	lui	a0,0x66666
80003d44:	66750513          	addi	a0,a0,1639 # 66666667 <absimm+0x21374138>
80003d48:	00153593          	seqz	a1,a0
80003d4c:	0cb12023          	sw	a1,192(sp)
80003d50:	00000193          	li	gp,0
80003d54:	2ab194e3          	bne	gp,a1,800047fc <bad_trap>

80003d58 <inst_579>:
80003d58:	66666537          	lui	a0,0x66666
80003d5c:	66750513          	addi	a0,a0,1639 # 66666667 <absimm+0x21374138>
80003d60:	04053593          	sltiu	a1,a0,64
80003d64:	0cb12223          	sw	a1,196(sp)
80003d68:	00000193          	li	gp,0
80003d6c:	28b198e3          	bne	gp,a1,800047fc <bad_trap>

80003d70 <inst_580>:
80003d70:	0000b537          	lui	a0,0xb
80003d74:	50550513          	addi	a0,a0,1285 # b505 <offset+0xb261>
80003d78:	00353593          	sltiu	a1,a0,3
80003d7c:	0cb12423          	sw	a1,200(sp)
80003d80:	00000193          	li	gp,0
80003d84:	26b19ce3          	bne	gp,a1,800047fc <bad_trap>

80003d88 <inst_581>:
80003d88:	0000b537          	lui	a0,0xb
80003d8c:	50550513          	addi	a0,a0,1285 # b505 <offset+0xb261>
80003d90:	55553593          	sltiu	a1,a0,1365
80003d94:	0cb12623          	sw	a1,204(sp)
80003d98:	00000193          	li	gp,0
80003d9c:	26b190e3          	bne	gp,a1,800047fc <bad_trap>

80003da0 <inst_582>:
80003da0:	0000b537          	lui	a0,0xb
80003da4:	50550513          	addi	a0,a0,1285 # b505 <offset+0xb261>
80003da8:	aaa53593          	sltiu	a1,a0,-1366
80003dac:	0cb12823          	sw	a1,208(sp)
80003db0:	00100193          	li	gp,1
80003db4:	24b194e3          	bne	gp,a1,800047fc <bad_trap>

80003db8 <inst_583>:
80003db8:	0000b537          	lui	a0,0xb
80003dbc:	50550513          	addi	a0,a0,1285 # b505 <offset+0xb261>
80003dc0:	00553593          	sltiu	a1,a0,5
80003dc4:	0cb12a23          	sw	a1,212(sp)
80003dc8:	00000193          	li	gp,0
80003dcc:	22b198e3          	bne	gp,a1,800047fc <bad_trap>

80003dd0 <inst_584>:
80003dd0:	0000b537          	lui	a0,0xb
80003dd4:	50550513          	addi	a0,a0,1285 # b505 <offset+0xb261>
80003dd8:	33353593          	sltiu	a1,a0,819
80003ddc:	0cb12c23          	sw	a1,216(sp)
80003de0:	00000193          	li	gp,0
80003de4:	20b19ce3          	bne	gp,a1,800047fc <bad_trap>

80003de8 <inst_585>:
80003de8:	0000b537          	lui	a0,0xb
80003dec:	50550513          	addi	a0,a0,1285 # b505 <offset+0xb261>
80003df0:	66653593          	sltiu	a1,a0,1638
80003df4:	0cb12e23          	sw	a1,220(sp)
80003df8:	00000193          	li	gp,0
80003dfc:	20b190e3          	bne	gp,a1,800047fc <bad_trap>

80003e00 <inst_586>:
80003e00:	0000b537          	lui	a0,0xb
80003e04:	50550513          	addi	a0,a0,1285 # b505 <offset+0xb261>
80003e08:	02d53593          	sltiu	a1,a0,45
80003e0c:	0eb12023          	sw	a1,224(sp)
80003e10:	00000193          	li	gp,0
80003e14:	1eb194e3          	bne	gp,a1,800047fc <bad_trap>

80003e18 <inst_587>:
80003e18:	0000b537          	lui	a0,0xb
80003e1c:	50550513          	addi	a0,a0,1285 # b505 <offset+0xb261>
80003e20:	00053593          	sltiu	a1,a0,0
80003e24:	0eb12223          	sw	a1,228(sp)
80003e28:	00000193          	li	gp,0
80003e2c:	1cb198e3          	bne	gp,a1,800047fc <bad_trap>

80003e30 <inst_588>:
80003e30:	0000b537          	lui	a0,0xb
80003e34:	50550513          	addi	a0,a0,1285 # b505 <offset+0xb261>
80003e38:	03f53593          	sltiu	a1,a0,63
80003e3c:	0eb12423          	sw	a1,232(sp)
80003e40:	00000193          	li	gp,0
80003e44:	1ab19ce3          	bne	gp,a1,800047fc <bad_trap>

80003e48 <inst_589>:
80003e48:	0000b537          	lui	a0,0xb
80003e4c:	50550513          	addi	a0,a0,1285 # b505 <offset+0xb261>
80003e50:	00253593          	sltiu	a1,a0,2
80003e54:	0eb12623          	sw	a1,236(sp)
80003e58:	00000193          	li	gp,0
80003e5c:	1ab190e3          	bne	gp,a1,800047fc <bad_trap>

80003e60 <inst_590>:
80003e60:	0000b537          	lui	a0,0xb
80003e64:	50550513          	addi	a0,a0,1285 # b505 <offset+0xb261>
80003e68:	55453593          	sltiu	a1,a0,1364
80003e6c:	0eb12823          	sw	a1,240(sp)
80003e70:	00000193          	li	gp,0
80003e74:	18b194e3          	bne	gp,a1,800047fc <bad_trap>

80003e78 <inst_591>:
80003e78:	0000b537          	lui	a0,0xb
80003e7c:	50550513          	addi	a0,a0,1285 # b505 <offset+0xb261>
80003e80:	aa953593          	sltiu	a1,a0,-1367
80003e84:	0eb12a23          	sw	a1,244(sp)
80003e88:	00100193          	li	gp,1
80003e8c:	16b198e3          	bne	gp,a1,800047fc <bad_trap>

80003e90 <inst_592>:
80003e90:	0000b537          	lui	a0,0xb
80003e94:	50550513          	addi	a0,a0,1285 # b505 <offset+0xb261>
80003e98:	00453593          	sltiu	a1,a0,4
80003e9c:	0eb12c23          	sw	a1,248(sp)
80003ea0:	00000193          	li	gp,0
80003ea4:	14b19ce3          	bne	gp,a1,800047fc <bad_trap>

80003ea8 <inst_593>:
80003ea8:	0000b537          	lui	a0,0xb
80003eac:	50550513          	addi	a0,a0,1285 # b505 <offset+0xb261>
80003eb0:	33253593          	sltiu	a1,a0,818
80003eb4:	0eb12e23          	sw	a1,252(sp)
80003eb8:	00000193          	li	gp,0
80003ebc:	14b190e3          	bne	gp,a1,800047fc <bad_trap>

80003ec0 <inst_594>:
80003ec0:	0000b537          	lui	a0,0xb
80003ec4:	50550513          	addi	a0,a0,1285 # b505 <offset+0xb261>
80003ec8:	66553593          	sltiu	a1,a0,1637
80003ecc:	10b12023          	sw	a1,256(sp)
80003ed0:	00000193          	li	gp,0
80003ed4:	12b194e3          	bne	gp,a1,800047fc <bad_trap>

80003ed8 <inst_595>:
80003ed8:	0000b537          	lui	a0,0xb
80003edc:	50550513          	addi	a0,a0,1285 # b505 <offset+0xb261>
80003ee0:	02c53593          	sltiu	a1,a0,44
80003ee4:	10b12223          	sw	a1,260(sp)
80003ee8:	00000193          	li	gp,0
80003eec:	10b198e3          	bne	gp,a1,800047fc <bad_trap>

80003ef0 <inst_596>:
80003ef0:	0000b537          	lui	a0,0xb
80003ef4:	50550513          	addi	a0,a0,1285 # b505 <offset+0xb261>
80003ef8:	03e53593          	sltiu	a1,a0,62
80003efc:	10b12423          	sw	a1,264(sp)
80003f00:	00000193          	li	gp,0
80003f04:	0eb19ce3          	bne	gp,a1,800047fc <bad_trap>

80003f08 <inst_597>:
80003f08:	0000b537          	lui	a0,0xb
80003f0c:	50550513          	addi	a0,a0,1285 # b505 <offset+0xb261>
80003f10:	55653593          	sltiu	a1,a0,1366
80003f14:	10b12623          	sw	a1,268(sp)
80003f18:	00000193          	li	gp,0
80003f1c:	0eb190e3          	bne	gp,a1,800047fc <bad_trap>

80003f20 <inst_598>:
80003f20:	0000b537          	lui	a0,0xb
80003f24:	50550513          	addi	a0,a0,1285 # b505 <offset+0xb261>
80003f28:	aab53593          	sltiu	a1,a0,-1365
80003f2c:	10b12823          	sw	a1,272(sp)
80003f30:	00100193          	li	gp,1
80003f34:	0cb194e3          	bne	gp,a1,800047fc <bad_trap>

80003f38 <inst_599>:
80003f38:	0000b537          	lui	a0,0xb
80003f3c:	50550513          	addi	a0,a0,1285 # b505 <offset+0xb261>
80003f40:	00653593          	sltiu	a1,a0,6
80003f44:	10b12a23          	sw	a1,276(sp)
80003f48:	00000193          	li	gp,0
80003f4c:	0ab198e3          	bne	gp,a1,800047fc <bad_trap>

80003f50 <inst_600>:
80003f50:	0000b537          	lui	a0,0xb
80003f54:	50550513          	addi	a0,a0,1285 # b505 <offset+0xb261>
80003f58:	33453593          	sltiu	a1,a0,820
80003f5c:	10b12c23          	sw	a1,280(sp)
80003f60:	00000193          	li	gp,0
80003f64:	08b19ce3          	bne	gp,a1,800047fc <bad_trap>

80003f68 <inst_601>:
80003f68:	0000b537          	lui	a0,0xb
80003f6c:	50550513          	addi	a0,a0,1285 # b505 <offset+0xb261>
80003f70:	66753593          	sltiu	a1,a0,1639
80003f74:	10b12e23          	sw	a1,284(sp)
80003f78:	00000193          	li	gp,0
80003f7c:	08b190e3          	bne	gp,a1,800047fc <bad_trap>

80003f80 <inst_602>:
80003f80:	0000b537          	lui	a0,0xb
80003f84:	50550513          	addi	a0,a0,1285 # b505 <offset+0xb261>
80003f88:	02e53593          	sltiu	a1,a0,46
80003f8c:	12b12023          	sw	a1,288(sp)
80003f90:	00000193          	li	gp,0
80003f94:	06b194e3          	bne	gp,a1,800047fc <bad_trap>

80003f98 <inst_603>:
80003f98:	0000b537          	lui	a0,0xb
80003f9c:	50550513          	addi	a0,a0,1285 # b505 <offset+0xb261>
80003fa0:	00153593          	seqz	a1,a0
80003fa4:	12b12223          	sw	a1,292(sp)
80003fa8:	00000193          	li	gp,0
80003fac:	04b198e3          	bne	gp,a1,800047fc <bad_trap>

80003fb0 <inst_604>:
80003fb0:	0000b537          	lui	a0,0xb
80003fb4:	50550513          	addi	a0,a0,1285 # b505 <offset+0xb261>
80003fb8:	04053593          	sltiu	a1,a0,64
80003fbc:	12b12423          	sw	a1,296(sp)
80003fc0:	00000193          	li	gp,0
80003fc4:	02b19ce3          	bne	gp,a1,800047fc <bad_trap>

80003fc8 <inst_605>:
80003fc8:	00100513          	li	a0,1
80003fcc:	00353593          	sltiu	a1,a0,3
80003fd0:	12b12623          	sw	a1,300(sp)
80003fd4:	00100193          	li	gp,1
80003fd8:	02b192e3          	bne	gp,a1,800047fc <bad_trap>

80003fdc <inst_606>:
80003fdc:	00100513          	li	a0,1
80003fe0:	55553593          	sltiu	a1,a0,1365
80003fe4:	12b12823          	sw	a1,304(sp)
80003fe8:	00100193          	li	gp,1
80003fec:	00b198e3          	bne	gp,a1,800047fc <bad_trap>

80003ff0 <inst_607>:
80003ff0:	00100513          	li	a0,1
80003ff4:	aaa53593          	sltiu	a1,a0,-1366
80003ff8:	12b12a23          	sw	a1,308(sp)
80003ffc:	00100193          	li	gp,1
80004000:	7eb19e63          	bne	gp,a1,800047fc <bad_trap>

80004004 <inst_608>:
80004004:	00100513          	li	a0,1
80004008:	00553593          	sltiu	a1,a0,5
8000400c:	12b12c23          	sw	a1,312(sp)
80004010:	00100193          	li	gp,1
80004014:	7eb19463          	bne	gp,a1,800047fc <bad_trap>

80004018 <inst_609>:
80004018:	00100513          	li	a0,1
8000401c:	33353593          	sltiu	a1,a0,819
80004020:	12b12e23          	sw	a1,316(sp)
80004024:	00100193          	li	gp,1
80004028:	7cb19a63          	bne	gp,a1,800047fc <bad_trap>

8000402c <inst_610>:
8000402c:	00100513          	li	a0,1
80004030:	66653593          	sltiu	a1,a0,1638
80004034:	14b12023          	sw	a1,320(sp)
80004038:	00100193          	li	gp,1
8000403c:	7cb19063          	bne	gp,a1,800047fc <bad_trap>

80004040 <inst_611>:
80004040:	00100513          	li	a0,1
80004044:	02d53593          	sltiu	a1,a0,45
80004048:	14b12223          	sw	a1,324(sp)
8000404c:	00100193          	li	gp,1
80004050:	7ab19663          	bne	gp,a1,800047fc <bad_trap>

80004054 <inst_612>:
80004054:	00100513          	li	a0,1
80004058:	03f53593          	sltiu	a1,a0,63
8000405c:	14b12423          	sw	a1,328(sp)
80004060:	00100193          	li	gp,1
80004064:	78b19c63          	bne	gp,a1,800047fc <bad_trap>

80004068 <inst_613>:
80004068:	00100513          	li	a0,1
8000406c:	00253593          	sltiu	a1,a0,2
80004070:	14b12623          	sw	a1,332(sp)
80004074:	00100193          	li	gp,1
80004078:	78b19263          	bne	gp,a1,800047fc <bad_trap>

8000407c <inst_614>:
8000407c:	00100513          	li	a0,1
80004080:	55453593          	sltiu	a1,a0,1364
80004084:	14b12823          	sw	a1,336(sp)
80004088:	00100193          	li	gp,1
8000408c:	76b19863          	bne	gp,a1,800047fc <bad_trap>

80004090 <inst_615>:
80004090:	00100513          	li	a0,1
80004094:	aa953593          	sltiu	a1,a0,-1367
80004098:	14b12a23          	sw	a1,340(sp)
8000409c:	00100193          	li	gp,1
800040a0:	74b19e63          	bne	gp,a1,800047fc <bad_trap>

800040a4 <inst_616>:
800040a4:	00100513          	li	a0,1
800040a8:	00453593          	sltiu	a1,a0,4
800040ac:	14b12c23          	sw	a1,344(sp)
800040b0:	00100193          	li	gp,1
800040b4:	74b19463          	bne	gp,a1,800047fc <bad_trap>

800040b8 <inst_617>:
800040b8:	00100513          	li	a0,1
800040bc:	33253593          	sltiu	a1,a0,818
800040c0:	14b12e23          	sw	a1,348(sp)
800040c4:	00100193          	li	gp,1
800040c8:	72b19a63          	bne	gp,a1,800047fc <bad_trap>

800040cc <inst_618>:
800040cc:	00100513          	li	a0,1
800040d0:	66553593          	sltiu	a1,a0,1637
800040d4:	16b12023          	sw	a1,352(sp)
800040d8:	00100193          	li	gp,1
800040dc:	72b19063          	bne	gp,a1,800047fc <bad_trap>

800040e0 <inst_619>:
800040e0:	00100513          	li	a0,1
800040e4:	02c53593          	sltiu	a1,a0,44
800040e8:	16b12223          	sw	a1,356(sp)
800040ec:	00100193          	li	gp,1
800040f0:	70b19663          	bne	gp,a1,800047fc <bad_trap>

800040f4 <inst_620>:
800040f4:	00100513          	li	a0,1
800040f8:	03e53593          	sltiu	a1,a0,62
800040fc:	16b12423          	sw	a1,360(sp)
80004100:	00100193          	li	gp,1
80004104:	6eb19c63          	bne	gp,a1,800047fc <bad_trap>

80004108 <inst_621>:
80004108:	00100513          	li	a0,1
8000410c:	55653593          	sltiu	a1,a0,1366
80004110:	16b12623          	sw	a1,364(sp)
80004114:	00100193          	li	gp,1
80004118:	6eb19263          	bne	gp,a1,800047fc <bad_trap>

8000411c <inst_622>:
8000411c:	00100513          	li	a0,1
80004120:	aab53593          	sltiu	a1,a0,-1365
80004124:	16b12823          	sw	a1,368(sp)
80004128:	00100193          	li	gp,1
8000412c:	6cb19863          	bne	gp,a1,800047fc <bad_trap>

80004130 <inst_623>:
80004130:	00100513          	li	a0,1
80004134:	00653593          	sltiu	a1,a0,6
80004138:	16b12a23          	sw	a1,372(sp)
8000413c:	00100193          	li	gp,1
80004140:	6ab19e63          	bne	gp,a1,800047fc <bad_trap>

80004144 <inst_624>:
80004144:	00100513          	li	a0,1
80004148:	33453593          	sltiu	a1,a0,820
8000414c:	16b12c23          	sw	a1,376(sp)
80004150:	00100193          	li	gp,1
80004154:	6ab19463          	bne	gp,a1,800047fc <bad_trap>

80004158 <inst_625>:
80004158:	00100513          	li	a0,1
8000415c:	66753593          	sltiu	a1,a0,1639
80004160:	16b12e23          	sw	a1,380(sp)
80004164:	00100193          	li	gp,1
80004168:	68b19a63          	bne	gp,a1,800047fc <bad_trap>

8000416c <inst_626>:
8000416c:	00100513          	li	a0,1
80004170:	02e53593          	sltiu	a1,a0,46
80004174:	18b12023          	sw	a1,384(sp)
80004178:	00100193          	li	gp,1
8000417c:	68b19063          	bne	gp,a1,800047fc <bad_trap>

80004180 <inst_627>:
80004180:	00100513          	li	a0,1
80004184:	00153593          	seqz	a1,a0
80004188:	18b12223          	sw	a1,388(sp)
8000418c:	00000193          	li	gp,0
80004190:	66b19663          	bne	gp,a1,800047fc <bad_trap>

80004194 <inst_628>:
80004194:	00100513          	li	a0,1
80004198:	04053593          	sltiu	a1,a0,64
8000419c:	18b12423          	sw	a1,392(sp)
800041a0:	00100193          	li	gp,1
800041a4:	64b19c63          	bne	gp,a1,800047fc <bad_trap>

800041a8 <inst_629>:
800041a8:	00010537          	lui	a0,0x10
800041ac:	00353593          	sltiu	a1,a0,3
800041b0:	18b12623          	sw	a1,396(sp)
800041b4:	00000193          	li	gp,0
800041b8:	64b19263          	bne	gp,a1,800047fc <bad_trap>

800041bc <inst_630>:
800041bc:	00010537          	lui	a0,0x10
800041c0:	55553593          	sltiu	a1,a0,1365
800041c4:	18b12823          	sw	a1,400(sp)
800041c8:	00000193          	li	gp,0
800041cc:	62b19863          	bne	gp,a1,800047fc <bad_trap>

800041d0 <inst_631>:
800041d0:	00010537          	lui	a0,0x10
800041d4:	aaa53593          	sltiu	a1,a0,-1366
800041d8:	18b12a23          	sw	a1,404(sp)
800041dc:	00100193          	li	gp,1
800041e0:	60b19e63          	bne	gp,a1,800047fc <bad_trap>

800041e4 <inst_632>:
800041e4:	00010537          	lui	a0,0x10
800041e8:	33353593          	sltiu	a1,a0,819
800041ec:	18b12c23          	sw	a1,408(sp)
800041f0:	00000193          	li	gp,0
800041f4:	60b19463          	bne	gp,a1,800047fc <bad_trap>

800041f8 <inst_633>:
800041f8:	00010537          	lui	a0,0x10
800041fc:	66653593          	sltiu	a1,a0,1638
80004200:	18b12e23          	sw	a1,412(sp)
80004204:	00000193          	li	gp,0
80004208:	5eb19a63          	bne	gp,a1,800047fc <bad_trap>

8000420c <inst_634>:
8000420c:	00010537          	lui	a0,0x10
80004210:	02d53593          	sltiu	a1,a0,45
80004214:	1ab12023          	sw	a1,416(sp)
80004218:	00000193          	li	gp,0
8000421c:	5eb19063          	bne	gp,a1,800047fc <bad_trap>

80004220 <inst_635>:
80004220:	00010537          	lui	a0,0x10
80004224:	00053593          	sltiu	a1,a0,0
80004228:	1ab12223          	sw	a1,420(sp)
8000422c:	00000193          	li	gp,0
80004230:	5cb19663          	bne	gp,a1,800047fc <bad_trap>

80004234 <inst_636>:
80004234:	00010537          	lui	a0,0x10
80004238:	03f53593          	sltiu	a1,a0,63
8000423c:	1ab12423          	sw	a1,424(sp)
80004240:	00000193          	li	gp,0
80004244:	5ab19c63          	bne	gp,a1,800047fc <bad_trap>

80004248 <inst_637>:
80004248:	00010537          	lui	a0,0x10
8000424c:	00253593          	sltiu	a1,a0,2
80004250:	1ab12623          	sw	a1,428(sp)
80004254:	00000193          	li	gp,0
80004258:	5ab19263          	bne	gp,a1,800047fc <bad_trap>

8000425c <inst_638>:
8000425c:	00010537          	lui	a0,0x10
80004260:	55453593          	sltiu	a1,a0,1364
80004264:	1ab12823          	sw	a1,432(sp)
80004268:	00000193          	li	gp,0
8000426c:	58b19863          	bne	gp,a1,800047fc <bad_trap>

80004270 <inst_639>:
80004270:	00010537          	lui	a0,0x10
80004274:	aa953593          	sltiu	a1,a0,-1367
80004278:	1ab12a23          	sw	a1,436(sp)
8000427c:	00100193          	li	gp,1
80004280:	56b19e63          	bne	gp,a1,800047fc <bad_trap>

80004284 <inst_640>:
80004284:	00010537          	lui	a0,0x10
80004288:	00453593          	sltiu	a1,a0,4
8000428c:	1ab12c23          	sw	a1,440(sp)
80004290:	00000193          	li	gp,0
80004294:	56b19463          	bne	gp,a1,800047fc <bad_trap>

80004298 <inst_641>:
80004298:	00010537          	lui	a0,0x10
8000429c:	33253593          	sltiu	a1,a0,818
800042a0:	1ab12e23          	sw	a1,444(sp)
800042a4:	00000193          	li	gp,0
800042a8:	54b19a63          	bne	gp,a1,800047fc <bad_trap>

800042ac <inst_642>:
800042ac:	00010537          	lui	a0,0x10
800042b0:	66553593          	sltiu	a1,a0,1637
800042b4:	1cb12023          	sw	a1,448(sp)
800042b8:	00000193          	li	gp,0
800042bc:	54b19063          	bne	gp,a1,800047fc <bad_trap>

800042c0 <inst_643>:
800042c0:	00010537          	lui	a0,0x10
800042c4:	02c53593          	sltiu	a1,a0,44
800042c8:	1cb12223          	sw	a1,452(sp)
800042cc:	00000193          	li	gp,0
800042d0:	52b19663          	bne	gp,a1,800047fc <bad_trap>

800042d4 <inst_644>:
800042d4:	00010537          	lui	a0,0x10
800042d8:	03e53593          	sltiu	a1,a0,62
800042dc:	1cb12423          	sw	a1,456(sp)
800042e0:	00000193          	li	gp,0
800042e4:	50b19c63          	bne	gp,a1,800047fc <bad_trap>

800042e8 <inst_645>:
800042e8:	00010537          	lui	a0,0x10
800042ec:	55653593          	sltiu	a1,a0,1366
800042f0:	1cb12623          	sw	a1,460(sp)
800042f4:	00000193          	li	gp,0
800042f8:	50b19263          	bne	gp,a1,800047fc <bad_trap>

800042fc <inst_646>:
800042fc:	00010537          	lui	a0,0x10
80004300:	aab53593          	sltiu	a1,a0,-1365
80004304:	1cb12823          	sw	a1,464(sp)
80004308:	00100193          	li	gp,1
8000430c:	4eb19863          	bne	gp,a1,800047fc <bad_trap>

80004310 <inst_647>:
80004310:	00010537          	lui	a0,0x10
80004314:	00653593          	sltiu	a1,a0,6
80004318:	1cb12a23          	sw	a1,468(sp)
8000431c:	00000193          	li	gp,0
80004320:	4cb19e63          	bne	gp,a1,800047fc <bad_trap>

80004324 <inst_648>:
80004324:	00010537          	lui	a0,0x10
80004328:	33453593          	sltiu	a1,a0,820
8000432c:	1cb12c23          	sw	a1,472(sp)
80004330:	00000193          	li	gp,0
80004334:	4cb19463          	bne	gp,a1,800047fc <bad_trap>

80004338 <inst_649>:
80004338:	00010537          	lui	a0,0x10
8000433c:	66753593          	sltiu	a1,a0,1639
80004340:	1cb12e23          	sw	a1,476(sp)
80004344:	00000193          	li	gp,0
80004348:	4ab19a63          	bne	gp,a1,800047fc <bad_trap>

8000434c <inst_650>:
8000434c:	00010537          	lui	a0,0x10
80004350:	02e53593          	sltiu	a1,a0,46
80004354:	1eb12023          	sw	a1,480(sp)
80004358:	00000193          	li	gp,0
8000435c:	4ab19063          	bne	gp,a1,800047fc <bad_trap>

80004360 <inst_651>:
80004360:	00010537          	lui	a0,0x10
80004364:	00153593          	seqz	a1,a0
80004368:	1eb12223          	sw	a1,484(sp)
8000436c:	00000193          	li	gp,0
80004370:	48b19663          	bne	gp,a1,800047fc <bad_trap>

80004374 <inst_652>:
80004374:	00010537          	lui	a0,0x10
80004378:	04053593          	sltiu	a1,a0,64
8000437c:	1eb12423          	sw	a1,488(sp)
80004380:	00000193          	li	gp,0
80004384:	46b19c63          	bne	gp,a1,800047fc <bad_trap>

80004388 <inst_653>:
80004388:	66666537          	lui	a0,0x66666
8000438c:	66550513          	addi	a0,a0,1637 # 66666665 <absimm+0x21374136>
80004390:	aab53593          	sltiu	a1,a0,-1365
80004394:	1eb12623          	sw	a1,492(sp)
80004398:	00100193          	li	gp,1
8000439c:	46b19063          	bne	gp,a1,800047fc <bad_trap>

800043a0 <inst_654>:
800043a0:	66666537          	lui	a0,0x66666
800043a4:	66550513          	addi	a0,a0,1637 # 66666665 <absimm+0x21374136>
800043a8:	00653593          	sltiu	a1,a0,6
800043ac:	1eb12823          	sw	a1,496(sp)
800043b0:	00000193          	li	gp,0
800043b4:	44b19463          	bne	gp,a1,800047fc <bad_trap>

800043b8 <inst_655>:
800043b8:	66666537          	lui	a0,0x66666
800043bc:	66550513          	addi	a0,a0,1637 # 66666665 <absimm+0x21374136>
800043c0:	33453593          	sltiu	a1,a0,820
800043c4:	1eb12a23          	sw	a1,500(sp)
800043c8:	00000193          	li	gp,0
800043cc:	42b19863          	bne	gp,a1,800047fc <bad_trap>

800043d0 <inst_656>:
800043d0:	66666537          	lui	a0,0x66666
800043d4:	66550513          	addi	a0,a0,1637 # 66666665 <absimm+0x21374136>
800043d8:	66753593          	sltiu	a1,a0,1639
800043dc:	1eb12c23          	sw	a1,504(sp)
800043e0:	00000193          	li	gp,0
800043e4:	40b19c63          	bne	gp,a1,800047fc <bad_trap>

800043e8 <inst_657>:
800043e8:	66666537          	lui	a0,0x66666
800043ec:	66550513          	addi	a0,a0,1637 # 66666665 <absimm+0x21374136>
800043f0:	02e53593          	sltiu	a1,a0,46
800043f4:	1eb12e23          	sw	a1,508(sp)
800043f8:	00000193          	li	gp,0
800043fc:	40b19063          	bne	gp,a1,800047fc <bad_trap>

80004400 <inst_658>:
80004400:	66666537          	lui	a0,0x66666
80004404:	66550513          	addi	a0,a0,1637 # 66666665 <absimm+0x21374136>
80004408:	00153593          	seqz	a1,a0
8000440c:	20b12023          	sw	a1,512(sp)
80004410:	00000193          	li	gp,0
80004414:	3eb19463          	bne	gp,a1,800047fc <bad_trap>

80004418 <inst_659>:
80004418:	66666537          	lui	a0,0x66666
8000441c:	66550513          	addi	a0,a0,1637 # 66666665 <absimm+0x21374136>
80004420:	04053593          	sltiu	a1,a0,64
80004424:	20b12223          	sw	a1,516(sp)
80004428:	00000193          	li	gp,0
8000442c:	3cb19863          	bne	gp,a1,800047fc <bad_trap>

80004430 <inst_660>:
80004430:	0000b537          	lui	a0,0xb
80004434:	50350513          	addi	a0,a0,1283 # b503 <offset+0xb25f>
80004438:	00353593          	sltiu	a1,a0,3
8000443c:	20b12423          	sw	a1,520(sp)
80004440:	00000193          	li	gp,0
80004444:	3ab19c63          	bne	gp,a1,800047fc <bad_trap>

80004448 <inst_661>:
80004448:	0000b537          	lui	a0,0xb
8000444c:	50350513          	addi	a0,a0,1283 # b503 <offset+0xb25f>
80004450:	55553593          	sltiu	a1,a0,1365
80004454:	20b12623          	sw	a1,524(sp)
80004458:	00000193          	li	gp,0
8000445c:	3ab19063          	bne	gp,a1,800047fc <bad_trap>

80004460 <inst_662>:
80004460:	0000b537          	lui	a0,0xb
80004464:	50350513          	addi	a0,a0,1283 # b503 <offset+0xb25f>
80004468:	aaa53593          	sltiu	a1,a0,-1366
8000446c:	20b12823          	sw	a1,528(sp)
80004470:	00100193          	li	gp,1
80004474:	38b19463          	bne	gp,a1,800047fc <bad_trap>

80004478 <inst_663>:
80004478:	0000b537          	lui	a0,0xb
8000447c:	50350513          	addi	a0,a0,1283 # b503 <offset+0xb25f>
80004480:	00553593          	sltiu	a1,a0,5
80004484:	20b12a23          	sw	a1,532(sp)
80004488:	00000193          	li	gp,0
8000448c:	36b19863          	bne	gp,a1,800047fc <bad_trap>

80004490 <inst_664>:
80004490:	0000b537          	lui	a0,0xb
80004494:	50350513          	addi	a0,a0,1283 # b503 <offset+0xb25f>
80004498:	33353593          	sltiu	a1,a0,819
8000449c:	20b12c23          	sw	a1,536(sp)
800044a0:	00000193          	li	gp,0
800044a4:	34b19c63          	bne	gp,a1,800047fc <bad_trap>

800044a8 <inst_665>:
800044a8:	0000b537          	lui	a0,0xb
800044ac:	50350513          	addi	a0,a0,1283 # b503 <offset+0xb25f>
800044b0:	66653593          	sltiu	a1,a0,1638
800044b4:	20b12e23          	sw	a1,540(sp)
800044b8:	00000193          	li	gp,0
800044bc:	34b19063          	bne	gp,a1,800047fc <bad_trap>

800044c0 <inst_666>:
800044c0:	0000b537          	lui	a0,0xb
800044c4:	50350513          	addi	a0,a0,1283 # b503 <offset+0xb25f>
800044c8:	02d53593          	sltiu	a1,a0,45
800044cc:	22b12023          	sw	a1,544(sp)
800044d0:	00000193          	li	gp,0
800044d4:	32b19463          	bne	gp,a1,800047fc <bad_trap>

800044d8 <inst_667>:
800044d8:	0000b537          	lui	a0,0xb
800044dc:	50350513          	addi	a0,a0,1283 # b503 <offset+0xb25f>
800044e0:	00053593          	sltiu	a1,a0,0
800044e4:	22b12223          	sw	a1,548(sp)
800044e8:	00000193          	li	gp,0
800044ec:	30b19863          	bne	gp,a1,800047fc <bad_trap>

800044f0 <inst_668>:
800044f0:	0000b537          	lui	a0,0xb
800044f4:	50350513          	addi	a0,a0,1283 # b503 <offset+0xb25f>
800044f8:	03f53593          	sltiu	a1,a0,63
800044fc:	22b12423          	sw	a1,552(sp)
80004500:	00000193          	li	gp,0
80004504:	2eb19c63          	bne	gp,a1,800047fc <bad_trap>

80004508 <inst_669>:
80004508:	0000b537          	lui	a0,0xb
8000450c:	50350513          	addi	a0,a0,1283 # b503 <offset+0xb25f>
80004510:	00253593          	sltiu	a1,a0,2
80004514:	22b12623          	sw	a1,556(sp)
80004518:	00000193          	li	gp,0
8000451c:	2eb19063          	bne	gp,a1,800047fc <bad_trap>

80004520 <inst_670>:
80004520:	0000b537          	lui	a0,0xb
80004524:	50350513          	addi	a0,a0,1283 # b503 <offset+0xb25f>
80004528:	55453593          	sltiu	a1,a0,1364
8000452c:	22b12823          	sw	a1,560(sp)
80004530:	00000193          	li	gp,0
80004534:	2cb19463          	bne	gp,a1,800047fc <bad_trap>

80004538 <inst_671>:
80004538:	0000b537          	lui	a0,0xb
8000453c:	50350513          	addi	a0,a0,1283 # b503 <offset+0xb25f>
80004540:	aa953593          	sltiu	a1,a0,-1367
80004544:	22b12a23          	sw	a1,564(sp)
80004548:	00100193          	li	gp,1
8000454c:	2ab19863          	bne	gp,a1,800047fc <bad_trap>

80004550 <inst_672>:
80004550:	0000b537          	lui	a0,0xb
80004554:	50350513          	addi	a0,a0,1283 # b503 <offset+0xb25f>
80004558:	00453593          	sltiu	a1,a0,4
8000455c:	22b12c23          	sw	a1,568(sp)
80004560:	00000193          	li	gp,0
80004564:	28b19c63          	bne	gp,a1,800047fc <bad_trap>

80004568 <inst_673>:
80004568:	0000b537          	lui	a0,0xb
8000456c:	50350513          	addi	a0,a0,1283 # b503 <offset+0xb25f>
80004570:	33253593          	sltiu	a1,a0,818
80004574:	22b12e23          	sw	a1,572(sp)
80004578:	00000193          	li	gp,0
8000457c:	28b19063          	bne	gp,a1,800047fc <bad_trap>

80004580 <inst_674>:
80004580:	0000b537          	lui	a0,0xb
80004584:	50350513          	addi	a0,a0,1283 # b503 <offset+0xb25f>
80004588:	66553593          	sltiu	a1,a0,1637
8000458c:	24b12023          	sw	a1,576(sp)
80004590:	00000193          	li	gp,0
80004594:	26b19463          	bne	gp,a1,800047fc <bad_trap>

80004598 <inst_675>:
80004598:	0000b537          	lui	a0,0xb
8000459c:	50350513          	addi	a0,a0,1283 # b503 <offset+0xb25f>
800045a0:	02c53593          	sltiu	a1,a0,44
800045a4:	24b12223          	sw	a1,580(sp)
800045a8:	00000193          	li	gp,0
800045ac:	24b19863          	bne	gp,a1,800047fc <bad_trap>

800045b0 <inst_676>:
800045b0:	0000b537          	lui	a0,0xb
800045b4:	50350513          	addi	a0,a0,1283 # b503 <offset+0xb25f>
800045b8:	03e53593          	sltiu	a1,a0,62
800045bc:	24b12423          	sw	a1,584(sp)
800045c0:	00000193          	li	gp,0
800045c4:	22b19c63          	bne	gp,a1,800047fc <bad_trap>

800045c8 <inst_677>:
800045c8:	0000b537          	lui	a0,0xb
800045cc:	50350513          	addi	a0,a0,1283 # b503 <offset+0xb25f>
800045d0:	55653593          	sltiu	a1,a0,1366
800045d4:	24b12623          	sw	a1,588(sp)
800045d8:	00000193          	li	gp,0
800045dc:	22b19063          	bne	gp,a1,800047fc <bad_trap>

800045e0 <inst_678>:
800045e0:	0000b537          	lui	a0,0xb
800045e4:	50350513          	addi	a0,a0,1283 # b503 <offset+0xb25f>
800045e8:	aab53593          	sltiu	a1,a0,-1365
800045ec:	24b12823          	sw	a1,592(sp)
800045f0:	00100193          	li	gp,1
800045f4:	20b19463          	bne	gp,a1,800047fc <bad_trap>

800045f8 <inst_679>:
800045f8:	0000b537          	lui	a0,0xb
800045fc:	50350513          	addi	a0,a0,1283 # b503 <offset+0xb25f>
80004600:	00653593          	sltiu	a1,a0,6
80004604:	24b12a23          	sw	a1,596(sp)
80004608:	00000193          	li	gp,0
8000460c:	1eb19863          	bne	gp,a1,800047fc <bad_trap>

80004610 <inst_680>:
80004610:	0000b537          	lui	a0,0xb
80004614:	50350513          	addi	a0,a0,1283 # b503 <offset+0xb25f>
80004618:	33453593          	sltiu	a1,a0,820
8000461c:	24b12c23          	sw	a1,600(sp)
80004620:	00000193          	li	gp,0
80004624:	1cb19c63          	bne	gp,a1,800047fc <bad_trap>

80004628 <inst_681>:
80004628:	0000b537          	lui	a0,0xb
8000462c:	50350513          	addi	a0,a0,1283 # b503 <offset+0xb25f>
80004630:	66753593          	sltiu	a1,a0,1639
80004634:	24b12e23          	sw	a1,604(sp)
80004638:	00000193          	li	gp,0
8000463c:	1cb19063          	bne	gp,a1,800047fc <bad_trap>

80004640 <inst_682>:
80004640:	0000b537          	lui	a0,0xb
80004644:	50350513          	addi	a0,a0,1283 # b503 <offset+0xb25f>
80004648:	02e53593          	sltiu	a1,a0,46
8000464c:	26b12023          	sw	a1,608(sp)
80004650:	00000193          	li	gp,0
80004654:	1ab19463          	bne	gp,a1,800047fc <bad_trap>

80004658 <inst_683>:
80004658:	0000b537          	lui	a0,0xb
8000465c:	50350513          	addi	a0,a0,1283 # b503 <offset+0xb25f>
80004660:	00153593          	seqz	a1,a0
80004664:	26b12223          	sw	a1,612(sp)
80004668:	00000193          	li	gp,0
8000466c:	18b19863          	bne	gp,a1,800047fc <bad_trap>

80004670 <inst_684>:
80004670:	0000b537          	lui	a0,0xb
80004674:	50350513          	addi	a0,a0,1283 # b503 <offset+0xb25f>
80004678:	04053593          	sltiu	a1,a0,64
8000467c:	26b12423          	sw	a1,616(sp)
80004680:	00000193          	li	gp,0
80004684:	16b19c63          	bne	gp,a1,800047fc <bad_trap>

80004688 <inst_685>:
80004688:	00010537          	lui	a0,0x10
8000468c:	ffe50513          	addi	a0,a0,-2 # fffe <offset+0xfd5a>
80004690:	00353593          	sltiu	a1,a0,3
80004694:	26b12623          	sw	a1,620(sp)
80004698:	00000193          	li	gp,0
8000469c:	16b19063          	bne	gp,a1,800047fc <bad_trap>

800046a0 <inst_686>:
800046a0:	00010537          	lui	a0,0x10
800046a4:	ffe50513          	addi	a0,a0,-2 # fffe <offset+0xfd5a>
800046a8:	55553593          	sltiu	a1,a0,1365
800046ac:	26b12823          	sw	a1,624(sp)
800046b0:	00000193          	li	gp,0
800046b4:	14b19463          	bne	gp,a1,800047fc <bad_trap>

800046b8 <inst_687>:
800046b8:	00010537          	lui	a0,0x10
800046bc:	ffe50513          	addi	a0,a0,-2 # fffe <offset+0xfd5a>
800046c0:	aaa53593          	sltiu	a1,a0,-1366
800046c4:	26b12a23          	sw	a1,628(sp)
800046c8:	00100193          	li	gp,1
800046cc:	12b19863          	bne	gp,a1,800047fc <bad_trap>

800046d0 <inst_688>:
800046d0:	00010537          	lui	a0,0x10
800046d4:	ffe50513          	addi	a0,a0,-2 # fffe <offset+0xfd5a>
800046d8:	00553593          	sltiu	a1,a0,5
800046dc:	26b12c23          	sw	a1,632(sp)
800046e0:	00000193          	li	gp,0
800046e4:	10b19c63          	bne	gp,a1,800047fc <bad_trap>

800046e8 <inst_689>:
800046e8:	00010537          	lui	a0,0x10
800046ec:	ffe50513          	addi	a0,a0,-2 # fffe <offset+0xfd5a>
800046f0:	33353593          	sltiu	a1,a0,819
800046f4:	26b12e23          	sw	a1,636(sp)
800046f8:	00000193          	li	gp,0
800046fc:	10b19063          	bne	gp,a1,800047fc <bad_trap>

80004700 <inst_690>:
80004700:	00010537          	lui	a0,0x10
80004704:	ffe50513          	addi	a0,a0,-2 # fffe <offset+0xfd5a>
80004708:	02d53593          	sltiu	a1,a0,45
8000470c:	28b12023          	sw	a1,640(sp)
80004710:	00000193          	li	gp,0
80004714:	0eb19463          	bne	gp,a1,800047fc <bad_trap>

80004718 <inst_691>:
80004718:	00010537          	lui	a0,0x10
8000471c:	ffe50513          	addi	a0,a0,-2 # fffe <offset+0xfd5a>
80004720:	00053593          	sltiu	a1,a0,0
80004724:	28b12223          	sw	a1,644(sp)
80004728:	00000193          	li	gp,0
8000472c:	0cb19863          	bne	gp,a1,800047fc <bad_trap>

80004730 <inst_692>:
80004730:	00010537          	lui	a0,0x10
80004734:	ffe50513          	addi	a0,a0,-2 # fffe <offset+0xfd5a>
80004738:	03f53593          	sltiu	a1,a0,63
8000473c:	28b12423          	sw	a1,648(sp)
80004740:	00000193          	li	gp,0
80004744:	0ab19c63          	bne	gp,a1,800047fc <bad_trap>

80004748 <inst_693>:
80004748:	00010537          	lui	a0,0x10
8000474c:	ffe50513          	addi	a0,a0,-2 # fffe <offset+0xfd5a>
80004750:	00253593          	sltiu	a1,a0,2
80004754:	28b12623          	sw	a1,652(sp)
80004758:	00000193          	li	gp,0
8000475c:	0ab19063          	bne	gp,a1,800047fc <bad_trap>

80004760 <inst_694>:
80004760:	00010537          	lui	a0,0x10
80004764:	ffe50513          	addi	a0,a0,-2 # fffe <offset+0xfd5a>
80004768:	55453593          	sltiu	a1,a0,1364
8000476c:	28b12823          	sw	a1,656(sp)
80004770:	00000193          	li	gp,0
80004774:	08b19463          	bne	gp,a1,800047fc <bad_trap>

80004778 <inst_695>:
80004778:	00010537          	lui	a0,0x10
8000477c:	ffe50513          	addi	a0,a0,-2 # fffe <offset+0xfd5a>
80004780:	aa953593          	sltiu	a1,a0,-1367
80004784:	28b12a23          	sw	a1,660(sp)
80004788:	00100193          	li	gp,1
8000478c:	06b19863          	bne	gp,a1,800047fc <bad_trap>

80004790 <inst_696>:
80004790:	00010537          	lui	a0,0x10
80004794:	ffe50513          	addi	a0,a0,-2 # fffe <offset+0xfd5a>
80004798:	00453593          	sltiu	a1,a0,4
8000479c:	28b12c23          	sw	a1,664(sp)
800047a0:	00000193          	li	gp,0
800047a4:	04b19c63          	bne	gp,a1,800047fc <bad_trap>

800047a8 <inst_697>:
800047a8:	00010537          	lui	a0,0x10
800047ac:	ffe50513          	addi	a0,a0,-2 # fffe <offset+0xfd5a>
800047b0:	33253593          	sltiu	a1,a0,818
800047b4:	28b12e23          	sw	a1,668(sp)
800047b8:	00000193          	li	gp,0
800047bc:	04b19063          	bne	gp,a1,800047fc <bad_trap>

800047c0 <inst_698>:
800047c0:	01000513          	li	a0,16
800047c4:	ffe53593          	sltiu	a1,a0,-2
800047c8:	2ab12023          	sw	a1,672(sp)
800047cc:	00100193          	li	gp,1
800047d0:	02b19663          	bne	gp,a1,800047fc <bad_trap>

800047d4 <cleanup_epilogs>:
800047d4:	0200006f          	j	800047f4 <exit_cleanup>

800047d8 <abort_tests>:
800047d8:	17812483          	lw	s1,376(sp)
800047dc:	18012303          	lw	t1,384(sp)
800047e0:	00930333          	add	t1,t1,s1
800047e4:	bad0e337          	lui	t1,0xbad0e
800047e8:	ad030313          	addi	t1,t1,-1328 # bad0dad0 <imm12+0xbad0e000>
800047ec:	fe64ae23          	sw	t1,-4(s1) # 7ffffffc <imm12+0x8000052c>
800047f0:	0040006f          	j	800047f4 <exit_cleanup>

800047f4 <exit_cleanup>:
800047f4:	00000513          	li	a0,0
800047f8:	020000ef          	jal	ra,80004818 <halt>

800047fc <bad_trap>:
800047fc:	00100513          	li	a0,1
80004800:	018000ef          	jal	ra,80004818 <halt>
	...

80004818 <halt>:
80004818:	0000006f          	j	80004818 <halt>

8000481c <_trm_init>:
8000481c:	ff010113          	addi	sp,sp,-16
80004820:	00000517          	auipc	a0,0x0
80004824:	01450513          	addi	a0,a0,20 # 80004834 <_etext>
80004828:	00112623          	sw	ra,12(sp)
8000482c:	fe4fb0ef          	jal	ra,80000010 <main>
80004830:	0000006f          	j	80004830 <_trm_init+0x14>
