
test/sltu-riscv32-ni.elf:     file format elf32-littleriscv


Disassembly of section .text:

80000000 <_start>:
80000000:	00000413          	li	s0,0
80000004:	00018117          	auipc	sp,0x18
80000008:	ffc10113          	addi	sp,sp,-4 # 80018000 <_end>
8000000c:	559050ef          	jal	ra,80005d64 <_trm_init>

80000010 <main>:
80000010:	010000ef          	jal	ra,80000020 <rvtest_entry_point>
80000014:	00000513          	li	a0,0
80000018:	00008067          	ret
8000001c:	0000                	unimp
	...

80000020 <rvtest_entry_point>:
80000020:	7d5c0837          	lui	a6,0x7d5c0
80000024:	ddb80813          	addi	a6,a6,-549 # 7d5bfddb <absimm+0x382cd8ac>
80000028:	00785893          	srli	a7,a6,0x7
8000002c:	01985793          	srli	a5,a6,0x19
80000030:	00f8e8b3          	or	a7,a7,a5
80000034:	0078d913          	srli	s2,a7,0x7
80000038:	0198d793          	srli	a5,a7,0x19
8000003c:	00f96933          	or	s2,s2,a5
80000040:	00795993          	srli	s3,s2,0x7
80000044:	01995793          	srli	a5,s2,0x19
80000048:	00f9e9b3          	or	s3,s3,a5
8000004c:	0079da13          	srli	s4,s3,0x7
80000050:	0199d793          	srli	a5,s3,0x19
80000054:	00fa6a33          	or	s4,s4,a5
80000058:	007a5a93          	srli	s5,s4,0x7
8000005c:	019a5793          	srli	a5,s4,0x19
80000060:	00faeab3          	or	s5,s5,a5
80000064:	007adb13          	srli	s6,s5,0x7
80000068:	019ad793          	srli	a5,s5,0x19
8000006c:	00fb6b33          	or	s6,s6,a5
80000070:	007b5b93          	srli	s7,s6,0x7
80000074:	019b5793          	srli	a5,s6,0x19
80000078:	00fbebb3          	or	s7,s7,a5
8000007c:	007bdc13          	srli	s8,s7,0x7
80000080:	019bd793          	srli	a5,s7,0x19
80000084:	00fc6c33          	or	s8,s8,a5
80000088:	007c5c93          	srli	s9,s8,0x7
8000008c:	019c5793          	srli	a5,s8,0x19
80000090:	00fcecb3          	or	s9,s9,a5
80000094:	007cdd13          	srli	s10,s9,0x7
80000098:	019cd793          	srli	a5,s9,0x19
8000009c:	00fd6d33          	or	s10,s10,a5
800000a0:	007d5d93          	srli	s11,s10,0x7
800000a4:	019d5793          	srli	a5,s10,0x19
800000a8:	00fdedb3          	or	s11,s11,a5
800000ac:	007dde13          	srli	t3,s11,0x7
800000b0:	019dd793          	srli	a5,s11,0x19
800000b4:	00fe6e33          	or	t3,t3,a5
800000b8:	007e5e93          	srli	t4,t3,0x7
800000bc:	019e5793          	srli	a5,t3,0x19
800000c0:	00feeeb3          	or	t4,t4,a5
800000c4:	007edf13          	srli	t5,t4,0x7
800000c8:	019ed793          	srli	a5,t4,0x19
800000cc:	00ff6f33          	or	t5,t5,a5
800000d0:	feedc0b7          	lui	ra,0xfeedc
800000d4:	ead08093          	addi	ra,ra,-339 # feedbead <imm12+0xfeedc3dd>
800000d8:	0070d113          	srli	sp,ra,0x7
800000dc:	0190d793          	srli	a5,ra,0x19
800000e0:	00f16133          	or	sp,sp,a5
800000e4:	00715193          	srli	gp,sp,0x7
800000e8:	01915793          	srli	a5,sp,0x19
800000ec:	00f1e1b3          	or	gp,gp,a5
800000f0:	0071d213          	srli	tp,gp,0x7
800000f4:	0191d793          	srli	a5,gp,0x19
800000f8:	00f26233          	or	tp,tp,a5
800000fc:	00725293          	srli	t0,tp,0x7
80000100:	01925793          	srli	a5,tp,0x19
80000104:	00f2e2b3          	or	t0,t0,a5
80000108:	0072d313          	srli	t1,t0,0x7
8000010c:	0192d793          	srli	a5,t0,0x19
80000110:	00f36333          	or	t1,t1,a5
80000114:	00735393          	srli	t2,t1,0x7
80000118:	01935793          	srli	a5,t1,0x19
8000011c:	00f3e3b3          	or	t2,t2,a5
80000120:	0073d413          	srli	s0,t2,0x7
80000124:	0193d793          	srli	a5,t2,0x19
80000128:	00f46433          	or	s0,s0,a5
8000012c:	00745493          	srli	s1,s0,0x7
80000130:	01945793          	srli	a5,s0,0x19
80000134:	00f4e4b3          	or	s1,s1,a5
80000138:	0074d513          	srli	a0,s1,0x7
8000013c:	0194d793          	srli	a5,s1,0x19
80000140:	00f56533          	or	a0,a0,a5
80000144:	00755593          	srli	a1,a0,0x7
80000148:	01955793          	srli	a5,a0,0x19
8000014c:	00f5e5b3          	or	a1,a1,a5
80000150:	0075d613          	srli	a2,a1,0x7
80000154:	0195d793          	srli	a5,a1,0x19
80000158:	00f66633          	or	a2,a2,a5
8000015c:	00765693          	srli	a3,a2,0x7
80000160:	01965793          	srli	a5,a2,0x19
80000164:	00f6e6b3          	or	a3,a3,a5

80000168 <rvtest_code_begin>:
80000168:	00000013          	nop
8000016c:	00000013          	nop
80000170:	00000013          	nop
80000174:	00000013          	nop
80000178:	00000013          	nop
8000017c:	00000013          	nop
80000180:	00007497          	auipc	s1,0x7
80000184:	e8448493          	addi	s1,s1,-380 # 80007004 <signature_x9_0>
80000188:	00000013          	nop
8000018c:	00000013          	nop
80000190:	00000013          	nop
80000194:	00000013          	nop
80000198:	00000013          	nop
8000019c:	00000013          	nop

800001a0 <inst_0>:
800001a0:	00000013          	nop
800001a4:	ffe00f93          	li	t6,-2
800001a8:	01f03fb3          	snez	t6,t6
800001ac:	01f4a023          	sw	t6,0(s1)
800001b0:	00100393          	li	t2,1
800001b4:	01f38463          	beq	t2,t6,800001bc <inst_1>
800001b8:	39d0506f          	j	80005d54 <bad_trap>

800001bc <inst_1>:
800001bc:	001009b7          	lui	s3,0x100
800001c0:	001009b7          	lui	s3,0x100
800001c4:	0139b2b3          	sltu	t0,s3,s3
800001c8:	0054a223          	sw	t0,4(s1)
800001cc:	00000393          	li	t2,0
800001d0:	00538463          	beq	t2,t0,800001d8 <inst_2>
800001d4:	3810506f          	j	80005d54 <bad_trap>

800001d8 <inst_2>:
800001d8:	40000cb7          	lui	s9,0x40000
800001dc:	40000cb7          	lui	s9,0x40000
800001e0:	019cbcb3          	sltu	s9,s9,s9
800001e4:	0194a423          	sw	s9,8(s1)
800001e8:	00000393          	li	t2,0
800001ec:	01938463          	beq	t2,s9,800001f4 <inst_3>
800001f0:	3650506f          	j	80005d54 <bad_trap>

800001f4 <inst_3>:
800001f4:	ffe00713          	li	a4,-2
800001f8:	fff00c13          	li	s8,-1
800001fc:	01873733          	sltu	a4,a4,s8
80000200:	00e4a623          	sw	a4,12(s1)
80000204:	00100393          	li	t2,1
80000208:	00e38463          	beq	t2,a4,80000210 <inst_4>
8000020c:	3490506f          	j	80005d54 <bad_trap>

80000210 <inst_4>:
80000210:	00100893          	li	a7,1
80000214:	00100693          	li	a3,1
80000218:	00d8b633          	sltu	a2,a7,a3
8000021c:	00c4a823          	sw	a2,16(s1)
80000220:	00000393          	li	t2,0
80000224:	00c38463          	beq	t2,a2,8000022c <inst_5>
80000228:	32d0506f          	j	80005d54 <bad_trap>

8000022c <inst_5>:
8000022c:	00000d13          	li	s10,0
80000230:	00b00913          	li	s2,11
80000234:	012d3c33          	sltu	s8,s10,s2
80000238:	0184aa23          	sw	s8,20(s1)
8000023c:	00100393          	li	t2,1
80000240:	01838463          	beq	t2,s8,80000248 <inst_6>
80000244:	3110506f          	j	80005d54 <bad_trap>

80000248 <inst_6>:
80000248:	fff00293          	li	t0,-1
8000024c:	00000713          	li	a4,0
80000250:	00e2b9b3          	sltu	s3,t0,a4
80000254:	0134ac23          	sw	s3,24(s1)
80000258:	00000393          	li	t2,0
8000025c:	01338463          	beq	t2,s3,80000264 <inst_7>
80000260:	2f50506f          	j	80005d54 <bad_trap>

80000264 <inst_7>:
80000264:	00400193          	li	gp,4
80000268:	00200b13          	li	s6,2
8000026c:	0161b033          	sltu	zero,gp,s6
80000270:	0004ae23          	sw	zero,28(s1)
80000274:	00000393          	li	t2,0
80000278:	00038463          	beqz	t2,80000280 <inst_8>
8000027c:	2d90506f          	j	80005d54 <bad_trap>

80000280 <inst_8>:
80000280:	f8000bb7          	lui	s7,0xf8000
80000284:	fffb8b93          	addi	s7,s7,-1 # f7ffffff <imm12+0xf800052f>
80000288:	00400e93          	li	t4,4
8000028c:	01dbba33          	sltu	s4,s7,t4
80000290:	0344a023          	sw	s4,32(s1)
80000294:	00000393          	li	t2,0
80000298:	01438463          	beq	t2,s4,800002a0 <inst_9>
8000029c:	2b90506f          	j	80005d54 <bad_trap>

800002a0 <inst_9>:
800002a0:	01100213          	li	tp,17
800002a4:	00800313          	li	t1,8
800002a8:	00623533          	sltu	a0,tp,t1
800002ac:	02a4a223          	sw	a0,36(s1)
800002b0:	00000393          	li	t2,0
800002b4:	00a38463          	beq	t2,a0,800002bc <inst_10>
800002b8:	29d0506f          	j	80005d54 <bad_trap>

800002bc <inst_10>:
800002bc:	80000637          	lui	a2,0x80000
800002c0:	fff60613          	addi	a2,a2,-1 # 7fffffff <imm12+0x8000052f>
800002c4:	01000893          	li	a7,16
800002c8:	011630b3          	sltu	ra,a2,a7
800002cc:	0214a423          	sw	ra,40(s1)
800002d0:	00000393          	li	t2,0
800002d4:	00138463          	beq	t2,ra,800002dc <inst_11>
800002d8:	27d0506f          	j	80005d54 <bad_trap>

800002dc <inst_11>:
800002dc:	02000f37          	lui	t5,0x2000
800002e0:	02000413          	li	s0,32
800002e4:	008f3333          	sltu	t1,t5,s0
800002e8:	0264a623          	sw	t1,44(s1)
800002ec:	00000393          	li	t2,0
800002f0:	00638463          	beq	t2,t1,800002f8 <inst_12>
800002f4:	2610506f          	j	80005d54 <bad_trap>

800002f8 <inst_12>:
800002f8:	fffffab7          	lui	s5,0xfffff
800002fc:	7ffa8a93          	addi	s5,s5,2047 # fffff7ff <imm12+0xfffffd2f>
80000300:	04000813          	li	a6,64
80000304:	010ab1b3          	sltu	gp,s5,a6
80000308:	0234a823          	sw	gp,48(s1)
8000030c:	00000393          	li	t2,0
80000310:	00338463          	beq	t2,gp,80000318 <inst_13>
80000314:	2410506f          	j	80005d54 <bad_trap>

80000318 <inst_13>:
80000318:	40000e93          	li	t4,1024
8000031c:	08000d13          	li	s10,128
80000320:	01aeb8b3          	sltu	a7,t4,s10
80000324:	0314aa23          	sw	a7,52(s1)
80000328:	00000393          	li	t2,0
8000032c:	01138463          	beq	t2,a7,80000334 <inst_14>
80000330:	2250506f          	j	80005d54 <bad_trap>

80000334 <inst_14>:
80000334:	00d00913          	li	s2,13
80000338:	10000513          	li	a0,256
8000033c:	00a93e33          	sltu	t3,s2,a0
80000340:	03c4ac23          	sw	t3,56(s1)
80000344:	00100393          	li	t2,1
80000348:	01c38463          	beq	t2,t3,80000350 <inst_15>
8000034c:	2090506f          	j	80005d54 <bad_trap>

80000350 <inst_15>:
80000350:	00400113          	li	sp,4
80000354:	20000e13          	li	t3,512
80000358:	01c135b3          	sltu	a1,sp,t3
8000035c:	02b4ae23          	sw	a1,60(s1)
80000360:	00100393          	li	t2,1
80000364:	00b38463          	beq	t2,a1,8000036c <inst_16>
80000368:	1ed0506f          	j	80005d54 <bad_trap>

8000036c <inst_16>:
8000036c:	fbf00413          	li	s0,-65
80000370:	40000f13          	li	t5,1024
80000374:	01e43eb3          	sltu	t4,s0,t5
80000378:	05d4a023          	sw	t4,64(s1)
8000037c:	00000893          	li	a7,0
80000380:	01d88463          	beq	a7,t4,80000388 <inst_17>
80000384:	1d10506f          	j	80005d54 <bad_trap>

80000388 <inst_17>:
80000388:	08000b13          	li	s6,128
8000038c:	000015b7          	lui	a1,0x1
80000390:	80058593          	addi	a1,a1,-2048 # 800 <offset+0x500>
80000394:	00bb33b3          	sltu	t2,s6,a1
80000398:	0474a223          	sw	t2,68(s1)
8000039c:	00100893          	li	a7,1
800003a0:	00788463          	beq	a7,t2,800003a8 <inst_17+0x20>
800003a4:	1b10506f          	j	80005d54 <bad_trap>
800003a8:	00000013          	nop
800003ac:	00000013          	nop
800003b0:	00000013          	nop
800003b4:	00000013          	nop
800003b8:	00000013          	nop
800003bc:	00000013          	nop
800003c0:	00007717          	auipc	a4,0x7
800003c4:	c8c70713          	addi	a4,a4,-884 # 8000704c <signature_x14_0>
800003c8:	00000013          	nop
800003cc:	00000013          	nop
800003d0:	00000013          	nop
800003d4:	00000013          	nop
800003d8:	00000013          	nop
800003dc:	00000013          	nop

800003e0 <inst_18>:
800003e0:	002007b7          	lui	a5,0x200
800003e4:	00001237          	lui	tp,0x1
800003e8:	0047b4b3          	sltu	s1,a5,tp
800003ec:	00972023          	sw	s1,0(a4)
800003f0:	00000893          	li	a7,0
800003f4:	00988463          	beq	a7,s1,800003fc <inst_19>
800003f8:	15d0506f          	j	80005d54 <bad_trap>

800003fc <inst_19>:
800003fc:	08000e13          	li	t3,128
80000400:	00002637          	lui	a2,0x2
80000404:	00ce36b3          	sltu	a3,t3,a2
80000408:	00d72223          	sw	a3,4(a4)
8000040c:	00100893          	li	a7,1
80000410:	00d88463          	beq	a7,a3,80000418 <inst_20>
80000414:	1410506f          	j	80005d54 <bad_trap>

80000418 <inst_20>:
80000418:	00800fb7          	lui	t6,0x800
8000041c:	00004a37          	lui	s4,0x4
80000420:	014fbd33          	sltu	s10,t6,s4
80000424:	01a72423          	sw	s10,8(a4)
80000428:	00000893          	li	a7,0
8000042c:	01a88463          	beq	a7,s10,80000434 <inst_21>
80000430:	1250506f          	j	80005d54 <bad_trap>

80000434 <inst_21>:
80000434:	00008db7          	lui	s11,0x8
80000438:	000082b7          	lui	t0,0x8
8000043c:	005db833          	sltu	a6,s11,t0
80000440:	01072623          	sw	a6,12(a4)
80000444:	00000893          	li	a7,0
80000448:	01088463          	beq	a7,a6,80000450 <inst_22>
8000044c:	1090506f          	j	80005d54 <bad_trap>

80000450 <inst_22>:
80000450:	e0000837          	lui	a6,0xe0000
80000454:	fff80813          	addi	a6,a6,-1 # dfffffff <imm12+0xe000052f>
80000458:	00000013          	nop
8000045c:	00083133          	sltu	sp,a6,zero
80000460:	00272823          	sw	sp,16(a4)
80000464:	00000893          	li	a7,0
80000468:	00288463          	beq	a7,sp,80000470 <inst_23>
8000046c:	0e90506f          	j	80005d54 <bad_trap>

80000470 <inst_23>:
80000470:	00300593          	li	a1,3
80000474:	000204b7          	lui	s1,0x20
80000478:	0095bbb3          	sltu	s7,a1,s1
8000047c:	01772a23          	sw	s7,20(a4)
80000480:	00100893          	li	a7,1
80000484:	01788463          	beq	a7,s7,8000048c <inst_24>
80000488:	0cd0506f          	j	80005d54 <bad_trap>

8000048c <inst_24>:
8000048c:	80000a37          	lui	s4,0x80000
80000490:	00040ab7          	lui	s5,0x40
80000494:	015a3233          	sltu	tp,s4,s5
80000498:	00472c23          	sw	tp,24(a4)
8000049c:	00000893          	li	a7,0
800004a0:	00488463          	beq	a7,tp,800004a8 <inst_25>
800004a4:	0b10506f          	j	80005d54 <bad_trap>

800004a8 <inst_25>:
800004a8:	200006b7          	lui	a3,0x20000
800004ac:	000803b7          	lui	t2,0x80
800004b0:	0076bdb3          	sltu	s11,a3,t2
800004b4:	01b72e23          	sw	s11,28(a4)
800004b8:	00000893          	li	a7,0
800004bc:	01b88463          	beq	a7,s11,800004c4 <inst_26>
800004c0:	0950506f          	j	80005d54 <bad_trap>

800004c4 <inst_26>:
800004c4:	00800393          	li	t2,8
800004c8:	002000b7          	lui	ra,0x200
800004cc:	0013b933          	sltu	s2,t2,ra
800004d0:	03272023          	sw	s2,32(a4)
800004d4:	00100893          	li	a7,1
800004d8:	01288463          	beq	a7,s2,800004e0 <inst_27>
800004dc:	0790506f          	j	80005d54 <bad_trap>

800004e0 <inst_27>:
800004e0:	fff000b7          	lui	ra,0xfff00
800004e4:	fff08093          	addi	ra,ra,-1 # ffefffff <imm12+0xfff0052f>
800004e8:	00400db7          	lui	s11,0x400
800004ec:	01b0bb33          	sltu	s6,ra,s11
800004f0:	03672223          	sw	s6,36(a4)
800004f4:	00000893          	li	a7,0
800004f8:	01688463          	beq	a7,s6,80000500 <inst_28>
800004fc:	0590506f          	j	80005d54 <bad_trap>

80000500 <inst_28>:
80000500:	aaaab4b7          	lui	s1,0xaaaab
80000504:	aaa48493          	addi	s1,s1,-1366 # aaaaaaaa <imm12+0xaaaaafda>
80000508:	00800bb7          	lui	s7,0x800
8000050c:	0174bab3          	sltu	s5,s1,s7
80000510:	03572423          	sw	s5,40(a4)
80000514:	00000893          	li	a7,0
80000518:	01588463          	beq	a7,s5,80000520 <inst_29>
8000051c:	0390506f          	j	80005d54 <bad_trap>

80000520 <inst_29>:
80000520:	66666337          	lui	t1,0x66666
80000524:	66730313          	addi	t1,t1,1639 # 66666667 <absimm+0x21374138>
80000528:	01000137          	lui	sp,0x1000
8000052c:	00233f33          	sltu	t5,t1,sp
80000530:	03e72623          	sw	t5,44(a4)
80000534:	00000893          	li	a7,0
80000538:	01e88463          	beq	a7,t5,80000540 <inst_30>
8000053c:	0190506f          	j	80005d54 <bad_trap>

80000540 <inst_30>:
80000540:	fc000537          	lui	a0,0xfc000
80000544:	fff50513          	addi	a0,a0,-1 # fbffffff <imm12+0xfc00052f>
80000548:	020001b7          	lui	gp,0x2000
8000054c:	003537b3          	sltu	a5,a0,gp
80000550:	02f72823          	sw	a5,48(a4)
80000554:	00000893          	li	a7,0
80000558:	00f88463          	beq	a7,a5,80000560 <inst_31>
8000055c:	7f80506f          	j	80005d54 <bad_trap>

80000560 <inst_31>:
80000560:	10000c13          	li	s8,256
80000564:	040007b7          	lui	a5,0x4000
80000568:	00fc3433          	sltu	s0,s8,a5
8000056c:	02872a23          	sw	s0,52(a4)
80000570:	00100893          	li	a7,1
80000574:	00888463          	beq	a7,s0,8000057c <inst_32>
80000578:	7dc0506f          	j	80005d54 <bad_trap>

8000057c <inst_32>:
8000057c:	ffffe537          	lui	a0,0xffffe
80000580:	fff50513          	addi	a0,a0,-1 # ffffdfff <imm12+0xffffe52f>
80000584:	080005b7          	lui	a1,0x8000
80000588:	00b53633          	sltu	a2,a0,a1
8000058c:	02c72c23          	sw	a2,56(a4)
80000590:	00000093          	li	ra,0
80000594:	00c08463          	beq	ra,a2,8000059c <inst_33>
80000598:	7bc0506f          	j	80005d54 <bad_trap>

8000059c <inst_33>:
8000059c:	40000537          	lui	a0,0x40000
800005a0:	100005b7          	lui	a1,0x10000
800005a4:	00b53633          	sltu	a2,a0,a1
800005a8:	02c72e23          	sw	a2,60(a4)
800005ac:	00000093          	li	ra,0
800005b0:	00c08463          	beq	ra,a2,800005b8 <inst_34>
800005b4:	7a00506f          	j	80005d54 <bad_trap>

800005b8 <inst_34>:
800005b8:	ff000537          	lui	a0,0xff000
800005bc:	fff50513          	addi	a0,a0,-1 # feffffff <imm12+0xff00052f>
800005c0:	200005b7          	lui	a1,0x20000
800005c4:	00b53633          	sltu	a2,a0,a1
800005c8:	04c72023          	sw	a2,64(a4)
800005cc:	00000093          	li	ra,0
800005d0:	00c08463          	beq	ra,a2,800005d8 <inst_35>
800005d4:	7800506f          	j	80005d54 <bad_trap>

800005d8 <inst_35>:
800005d8:	10000537          	lui	a0,0x10000
800005dc:	400005b7          	lui	a1,0x40000
800005e0:	00b53633          	sltu	a2,a0,a1
800005e4:	04c72223          	sw	a2,68(a4)
800005e8:	00100093          	li	ra,1
800005ec:	00c08463          	beq	ra,a2,800005f4 <inst_36>
800005f0:	7640506f          	j	80005d54 <bad_trap>

800005f4 <inst_36>:
800005f4:	40000537          	lui	a0,0x40000
800005f8:	800005b7          	lui	a1,0x80000
800005fc:	00b53633          	sltu	a2,a0,a1
80000600:	04c72423          	sw	a2,72(a4)
80000604:	00100093          	li	ra,1
80000608:	00c08463          	beq	ra,a2,80000610 <inst_37>
8000060c:	7480506f          	j	80005d54 <bad_trap>

80000610 <inst_37>:
80000610:	33333537          	lui	a0,0x33333
80000614:	33350513          	addi	a0,a0,819 # 33333333 <offset+0x33333033>
80000618:	ffd00593          	li	a1,-3
8000061c:	00b53633          	sltu	a2,a0,a1
80000620:	04c72623          	sw	a2,76(a4)
80000624:	00100093          	li	ra,1
80000628:	00c08463          	beq	ra,a2,80000630 <inst_38>
8000062c:	7280506f          	j	80005d54 <bad_trap>

80000630 <inst_38>:
80000630:	00040537          	lui	a0,0x40
80000634:	ffb00593          	li	a1,-5
80000638:	00b53633          	sltu	a2,a0,a1
8000063c:	04c72823          	sw	a2,80(a4)
80000640:	00100093          	li	ra,1
80000644:	00c08463          	beq	ra,a2,8000064c <inst_39>
80000648:	70c0506f          	j	80005d54 <bad_trap>

8000064c <inst_39>:
8000064c:	66666537          	lui	a0,0x66666
80000650:	66650513          	addi	a0,a0,1638 # 66666666 <absimm+0x21374137>
80000654:	ff700593          	li	a1,-9
80000658:	00b53633          	sltu	a2,a0,a1
8000065c:	04c72a23          	sw	a2,84(a4)
80000660:	00100093          	li	ra,1
80000664:	00c08463          	beq	ra,a2,8000066c <inst_40>
80000668:	6ec0506f          	j	80005d54 <bad_trap>

8000066c <inst_40>:
8000066c:	00300513          	li	a0,3
80000670:	fef00593          	li	a1,-17
80000674:	00b53633          	sltu	a2,a0,a1
80000678:	04c72c23          	sw	a2,88(a4)
8000067c:	00100093          	li	ra,1
80000680:	00c08463          	beq	ra,a2,80000688 <inst_41>
80000684:	6d00506f          	j	80005d54 <bad_trap>

80000688 <inst_41>:
80000688:	00b00513          	li	a0,11
8000068c:	fdf00593          	li	a1,-33
80000690:	00b53633          	sltu	a2,a0,a1
80000694:	04c72e23          	sw	a2,92(a4)
80000698:	00100093          	li	ra,1
8000069c:	00c08463          	beq	ra,a2,800006a4 <inst_42>
800006a0:	6b40506f          	j	80005d54 <bad_trap>

800006a4 <inst_42>:
800006a4:	00a00513          	li	a0,10
800006a8:	fbf00593          	li	a1,-65
800006ac:	00b53633          	sltu	a2,a0,a1
800006b0:	06c72023          	sw	a2,96(a4)
800006b4:	00100093          	li	ra,1
800006b8:	00c08463          	beq	ra,a2,800006c0 <inst_43>
800006bc:	6980506f          	j	80005d54 <bad_trap>

800006c0 <inst_43>:
800006c0:	08000513          	li	a0,128
800006c4:	f7f00593          	li	a1,-129
800006c8:	00b53633          	sltu	a2,a0,a1
800006cc:	06c72223          	sw	a2,100(a4)
800006d0:	00100093          	li	ra,1
800006d4:	00c08463          	beq	ra,a2,800006dc <inst_44>
800006d8:	67c0506f          	j	80005d54 <bad_trap>

800006dc <inst_44>:
800006dc:	ff700513          	li	a0,-9
800006e0:	eff00593          	li	a1,-257
800006e4:	00b53633          	sltu	a2,a0,a1
800006e8:	06c72423          	sw	a2,104(a4)
800006ec:	00000093          	li	ra,0
800006f0:	00c08463          	beq	ra,a2,800006f8 <inst_45>
800006f4:	6600506f          	j	80005d54 <bad_trap>

800006f8 <inst_45>:
800006f8:	01000537          	lui	a0,0x1000
800006fc:	dff00593          	li	a1,-513
80000700:	00b53633          	sltu	a2,a0,a1
80000704:	06c72623          	sw	a2,108(a4)
80000708:	00100093          	li	ra,1
8000070c:	00c08463          	beq	ra,a2,80000714 <inst_46>
80000710:	6440506f          	j	80005d54 <bad_trap>

80000714 <inst_46>:
80000714:	ff700513          	li	a0,-9
80000718:	bff00593          	li	a1,-1025
8000071c:	00b53633          	sltu	a2,a0,a1
80000720:	06c72823          	sw	a2,112(a4)
80000724:	00000093          	li	ra,0
80000728:	00c08463          	beq	ra,a2,80000730 <inst_47>
8000072c:	6280506f          	j	80005d54 <bad_trap>

80000730 <inst_47>:
80000730:	00002537          	lui	a0,0x2
80000734:	fffff5b7          	lui	a1,0xfffff
80000738:	7ff58593          	addi	a1,a1,2047 # fffff7ff <imm12+0xfffffd2f>
8000073c:	00b53633          	sltu	a2,a0,a1
80000740:	06c72a23          	sw	a2,116(a4)
80000744:	00100093          	li	ra,1
80000748:	00c08463          	beq	ra,a2,80000750 <inst_48>
8000074c:	6080506f          	j	80005d54 <bad_trap>

80000750 <inst_48>:
80000750:	fff80537          	lui	a0,0xfff80
80000754:	fff50513          	addi	a0,a0,-1 # fff7ffff <imm12+0xfff8052f>
80000758:	fffff5b7          	lui	a1,0xfffff
8000075c:	fff58593          	addi	a1,a1,-1 # ffffefff <imm12+0xfffff52f>
80000760:	00b53633          	sltu	a2,a0,a1
80000764:	06c72c23          	sw	a2,120(a4)
80000768:	00100093          	li	ra,1
8000076c:	00c08463          	beq	ra,a2,80000774 <inst_49>
80000770:	5e40506f          	j	80005d54 <bad_trap>

80000774 <inst_49>:
80000774:	00500513          	li	a0,5
80000778:	ffffe5b7          	lui	a1,0xffffe
8000077c:	fff58593          	addi	a1,a1,-1 # ffffdfff <imm12+0xffffe52f>
80000780:	00b53633          	sltu	a2,a0,a1
80000784:	06c72e23          	sw	a2,124(a4)
80000788:	00100093          	li	ra,1
8000078c:	00c08463          	beq	ra,a2,80000794 <inst_50>
80000790:	5c40506f          	j	80005d54 <bad_trap>

80000794 <inst_50>:
80000794:	00010537          	lui	a0,0x10
80000798:	ffe50513          	addi	a0,a0,-2 # fffe <offset+0xfcfe>
8000079c:	ffffc5b7          	lui	a1,0xffffc
800007a0:	fff58593          	addi	a1,a1,-1 # ffffbfff <imm12+0xffffc52f>
800007a4:	00b53633          	sltu	a2,a0,a1
800007a8:	08c72023          	sw	a2,128(a4)
800007ac:	00100093          	li	ra,1
800007b0:	00c08463          	beq	ra,a2,800007b8 <inst_51>
800007b4:	5a00506f          	j	80005d54 <bad_trap>

800007b8 <inst_51>:
800007b8:	fffe0537          	lui	a0,0xfffe0
800007bc:	fff50513          	addi	a0,a0,-1 # fffdffff <imm12+0xfffe052f>
800007c0:	ffff85b7          	lui	a1,0xffff8
800007c4:	fff58593          	addi	a1,a1,-1 # ffff7fff <imm12+0xffff852f>
800007c8:	00b53633          	sltu	a2,a0,a1
800007cc:	08c72223          	sw	a2,132(a4)
800007d0:	00100093          	li	ra,1
800007d4:	00c08463          	beq	ra,a2,800007dc <inst_52>
800007d8:	57c0506f          	j	80005d54 <bad_trap>

800007dc <inst_52>:
800007dc:	00a00513          	li	a0,10
800007e0:	ffff05b7          	lui	a1,0xffff0
800007e4:	fff58593          	addi	a1,a1,-1 # fffeffff <imm12+0xffff052f>
800007e8:	00b53633          	sltu	a2,a0,a1
800007ec:	08c72423          	sw	a2,136(a4)
800007f0:	00100093          	li	ra,1
800007f4:	00c08463          	beq	ra,a2,800007fc <inst_53>
800007f8:	55c0506f          	j	80005d54 <bad_trap>

800007fc <inst_53>:
800007fc:	fff80537          	lui	a0,0xfff80
80000800:	fff50513          	addi	a0,a0,-1 # fff7ffff <imm12+0xfff8052f>
80000804:	fffe05b7          	lui	a1,0xfffe0
80000808:	fff58593          	addi	a1,a1,-1 # fffdffff <imm12+0xfffe052f>
8000080c:	00b53633          	sltu	a2,a0,a1
80000810:	08c72623          	sw	a2,140(a4)
80000814:	00100093          	li	ra,1
80000818:	00c08463          	beq	ra,a2,80000820 <inst_54>
8000081c:	5380506f          	j	80005d54 <bad_trap>

80000820 <inst_54>:
80000820:	00008537          	lui	a0,0x8
80000824:	fffc05b7          	lui	a1,0xfffc0
80000828:	fff58593          	addi	a1,a1,-1 # fffbffff <imm12+0xfffc052f>
8000082c:	00b53633          	sltu	a2,a0,a1
80000830:	08c72823          	sw	a2,144(a4)
80000834:	00100093          	li	ra,1
80000838:	00c08463          	beq	ra,a2,80000840 <inst_55>
8000083c:	5180506f          	j	80005d54 <bad_trap>

80000840 <inst_55>:
80000840:	04000513          	li	a0,64
80000844:	fff805b7          	lui	a1,0xfff80
80000848:	fff58593          	addi	a1,a1,-1 # fff7ffff <imm12+0xfff8052f>
8000084c:	00b53633          	sltu	a2,a0,a1
80000850:	08c72a23          	sw	a2,148(a4)
80000854:	00100093          	li	ra,1
80000858:	00c08463          	beq	ra,a2,80000860 <inst_56>
8000085c:	4f80506f          	j	80005d54 <bad_trap>

80000860 <inst_56>:
80000860:	01000513          	li	a0,16
80000864:	fff005b7          	lui	a1,0xfff00
80000868:	fff58593          	addi	a1,a1,-1 # ffefffff <imm12+0xfff0052f>
8000086c:	00b53633          	sltu	a2,a0,a1
80000870:	08c72c23          	sw	a2,152(a4)
80000874:	00100093          	li	ra,1
80000878:	00c08463          	beq	ra,a2,80000880 <inst_57>
8000087c:	4d80506f          	j	80005d54 <bad_trap>

80000880 <inst_57>:
80000880:	00000513          	li	a0,0
80000884:	ffe005b7          	lui	a1,0xffe00
80000888:	fff58593          	addi	a1,a1,-1 # ffdfffff <imm12+0xffe0052f>
8000088c:	00b53633          	sltu	a2,a0,a1
80000890:	08c72e23          	sw	a2,156(a4)
80000894:	00100093          	li	ra,1
80000898:	00c08463          	beq	ra,a2,800008a0 <inst_58>
8000089c:	4b80506f          	j	80005d54 <bad_trap>

800008a0 <inst_58>:
800008a0:	00400513          	li	a0,4
800008a4:	ffc005b7          	lui	a1,0xffc00
800008a8:	fff58593          	addi	a1,a1,-1 # ffbfffff <imm12+0xffc0052f>
800008ac:	00b53633          	sltu	a2,a0,a1
800008b0:	0ac72023          	sw	a2,160(a4)
800008b4:	00100093          	li	ra,1
800008b8:	00c08463          	beq	ra,a2,800008c0 <inst_59>
800008bc:	4980506f          	j	80005d54 <bad_trap>

800008c0 <inst_59>:
800008c0:	00010537          	lui	a0,0x10
800008c4:	ffe50513          	addi	a0,a0,-2 # fffe <offset+0xfcfe>
800008c8:	ff8005b7          	lui	a1,0xff800
800008cc:	fff58593          	addi	a1,a1,-1 # ff7fffff <imm12+0xff80052f>
800008d0:	00b53633          	sltu	a2,a0,a1
800008d4:	0ac72223          	sw	a2,164(a4)
800008d8:	00100093          	li	ra,1
800008dc:	00c08463          	beq	ra,a2,800008e4 <inst_60>
800008e0:	4740506f          	j	80005d54 <bad_trap>

800008e4 <inst_60>:
800008e4:	00500513          	li	a0,5
800008e8:	ff0005b7          	lui	a1,0xff000
800008ec:	fff58593          	addi	a1,a1,-1 # feffffff <imm12+0xff00052f>
800008f0:	00b53633          	sltu	a2,a0,a1
800008f4:	0ac72423          	sw	a2,168(a4)
800008f8:	00100093          	li	ra,1
800008fc:	00c08463          	beq	ra,a2,80000904 <inst_61>
80000900:	4540506f          	j	80005d54 <bad_trap>

80000904 <inst_61>:
80000904:	00800537          	lui	a0,0x800
80000908:	fe0005b7          	lui	a1,0xfe000
8000090c:	fff58593          	addi	a1,a1,-1 # fdffffff <imm12+0xfe00052f>
80000910:	00b53633          	sltu	a2,a0,a1
80000914:	0ac72623          	sw	a2,172(a4)
80000918:	00100093          	li	ra,1
8000091c:	00c08463          	beq	ra,a2,80000924 <inst_62>
80000920:	4340506f          	j	80005d54 <bad_trap>

80000924 <inst_62>:
80000924:	0000b537          	lui	a0,0xb
80000928:	50350513          	addi	a0,a0,1283 # b503 <offset+0xb203>
8000092c:	fc0005b7          	lui	a1,0xfc000
80000930:	fff58593          	addi	a1,a1,-1 # fbffffff <imm12+0xfc00052f>
80000934:	00b53633          	sltu	a2,a0,a1
80000938:	0ac72823          	sw	a2,176(a4)
8000093c:	00100093          	li	ra,1
80000940:	00c08463          	beq	ra,a2,80000948 <inst_63>
80000944:	4100506f          	j	80005d54 <bad_trap>

80000948 <inst_63>:
80000948:	55555537          	lui	a0,0x55555
8000094c:	55550513          	addi	a0,a0,1365 # 55555555 <absimm+0x10263026>
80000950:	f80005b7          	lui	a1,0xf8000
80000954:	fff58593          	addi	a1,a1,-1 # f7ffffff <imm12+0xf800052f>
80000958:	00b53633          	sltu	a2,a0,a1
8000095c:	0ac72a23          	sw	a2,180(a4)
80000960:	00100093          	li	ra,1
80000964:	00c08463          	beq	ra,a2,8000096c <inst_64>
80000968:	3ec0506f          	j	80005d54 <bad_trap>

8000096c <inst_64>:
8000096c:	ffe00537          	lui	a0,0xffe00
80000970:	fff50513          	addi	a0,a0,-1 # ffdfffff <imm12+0xffe0052f>
80000974:	f00005b7          	lui	a1,0xf0000
80000978:	fff58593          	addi	a1,a1,-1 # efffffff <imm12+0xf000052f>
8000097c:	00b53633          	sltu	a2,a0,a1
80000980:	0ac72c23          	sw	a2,184(a4)
80000984:	00000093          	li	ra,0
80000988:	00c08463          	beq	ra,a2,80000990 <inst_65>
8000098c:	3c80506f          	j	80005d54 <bad_trap>

80000990 <inst_65>:
80000990:	00300513          	li	a0,3
80000994:	e00005b7          	lui	a1,0xe0000
80000998:	fff58593          	addi	a1,a1,-1 # dfffffff <imm12+0xe000052f>
8000099c:	00b53633          	sltu	a2,a0,a1
800009a0:	0ac72e23          	sw	a2,188(a4)
800009a4:	00100093          	li	ra,1
800009a8:	00c08463          	beq	ra,a2,800009b0 <inst_66>
800009ac:	3a80506f          	j	80005d54 <bad_trap>

800009b0 <inst_66>:
800009b0:	00001537          	lui	a0,0x1
800009b4:	80050513          	addi	a0,a0,-2048 # 800 <offset+0x500>
800009b8:	c00005b7          	lui	a1,0xc0000
800009bc:	fff58593          	addi	a1,a1,-1 # bfffffff <imm12+0xc000052f>
800009c0:	00b53633          	sltu	a2,a0,a1
800009c4:	0cc72023          	sw	a2,192(a4)
800009c8:	00100093          	li	ra,1
800009cc:	00c08463          	beq	ra,a2,800009d4 <inst_67>
800009d0:	3840506f          	j	80005d54 <bad_trap>

800009d4 <inst_67>:
800009d4:	00800537          	lui	a0,0x800
800009d8:	800005b7          	lui	a1,0x80000
800009dc:	fff58593          	addi	a1,a1,-1 # 7fffffff <imm12+0x8000052f>
800009e0:	00b53633          	sltu	a2,a0,a1
800009e4:	0cc72223          	sw	a2,196(a4)
800009e8:	00100093          	li	ra,1
800009ec:	00c08463          	beq	ra,a2,800009f4 <inst_68>
800009f0:	3640506f          	j	80005d54 <bad_trap>

800009f4 <inst_68>:
800009f4:	ffc00537          	lui	a0,0xffc00
800009f8:	fff50513          	addi	a0,a0,-1 # ffbfffff <imm12+0xffc0052f>
800009fc:	555555b7          	lui	a1,0x55555
80000a00:	55558593          	addi	a1,a1,1365 # 55555555 <absimm+0x10263026>
80000a04:	00b53633          	sltu	a2,a0,a1
80000a08:	0cc72423          	sw	a2,200(a4)
80000a0c:	00000093          	li	ra,0
80000a10:	00c08463          	beq	ra,a2,80000a18 <inst_69>
80000a14:	3400506f          	j	80005d54 <bad_trap>

80000a18 <inst_69>:
80000a18:	55555537          	lui	a0,0x55555
80000a1c:	55450513          	addi	a0,a0,1364 # 55555554 <absimm+0x10263025>
80000a20:	aaaab5b7          	lui	a1,0xaaaab
80000a24:	aaa58593          	addi	a1,a1,-1366 # aaaaaaaa <imm12+0xaaaaafda>
80000a28:	00b53633          	sltu	a2,a0,a1
80000a2c:	0cc72623          	sw	a2,204(a4)
80000a30:	00100093          	li	ra,1
80000a34:	00c08463          	beq	ra,a2,80000a3c <inst_70>
80000a38:	31c0506f          	j	80005d54 <bad_trap>

80000a3c <inst_70>:
80000a3c:	00200513          	li	a0,2
80000a40:	666665b7          	lui	a1,0x66666
80000a44:	66558593          	addi	a1,a1,1637 # 66666665 <absimm+0x21374136>
80000a48:	00b53633          	sltu	a2,a0,a1
80000a4c:	0cc72823          	sw	a2,208(a4)
80000a50:	00100093          	li	ra,1
80000a54:	00c08463          	beq	ra,a2,80000a5c <inst_71>
80000a58:	2fc0506f          	j	80005d54 <bad_trap>

80000a5c <inst_71>:
80000a5c:	02000513          	li	a0,32
80000a60:	0000b5b7          	lui	a1,0xb
80000a64:	50458593          	addi	a1,a1,1284 # b504 <offset+0xb204>
80000a68:	00b53633          	sltu	a2,a0,a1
80000a6c:	0cc72a23          	sw	a2,212(a4)
80000a70:	00100093          	li	ra,1
80000a74:	00c08463          	beq	ra,a2,80000a7c <inst_72>
80000a78:	2dc0506f          	j	80005d54 <bad_trap>

80000a7c <inst_72>:
80000a7c:	20000513          	li	a0,512
80000a80:	00300593          	li	a1,3
80000a84:	00b53633          	sltu	a2,a0,a1
80000a88:	0cc72c23          	sw	a2,216(a4)
80000a8c:	00000093          	li	ra,0
80000a90:	00c08463          	beq	ra,a2,80000a98 <inst_73>
80000a94:	2c00506f          	j	80005d54 <bad_trap>

80000a98 <inst_73>:
80000a98:	00001537          	lui	a0,0x1
80000a9c:	00300593          	li	a1,3
80000aa0:	00b53633          	sltu	a2,a0,a1
80000aa4:	0cc72e23          	sw	a2,220(a4)
80000aa8:	00000093          	li	ra,0
80000aac:	00c08463          	beq	ra,a2,80000ab4 <inst_74>
80000ab0:	2a40506f          	j	80005d54 <bad_trap>

80000ab4 <inst_74>:
80000ab4:	00004537          	lui	a0,0x4
80000ab8:	00000593          	li	a1,0
80000abc:	00b53633          	sltu	a2,a0,a1
80000ac0:	0ec72023          	sw	a2,224(a4)
80000ac4:	00000093          	li	ra,0
80000ac8:	00c08463          	beq	ra,a2,80000ad0 <inst_75>
80000acc:	2880506f          	j	80005d54 <bad_trap>

80000ad0 <inst_75>:
80000ad0:	00010537          	lui	a0,0x10
80000ad4:	00500593          	li	a1,5
80000ad8:	00b53633          	sltu	a2,a0,a1
80000adc:	0ec72223          	sw	a2,228(a4)
80000ae0:	00000093          	li	ra,0
80000ae4:	00c08463          	beq	ra,a2,80000aec <inst_76>
80000ae8:	26c0506f          	j	80005d54 <bad_trap>

80000aec <inst_76>:
80000aec:	00020537          	lui	a0,0x20
80000af0:	000205b7          	lui	a1,0x20
80000af4:	00b53633          	sltu	a2,a0,a1
80000af8:	0ec72423          	sw	a2,232(a4)
80000afc:	00000093          	li	ra,0
80000b00:	00c08463          	beq	ra,a2,80000b08 <inst_77>
80000b04:	2500506f          	j	80005d54 <bad_trap>

80000b08 <inst_77>:
80000b08:	00080537          	lui	a0,0x80
80000b0c:	555555b7          	lui	a1,0x55555
80000b10:	55458593          	addi	a1,a1,1364 # 55555554 <absimm+0x10263025>
80000b14:	00b53633          	sltu	a2,a0,a1
80000b18:	0ec72623          	sw	a2,236(a4)
80000b1c:	00100093          	li	ra,1
80000b20:	00c08463          	beq	ra,a2,80000b28 <inst_78>
80000b24:	2300506f          	j	80005d54 <bad_trap>

80000b28 <inst_78>:
80000b28:	00400537          	lui	a0,0x400
80000b2c:	002005b7          	lui	a1,0x200
80000b30:	00b53633          	sltu	a2,a0,a1
80000b34:	0ec72823          	sw	a2,240(a4)
80000b38:	00000093          	li	ra,0
80000b3c:	00c08463          	beq	ra,a2,80000b44 <inst_79>
80000b40:	2140506f          	j	80005d54 <bad_trap>

80000b44 <inst_79>:
80000b44:	04000537          	lui	a0,0x4000
80000b48:	555555b7          	lui	a1,0x55555
80000b4c:	55558593          	addi	a1,a1,1365 # 55555555 <absimm+0x10263026>
80000b50:	00b53633          	sltu	a2,a0,a1
80000b54:	0ec72a23          	sw	a2,244(a4)
80000b58:	00100093          	li	ra,1
80000b5c:	00c08463          	beq	ra,a2,80000b64 <inst_80>
80000b60:	1f40506f          	j	80005d54 <bad_trap>

80000b64 <inst_80>:
80000b64:	08000537          	lui	a0,0x8000
80000b68:	fffe05b7          	lui	a1,0xfffe0
80000b6c:	fff58593          	addi	a1,a1,-1 # fffdffff <imm12+0xfffe052f>
80000b70:	00b53633          	sltu	a2,a0,a1
80000b74:	0ec72c23          	sw	a2,248(a4)
80000b78:	00100093          	li	ra,1
80000b7c:	00c08463          	beq	ra,a2,80000b84 <inst_81>
80000b80:	1d40506f          	j	80005d54 <bad_trap>

80000b84 <inst_81>:
80000b84:	ffd00513          	li	a0,-3
80000b88:	01100593          	li	a1,17
80000b8c:	00b53633          	sltu	a2,a0,a1
80000b90:	0ec72e23          	sw	a2,252(a4)
80000b94:	00000093          	li	ra,0
80000b98:	00c08463          	beq	ra,a2,80000ba0 <inst_82>
80000b9c:	1b80506f          	j	80005d54 <bad_trap>

80000ba0 <inst_82>:
80000ba0:	ffb00513          	li	a0,-5
80000ba4:	f7f00593          	li	a1,-129
80000ba8:	00b53633          	sltu	a2,a0,a1
80000bac:	10c72023          	sw	a2,256(a4)
80000bb0:	00000093          	li	ra,0
80000bb4:	00c08463          	beq	ra,a2,80000bbc <inst_83>
80000bb8:	19c0506f          	j	80005d54 <bad_trap>

80000bbc <inst_83>:
80000bbc:	fef00513          	li	a0,-17
80000bc0:	333335b7          	lui	a1,0x33333
80000bc4:	33458593          	addi	a1,a1,820 # 33333334 <offset+0x33333034>
80000bc8:	00b53633          	sltu	a2,a0,a1
80000bcc:	10c72223          	sw	a2,260(a4)
80000bd0:	00000093          	li	ra,0
80000bd4:	00c08463          	beq	ra,a2,80000bdc <inst_84>
80000bd8:	17c0506f          	j	80005d54 <bad_trap>

80000bdc <inst_84>:
80000bdc:	fdf00513          	li	a0,-33
80000be0:	fffc05b7          	lui	a1,0xfffc0
80000be4:	fff58593          	addi	a1,a1,-1 # fffbffff <imm12+0xfffc052f>
80000be8:	00b53633          	sltu	a2,a0,a1
80000bec:	10c72423          	sw	a2,264(a4)
80000bf0:	00000093          	li	ra,0
80000bf4:	00c08463          	beq	ra,a2,80000bfc <inst_85>
80000bf8:	15c0506f          	j	80005d54 <bad_trap>

80000bfc <inst_85>:
80000bfc:	f7f00513          	li	a0,-129
80000c00:	00100593          	li	a1,1
80000c04:	00b53633          	sltu	a2,a0,a1
80000c08:	10c72623          	sw	a2,268(a4)
80000c0c:	00000093          	li	ra,0
80000c10:	00c08463          	beq	ra,a2,80000c18 <inst_86>
80000c14:	1400506f          	j	80005d54 <bad_trap>

80000c18 <inst_86>:
80000c18:	eff00513          	li	a0,-257
80000c1c:	400005b7          	lui	a1,0x40000
80000c20:	00b53633          	sltu	a2,a0,a1
80000c24:	10c72823          	sw	a2,272(a4)
80000c28:	00000093          	li	ra,0
80000c2c:	00c08463          	beq	ra,a2,80000c34 <inst_87>
80000c30:	1240506f          	j	80005d54 <bad_trap>

80000c34 <inst_87>:
80000c34:	dff00513          	li	a0,-513
80000c38:	00a00593          	li	a1,10
80000c3c:	00b53633          	sltu	a2,a0,a1
80000c40:	10c72a23          	sw	a2,276(a4)
80000c44:	00000093          	li	ra,0
80000c48:	00c08463          	beq	ra,a2,80000c50 <inst_88>
80000c4c:	1080506f          	j	80005d54 <bad_trap>

80000c50 <inst_88>:
80000c50:	bff00513          	li	a0,-1025
80000c54:	f80005b7          	lui	a1,0xf8000
80000c58:	fff58593          	addi	a1,a1,-1 # f7ffffff <imm12+0xf800052f>
80000c5c:	00b53633          	sltu	a2,a0,a1
80000c60:	10c72c23          	sw	a2,280(a4)
80000c64:	00000093          	li	ra,0
80000c68:	00c08463          	beq	ra,a2,80000c70 <inst_89>
80000c6c:	0e80506f          	j	80005d54 <bad_trap>

80000c70 <inst_89>:
80000c70:	fffff537          	lui	a0,0xfffff
80000c74:	fff50513          	addi	a0,a0,-1 # ffffefff <imm12+0xfffff52f>
80000c78:	001005b7          	lui	a1,0x100
80000c7c:	00b53633          	sltu	a2,a0,a1
80000c80:	10c72e23          	sw	a2,284(a4)
80000c84:	00000093          	li	ra,0
80000c88:	00c08463          	beq	ra,a2,80000c90 <inst_90>
80000c8c:	0c80506f          	j	80005d54 <bad_trap>

80000c90 <inst_90>:
80000c90:	ffffc537          	lui	a0,0xffffc
80000c94:	fff50513          	addi	a0,a0,-1 # ffffbfff <imm12+0xffffc52f>
80000c98:	000085b7          	lui	a1,0x8
80000c9c:	00b53633          	sltu	a2,a0,a1
80000ca0:	12c72023          	sw	a2,288(a4)
80000ca4:	00000093          	li	ra,0
80000ca8:	00c08463          	beq	ra,a2,80000cb0 <inst_91>
80000cac:	0a80506f          	j	80005d54 <bad_trap>

80000cb0 <inst_91>:
80000cb0:	ffff8537          	lui	a0,0xffff8
80000cb4:	fff50513          	addi	a0,a0,-1 # ffff7fff <imm12+0xffff852f>
80000cb8:	ffff05b7          	lui	a1,0xffff0
80000cbc:	fff58593          	addi	a1,a1,-1 # fffeffff <imm12+0xffff052f>
80000cc0:	00b53633          	sltu	a2,a0,a1
80000cc4:	12c72223          	sw	a2,292(a4)
80000cc8:	00000093          	li	ra,0
80000ccc:	00c08463          	beq	ra,a2,80000cd4 <inst_92>
80000cd0:	0840506f          	j	80005d54 <bad_trap>

80000cd4 <inst_92>:
80000cd4:	ffff0537          	lui	a0,0xffff0
80000cd8:	fff50513          	addi	a0,a0,-1 # fffeffff <imm12+0xffff052f>
80000cdc:	fffff5b7          	lui	a1,0xfffff
80000ce0:	7ff58593          	addi	a1,a1,2047 # fffff7ff <imm12+0xfffffd2f>
80000ce4:	00b53633          	sltu	a2,a0,a1
80000ce8:	12c72423          	sw	a2,296(a4)
80000cec:	00100093          	li	ra,1
80000cf0:	00c08463          	beq	ra,a2,80000cf8 <inst_93>
80000cf4:	0600506f          	j	80005d54 <bad_trap>

80000cf8 <inst_93>:
80000cf8:	fffc0537          	lui	a0,0xfffc0
80000cfc:	fff50513          	addi	a0,a0,-1 # fffbffff <imm12+0xfffc052f>
80000d00:	fff805b7          	lui	a1,0xfff80
80000d04:	fff58593          	addi	a1,a1,-1 # fff7ffff <imm12+0xfff8052f>
80000d08:	00b53633          	sltu	a2,a0,a1
80000d0c:	12c72623          	sw	a2,300(a4)
80000d10:	00000093          	li	ra,0
80000d14:	00c08463          	beq	ra,a2,80000d1c <inst_94>
80000d18:	03c0506f          	j	80005d54 <bad_trap>

80000d1c <inst_94>:
80000d1c:	ff800537          	lui	a0,0xff800
80000d20:	fff50513          	addi	a0,a0,-1 # ff7fffff <imm12+0xff80052f>
80000d24:	00200593          	li	a1,2
80000d28:	00b53633          	sltu	a2,a0,a1
80000d2c:	12c72823          	sw	a2,304(a4)
80000d30:	00000093          	li	ra,0
80000d34:	00c08463          	beq	ra,a2,80000d3c <inst_95>
80000d38:	01c0506f          	j	80005d54 <bad_trap>

80000d3c <inst_95>:
80000d3c:	fe000537          	lui	a0,0xfe000
80000d40:	fff50513          	addi	a0,a0,-1 # fdffffff <imm12+0xfe00052f>
80000d44:	c00005b7          	lui	a1,0xc0000
80000d48:	fff58593          	addi	a1,a1,-1 # bfffffff <imm12+0xc000052f>
80000d4c:	00b53633          	sltu	a2,a0,a1
80000d50:	12c72a23          	sw	a2,308(a4)
80000d54:	00000093          	li	ra,0
80000d58:	00c08463          	beq	ra,a2,80000d60 <inst_96>
80000d5c:	7f90406f          	j	80005d54 <bad_trap>

80000d60 <inst_96>:
80000d60:	f0000537          	lui	a0,0xf0000
80000d64:	fff50513          	addi	a0,a0,-1 # efffffff <imm12+0xf000052f>
80000d68:	000015b7          	lui	a1,0x1
80000d6c:	80058593          	addi	a1,a1,-2048 # 800 <offset+0x500>
80000d70:	00b53633          	sltu	a2,a0,a1
80000d74:	12c72c23          	sw	a2,312(a4)
80000d78:	00000093          	li	ra,0
80000d7c:	00c08463          	beq	ra,a2,80000d84 <inst_97>
80000d80:	7d50406f          	j	80005d54 <bad_trap>

80000d84 <inst_97>:
80000d84:	c0000537          	lui	a0,0xc0000
80000d88:	fff50513          	addi	a0,a0,-1 # bfffffff <imm12+0xc000052f>
80000d8c:	00400593          	li	a1,4
80000d90:	00b53633          	sltu	a2,a0,a1
80000d94:	12c72e23          	sw	a2,316(a4)
80000d98:	00000093          	li	ra,0
80000d9c:	00c08463          	beq	ra,a2,80000da4 <inst_98>
80000da0:	7b50406f          	j	80005d54 <bad_trap>

80000da4 <inst_98>:
80000da4:	00300513          	li	a0,3
80000da8:	00300593          	li	a1,3
80000dac:	00b53633          	sltu	a2,a0,a1
80000db0:	14c72023          	sw	a2,320(a4)
80000db4:	00000093          	li	ra,0
80000db8:	00c08463          	beq	ra,a2,80000dc0 <inst_99>
80000dbc:	7990406f          	j	80005d54 <bad_trap>

80000dc0 <inst_99>:
80000dc0:	00300513          	li	a0,3
80000dc4:	555555b7          	lui	a1,0x55555
80000dc8:	55558593          	addi	a1,a1,1365 # 55555555 <absimm+0x10263026>
80000dcc:	00b53633          	sltu	a2,a0,a1
80000dd0:	14c72223          	sw	a2,324(a4)
80000dd4:	00100093          	li	ra,1
80000dd8:	00c08463          	beq	ra,a2,80000de0 <inst_100>
80000ddc:	7790406f          	j	80005d54 <bad_trap>

80000de0 <inst_100>:
80000de0:	00300513          	li	a0,3
80000de4:	aaaab5b7          	lui	a1,0xaaaab
80000de8:	aaa58593          	addi	a1,a1,-1366 # aaaaaaaa <imm12+0xaaaaafda>
80000dec:	00b53633          	sltu	a2,a0,a1
80000df0:	14c72423          	sw	a2,328(a4)
80000df4:	00100093          	li	ra,1
80000df8:	00c08463          	beq	ra,a2,80000e00 <inst_101>
80000dfc:	7590406f          	j	80005d54 <bad_trap>

80000e00 <inst_101>:
80000e00:	00300513          	li	a0,3
80000e04:	00500593          	li	a1,5
80000e08:	00b53633          	sltu	a2,a0,a1
80000e0c:	14c72623          	sw	a2,332(a4)
80000e10:	00100093          	li	ra,1
80000e14:	00c08463          	beq	ra,a2,80000e1c <inst_102>
80000e18:	73d0406f          	j	80005d54 <bad_trap>

80000e1c <inst_102>:
80000e1c:	00300513          	li	a0,3
80000e20:	333335b7          	lui	a1,0x33333
80000e24:	33358593          	addi	a1,a1,819 # 33333333 <offset+0x33333033>
80000e28:	00b53633          	sltu	a2,a0,a1
80000e2c:	14c72823          	sw	a2,336(a4)
80000e30:	00100093          	li	ra,1
80000e34:	00c08463          	beq	ra,a2,80000e3c <inst_103>
80000e38:	71d0406f          	j	80005d54 <bad_trap>

80000e3c <inst_103>:
80000e3c:	00300513          	li	a0,3
80000e40:	666665b7          	lui	a1,0x66666
80000e44:	66658593          	addi	a1,a1,1638 # 66666666 <absimm+0x21374137>
80000e48:	00b53633          	sltu	a2,a0,a1
80000e4c:	14c72a23          	sw	a2,340(a4)
80000e50:	00100093          	li	ra,1
80000e54:	00c08463          	beq	ra,a2,80000e5c <inst_104>
80000e58:	6fd0406f          	j	80005d54 <bad_trap>

80000e5c <inst_104>:
80000e5c:	00300513          	li	a0,3
80000e60:	0000b5b7          	lui	a1,0xb
80000e64:	50458593          	addi	a1,a1,1284 # b504 <offset+0xb204>
80000e68:	00b53633          	sltu	a2,a0,a1
80000e6c:	14c72c23          	sw	a2,344(a4)
80000e70:	00100093          	li	ra,1
80000e74:	00c08463          	beq	ra,a2,80000e7c <inst_105>
80000e78:	6dd0406f          	j	80005d54 <bad_trap>

80000e7c <inst_105>:
80000e7c:	00300513          	li	a0,3
80000e80:	00000593          	li	a1,0
80000e84:	00b53633          	sltu	a2,a0,a1
80000e88:	14c72e23          	sw	a2,348(a4)
80000e8c:	00000093          	li	ra,0
80000e90:	00c08463          	beq	ra,a2,80000e98 <inst_106>
80000e94:	6c10406f          	j	80005d54 <bad_trap>

80000e98 <inst_106>:
80000e98:	00300513          	li	a0,3
80000e9c:	000105b7          	lui	a1,0x10
80000ea0:	fff58593          	addi	a1,a1,-1 # ffff <offset+0xfcff>
80000ea4:	00b53633          	sltu	a2,a0,a1
80000ea8:	16c72023          	sw	a2,352(a4)
80000eac:	00100093          	li	ra,1
80000eb0:	00c08463          	beq	ra,a2,80000eb8 <inst_107>
80000eb4:	6a10406f          	j	80005d54 <bad_trap>

80000eb8 <inst_107>:
80000eb8:	00300513          	li	a0,3
80000ebc:	00200593          	li	a1,2
80000ec0:	00b53633          	sltu	a2,a0,a1
80000ec4:	16c72223          	sw	a2,356(a4)
80000ec8:	00000093          	li	ra,0
80000ecc:	00c08463          	beq	ra,a2,80000ed4 <inst_108>
80000ed0:	6850406f          	j	80005d54 <bad_trap>

80000ed4 <inst_108>:
80000ed4:	00300513          	li	a0,3
80000ed8:	555555b7          	lui	a1,0x55555
80000edc:	55458593          	addi	a1,a1,1364 # 55555554 <absimm+0x10263025>
80000ee0:	00b53633          	sltu	a2,a0,a1
80000ee4:	16c72423          	sw	a2,360(a4)
80000ee8:	00100093          	li	ra,1
80000eec:	00c08463          	beq	ra,a2,80000ef4 <inst_109>
80000ef0:	6650406f          	j	80005d54 <bad_trap>

80000ef4 <inst_109>:
80000ef4:	00300513          	li	a0,3
80000ef8:	aaaab5b7          	lui	a1,0xaaaab
80000efc:	aa958593          	addi	a1,a1,-1367 # aaaaaaa9 <imm12+0xaaaaafd9>
80000f00:	00b53633          	sltu	a2,a0,a1
80000f04:	16c72623          	sw	a2,364(a4)
80000f08:	00100093          	li	ra,1
80000f0c:	00c08463          	beq	ra,a2,80000f14 <inst_110>
80000f10:	6450406f          	j	80005d54 <bad_trap>

80000f14 <inst_110>:
80000f14:	00300513          	li	a0,3
80000f18:	00400593          	li	a1,4
80000f1c:	00b53633          	sltu	a2,a0,a1
80000f20:	16c72823          	sw	a2,368(a4)
80000f24:	00100093          	li	ra,1
80000f28:	00c08463          	beq	ra,a2,80000f30 <inst_111>
80000f2c:	6290406f          	j	80005d54 <bad_trap>

80000f30 <inst_111>:
80000f30:	00300513          	li	a0,3
80000f34:	333335b7          	lui	a1,0x33333
80000f38:	33258593          	addi	a1,a1,818 # 33333332 <offset+0x33333032>
80000f3c:	00b53633          	sltu	a2,a0,a1
80000f40:	16c72a23          	sw	a2,372(a4)
80000f44:	00100093          	li	ra,1
80000f48:	00c08463          	beq	ra,a2,80000f50 <inst_112>
80000f4c:	6090406f          	j	80005d54 <bad_trap>

80000f50 <inst_112>:
80000f50:	00300513          	li	a0,3
80000f54:	666665b7          	lui	a1,0x66666
80000f58:	66558593          	addi	a1,a1,1637 # 66666665 <absimm+0x21374136>
80000f5c:	00b53633          	sltu	a2,a0,a1
80000f60:	16c72c23          	sw	a2,376(a4)
80000f64:	00100093          	li	ra,1
80000f68:	00c08463          	beq	ra,a2,80000f70 <inst_113>
80000f6c:	5e90406f          	j	80005d54 <bad_trap>

80000f70 <inst_113>:
80000f70:	00300513          	li	a0,3
80000f74:	0000b5b7          	lui	a1,0xb
80000f78:	50358593          	addi	a1,a1,1283 # b503 <offset+0xb203>
80000f7c:	00b53633          	sltu	a2,a0,a1
80000f80:	16c72e23          	sw	a2,380(a4)
80000f84:	00100093          	li	ra,1
80000f88:	00c08463          	beq	ra,a2,80000f90 <inst_114>
80000f8c:	5c90406f          	j	80005d54 <bad_trap>

80000f90 <inst_114>:
80000f90:	00300513          	li	a0,3
80000f94:	000105b7          	lui	a1,0x10
80000f98:	ffe58593          	addi	a1,a1,-2 # fffe <offset+0xfcfe>
80000f9c:	00b53633          	sltu	a2,a0,a1
80000fa0:	18c72023          	sw	a2,384(a4)
80000fa4:	00100093          	li	ra,1
80000fa8:	00c08463          	beq	ra,a2,80000fb0 <inst_115>
80000fac:	5a90406f          	j	80005d54 <bad_trap>

80000fb0 <inst_115>:
80000fb0:	00300513          	li	a0,3
80000fb4:	555555b7          	lui	a1,0x55555
80000fb8:	55658593          	addi	a1,a1,1366 # 55555556 <absimm+0x10263027>
80000fbc:	00b53633          	sltu	a2,a0,a1
80000fc0:	18c72223          	sw	a2,388(a4)
80000fc4:	00100093          	li	ra,1
80000fc8:	00c08463          	beq	ra,a2,80000fd0 <inst_116>
80000fcc:	5890406f          	j	80005d54 <bad_trap>

80000fd0 <inst_116>:
80000fd0:	00300513          	li	a0,3
80000fd4:	aaaab5b7          	lui	a1,0xaaaab
80000fd8:	aab58593          	addi	a1,a1,-1365 # aaaaaaab <imm12+0xaaaaafdb>
80000fdc:	00b53633          	sltu	a2,a0,a1
80000fe0:	18c72423          	sw	a2,392(a4)
80000fe4:	00100093          	li	ra,1
80000fe8:	00c08463          	beq	ra,a2,80000ff0 <inst_117>
80000fec:	5690406f          	j	80005d54 <bad_trap>

80000ff0 <inst_117>:
80000ff0:	00300513          	li	a0,3
80000ff4:	00600593          	li	a1,6
80000ff8:	00b53633          	sltu	a2,a0,a1
80000ffc:	18c72623          	sw	a2,396(a4)
80001000:	00100093          	li	ra,1
80001004:	00c08463          	beq	ra,a2,8000100c <inst_118>
80001008:	54d0406f          	j	80005d54 <bad_trap>

8000100c <inst_118>:
8000100c:	00300513          	li	a0,3
80001010:	333335b7          	lui	a1,0x33333
80001014:	33458593          	addi	a1,a1,820 # 33333334 <offset+0x33333034>
80001018:	00b53633          	sltu	a2,a0,a1
8000101c:	18c72823          	sw	a2,400(a4)
80001020:	00100093          	li	ra,1
80001024:	00c08463          	beq	ra,a2,8000102c <inst_119>
80001028:	52d0406f          	j	80005d54 <bad_trap>

8000102c <inst_119>:
8000102c:	00300513          	li	a0,3
80001030:	666665b7          	lui	a1,0x66666
80001034:	66758593          	addi	a1,a1,1639 # 66666667 <absimm+0x21374138>
80001038:	00b53633          	sltu	a2,a0,a1
8000103c:	18c72a23          	sw	a2,404(a4)
80001040:	00100093          	li	ra,1
80001044:	00c08463          	beq	ra,a2,8000104c <inst_120>
80001048:	50d0406f          	j	80005d54 <bad_trap>

8000104c <inst_120>:
8000104c:	00300513          	li	a0,3
80001050:	0000b5b7          	lui	a1,0xb
80001054:	50558593          	addi	a1,a1,1285 # b505 <offset+0xb205>
80001058:	00b53633          	sltu	a2,a0,a1
8000105c:	18c72c23          	sw	a2,408(a4)
80001060:	00100093          	li	ra,1
80001064:	00c08463          	beq	ra,a2,8000106c <inst_121>
80001068:	4ed0406f          	j	80005d54 <bad_trap>

8000106c <inst_121>:
8000106c:	00300513          	li	a0,3
80001070:	00100593          	li	a1,1
80001074:	00b53633          	sltu	a2,a0,a1
80001078:	18c72e23          	sw	a2,412(a4)
8000107c:	00000093          	li	ra,0
80001080:	00c08463          	beq	ra,a2,80001088 <inst_122>
80001084:	4d10406f          	j	80005d54 <bad_trap>

80001088 <inst_122>:
80001088:	00300513          	li	a0,3
8000108c:	000105b7          	lui	a1,0x10
80001090:	00b53633          	sltu	a2,a0,a1
80001094:	1ac72023          	sw	a2,416(a4)
80001098:	00100093          	li	ra,1
8000109c:	00c08463          	beq	ra,a2,800010a4 <inst_123>
800010a0:	4b50406f          	j	80005d54 <bad_trap>

800010a4 <inst_123>:
800010a4:	55555537          	lui	a0,0x55555
800010a8:	55550513          	addi	a0,a0,1365 # 55555555 <absimm+0x10263026>
800010ac:	00300593          	li	a1,3
800010b0:	00b53633          	sltu	a2,a0,a1
800010b4:	1ac72223          	sw	a2,420(a4)
800010b8:	00000093          	li	ra,0
800010bc:	00c08463          	beq	ra,a2,800010c4 <inst_124>
800010c0:	4950406f          	j	80005d54 <bad_trap>

800010c4 <inst_124>:
800010c4:	55555537          	lui	a0,0x55555
800010c8:	55550513          	addi	a0,a0,1365 # 55555555 <absimm+0x10263026>
800010cc:	555555b7          	lui	a1,0x55555
800010d0:	55558593          	addi	a1,a1,1365 # 55555555 <absimm+0x10263026>
800010d4:	00b53633          	sltu	a2,a0,a1
800010d8:	1ac72423          	sw	a2,424(a4)
800010dc:	00000093          	li	ra,0
800010e0:	00c08463          	beq	ra,a2,800010e8 <inst_125>
800010e4:	4710406f          	j	80005d54 <bad_trap>

800010e8 <inst_125>:
800010e8:	55555537          	lui	a0,0x55555
800010ec:	55550513          	addi	a0,a0,1365 # 55555555 <absimm+0x10263026>
800010f0:	aaaab5b7          	lui	a1,0xaaaab
800010f4:	aaa58593          	addi	a1,a1,-1366 # aaaaaaaa <imm12+0xaaaaafda>
800010f8:	00b53633          	sltu	a2,a0,a1
800010fc:	1ac72623          	sw	a2,428(a4)
80001100:	00100093          	li	ra,1
80001104:	00c08463          	beq	ra,a2,8000110c <inst_126>
80001108:	44d0406f          	j	80005d54 <bad_trap>

8000110c <inst_126>:
8000110c:	55555537          	lui	a0,0x55555
80001110:	55550513          	addi	a0,a0,1365 # 55555555 <absimm+0x10263026>
80001114:	00500593          	li	a1,5
80001118:	00b53633          	sltu	a2,a0,a1
8000111c:	1ac72823          	sw	a2,432(a4)
80001120:	00000093          	li	ra,0
80001124:	00c08463          	beq	ra,a2,8000112c <inst_127>
80001128:	42d0406f          	j	80005d54 <bad_trap>

8000112c <inst_127>:
8000112c:	55555537          	lui	a0,0x55555
80001130:	55550513          	addi	a0,a0,1365 # 55555555 <absimm+0x10263026>
80001134:	333335b7          	lui	a1,0x33333
80001138:	33358593          	addi	a1,a1,819 # 33333333 <offset+0x33333033>
8000113c:	00b53633          	sltu	a2,a0,a1
80001140:	1ac72a23          	sw	a2,436(a4)
80001144:	00000093          	li	ra,0
80001148:	00c08463          	beq	ra,a2,80001150 <inst_128>
8000114c:	4090406f          	j	80005d54 <bad_trap>

80001150 <inst_128>:
80001150:	55555537          	lui	a0,0x55555
80001154:	55550513          	addi	a0,a0,1365 # 55555555 <absimm+0x10263026>
80001158:	666665b7          	lui	a1,0x66666
8000115c:	66658593          	addi	a1,a1,1638 # 66666666 <absimm+0x21374137>
80001160:	00b53633          	sltu	a2,a0,a1
80001164:	1ac72c23          	sw	a2,440(a4)
80001168:	00100093          	li	ra,1
8000116c:	00c08463          	beq	ra,a2,80001174 <inst_129>
80001170:	3e50406f          	j	80005d54 <bad_trap>

80001174 <inst_129>:
80001174:	55555537          	lui	a0,0x55555
80001178:	55550513          	addi	a0,a0,1365 # 55555555 <absimm+0x10263026>
8000117c:	0000b5b7          	lui	a1,0xb
80001180:	50458593          	addi	a1,a1,1284 # b504 <offset+0xb204>
80001184:	00b53633          	sltu	a2,a0,a1
80001188:	1ac72e23          	sw	a2,444(a4)
8000118c:	00000093          	li	ra,0
80001190:	00c08463          	beq	ra,a2,80001198 <inst_130>
80001194:	3c10406f          	j	80005d54 <bad_trap>

80001198 <inst_130>:
80001198:	55555537          	lui	a0,0x55555
8000119c:	55550513          	addi	a0,a0,1365 # 55555555 <absimm+0x10263026>
800011a0:	00000593          	li	a1,0
800011a4:	00b53633          	sltu	a2,a0,a1
800011a8:	1cc72023          	sw	a2,448(a4)
800011ac:	00000093          	li	ra,0
800011b0:	00c08463          	beq	ra,a2,800011b8 <inst_131>
800011b4:	3a10406f          	j	80005d54 <bad_trap>

800011b8 <inst_131>:
800011b8:	55555537          	lui	a0,0x55555
800011bc:	55550513          	addi	a0,a0,1365 # 55555555 <absimm+0x10263026>
800011c0:	000105b7          	lui	a1,0x10
800011c4:	fff58593          	addi	a1,a1,-1 # ffff <offset+0xfcff>
800011c8:	00b53633          	sltu	a2,a0,a1
800011cc:	1cc72223          	sw	a2,452(a4)
800011d0:	00000093          	li	ra,0
800011d4:	00c08463          	beq	ra,a2,800011dc <inst_132>
800011d8:	37d0406f          	j	80005d54 <bad_trap>

800011dc <inst_132>:
800011dc:	55555537          	lui	a0,0x55555
800011e0:	55550513          	addi	a0,a0,1365 # 55555555 <absimm+0x10263026>
800011e4:	00200593          	li	a1,2
800011e8:	00b53633          	sltu	a2,a0,a1
800011ec:	1cc72423          	sw	a2,456(a4)
800011f0:	00000093          	li	ra,0
800011f4:	00c08463          	beq	ra,a2,800011fc <inst_133>
800011f8:	35d0406f          	j	80005d54 <bad_trap>

800011fc <inst_133>:
800011fc:	55555537          	lui	a0,0x55555
80001200:	55550513          	addi	a0,a0,1365 # 55555555 <absimm+0x10263026>
80001204:	555555b7          	lui	a1,0x55555
80001208:	55458593          	addi	a1,a1,1364 # 55555554 <absimm+0x10263025>
8000120c:	00b53633          	sltu	a2,a0,a1
80001210:	1cc72623          	sw	a2,460(a4)
80001214:	00000093          	li	ra,0
80001218:	00c08463          	beq	ra,a2,80001220 <inst_134>
8000121c:	3390406f          	j	80005d54 <bad_trap>

80001220 <inst_134>:
80001220:	55555537          	lui	a0,0x55555
80001224:	55550513          	addi	a0,a0,1365 # 55555555 <absimm+0x10263026>
80001228:	aaaab5b7          	lui	a1,0xaaaab
8000122c:	aa958593          	addi	a1,a1,-1367 # aaaaaaa9 <imm12+0xaaaaafd9>
80001230:	00b53633          	sltu	a2,a0,a1
80001234:	1cc72823          	sw	a2,464(a4)
80001238:	00100093          	li	ra,1
8000123c:	00c08463          	beq	ra,a2,80001244 <inst_135>
80001240:	3150406f          	j	80005d54 <bad_trap>

80001244 <inst_135>:
80001244:	55555537          	lui	a0,0x55555
80001248:	55550513          	addi	a0,a0,1365 # 55555555 <absimm+0x10263026>
8000124c:	00400593          	li	a1,4
80001250:	00b53633          	sltu	a2,a0,a1
80001254:	1cc72a23          	sw	a2,468(a4)
80001258:	00000093          	li	ra,0
8000125c:	00c08463          	beq	ra,a2,80001264 <inst_136>
80001260:	2f50406f          	j	80005d54 <bad_trap>

80001264 <inst_136>:
80001264:	55555537          	lui	a0,0x55555
80001268:	55550513          	addi	a0,a0,1365 # 55555555 <absimm+0x10263026>
8000126c:	333335b7          	lui	a1,0x33333
80001270:	33258593          	addi	a1,a1,818 # 33333332 <offset+0x33333032>
80001274:	00b53633          	sltu	a2,a0,a1
80001278:	1cc72c23          	sw	a2,472(a4)
8000127c:	00000093          	li	ra,0
80001280:	00c08463          	beq	ra,a2,80001288 <inst_137>
80001284:	2d10406f          	j	80005d54 <bad_trap>

80001288 <inst_137>:
80001288:	55555537          	lui	a0,0x55555
8000128c:	55550513          	addi	a0,a0,1365 # 55555555 <absimm+0x10263026>
80001290:	666665b7          	lui	a1,0x66666
80001294:	66558593          	addi	a1,a1,1637 # 66666665 <absimm+0x21374136>
80001298:	00b53633          	sltu	a2,a0,a1
8000129c:	1cc72e23          	sw	a2,476(a4)
800012a0:	00100093          	li	ra,1
800012a4:	00c08463          	beq	ra,a2,800012ac <inst_138>
800012a8:	2ad0406f          	j	80005d54 <bad_trap>

800012ac <inst_138>:
800012ac:	55555537          	lui	a0,0x55555
800012b0:	55550513          	addi	a0,a0,1365 # 55555555 <absimm+0x10263026>
800012b4:	0000b5b7          	lui	a1,0xb
800012b8:	50358593          	addi	a1,a1,1283 # b503 <offset+0xb203>
800012bc:	00b53633          	sltu	a2,a0,a1
800012c0:	1ec72023          	sw	a2,480(a4)
800012c4:	00000093          	li	ra,0
800012c8:	00c08463          	beq	ra,a2,800012d0 <inst_139>
800012cc:	2890406f          	j	80005d54 <bad_trap>

800012d0 <inst_139>:
800012d0:	55555537          	lui	a0,0x55555
800012d4:	55550513          	addi	a0,a0,1365 # 55555555 <absimm+0x10263026>
800012d8:	000105b7          	lui	a1,0x10
800012dc:	ffe58593          	addi	a1,a1,-2 # fffe <offset+0xfcfe>
800012e0:	00b53633          	sltu	a2,a0,a1
800012e4:	1ec72223          	sw	a2,484(a4)
800012e8:	00000093          	li	ra,0
800012ec:	00c08463          	beq	ra,a2,800012f4 <inst_140>
800012f0:	2650406f          	j	80005d54 <bad_trap>

800012f4 <inst_140>:
800012f4:	55555537          	lui	a0,0x55555
800012f8:	55550513          	addi	a0,a0,1365 # 55555555 <absimm+0x10263026>
800012fc:	555555b7          	lui	a1,0x55555
80001300:	55658593          	addi	a1,a1,1366 # 55555556 <absimm+0x10263027>
80001304:	00b53633          	sltu	a2,a0,a1
80001308:	1ec72423          	sw	a2,488(a4)
8000130c:	00100093          	li	ra,1
80001310:	00c08463          	beq	ra,a2,80001318 <inst_141>
80001314:	2410406f          	j	80005d54 <bad_trap>

80001318 <inst_141>:
80001318:	55555537          	lui	a0,0x55555
8000131c:	55550513          	addi	a0,a0,1365 # 55555555 <absimm+0x10263026>
80001320:	aaaab5b7          	lui	a1,0xaaaab
80001324:	aab58593          	addi	a1,a1,-1365 # aaaaaaab <imm12+0xaaaaafdb>
80001328:	00b53633          	sltu	a2,a0,a1
8000132c:	1ec72623          	sw	a2,492(a4)
80001330:	00100093          	li	ra,1
80001334:	00c08463          	beq	ra,a2,8000133c <inst_142>
80001338:	21d0406f          	j	80005d54 <bad_trap>

8000133c <inst_142>:
8000133c:	55555537          	lui	a0,0x55555
80001340:	55550513          	addi	a0,a0,1365 # 55555555 <absimm+0x10263026>
80001344:	00600593          	li	a1,6
80001348:	00b53633          	sltu	a2,a0,a1
8000134c:	1ec72823          	sw	a2,496(a4)
80001350:	00000093          	li	ra,0
80001354:	00c08463          	beq	ra,a2,8000135c <inst_143>
80001358:	1fd0406f          	j	80005d54 <bad_trap>

8000135c <inst_143>:
8000135c:	55555537          	lui	a0,0x55555
80001360:	55550513          	addi	a0,a0,1365 # 55555555 <absimm+0x10263026>
80001364:	333335b7          	lui	a1,0x33333
80001368:	33458593          	addi	a1,a1,820 # 33333334 <offset+0x33333034>
8000136c:	00b53633          	sltu	a2,a0,a1
80001370:	1ec72a23          	sw	a2,500(a4)
80001374:	00000093          	li	ra,0
80001378:	00c08463          	beq	ra,a2,80001380 <inst_144>
8000137c:	1d90406f          	j	80005d54 <bad_trap>

80001380 <inst_144>:
80001380:	55555537          	lui	a0,0x55555
80001384:	55550513          	addi	a0,a0,1365 # 55555555 <absimm+0x10263026>
80001388:	666665b7          	lui	a1,0x66666
8000138c:	66758593          	addi	a1,a1,1639 # 66666667 <absimm+0x21374138>
80001390:	00b53633          	sltu	a2,a0,a1
80001394:	1ec72c23          	sw	a2,504(a4)
80001398:	00100093          	li	ra,1
8000139c:	00c08463          	beq	ra,a2,800013a4 <inst_145>
800013a0:	1b50406f          	j	80005d54 <bad_trap>

800013a4 <inst_145>:
800013a4:	55555537          	lui	a0,0x55555
800013a8:	55550513          	addi	a0,a0,1365 # 55555555 <absimm+0x10263026>
800013ac:	0000b5b7          	lui	a1,0xb
800013b0:	50558593          	addi	a1,a1,1285 # b505 <offset+0xb205>
800013b4:	00b53633          	sltu	a2,a0,a1
800013b8:	1ec72e23          	sw	a2,508(a4)
800013bc:	00000093          	li	ra,0
800013c0:	00c08463          	beq	ra,a2,800013c8 <inst_146>
800013c4:	1910406f          	j	80005d54 <bad_trap>

800013c8 <inst_146>:
800013c8:	55555537          	lui	a0,0x55555
800013cc:	55550513          	addi	a0,a0,1365 # 55555555 <absimm+0x10263026>
800013d0:	00100593          	li	a1,1
800013d4:	00b53633          	sltu	a2,a0,a1
800013d8:	20c72023          	sw	a2,512(a4)
800013dc:	00000093          	li	ra,0
800013e0:	00c08463          	beq	ra,a2,800013e8 <inst_147>
800013e4:	1710406f          	j	80005d54 <bad_trap>

800013e8 <inst_147>:
800013e8:	55555537          	lui	a0,0x55555
800013ec:	55550513          	addi	a0,a0,1365 # 55555555 <absimm+0x10263026>
800013f0:	000105b7          	lui	a1,0x10
800013f4:	00b53633          	sltu	a2,a0,a1
800013f8:	20c72223          	sw	a2,516(a4)
800013fc:	00000093          	li	ra,0
80001400:	00c08463          	beq	ra,a2,80001408 <inst_148>
80001404:	1510406f          	j	80005d54 <bad_trap>

80001408 <inst_148>:
80001408:	aaaab537          	lui	a0,0xaaaab
8000140c:	aaa50513          	addi	a0,a0,-1366 # aaaaaaaa <imm12+0xaaaaafda>
80001410:	00300593          	li	a1,3
80001414:	00b53633          	sltu	a2,a0,a1
80001418:	20c72423          	sw	a2,520(a4)
8000141c:	00000093          	li	ra,0
80001420:	00c08463          	beq	ra,a2,80001428 <inst_149>
80001424:	1310406f          	j	80005d54 <bad_trap>

80001428 <inst_149>:
80001428:	aaaab537          	lui	a0,0xaaaab
8000142c:	aaa50513          	addi	a0,a0,-1366 # aaaaaaaa <imm12+0xaaaaafda>
80001430:	555555b7          	lui	a1,0x55555
80001434:	55558593          	addi	a1,a1,1365 # 55555555 <absimm+0x10263026>
80001438:	00b53633          	sltu	a2,a0,a1
8000143c:	20c72623          	sw	a2,524(a4)
80001440:	00000093          	li	ra,0
80001444:	00c08463          	beq	ra,a2,8000144c <inst_150>
80001448:	10d0406f          	j	80005d54 <bad_trap>

8000144c <inst_150>:
8000144c:	aaaab537          	lui	a0,0xaaaab
80001450:	aaa50513          	addi	a0,a0,-1366 # aaaaaaaa <imm12+0xaaaaafda>
80001454:	aaaab5b7          	lui	a1,0xaaaab
80001458:	aaa58593          	addi	a1,a1,-1366 # aaaaaaaa <imm12+0xaaaaafda>
8000145c:	00b53633          	sltu	a2,a0,a1
80001460:	20c72823          	sw	a2,528(a4)
80001464:	00000093          	li	ra,0
80001468:	00c08463          	beq	ra,a2,80001470 <inst_151>
8000146c:	0e90406f          	j	80005d54 <bad_trap>

80001470 <inst_151>:
80001470:	aaaab537          	lui	a0,0xaaaab
80001474:	aaa50513          	addi	a0,a0,-1366 # aaaaaaaa <imm12+0xaaaaafda>
80001478:	00500593          	li	a1,5
8000147c:	00b53633          	sltu	a2,a0,a1
80001480:	20c72a23          	sw	a2,532(a4)
80001484:	00000093          	li	ra,0
80001488:	00c08463          	beq	ra,a2,80001490 <inst_152>
8000148c:	0c90406f          	j	80005d54 <bad_trap>

80001490 <inst_152>:
80001490:	aaaab537          	lui	a0,0xaaaab
80001494:	aaa50513          	addi	a0,a0,-1366 # aaaaaaaa <imm12+0xaaaaafda>
80001498:	333335b7          	lui	a1,0x33333
8000149c:	33358593          	addi	a1,a1,819 # 33333333 <offset+0x33333033>
800014a0:	00b53633          	sltu	a2,a0,a1
800014a4:	20c72c23          	sw	a2,536(a4)
800014a8:	00000093          	li	ra,0
800014ac:	00c08463          	beq	ra,a2,800014b4 <inst_153>
800014b0:	0a50406f          	j	80005d54 <bad_trap>

800014b4 <inst_153>:
800014b4:	aaaab537          	lui	a0,0xaaaab
800014b8:	aaa50513          	addi	a0,a0,-1366 # aaaaaaaa <imm12+0xaaaaafda>
800014bc:	666665b7          	lui	a1,0x66666
800014c0:	66658593          	addi	a1,a1,1638 # 66666666 <absimm+0x21374137>
800014c4:	00b53633          	sltu	a2,a0,a1
800014c8:	20c72e23          	sw	a2,540(a4)
800014cc:	00000093          	li	ra,0
800014d0:	00c08463          	beq	ra,a2,800014d8 <inst_154>
800014d4:	0810406f          	j	80005d54 <bad_trap>

800014d8 <inst_154>:
800014d8:	aaaab537          	lui	a0,0xaaaab
800014dc:	aaa50513          	addi	a0,a0,-1366 # aaaaaaaa <imm12+0xaaaaafda>
800014e0:	0000b5b7          	lui	a1,0xb
800014e4:	50458593          	addi	a1,a1,1284 # b504 <offset+0xb204>
800014e8:	00b53633          	sltu	a2,a0,a1
800014ec:	22c72023          	sw	a2,544(a4)
800014f0:	00000093          	li	ra,0
800014f4:	00c08463          	beq	ra,a2,800014fc <inst_155>
800014f8:	05d0406f          	j	80005d54 <bad_trap>

800014fc <inst_155>:
800014fc:	aaaab537          	lui	a0,0xaaaab
80001500:	aaa50513          	addi	a0,a0,-1366 # aaaaaaaa <imm12+0xaaaaafda>
80001504:	00000593          	li	a1,0
80001508:	00b53633          	sltu	a2,a0,a1
8000150c:	22c72223          	sw	a2,548(a4)
80001510:	00000093          	li	ra,0
80001514:	00c08463          	beq	ra,a2,8000151c <inst_156>
80001518:	03d0406f          	j	80005d54 <bad_trap>

8000151c <inst_156>:
8000151c:	aaaab537          	lui	a0,0xaaaab
80001520:	aaa50513          	addi	a0,a0,-1366 # aaaaaaaa <imm12+0xaaaaafda>
80001524:	000105b7          	lui	a1,0x10
80001528:	fff58593          	addi	a1,a1,-1 # ffff <offset+0xfcff>
8000152c:	00b53633          	sltu	a2,a0,a1
80001530:	22c72423          	sw	a2,552(a4)
80001534:	00000093          	li	ra,0
80001538:	00c08463          	beq	ra,a2,80001540 <inst_157>
8000153c:	0190406f          	j	80005d54 <bad_trap>

80001540 <inst_157>:
80001540:	aaaab537          	lui	a0,0xaaaab
80001544:	aaa50513          	addi	a0,a0,-1366 # aaaaaaaa <imm12+0xaaaaafda>
80001548:	00200593          	li	a1,2
8000154c:	00b53633          	sltu	a2,a0,a1
80001550:	22c72623          	sw	a2,556(a4)
80001554:	00000093          	li	ra,0
80001558:	00c08463          	beq	ra,a2,80001560 <inst_158>
8000155c:	7f80406f          	j	80005d54 <bad_trap>

80001560 <inst_158>:
80001560:	aaaab537          	lui	a0,0xaaaab
80001564:	aaa50513          	addi	a0,a0,-1366 # aaaaaaaa <imm12+0xaaaaafda>
80001568:	555555b7          	lui	a1,0x55555
8000156c:	55458593          	addi	a1,a1,1364 # 55555554 <absimm+0x10263025>
80001570:	00b53633          	sltu	a2,a0,a1
80001574:	22c72823          	sw	a2,560(a4)
80001578:	00000093          	li	ra,0
8000157c:	00c08463          	beq	ra,a2,80001584 <inst_159>
80001580:	7d40406f          	j	80005d54 <bad_trap>

80001584 <inst_159>:
80001584:	aaaab537          	lui	a0,0xaaaab
80001588:	aaa50513          	addi	a0,a0,-1366 # aaaaaaaa <imm12+0xaaaaafda>
8000158c:	aaaab5b7          	lui	a1,0xaaaab
80001590:	aa958593          	addi	a1,a1,-1367 # aaaaaaa9 <imm12+0xaaaaafd9>
80001594:	00b53633          	sltu	a2,a0,a1
80001598:	22c72a23          	sw	a2,564(a4)
8000159c:	00000093          	li	ra,0
800015a0:	00c08463          	beq	ra,a2,800015a8 <inst_160>
800015a4:	7b00406f          	j	80005d54 <bad_trap>

800015a8 <inst_160>:
800015a8:	aaaab537          	lui	a0,0xaaaab
800015ac:	aaa50513          	addi	a0,a0,-1366 # aaaaaaaa <imm12+0xaaaaafda>
800015b0:	00400593          	li	a1,4
800015b4:	00b53633          	sltu	a2,a0,a1
800015b8:	22c72c23          	sw	a2,568(a4)
800015bc:	00000093          	li	ra,0
800015c0:	00c08463          	beq	ra,a2,800015c8 <inst_161>
800015c4:	7900406f          	j	80005d54 <bad_trap>

800015c8 <inst_161>:
800015c8:	aaaab537          	lui	a0,0xaaaab
800015cc:	aaa50513          	addi	a0,a0,-1366 # aaaaaaaa <imm12+0xaaaaafda>
800015d0:	333335b7          	lui	a1,0x33333
800015d4:	33258593          	addi	a1,a1,818 # 33333332 <offset+0x33333032>
800015d8:	00b53633          	sltu	a2,a0,a1
800015dc:	22c72e23          	sw	a2,572(a4)
800015e0:	00000093          	li	ra,0
800015e4:	00c08463          	beq	ra,a2,800015ec <inst_162>
800015e8:	76c0406f          	j	80005d54 <bad_trap>

800015ec <inst_162>:
800015ec:	aaaab537          	lui	a0,0xaaaab
800015f0:	aaa50513          	addi	a0,a0,-1366 # aaaaaaaa <imm12+0xaaaaafda>
800015f4:	666665b7          	lui	a1,0x66666
800015f8:	66558593          	addi	a1,a1,1637 # 66666665 <absimm+0x21374136>
800015fc:	00b53633          	sltu	a2,a0,a1
80001600:	24c72023          	sw	a2,576(a4)
80001604:	00000093          	li	ra,0
80001608:	00c08463          	beq	ra,a2,80001610 <inst_163>
8000160c:	7480406f          	j	80005d54 <bad_trap>

80001610 <inst_163>:
80001610:	aaaab537          	lui	a0,0xaaaab
80001614:	aaa50513          	addi	a0,a0,-1366 # aaaaaaaa <imm12+0xaaaaafda>
80001618:	0000b5b7          	lui	a1,0xb
8000161c:	50358593          	addi	a1,a1,1283 # b503 <offset+0xb203>
80001620:	00b53633          	sltu	a2,a0,a1
80001624:	24c72223          	sw	a2,580(a4)
80001628:	00000093          	li	ra,0
8000162c:	00c08463          	beq	ra,a2,80001634 <inst_164>
80001630:	7240406f          	j	80005d54 <bad_trap>

80001634 <inst_164>:
80001634:	aaaab537          	lui	a0,0xaaaab
80001638:	aaa50513          	addi	a0,a0,-1366 # aaaaaaaa <imm12+0xaaaaafda>
8000163c:	000105b7          	lui	a1,0x10
80001640:	ffe58593          	addi	a1,a1,-2 # fffe <offset+0xfcfe>
80001644:	00b53633          	sltu	a2,a0,a1
80001648:	24c72423          	sw	a2,584(a4)
8000164c:	00000093          	li	ra,0
80001650:	00c08463          	beq	ra,a2,80001658 <inst_165>
80001654:	7000406f          	j	80005d54 <bad_trap>

80001658 <inst_165>:
80001658:	aaaab537          	lui	a0,0xaaaab
8000165c:	aaa50513          	addi	a0,a0,-1366 # aaaaaaaa <imm12+0xaaaaafda>
80001660:	555555b7          	lui	a1,0x55555
80001664:	55658593          	addi	a1,a1,1366 # 55555556 <absimm+0x10263027>
80001668:	00b53633          	sltu	a2,a0,a1
8000166c:	24c72623          	sw	a2,588(a4)
80001670:	00000093          	li	ra,0
80001674:	00c08463          	beq	ra,a2,8000167c <inst_166>
80001678:	6dc0406f          	j	80005d54 <bad_trap>

8000167c <inst_166>:
8000167c:	aaaab537          	lui	a0,0xaaaab
80001680:	aaa50513          	addi	a0,a0,-1366 # aaaaaaaa <imm12+0xaaaaafda>
80001684:	aaaab5b7          	lui	a1,0xaaaab
80001688:	aab58593          	addi	a1,a1,-1365 # aaaaaaab <imm12+0xaaaaafdb>
8000168c:	00b53633          	sltu	a2,a0,a1
80001690:	24c72823          	sw	a2,592(a4)
80001694:	00100093          	li	ra,1
80001698:	00c08463          	beq	ra,a2,800016a0 <inst_167>
8000169c:	6b80406f          	j	80005d54 <bad_trap>

800016a0 <inst_167>:
800016a0:	aaaab537          	lui	a0,0xaaaab
800016a4:	aaa50513          	addi	a0,a0,-1366 # aaaaaaaa <imm12+0xaaaaafda>
800016a8:	00600593          	li	a1,6
800016ac:	00b53633          	sltu	a2,a0,a1
800016b0:	24c72a23          	sw	a2,596(a4)
800016b4:	00000093          	li	ra,0
800016b8:	00c08463          	beq	ra,a2,800016c0 <inst_168>
800016bc:	6980406f          	j	80005d54 <bad_trap>

800016c0 <inst_168>:
800016c0:	aaaab537          	lui	a0,0xaaaab
800016c4:	aaa50513          	addi	a0,a0,-1366 # aaaaaaaa <imm12+0xaaaaafda>
800016c8:	333335b7          	lui	a1,0x33333
800016cc:	33458593          	addi	a1,a1,820 # 33333334 <offset+0x33333034>
800016d0:	00b53633          	sltu	a2,a0,a1
800016d4:	24c72c23          	sw	a2,600(a4)
800016d8:	00000093          	li	ra,0
800016dc:	00c08463          	beq	ra,a2,800016e4 <inst_169>
800016e0:	6740406f          	j	80005d54 <bad_trap>

800016e4 <inst_169>:
800016e4:	aaaab537          	lui	a0,0xaaaab
800016e8:	aaa50513          	addi	a0,a0,-1366 # aaaaaaaa <imm12+0xaaaaafda>
800016ec:	666665b7          	lui	a1,0x66666
800016f0:	66758593          	addi	a1,a1,1639 # 66666667 <absimm+0x21374138>
800016f4:	00b53633          	sltu	a2,a0,a1
800016f8:	24c72e23          	sw	a2,604(a4)
800016fc:	00000093          	li	ra,0
80001700:	00c08463          	beq	ra,a2,80001708 <inst_170>
80001704:	6500406f          	j	80005d54 <bad_trap>

80001708 <inst_170>:
80001708:	aaaab537          	lui	a0,0xaaaab
8000170c:	aaa50513          	addi	a0,a0,-1366 # aaaaaaaa <imm12+0xaaaaafda>
80001710:	0000b5b7          	lui	a1,0xb
80001714:	50558593          	addi	a1,a1,1285 # b505 <offset+0xb205>
80001718:	00b53633          	sltu	a2,a0,a1
8000171c:	26c72023          	sw	a2,608(a4)
80001720:	00000093          	li	ra,0
80001724:	00c08463          	beq	ra,a2,8000172c <inst_171>
80001728:	62c0406f          	j	80005d54 <bad_trap>

8000172c <inst_171>:
8000172c:	aaaab537          	lui	a0,0xaaaab
80001730:	aaa50513          	addi	a0,a0,-1366 # aaaaaaaa <imm12+0xaaaaafda>
80001734:	00100593          	li	a1,1
80001738:	00b53633          	sltu	a2,a0,a1
8000173c:	26c72223          	sw	a2,612(a4)
80001740:	00000093          	li	ra,0
80001744:	00c08463          	beq	ra,a2,8000174c <inst_172>
80001748:	60c0406f          	j	80005d54 <bad_trap>

8000174c <inst_172>:
8000174c:	aaaab537          	lui	a0,0xaaaab
80001750:	aaa50513          	addi	a0,a0,-1366 # aaaaaaaa <imm12+0xaaaaafda>
80001754:	000105b7          	lui	a1,0x10
80001758:	00b53633          	sltu	a2,a0,a1
8000175c:	26c72423          	sw	a2,616(a4)
80001760:	00000093          	li	ra,0
80001764:	00c08463          	beq	ra,a2,8000176c <inst_173>
80001768:	5ec0406f          	j	80005d54 <bad_trap>

8000176c <inst_173>:
8000176c:	00500513          	li	a0,5
80001770:	00300593          	li	a1,3
80001774:	00b53633          	sltu	a2,a0,a1
80001778:	26c72623          	sw	a2,620(a4)
8000177c:	00000093          	li	ra,0
80001780:	00c08463          	beq	ra,a2,80001788 <inst_174>
80001784:	5d00406f          	j	80005d54 <bad_trap>

80001788 <inst_174>:
80001788:	00500513          	li	a0,5
8000178c:	555555b7          	lui	a1,0x55555
80001790:	55558593          	addi	a1,a1,1365 # 55555555 <absimm+0x10263026>
80001794:	00b53633          	sltu	a2,a0,a1
80001798:	26c72823          	sw	a2,624(a4)
8000179c:	00100093          	li	ra,1
800017a0:	00c08463          	beq	ra,a2,800017a8 <inst_175>
800017a4:	5b00406f          	j	80005d54 <bad_trap>

800017a8 <inst_175>:
800017a8:	00500513          	li	a0,5
800017ac:	aaaab5b7          	lui	a1,0xaaaab
800017b0:	aaa58593          	addi	a1,a1,-1366 # aaaaaaaa <imm12+0xaaaaafda>
800017b4:	00b53633          	sltu	a2,a0,a1
800017b8:	26c72a23          	sw	a2,628(a4)
800017bc:	00100093          	li	ra,1
800017c0:	00c08463          	beq	ra,a2,800017c8 <inst_176>
800017c4:	5900406f          	j	80005d54 <bad_trap>

800017c8 <inst_176>:
800017c8:	00500513          	li	a0,5
800017cc:	00500593          	li	a1,5
800017d0:	00b53633          	sltu	a2,a0,a1
800017d4:	26c72c23          	sw	a2,632(a4)
800017d8:	00000093          	li	ra,0
800017dc:	00c08463          	beq	ra,a2,800017e4 <inst_177>
800017e0:	5740406f          	j	80005d54 <bad_trap>

800017e4 <inst_177>:
800017e4:	00500513          	li	a0,5
800017e8:	333335b7          	lui	a1,0x33333
800017ec:	33358593          	addi	a1,a1,819 # 33333333 <offset+0x33333033>
800017f0:	00b53633          	sltu	a2,a0,a1
800017f4:	26c72e23          	sw	a2,636(a4)
800017f8:	00100093          	li	ra,1
800017fc:	00c08463          	beq	ra,a2,80001804 <inst_178>
80001800:	5540406f          	j	80005d54 <bad_trap>

80001804 <inst_178>:
80001804:	00500513          	li	a0,5
80001808:	666665b7          	lui	a1,0x66666
8000180c:	66658593          	addi	a1,a1,1638 # 66666666 <absimm+0x21374137>
80001810:	00b53633          	sltu	a2,a0,a1
80001814:	28c72023          	sw	a2,640(a4)
80001818:	00100093          	li	ra,1
8000181c:	00c08463          	beq	ra,a2,80001824 <inst_179>
80001820:	5340406f          	j	80005d54 <bad_trap>

80001824 <inst_179>:
80001824:	00500513          	li	a0,5
80001828:	0000b5b7          	lui	a1,0xb
8000182c:	50458593          	addi	a1,a1,1284 # b504 <offset+0xb204>
80001830:	00b53633          	sltu	a2,a0,a1
80001834:	28c72223          	sw	a2,644(a4)
80001838:	00100093          	li	ra,1
8000183c:	00c08463          	beq	ra,a2,80001844 <inst_180>
80001840:	5140406f          	j	80005d54 <bad_trap>

80001844 <inst_180>:
80001844:	00500513          	li	a0,5
80001848:	00000593          	li	a1,0
8000184c:	00b53633          	sltu	a2,a0,a1
80001850:	28c72423          	sw	a2,648(a4)
80001854:	00000093          	li	ra,0
80001858:	00c08463          	beq	ra,a2,80001860 <inst_181>
8000185c:	4f80406f          	j	80005d54 <bad_trap>

80001860 <inst_181>:
80001860:	00500513          	li	a0,5
80001864:	000105b7          	lui	a1,0x10
80001868:	fff58593          	addi	a1,a1,-1 # ffff <offset+0xfcff>
8000186c:	00b53633          	sltu	a2,a0,a1
80001870:	28c72623          	sw	a2,652(a4)
80001874:	00100093          	li	ra,1
80001878:	00c08463          	beq	ra,a2,80001880 <inst_182>
8000187c:	4d80406f          	j	80005d54 <bad_trap>

80001880 <inst_182>:
80001880:	00500513          	li	a0,5
80001884:	00200593          	li	a1,2
80001888:	00b53633          	sltu	a2,a0,a1
8000188c:	28c72823          	sw	a2,656(a4)
80001890:	00000093          	li	ra,0
80001894:	00c08463          	beq	ra,a2,8000189c <inst_183>
80001898:	4bc0406f          	j	80005d54 <bad_trap>

8000189c <inst_183>:
8000189c:	00500513          	li	a0,5
800018a0:	555555b7          	lui	a1,0x55555
800018a4:	55458593          	addi	a1,a1,1364 # 55555554 <absimm+0x10263025>
800018a8:	00b53633          	sltu	a2,a0,a1
800018ac:	28c72a23          	sw	a2,660(a4)
800018b0:	00100093          	li	ra,1
800018b4:	00c08463          	beq	ra,a2,800018bc <inst_184>
800018b8:	49c0406f          	j	80005d54 <bad_trap>

800018bc <inst_184>:
800018bc:	00500513          	li	a0,5
800018c0:	aaaab5b7          	lui	a1,0xaaaab
800018c4:	aa958593          	addi	a1,a1,-1367 # aaaaaaa9 <imm12+0xaaaaafd9>
800018c8:	00b53633          	sltu	a2,a0,a1
800018cc:	28c72c23          	sw	a2,664(a4)
800018d0:	00100093          	li	ra,1
800018d4:	00c08463          	beq	ra,a2,800018dc <inst_185>
800018d8:	47c0406f          	j	80005d54 <bad_trap>

800018dc <inst_185>:
800018dc:	00500513          	li	a0,5
800018e0:	00400593          	li	a1,4
800018e4:	00b53633          	sltu	a2,a0,a1
800018e8:	28c72e23          	sw	a2,668(a4)
800018ec:	00000093          	li	ra,0
800018f0:	00c08463          	beq	ra,a2,800018f8 <inst_186>
800018f4:	4600406f          	j	80005d54 <bad_trap>

800018f8 <inst_186>:
800018f8:	00500513          	li	a0,5
800018fc:	333335b7          	lui	a1,0x33333
80001900:	33258593          	addi	a1,a1,818 # 33333332 <offset+0x33333032>
80001904:	00b53633          	sltu	a2,a0,a1
80001908:	2ac72023          	sw	a2,672(a4)
8000190c:	00100093          	li	ra,1
80001910:	00c08463          	beq	ra,a2,80001918 <inst_187>
80001914:	4400406f          	j	80005d54 <bad_trap>

80001918 <inst_187>:
80001918:	00500513          	li	a0,5
8000191c:	666665b7          	lui	a1,0x66666
80001920:	66558593          	addi	a1,a1,1637 # 66666665 <absimm+0x21374136>
80001924:	00b53633          	sltu	a2,a0,a1
80001928:	2ac72223          	sw	a2,676(a4)
8000192c:	00100093          	li	ra,1
80001930:	00c08463          	beq	ra,a2,80001938 <inst_188>
80001934:	4200406f          	j	80005d54 <bad_trap>

80001938 <inst_188>:
80001938:	00500513          	li	a0,5
8000193c:	0000b5b7          	lui	a1,0xb
80001940:	50358593          	addi	a1,a1,1283 # b503 <offset+0xb203>
80001944:	00b53633          	sltu	a2,a0,a1
80001948:	2ac72423          	sw	a2,680(a4)
8000194c:	00100093          	li	ra,1
80001950:	00c08463          	beq	ra,a2,80001958 <inst_189>
80001954:	4000406f          	j	80005d54 <bad_trap>

80001958 <inst_189>:
80001958:	00500513          	li	a0,5
8000195c:	000105b7          	lui	a1,0x10
80001960:	ffe58593          	addi	a1,a1,-2 # fffe <offset+0xfcfe>
80001964:	00b53633          	sltu	a2,a0,a1
80001968:	2ac72623          	sw	a2,684(a4)
8000196c:	00100093          	li	ra,1
80001970:	00c08463          	beq	ra,a2,80001978 <inst_190>
80001974:	3e00406f          	j	80005d54 <bad_trap>

80001978 <inst_190>:
80001978:	00500513          	li	a0,5
8000197c:	555555b7          	lui	a1,0x55555
80001980:	55658593          	addi	a1,a1,1366 # 55555556 <absimm+0x10263027>
80001984:	00b53633          	sltu	a2,a0,a1
80001988:	2ac72823          	sw	a2,688(a4)
8000198c:	00100093          	li	ra,1
80001990:	00c08463          	beq	ra,a2,80001998 <inst_191>
80001994:	3c00406f          	j	80005d54 <bad_trap>

80001998 <inst_191>:
80001998:	00500513          	li	a0,5
8000199c:	aaaab5b7          	lui	a1,0xaaaab
800019a0:	aab58593          	addi	a1,a1,-1365 # aaaaaaab <imm12+0xaaaaafdb>
800019a4:	00b53633          	sltu	a2,a0,a1
800019a8:	2ac72a23          	sw	a2,692(a4)
800019ac:	00100093          	li	ra,1
800019b0:	00c08463          	beq	ra,a2,800019b8 <inst_192>
800019b4:	3a00406f          	j	80005d54 <bad_trap>

800019b8 <inst_192>:
800019b8:	00500513          	li	a0,5
800019bc:	00600593          	li	a1,6
800019c0:	00b53633          	sltu	a2,a0,a1
800019c4:	2ac72c23          	sw	a2,696(a4)
800019c8:	00100093          	li	ra,1
800019cc:	00c08463          	beq	ra,a2,800019d4 <inst_193>
800019d0:	3840406f          	j	80005d54 <bad_trap>

800019d4 <inst_193>:
800019d4:	00500513          	li	a0,5
800019d8:	333335b7          	lui	a1,0x33333
800019dc:	33458593          	addi	a1,a1,820 # 33333334 <offset+0x33333034>
800019e0:	00b53633          	sltu	a2,a0,a1
800019e4:	2ac72e23          	sw	a2,700(a4)
800019e8:	00100093          	li	ra,1
800019ec:	00c08463          	beq	ra,a2,800019f4 <inst_194>
800019f0:	3640406f          	j	80005d54 <bad_trap>

800019f4 <inst_194>:
800019f4:	00500513          	li	a0,5
800019f8:	666665b7          	lui	a1,0x66666
800019fc:	66758593          	addi	a1,a1,1639 # 66666667 <absimm+0x21374138>
80001a00:	00b53633          	sltu	a2,a0,a1
80001a04:	2cc72023          	sw	a2,704(a4)
80001a08:	00100093          	li	ra,1
80001a0c:	00c08463          	beq	ra,a2,80001a14 <inst_195>
80001a10:	3440406f          	j	80005d54 <bad_trap>

80001a14 <inst_195>:
80001a14:	00500513          	li	a0,5
80001a18:	0000b5b7          	lui	a1,0xb
80001a1c:	50558593          	addi	a1,a1,1285 # b505 <offset+0xb205>
80001a20:	00b53633          	sltu	a2,a0,a1
80001a24:	2cc72223          	sw	a2,708(a4)
80001a28:	00100093          	li	ra,1
80001a2c:	00c08463          	beq	ra,a2,80001a34 <inst_196>
80001a30:	3240406f          	j	80005d54 <bad_trap>

80001a34 <inst_196>:
80001a34:	00500513          	li	a0,5
80001a38:	00100593          	li	a1,1
80001a3c:	00b53633          	sltu	a2,a0,a1
80001a40:	2cc72423          	sw	a2,712(a4)
80001a44:	00000093          	li	ra,0
80001a48:	00c08463          	beq	ra,a2,80001a50 <inst_197>
80001a4c:	3080406f          	j	80005d54 <bad_trap>

80001a50 <inst_197>:
80001a50:	00500513          	li	a0,5
80001a54:	000105b7          	lui	a1,0x10
80001a58:	00b53633          	sltu	a2,a0,a1
80001a5c:	2cc72623          	sw	a2,716(a4)
80001a60:	00100093          	li	ra,1
80001a64:	00c08463          	beq	ra,a2,80001a6c <inst_198>
80001a68:	2ec0406f          	j	80005d54 <bad_trap>

80001a6c <inst_198>:
80001a6c:	33333537          	lui	a0,0x33333
80001a70:	33350513          	addi	a0,a0,819 # 33333333 <offset+0x33333033>
80001a74:	00300593          	li	a1,3
80001a78:	00b53633          	sltu	a2,a0,a1
80001a7c:	2cc72823          	sw	a2,720(a4)
80001a80:	00000093          	li	ra,0
80001a84:	00c08463          	beq	ra,a2,80001a8c <inst_199>
80001a88:	2cc0406f          	j	80005d54 <bad_trap>

80001a8c <inst_199>:
80001a8c:	33333537          	lui	a0,0x33333
80001a90:	33350513          	addi	a0,a0,819 # 33333333 <offset+0x33333033>
80001a94:	555555b7          	lui	a1,0x55555
80001a98:	55558593          	addi	a1,a1,1365 # 55555555 <absimm+0x10263026>
80001a9c:	00b53633          	sltu	a2,a0,a1
80001aa0:	2cc72a23          	sw	a2,724(a4)
80001aa4:	00100093          	li	ra,1
80001aa8:	00c08463          	beq	ra,a2,80001ab0 <inst_200>
80001aac:	2a80406f          	j	80005d54 <bad_trap>

80001ab0 <inst_200>:
80001ab0:	33333537          	lui	a0,0x33333
80001ab4:	33350513          	addi	a0,a0,819 # 33333333 <offset+0x33333033>
80001ab8:	aaaab5b7          	lui	a1,0xaaaab
80001abc:	aaa58593          	addi	a1,a1,-1366 # aaaaaaaa <imm12+0xaaaaafda>
80001ac0:	00b53633          	sltu	a2,a0,a1
80001ac4:	2cc72c23          	sw	a2,728(a4)
80001ac8:	00100093          	li	ra,1
80001acc:	00c08463          	beq	ra,a2,80001ad4 <inst_201>
80001ad0:	2840406f          	j	80005d54 <bad_trap>

80001ad4 <inst_201>:
80001ad4:	33333537          	lui	a0,0x33333
80001ad8:	33350513          	addi	a0,a0,819 # 33333333 <offset+0x33333033>
80001adc:	00500593          	li	a1,5
80001ae0:	00b53633          	sltu	a2,a0,a1
80001ae4:	2cc72e23          	sw	a2,732(a4)
80001ae8:	00000093          	li	ra,0
80001aec:	00c08463          	beq	ra,a2,80001af4 <inst_202>
80001af0:	2640406f          	j	80005d54 <bad_trap>

80001af4 <inst_202>:
80001af4:	33333537          	lui	a0,0x33333
80001af8:	33350513          	addi	a0,a0,819 # 33333333 <offset+0x33333033>
80001afc:	333335b7          	lui	a1,0x33333
80001b00:	33358593          	addi	a1,a1,819 # 33333333 <offset+0x33333033>
80001b04:	00b53633          	sltu	a2,a0,a1
80001b08:	2ec72023          	sw	a2,736(a4)
80001b0c:	00000093          	li	ra,0
80001b10:	00c08463          	beq	ra,a2,80001b18 <inst_203>
80001b14:	2400406f          	j	80005d54 <bad_trap>

80001b18 <inst_203>:
80001b18:	33333537          	lui	a0,0x33333
80001b1c:	33350513          	addi	a0,a0,819 # 33333333 <offset+0x33333033>
80001b20:	666665b7          	lui	a1,0x66666
80001b24:	66658593          	addi	a1,a1,1638 # 66666666 <absimm+0x21374137>
80001b28:	00b53633          	sltu	a2,a0,a1
80001b2c:	2ec72223          	sw	a2,740(a4)
80001b30:	00100093          	li	ra,1
80001b34:	00c08463          	beq	ra,a2,80001b3c <inst_204>
80001b38:	21c0406f          	j	80005d54 <bad_trap>

80001b3c <inst_204>:
80001b3c:	33333537          	lui	a0,0x33333
80001b40:	33350513          	addi	a0,a0,819 # 33333333 <offset+0x33333033>
80001b44:	0000b5b7          	lui	a1,0xb
80001b48:	50458593          	addi	a1,a1,1284 # b504 <offset+0xb204>
80001b4c:	00b53633          	sltu	a2,a0,a1
80001b50:	2ec72423          	sw	a2,744(a4)
80001b54:	00000093          	li	ra,0
80001b58:	00c08463          	beq	ra,a2,80001b60 <inst_205>
80001b5c:	1f80406f          	j	80005d54 <bad_trap>

80001b60 <inst_205>:
80001b60:	33333537          	lui	a0,0x33333
80001b64:	33350513          	addi	a0,a0,819 # 33333333 <offset+0x33333033>
80001b68:	00000593          	li	a1,0
80001b6c:	00b53633          	sltu	a2,a0,a1
80001b70:	2ec72623          	sw	a2,748(a4)
80001b74:	00000093          	li	ra,0
80001b78:	00c08463          	beq	ra,a2,80001b80 <inst_206>
80001b7c:	1d80406f          	j	80005d54 <bad_trap>

80001b80 <inst_206>:
80001b80:	33333537          	lui	a0,0x33333
80001b84:	33350513          	addi	a0,a0,819 # 33333333 <offset+0x33333033>
80001b88:	000105b7          	lui	a1,0x10
80001b8c:	fff58593          	addi	a1,a1,-1 # ffff <offset+0xfcff>
80001b90:	00b53633          	sltu	a2,a0,a1
80001b94:	2ec72823          	sw	a2,752(a4)
80001b98:	00000093          	li	ra,0
80001b9c:	00c08463          	beq	ra,a2,80001ba4 <inst_207>
80001ba0:	1b40406f          	j	80005d54 <bad_trap>

80001ba4 <inst_207>:
80001ba4:	33333537          	lui	a0,0x33333
80001ba8:	33350513          	addi	a0,a0,819 # 33333333 <offset+0x33333033>
80001bac:	00200593          	li	a1,2
80001bb0:	00b53633          	sltu	a2,a0,a1
80001bb4:	2ec72a23          	sw	a2,756(a4)
80001bb8:	00000093          	li	ra,0
80001bbc:	00c08463          	beq	ra,a2,80001bc4 <inst_208>
80001bc0:	1940406f          	j	80005d54 <bad_trap>

80001bc4 <inst_208>:
80001bc4:	33333537          	lui	a0,0x33333
80001bc8:	33350513          	addi	a0,a0,819 # 33333333 <offset+0x33333033>
80001bcc:	555555b7          	lui	a1,0x55555
80001bd0:	55458593          	addi	a1,a1,1364 # 55555554 <absimm+0x10263025>
80001bd4:	00b53633          	sltu	a2,a0,a1
80001bd8:	2ec72c23          	sw	a2,760(a4)
80001bdc:	00100093          	li	ra,1
80001be0:	00c08463          	beq	ra,a2,80001be8 <inst_209>
80001be4:	1700406f          	j	80005d54 <bad_trap>

80001be8 <inst_209>:
80001be8:	33333537          	lui	a0,0x33333
80001bec:	33350513          	addi	a0,a0,819 # 33333333 <offset+0x33333033>
80001bf0:	aaaab5b7          	lui	a1,0xaaaab
80001bf4:	aa958593          	addi	a1,a1,-1367 # aaaaaaa9 <imm12+0xaaaaafd9>
80001bf8:	00b53633          	sltu	a2,a0,a1
80001bfc:	2ec72e23          	sw	a2,764(a4)
80001c00:	00100093          	li	ra,1
80001c04:	00c08463          	beq	ra,a2,80001c0c <inst_210>
80001c08:	14c0406f          	j	80005d54 <bad_trap>

80001c0c <inst_210>:
80001c0c:	33333537          	lui	a0,0x33333
80001c10:	33350513          	addi	a0,a0,819 # 33333333 <offset+0x33333033>
80001c14:	00400593          	li	a1,4
80001c18:	00b53633          	sltu	a2,a0,a1
80001c1c:	30c72023          	sw	a2,768(a4)
80001c20:	00000093          	li	ra,0
80001c24:	00c08463          	beq	ra,a2,80001c2c <inst_211>
80001c28:	12c0406f          	j	80005d54 <bad_trap>

80001c2c <inst_211>:
80001c2c:	33333537          	lui	a0,0x33333
80001c30:	33350513          	addi	a0,a0,819 # 33333333 <offset+0x33333033>
80001c34:	333335b7          	lui	a1,0x33333
80001c38:	33258593          	addi	a1,a1,818 # 33333332 <offset+0x33333032>
80001c3c:	00b53633          	sltu	a2,a0,a1
80001c40:	30c72223          	sw	a2,772(a4)
80001c44:	00000093          	li	ra,0
80001c48:	00c08463          	beq	ra,a2,80001c50 <inst_212>
80001c4c:	1080406f          	j	80005d54 <bad_trap>

80001c50 <inst_212>:
80001c50:	33333537          	lui	a0,0x33333
80001c54:	33350513          	addi	a0,a0,819 # 33333333 <offset+0x33333033>
80001c58:	666665b7          	lui	a1,0x66666
80001c5c:	66558593          	addi	a1,a1,1637 # 66666665 <absimm+0x21374136>
80001c60:	00b53633          	sltu	a2,a0,a1
80001c64:	30c72423          	sw	a2,776(a4)
80001c68:	00100093          	li	ra,1
80001c6c:	00c08463          	beq	ra,a2,80001c74 <inst_213>
80001c70:	0e40406f          	j	80005d54 <bad_trap>

80001c74 <inst_213>:
80001c74:	33333537          	lui	a0,0x33333
80001c78:	33350513          	addi	a0,a0,819 # 33333333 <offset+0x33333033>
80001c7c:	0000b5b7          	lui	a1,0xb
80001c80:	50358593          	addi	a1,a1,1283 # b503 <offset+0xb203>
80001c84:	00b53633          	sltu	a2,a0,a1
80001c88:	30c72623          	sw	a2,780(a4)
80001c8c:	00000093          	li	ra,0
80001c90:	00c08463          	beq	ra,a2,80001c98 <inst_214>
80001c94:	0c00406f          	j	80005d54 <bad_trap>

80001c98 <inst_214>:
80001c98:	33333537          	lui	a0,0x33333
80001c9c:	33350513          	addi	a0,a0,819 # 33333333 <offset+0x33333033>
80001ca0:	000105b7          	lui	a1,0x10
80001ca4:	ffe58593          	addi	a1,a1,-2 # fffe <offset+0xfcfe>
80001ca8:	00b53633          	sltu	a2,a0,a1
80001cac:	30c72823          	sw	a2,784(a4)
80001cb0:	00000093          	li	ra,0
80001cb4:	00c08463          	beq	ra,a2,80001cbc <inst_215>
80001cb8:	09c0406f          	j	80005d54 <bad_trap>

80001cbc <inst_215>:
80001cbc:	33333537          	lui	a0,0x33333
80001cc0:	33350513          	addi	a0,a0,819 # 33333333 <offset+0x33333033>
80001cc4:	555555b7          	lui	a1,0x55555
80001cc8:	55658593          	addi	a1,a1,1366 # 55555556 <absimm+0x10263027>
80001ccc:	00b53633          	sltu	a2,a0,a1
80001cd0:	30c72a23          	sw	a2,788(a4)
80001cd4:	00100093          	li	ra,1
80001cd8:	00c08463          	beq	ra,a2,80001ce0 <inst_216>
80001cdc:	0780406f          	j	80005d54 <bad_trap>

80001ce0 <inst_216>:
80001ce0:	33333537          	lui	a0,0x33333
80001ce4:	33350513          	addi	a0,a0,819 # 33333333 <offset+0x33333033>
80001ce8:	aaaab5b7          	lui	a1,0xaaaab
80001cec:	aab58593          	addi	a1,a1,-1365 # aaaaaaab <imm12+0xaaaaafdb>
80001cf0:	00b53633          	sltu	a2,a0,a1
80001cf4:	30c72c23          	sw	a2,792(a4)
80001cf8:	00100093          	li	ra,1
80001cfc:	00c08463          	beq	ra,a2,80001d04 <inst_217>
80001d00:	0540406f          	j	80005d54 <bad_trap>

80001d04 <inst_217>:
80001d04:	33333537          	lui	a0,0x33333
80001d08:	33350513          	addi	a0,a0,819 # 33333333 <offset+0x33333033>
80001d0c:	00600593          	li	a1,6
80001d10:	00b53633          	sltu	a2,a0,a1
80001d14:	30c72e23          	sw	a2,796(a4)
80001d18:	00000093          	li	ra,0
80001d1c:	00c08463          	beq	ra,a2,80001d24 <inst_218>
80001d20:	0340406f          	j	80005d54 <bad_trap>

80001d24 <inst_218>:
80001d24:	33333537          	lui	a0,0x33333
80001d28:	33350513          	addi	a0,a0,819 # 33333333 <offset+0x33333033>
80001d2c:	333335b7          	lui	a1,0x33333
80001d30:	33458593          	addi	a1,a1,820 # 33333334 <offset+0x33333034>
80001d34:	00b53633          	sltu	a2,a0,a1
80001d38:	32c72023          	sw	a2,800(a4)
80001d3c:	00100093          	li	ra,1
80001d40:	00c08463          	beq	ra,a2,80001d48 <inst_219>
80001d44:	0100406f          	j	80005d54 <bad_trap>

80001d48 <inst_219>:
80001d48:	33333537          	lui	a0,0x33333
80001d4c:	33350513          	addi	a0,a0,819 # 33333333 <offset+0x33333033>
80001d50:	666665b7          	lui	a1,0x66666
80001d54:	66758593          	addi	a1,a1,1639 # 66666667 <absimm+0x21374138>
80001d58:	00b53633          	sltu	a2,a0,a1
80001d5c:	32c72223          	sw	a2,804(a4)
80001d60:	00100093          	li	ra,1
80001d64:	00c08463          	beq	ra,a2,80001d6c <inst_220>
80001d68:	7ed0306f          	j	80005d54 <bad_trap>

80001d6c <inst_220>:
80001d6c:	33333537          	lui	a0,0x33333
80001d70:	33350513          	addi	a0,a0,819 # 33333333 <offset+0x33333033>
80001d74:	0000b5b7          	lui	a1,0xb
80001d78:	50558593          	addi	a1,a1,1285 # b505 <offset+0xb205>
80001d7c:	00b53633          	sltu	a2,a0,a1
80001d80:	32c72423          	sw	a2,808(a4)
80001d84:	00000093          	li	ra,0
80001d88:	00c08463          	beq	ra,a2,80001d90 <inst_221>
80001d8c:	7c90306f          	j	80005d54 <bad_trap>

80001d90 <inst_221>:
80001d90:	33333537          	lui	a0,0x33333
80001d94:	33350513          	addi	a0,a0,819 # 33333333 <offset+0x33333033>
80001d98:	00100593          	li	a1,1
80001d9c:	00b53633          	sltu	a2,a0,a1
80001da0:	32c72623          	sw	a2,812(a4)
80001da4:	00000093          	li	ra,0
80001da8:	00c08463          	beq	ra,a2,80001db0 <inst_222>
80001dac:	7a90306f          	j	80005d54 <bad_trap>

80001db0 <inst_222>:
80001db0:	33333537          	lui	a0,0x33333
80001db4:	33350513          	addi	a0,a0,819 # 33333333 <offset+0x33333033>
80001db8:	000105b7          	lui	a1,0x10
80001dbc:	00b53633          	sltu	a2,a0,a1
80001dc0:	32c72823          	sw	a2,816(a4)
80001dc4:	00000093          	li	ra,0
80001dc8:	00c08463          	beq	ra,a2,80001dd0 <inst_223>
80001dcc:	7890306f          	j	80005d54 <bad_trap>

80001dd0 <inst_223>:
80001dd0:	66666537          	lui	a0,0x66666
80001dd4:	66650513          	addi	a0,a0,1638 # 66666666 <absimm+0x21374137>
80001dd8:	00300593          	li	a1,3
80001ddc:	00b53633          	sltu	a2,a0,a1
80001de0:	32c72a23          	sw	a2,820(a4)
80001de4:	00000093          	li	ra,0
80001de8:	00c08463          	beq	ra,a2,80001df0 <inst_224>
80001dec:	7690306f          	j	80005d54 <bad_trap>

80001df0 <inst_224>:
80001df0:	66666537          	lui	a0,0x66666
80001df4:	66650513          	addi	a0,a0,1638 # 66666666 <absimm+0x21374137>
80001df8:	555555b7          	lui	a1,0x55555
80001dfc:	55558593          	addi	a1,a1,1365 # 55555555 <absimm+0x10263026>
80001e00:	00b53633          	sltu	a2,a0,a1
80001e04:	32c72c23          	sw	a2,824(a4)
80001e08:	00000093          	li	ra,0
80001e0c:	00c08463          	beq	ra,a2,80001e14 <inst_225>
80001e10:	7450306f          	j	80005d54 <bad_trap>

80001e14 <inst_225>:
80001e14:	66666537          	lui	a0,0x66666
80001e18:	66650513          	addi	a0,a0,1638 # 66666666 <absimm+0x21374137>
80001e1c:	aaaab5b7          	lui	a1,0xaaaab
80001e20:	aaa58593          	addi	a1,a1,-1366 # aaaaaaaa <imm12+0xaaaaafda>
80001e24:	00b53633          	sltu	a2,a0,a1
80001e28:	32c72e23          	sw	a2,828(a4)
80001e2c:	00100093          	li	ra,1
80001e30:	00c08463          	beq	ra,a2,80001e38 <inst_226>
80001e34:	7210306f          	j	80005d54 <bad_trap>

80001e38 <inst_226>:
80001e38:	66666537          	lui	a0,0x66666
80001e3c:	66650513          	addi	a0,a0,1638 # 66666666 <absimm+0x21374137>
80001e40:	00500593          	li	a1,5
80001e44:	00b53633          	sltu	a2,a0,a1
80001e48:	34c72023          	sw	a2,832(a4)
80001e4c:	00000093          	li	ra,0
80001e50:	00c08463          	beq	ra,a2,80001e58 <inst_227>
80001e54:	7010306f          	j	80005d54 <bad_trap>

80001e58 <inst_227>:
80001e58:	66666537          	lui	a0,0x66666
80001e5c:	66650513          	addi	a0,a0,1638 # 66666666 <absimm+0x21374137>
80001e60:	333335b7          	lui	a1,0x33333
80001e64:	33358593          	addi	a1,a1,819 # 33333333 <offset+0x33333033>
80001e68:	00b53633          	sltu	a2,a0,a1
80001e6c:	34c72223          	sw	a2,836(a4)
80001e70:	00000093          	li	ra,0
80001e74:	00c08463          	beq	ra,a2,80001e7c <inst_228>
80001e78:	6dd0306f          	j	80005d54 <bad_trap>

80001e7c <inst_228>:
80001e7c:	66666537          	lui	a0,0x66666
80001e80:	66650513          	addi	a0,a0,1638 # 66666666 <absimm+0x21374137>
80001e84:	666665b7          	lui	a1,0x66666
80001e88:	66658593          	addi	a1,a1,1638 # 66666666 <absimm+0x21374137>
80001e8c:	00b53633          	sltu	a2,a0,a1
80001e90:	34c72423          	sw	a2,840(a4)
80001e94:	00000093          	li	ra,0
80001e98:	00c08463          	beq	ra,a2,80001ea0 <inst_229>
80001e9c:	6b90306f          	j	80005d54 <bad_trap>

80001ea0 <inst_229>:
80001ea0:	66666537          	lui	a0,0x66666
80001ea4:	66650513          	addi	a0,a0,1638 # 66666666 <absimm+0x21374137>
80001ea8:	0000b5b7          	lui	a1,0xb
80001eac:	50458593          	addi	a1,a1,1284 # b504 <offset+0xb204>
80001eb0:	00b53633          	sltu	a2,a0,a1
80001eb4:	34c72623          	sw	a2,844(a4)
80001eb8:	00000093          	li	ra,0
80001ebc:	00c08463          	beq	ra,a2,80001ec4 <inst_230>
80001ec0:	6950306f          	j	80005d54 <bad_trap>

80001ec4 <inst_230>:
80001ec4:	66666537          	lui	a0,0x66666
80001ec8:	66650513          	addi	a0,a0,1638 # 66666666 <absimm+0x21374137>
80001ecc:	00000593          	li	a1,0
80001ed0:	00b53633          	sltu	a2,a0,a1
80001ed4:	34c72823          	sw	a2,848(a4)
80001ed8:	00000093          	li	ra,0
80001edc:	00c08463          	beq	ra,a2,80001ee4 <inst_231>
80001ee0:	6750306f          	j	80005d54 <bad_trap>

80001ee4 <inst_231>:
80001ee4:	66666537          	lui	a0,0x66666
80001ee8:	66650513          	addi	a0,a0,1638 # 66666666 <absimm+0x21374137>
80001eec:	000105b7          	lui	a1,0x10
80001ef0:	fff58593          	addi	a1,a1,-1 # ffff <offset+0xfcff>
80001ef4:	00b53633          	sltu	a2,a0,a1
80001ef8:	34c72a23          	sw	a2,852(a4)
80001efc:	00000093          	li	ra,0
80001f00:	00c08463          	beq	ra,a2,80001f08 <inst_232>
80001f04:	6510306f          	j	80005d54 <bad_trap>

80001f08 <inst_232>:
80001f08:	66666537          	lui	a0,0x66666
80001f0c:	66650513          	addi	a0,a0,1638 # 66666666 <absimm+0x21374137>
80001f10:	00200593          	li	a1,2
80001f14:	00b53633          	sltu	a2,a0,a1
80001f18:	34c72c23          	sw	a2,856(a4)
80001f1c:	00000093          	li	ra,0
80001f20:	00c08463          	beq	ra,a2,80001f28 <inst_233>
80001f24:	6310306f          	j	80005d54 <bad_trap>

80001f28 <inst_233>:
80001f28:	66666537          	lui	a0,0x66666
80001f2c:	66650513          	addi	a0,a0,1638 # 66666666 <absimm+0x21374137>
80001f30:	555555b7          	lui	a1,0x55555
80001f34:	55458593          	addi	a1,a1,1364 # 55555554 <absimm+0x10263025>
80001f38:	00b53633          	sltu	a2,a0,a1
80001f3c:	34c72e23          	sw	a2,860(a4)
80001f40:	00000093          	li	ra,0
80001f44:	00c08463          	beq	ra,a2,80001f4c <inst_234>
80001f48:	60d0306f          	j	80005d54 <bad_trap>

80001f4c <inst_234>:
80001f4c:	66666537          	lui	a0,0x66666
80001f50:	66650513          	addi	a0,a0,1638 # 66666666 <absimm+0x21374137>
80001f54:	aaaab5b7          	lui	a1,0xaaaab
80001f58:	aa958593          	addi	a1,a1,-1367 # aaaaaaa9 <imm12+0xaaaaafd9>
80001f5c:	00b53633          	sltu	a2,a0,a1
80001f60:	36c72023          	sw	a2,864(a4)
80001f64:	00100093          	li	ra,1
80001f68:	00c08463          	beq	ra,a2,80001f70 <inst_235>
80001f6c:	5e90306f          	j	80005d54 <bad_trap>

80001f70 <inst_235>:
80001f70:	66666537          	lui	a0,0x66666
80001f74:	66650513          	addi	a0,a0,1638 # 66666666 <absimm+0x21374137>
80001f78:	00400593          	li	a1,4
80001f7c:	00b53633          	sltu	a2,a0,a1
80001f80:	36c72223          	sw	a2,868(a4)
80001f84:	00000093          	li	ra,0
80001f88:	00c08463          	beq	ra,a2,80001f90 <inst_236>
80001f8c:	5c90306f          	j	80005d54 <bad_trap>

80001f90 <inst_236>:
80001f90:	66666537          	lui	a0,0x66666
80001f94:	66650513          	addi	a0,a0,1638 # 66666666 <absimm+0x21374137>
80001f98:	333335b7          	lui	a1,0x33333
80001f9c:	33258593          	addi	a1,a1,818 # 33333332 <offset+0x33333032>
80001fa0:	00b53633          	sltu	a2,a0,a1
80001fa4:	36c72423          	sw	a2,872(a4)
80001fa8:	00000093          	li	ra,0
80001fac:	00c08463          	beq	ra,a2,80001fb4 <inst_237>
80001fb0:	5a50306f          	j	80005d54 <bad_trap>

80001fb4 <inst_237>:
80001fb4:	66666537          	lui	a0,0x66666
80001fb8:	66650513          	addi	a0,a0,1638 # 66666666 <absimm+0x21374137>
80001fbc:	666665b7          	lui	a1,0x66666
80001fc0:	66558593          	addi	a1,a1,1637 # 66666665 <absimm+0x21374136>
80001fc4:	00b53633          	sltu	a2,a0,a1
80001fc8:	36c72623          	sw	a2,876(a4)
80001fcc:	00000093          	li	ra,0
80001fd0:	00c08463          	beq	ra,a2,80001fd8 <inst_238>
80001fd4:	5810306f          	j	80005d54 <bad_trap>

80001fd8 <inst_238>:
80001fd8:	66666537          	lui	a0,0x66666
80001fdc:	66650513          	addi	a0,a0,1638 # 66666666 <absimm+0x21374137>
80001fe0:	0000b5b7          	lui	a1,0xb
80001fe4:	50358593          	addi	a1,a1,1283 # b503 <offset+0xb203>
80001fe8:	00b53633          	sltu	a2,a0,a1
80001fec:	36c72823          	sw	a2,880(a4)
80001ff0:	00000093          	li	ra,0
80001ff4:	00c08463          	beq	ra,a2,80001ffc <inst_239>
80001ff8:	55d0306f          	j	80005d54 <bad_trap>

80001ffc <inst_239>:
80001ffc:	66666537          	lui	a0,0x66666
80002000:	66650513          	addi	a0,a0,1638 # 66666666 <absimm+0x21374137>
80002004:	000105b7          	lui	a1,0x10
80002008:	ffe58593          	addi	a1,a1,-2 # fffe <offset+0xfcfe>
8000200c:	00b53633          	sltu	a2,a0,a1
80002010:	36c72a23          	sw	a2,884(a4)
80002014:	00000093          	li	ra,0
80002018:	00c08463          	beq	ra,a2,80002020 <inst_240>
8000201c:	5390306f          	j	80005d54 <bad_trap>

80002020 <inst_240>:
80002020:	66666537          	lui	a0,0x66666
80002024:	66650513          	addi	a0,a0,1638 # 66666666 <absimm+0x21374137>
80002028:	555555b7          	lui	a1,0x55555
8000202c:	55658593          	addi	a1,a1,1366 # 55555556 <absimm+0x10263027>
80002030:	00b53633          	sltu	a2,a0,a1
80002034:	36c72c23          	sw	a2,888(a4)
80002038:	00000093          	li	ra,0
8000203c:	00c08463          	beq	ra,a2,80002044 <inst_241>
80002040:	5150306f          	j	80005d54 <bad_trap>

80002044 <inst_241>:
80002044:	66666537          	lui	a0,0x66666
80002048:	66650513          	addi	a0,a0,1638 # 66666666 <absimm+0x21374137>
8000204c:	aaaab5b7          	lui	a1,0xaaaab
80002050:	aab58593          	addi	a1,a1,-1365 # aaaaaaab <imm12+0xaaaaafdb>
80002054:	00b53633          	sltu	a2,a0,a1
80002058:	36c72e23          	sw	a2,892(a4)
8000205c:	00100093          	li	ra,1
80002060:	00c08463          	beq	ra,a2,80002068 <inst_242>
80002064:	4f10306f          	j	80005d54 <bad_trap>

80002068 <inst_242>:
80002068:	66666537          	lui	a0,0x66666
8000206c:	66650513          	addi	a0,a0,1638 # 66666666 <absimm+0x21374137>
80002070:	00600593          	li	a1,6
80002074:	00b53633          	sltu	a2,a0,a1
80002078:	38c72023          	sw	a2,896(a4)
8000207c:	00000093          	li	ra,0
80002080:	00c08463          	beq	ra,a2,80002088 <inst_243>
80002084:	4d10306f          	j	80005d54 <bad_trap>

80002088 <inst_243>:
80002088:	66666537          	lui	a0,0x66666
8000208c:	66650513          	addi	a0,a0,1638 # 66666666 <absimm+0x21374137>
80002090:	333335b7          	lui	a1,0x33333
80002094:	33458593          	addi	a1,a1,820 # 33333334 <offset+0x33333034>
80002098:	00b53633          	sltu	a2,a0,a1
8000209c:	38c72223          	sw	a2,900(a4)
800020a0:	00000093          	li	ra,0
800020a4:	00c08463          	beq	ra,a2,800020ac <inst_244>
800020a8:	4ad0306f          	j	80005d54 <bad_trap>

800020ac <inst_244>:
800020ac:	66666537          	lui	a0,0x66666
800020b0:	66650513          	addi	a0,a0,1638 # 66666666 <absimm+0x21374137>
800020b4:	666665b7          	lui	a1,0x66666
800020b8:	66758593          	addi	a1,a1,1639 # 66666667 <absimm+0x21374138>
800020bc:	00b53633          	sltu	a2,a0,a1
800020c0:	38c72423          	sw	a2,904(a4)
800020c4:	00100093          	li	ra,1
800020c8:	00c08463          	beq	ra,a2,800020d0 <inst_245>
800020cc:	4890306f          	j	80005d54 <bad_trap>

800020d0 <inst_245>:
800020d0:	66666537          	lui	a0,0x66666
800020d4:	66650513          	addi	a0,a0,1638 # 66666666 <absimm+0x21374137>
800020d8:	0000b5b7          	lui	a1,0xb
800020dc:	50558593          	addi	a1,a1,1285 # b505 <offset+0xb205>
800020e0:	00b53633          	sltu	a2,a0,a1
800020e4:	38c72623          	sw	a2,908(a4)
800020e8:	00000093          	li	ra,0
800020ec:	00c08463          	beq	ra,a2,800020f4 <inst_246>
800020f0:	4650306f          	j	80005d54 <bad_trap>

800020f4 <inst_246>:
800020f4:	66666537          	lui	a0,0x66666
800020f8:	66650513          	addi	a0,a0,1638 # 66666666 <absimm+0x21374137>
800020fc:	00100593          	li	a1,1
80002100:	00b53633          	sltu	a2,a0,a1
80002104:	38c72823          	sw	a2,912(a4)
80002108:	00000093          	li	ra,0
8000210c:	00c08463          	beq	ra,a2,80002114 <inst_247>
80002110:	4450306f          	j	80005d54 <bad_trap>

80002114 <inst_247>:
80002114:	66666537          	lui	a0,0x66666
80002118:	66650513          	addi	a0,a0,1638 # 66666666 <absimm+0x21374137>
8000211c:	000105b7          	lui	a1,0x10
80002120:	00b53633          	sltu	a2,a0,a1
80002124:	38c72a23          	sw	a2,916(a4)
80002128:	00000093          	li	ra,0
8000212c:	00c08463          	beq	ra,a2,80002134 <inst_248>
80002130:	4250306f          	j	80005d54 <bad_trap>

80002134 <inst_248>:
80002134:	0000b537          	lui	a0,0xb
80002138:	50450513          	addi	a0,a0,1284 # b504 <offset+0xb204>
8000213c:	00300593          	li	a1,3
80002140:	00b53633          	sltu	a2,a0,a1
80002144:	38c72c23          	sw	a2,920(a4)
80002148:	00000093          	li	ra,0
8000214c:	00c08463          	beq	ra,a2,80002154 <inst_249>
80002150:	4050306f          	j	80005d54 <bad_trap>

80002154 <inst_249>:
80002154:	0000b537          	lui	a0,0xb
80002158:	50450513          	addi	a0,a0,1284 # b504 <offset+0xb204>
8000215c:	555555b7          	lui	a1,0x55555
80002160:	55558593          	addi	a1,a1,1365 # 55555555 <absimm+0x10263026>
80002164:	00b53633          	sltu	a2,a0,a1
80002168:	38c72e23          	sw	a2,924(a4)
8000216c:	00100093          	li	ra,1
80002170:	00c08463          	beq	ra,a2,80002178 <inst_250>
80002174:	3e10306f          	j	80005d54 <bad_trap>

80002178 <inst_250>:
80002178:	0000b537          	lui	a0,0xb
8000217c:	50450513          	addi	a0,a0,1284 # b504 <offset+0xb204>
80002180:	aaaab5b7          	lui	a1,0xaaaab
80002184:	aaa58593          	addi	a1,a1,-1366 # aaaaaaaa <imm12+0xaaaaafda>
80002188:	00b53633          	sltu	a2,a0,a1
8000218c:	3ac72023          	sw	a2,928(a4)
80002190:	00100093          	li	ra,1
80002194:	00c08463          	beq	ra,a2,8000219c <inst_251>
80002198:	3bd0306f          	j	80005d54 <bad_trap>

8000219c <inst_251>:
8000219c:	0000b537          	lui	a0,0xb
800021a0:	50450513          	addi	a0,a0,1284 # b504 <offset+0xb204>
800021a4:	00500593          	li	a1,5
800021a8:	00b53633          	sltu	a2,a0,a1
800021ac:	3ac72223          	sw	a2,932(a4)
800021b0:	00000093          	li	ra,0
800021b4:	00c08463          	beq	ra,a2,800021bc <inst_252>
800021b8:	39d0306f          	j	80005d54 <bad_trap>

800021bc <inst_252>:
800021bc:	0000b537          	lui	a0,0xb
800021c0:	50450513          	addi	a0,a0,1284 # b504 <offset+0xb204>
800021c4:	333335b7          	lui	a1,0x33333
800021c8:	33358593          	addi	a1,a1,819 # 33333333 <offset+0x33333033>
800021cc:	00b53633          	sltu	a2,a0,a1
800021d0:	3ac72423          	sw	a2,936(a4)
800021d4:	00100093          	li	ra,1
800021d8:	00c08463          	beq	ra,a2,800021e0 <inst_253>
800021dc:	3790306f          	j	80005d54 <bad_trap>

800021e0 <inst_253>:
800021e0:	0000b537          	lui	a0,0xb
800021e4:	50450513          	addi	a0,a0,1284 # b504 <offset+0xb204>
800021e8:	666665b7          	lui	a1,0x66666
800021ec:	66658593          	addi	a1,a1,1638 # 66666666 <absimm+0x21374137>
800021f0:	00b53633          	sltu	a2,a0,a1
800021f4:	3ac72623          	sw	a2,940(a4)
800021f8:	00100093          	li	ra,1
800021fc:	00c08463          	beq	ra,a2,80002204 <inst_254>
80002200:	3550306f          	j	80005d54 <bad_trap>

80002204 <inst_254>:
80002204:	0000b537          	lui	a0,0xb
80002208:	50450513          	addi	a0,a0,1284 # b504 <offset+0xb204>
8000220c:	0000b5b7          	lui	a1,0xb
80002210:	50458593          	addi	a1,a1,1284 # b504 <offset+0xb204>
80002214:	00b53633          	sltu	a2,a0,a1
80002218:	3ac72823          	sw	a2,944(a4)
8000221c:	00000093          	li	ra,0
80002220:	00c08463          	beq	ra,a2,80002228 <inst_255>
80002224:	3310306f          	j	80005d54 <bad_trap>

80002228 <inst_255>:
80002228:	0000b537          	lui	a0,0xb
8000222c:	50450513          	addi	a0,a0,1284 # b504 <offset+0xb204>
80002230:	00000593          	li	a1,0
80002234:	00b53633          	sltu	a2,a0,a1
80002238:	3ac72a23          	sw	a2,948(a4)
8000223c:	00000093          	li	ra,0
80002240:	00c08463          	beq	ra,a2,80002248 <inst_256>
80002244:	3110306f          	j	80005d54 <bad_trap>

80002248 <inst_256>:
80002248:	0000b537          	lui	a0,0xb
8000224c:	50450513          	addi	a0,a0,1284 # b504 <offset+0xb204>
80002250:	000105b7          	lui	a1,0x10
80002254:	fff58593          	addi	a1,a1,-1 # ffff <offset+0xfcff>
80002258:	00b53633          	sltu	a2,a0,a1
8000225c:	3ac72c23          	sw	a2,952(a4)
80002260:	00100093          	li	ra,1
80002264:	00c08463          	beq	ra,a2,8000226c <inst_257>
80002268:	2ed0306f          	j	80005d54 <bad_trap>

8000226c <inst_257>:
8000226c:	0000b537          	lui	a0,0xb
80002270:	50450513          	addi	a0,a0,1284 # b504 <offset+0xb204>
80002274:	00200593          	li	a1,2
80002278:	00b53633          	sltu	a2,a0,a1
8000227c:	3ac72e23          	sw	a2,956(a4)
80002280:	00000093          	li	ra,0
80002284:	00c08463          	beq	ra,a2,8000228c <inst_258>
80002288:	2cd0306f          	j	80005d54 <bad_trap>

8000228c <inst_258>:
8000228c:	0000b537          	lui	a0,0xb
80002290:	50450513          	addi	a0,a0,1284 # b504 <offset+0xb204>
80002294:	555555b7          	lui	a1,0x55555
80002298:	55458593          	addi	a1,a1,1364 # 55555554 <absimm+0x10263025>
8000229c:	00b53633          	sltu	a2,a0,a1
800022a0:	3cc72023          	sw	a2,960(a4)
800022a4:	00100093          	li	ra,1
800022a8:	00c08463          	beq	ra,a2,800022b0 <inst_259>
800022ac:	2a90306f          	j	80005d54 <bad_trap>

800022b0 <inst_259>:
800022b0:	0000b537          	lui	a0,0xb
800022b4:	50450513          	addi	a0,a0,1284 # b504 <offset+0xb204>
800022b8:	aaaab5b7          	lui	a1,0xaaaab
800022bc:	aa958593          	addi	a1,a1,-1367 # aaaaaaa9 <imm12+0xaaaaafd9>
800022c0:	00b53633          	sltu	a2,a0,a1
800022c4:	3cc72223          	sw	a2,964(a4)
800022c8:	00100093          	li	ra,1
800022cc:	00c08463          	beq	ra,a2,800022d4 <inst_260>
800022d0:	2850306f          	j	80005d54 <bad_trap>

800022d4 <inst_260>:
800022d4:	0000b537          	lui	a0,0xb
800022d8:	50450513          	addi	a0,a0,1284 # b504 <offset+0xb204>
800022dc:	00400593          	li	a1,4
800022e0:	00b53633          	sltu	a2,a0,a1
800022e4:	3cc72423          	sw	a2,968(a4)
800022e8:	00000093          	li	ra,0
800022ec:	00c08463          	beq	ra,a2,800022f4 <inst_261>
800022f0:	2650306f          	j	80005d54 <bad_trap>

800022f4 <inst_261>:
800022f4:	0000b537          	lui	a0,0xb
800022f8:	50450513          	addi	a0,a0,1284 # b504 <offset+0xb204>
800022fc:	333335b7          	lui	a1,0x33333
80002300:	33258593          	addi	a1,a1,818 # 33333332 <offset+0x33333032>
80002304:	00b53633          	sltu	a2,a0,a1
80002308:	3cc72623          	sw	a2,972(a4)
8000230c:	00100093          	li	ra,1
80002310:	00c08463          	beq	ra,a2,80002318 <inst_262>
80002314:	2410306f          	j	80005d54 <bad_trap>

80002318 <inst_262>:
80002318:	0000b537          	lui	a0,0xb
8000231c:	50450513          	addi	a0,a0,1284 # b504 <offset+0xb204>
80002320:	666665b7          	lui	a1,0x66666
80002324:	66558593          	addi	a1,a1,1637 # 66666665 <absimm+0x21374136>
80002328:	00b53633          	sltu	a2,a0,a1
8000232c:	3cc72823          	sw	a2,976(a4)
80002330:	00100093          	li	ra,1
80002334:	00c08463          	beq	ra,a2,8000233c <inst_263>
80002338:	21d0306f          	j	80005d54 <bad_trap>

8000233c <inst_263>:
8000233c:	0000b537          	lui	a0,0xb
80002340:	50450513          	addi	a0,a0,1284 # b504 <offset+0xb204>
80002344:	0000b5b7          	lui	a1,0xb
80002348:	50358593          	addi	a1,a1,1283 # b503 <offset+0xb203>
8000234c:	00b53633          	sltu	a2,a0,a1
80002350:	3cc72a23          	sw	a2,980(a4)
80002354:	00000093          	li	ra,0
80002358:	00c08463          	beq	ra,a2,80002360 <inst_264>
8000235c:	1f90306f          	j	80005d54 <bad_trap>

80002360 <inst_264>:
80002360:	0000b537          	lui	a0,0xb
80002364:	50450513          	addi	a0,a0,1284 # b504 <offset+0xb204>
80002368:	000105b7          	lui	a1,0x10
8000236c:	ffe58593          	addi	a1,a1,-2 # fffe <offset+0xfcfe>
80002370:	00b53633          	sltu	a2,a0,a1
80002374:	3cc72c23          	sw	a2,984(a4)
80002378:	00100093          	li	ra,1
8000237c:	00c08463          	beq	ra,a2,80002384 <inst_265>
80002380:	1d50306f          	j	80005d54 <bad_trap>

80002384 <inst_265>:
80002384:	0000b537          	lui	a0,0xb
80002388:	50450513          	addi	a0,a0,1284 # b504 <offset+0xb204>
8000238c:	555555b7          	lui	a1,0x55555
80002390:	55658593          	addi	a1,a1,1366 # 55555556 <absimm+0x10263027>
80002394:	00b53633          	sltu	a2,a0,a1
80002398:	3cc72e23          	sw	a2,988(a4)
8000239c:	00100093          	li	ra,1
800023a0:	00c08463          	beq	ra,a2,800023a8 <inst_266>
800023a4:	1b10306f          	j	80005d54 <bad_trap>

800023a8 <inst_266>:
800023a8:	0000b537          	lui	a0,0xb
800023ac:	50450513          	addi	a0,a0,1284 # b504 <offset+0xb204>
800023b0:	aaaab5b7          	lui	a1,0xaaaab
800023b4:	aab58593          	addi	a1,a1,-1365 # aaaaaaab <imm12+0xaaaaafdb>
800023b8:	00b53633          	sltu	a2,a0,a1
800023bc:	3ec72023          	sw	a2,992(a4)
800023c0:	00100093          	li	ra,1
800023c4:	00c08463          	beq	ra,a2,800023cc <inst_267>
800023c8:	18d0306f          	j	80005d54 <bad_trap>

800023cc <inst_267>:
800023cc:	0000b537          	lui	a0,0xb
800023d0:	50450513          	addi	a0,a0,1284 # b504 <offset+0xb204>
800023d4:	00600593          	li	a1,6
800023d8:	00b53633          	sltu	a2,a0,a1
800023dc:	3ec72223          	sw	a2,996(a4)
800023e0:	00000093          	li	ra,0
800023e4:	00c08463          	beq	ra,a2,800023ec <inst_268>
800023e8:	16d0306f          	j	80005d54 <bad_trap>

800023ec <inst_268>:
800023ec:	0000b537          	lui	a0,0xb
800023f0:	50450513          	addi	a0,a0,1284 # b504 <offset+0xb204>
800023f4:	333335b7          	lui	a1,0x33333
800023f8:	33458593          	addi	a1,a1,820 # 33333334 <offset+0x33333034>
800023fc:	00b53633          	sltu	a2,a0,a1
80002400:	3ec72423          	sw	a2,1000(a4)
80002404:	00100093          	li	ra,1
80002408:	00c08463          	beq	ra,a2,80002410 <inst_269>
8000240c:	1490306f          	j	80005d54 <bad_trap>

80002410 <inst_269>:
80002410:	0000b537          	lui	a0,0xb
80002414:	50450513          	addi	a0,a0,1284 # b504 <offset+0xb204>
80002418:	666665b7          	lui	a1,0x66666
8000241c:	66758593          	addi	a1,a1,1639 # 66666667 <absimm+0x21374138>
80002420:	00b53633          	sltu	a2,a0,a1
80002424:	3ec72623          	sw	a2,1004(a4)
80002428:	00100093          	li	ra,1
8000242c:	00c08463          	beq	ra,a2,80002434 <inst_270>
80002430:	1250306f          	j	80005d54 <bad_trap>

80002434 <inst_270>:
80002434:	0000b537          	lui	a0,0xb
80002438:	50450513          	addi	a0,a0,1284 # b504 <offset+0xb204>
8000243c:	0000b5b7          	lui	a1,0xb
80002440:	50558593          	addi	a1,a1,1285 # b505 <offset+0xb205>
80002444:	00b53633          	sltu	a2,a0,a1
80002448:	3ec72823          	sw	a2,1008(a4)
8000244c:	00100093          	li	ra,1
80002450:	00c08463          	beq	ra,a2,80002458 <inst_271>
80002454:	1010306f          	j	80005d54 <bad_trap>

80002458 <inst_271>:
80002458:	0000b537          	lui	a0,0xb
8000245c:	50450513          	addi	a0,a0,1284 # b504 <offset+0xb204>
80002460:	00100593          	li	a1,1
80002464:	00b53633          	sltu	a2,a0,a1
80002468:	3ec72a23          	sw	a2,1012(a4)
8000246c:	00000093          	li	ra,0
80002470:	00c08463          	beq	ra,a2,80002478 <inst_272>
80002474:	0e10306f          	j	80005d54 <bad_trap>

80002478 <inst_272>:
80002478:	0000b537          	lui	a0,0xb
8000247c:	50450513          	addi	a0,a0,1284 # b504 <offset+0xb204>
80002480:	000105b7          	lui	a1,0x10
80002484:	00b53633          	sltu	a2,a0,a1
80002488:	3ec72c23          	sw	a2,1016(a4)
8000248c:	00100093          	li	ra,1
80002490:	00c08463          	beq	ra,a2,80002498 <inst_273>
80002494:	0c10306f          	j	80005d54 <bad_trap>

80002498 <inst_273>:
80002498:	00000513          	li	a0,0
8000249c:	00300593          	li	a1,3
800024a0:	00b53633          	sltu	a2,a0,a1
800024a4:	3ec72e23          	sw	a2,1020(a4)
800024a8:	00100093          	li	ra,1
800024ac:	00c08463          	beq	ra,a2,800024b4 <inst_274>
800024b0:	0a50306f          	j	80005d54 <bad_trap>

800024b4 <inst_274>:
800024b4:	00000513          	li	a0,0
800024b8:	555555b7          	lui	a1,0x55555
800024bc:	55558593          	addi	a1,a1,1365 # 55555555 <absimm+0x10263026>
800024c0:	00b53633          	sltu	a2,a0,a1
800024c4:	40c72023          	sw	a2,1024(a4)
800024c8:	00100093          	li	ra,1
800024cc:	00c08463          	beq	ra,a2,800024d4 <inst_275>
800024d0:	0850306f          	j	80005d54 <bad_trap>

800024d4 <inst_275>:
800024d4:	00000513          	li	a0,0
800024d8:	aaaab5b7          	lui	a1,0xaaaab
800024dc:	aaa58593          	addi	a1,a1,-1366 # aaaaaaaa <imm12+0xaaaaafda>
800024e0:	00b53633          	sltu	a2,a0,a1
800024e4:	40c72223          	sw	a2,1028(a4)
800024e8:	00100093          	li	ra,1
800024ec:	00c08463          	beq	ra,a2,800024f4 <inst_276>
800024f0:	0650306f          	j	80005d54 <bad_trap>

800024f4 <inst_276>:
800024f4:	00000513          	li	a0,0
800024f8:	00500593          	li	a1,5
800024fc:	00b53633          	sltu	a2,a0,a1
80002500:	40c72423          	sw	a2,1032(a4)
80002504:	00100093          	li	ra,1
80002508:	00c08463          	beq	ra,a2,80002510 <inst_277>
8000250c:	0490306f          	j	80005d54 <bad_trap>

80002510 <inst_277>:
80002510:	00000513          	li	a0,0
80002514:	333335b7          	lui	a1,0x33333
80002518:	33358593          	addi	a1,a1,819 # 33333333 <offset+0x33333033>
8000251c:	00b53633          	sltu	a2,a0,a1
80002520:	40c72623          	sw	a2,1036(a4)
80002524:	00100093          	li	ra,1
80002528:	00c08463          	beq	ra,a2,80002530 <inst_278>
8000252c:	0290306f          	j	80005d54 <bad_trap>

80002530 <inst_278>:
80002530:	00000513          	li	a0,0
80002534:	666665b7          	lui	a1,0x66666
80002538:	66658593          	addi	a1,a1,1638 # 66666666 <absimm+0x21374137>
8000253c:	00b53633          	sltu	a2,a0,a1
80002540:	40c72823          	sw	a2,1040(a4)
80002544:	00100093          	li	ra,1
80002548:	00c08463          	beq	ra,a2,80002550 <inst_279>
8000254c:	0090306f          	j	80005d54 <bad_trap>

80002550 <inst_279>:
80002550:	00000513          	li	a0,0
80002554:	0000b5b7          	lui	a1,0xb
80002558:	50458593          	addi	a1,a1,1284 # b504 <offset+0xb204>
8000255c:	00b53633          	sltu	a2,a0,a1
80002560:	40c72a23          	sw	a2,1044(a4)
80002564:	00100093          	li	ra,1
80002568:	00c08463          	beq	ra,a2,80002570 <inst_280>
8000256c:	7e80306f          	j	80005d54 <bad_trap>

80002570 <inst_280>:
80002570:	00000513          	li	a0,0
80002574:	00000593          	li	a1,0
80002578:	00b53633          	sltu	a2,a0,a1
8000257c:	40c72c23          	sw	a2,1048(a4)
80002580:	00000093          	li	ra,0
80002584:	00c08463          	beq	ra,a2,8000258c <inst_281>
80002588:	7cc0306f          	j	80005d54 <bad_trap>

8000258c <inst_281>:
8000258c:	00000513          	li	a0,0
80002590:	000105b7          	lui	a1,0x10
80002594:	fff58593          	addi	a1,a1,-1 # ffff <offset+0xfcff>
80002598:	00b53633          	sltu	a2,a0,a1
8000259c:	40c72e23          	sw	a2,1052(a4)
800025a0:	00100093          	li	ra,1
800025a4:	00c08463          	beq	ra,a2,800025ac <inst_282>
800025a8:	7ac0306f          	j	80005d54 <bad_trap>

800025ac <inst_282>:
800025ac:	00000513          	li	a0,0
800025b0:	00200593          	li	a1,2
800025b4:	00b53633          	sltu	a2,a0,a1
800025b8:	42c72023          	sw	a2,1056(a4)
800025bc:	00100093          	li	ra,1
800025c0:	00c08463          	beq	ra,a2,800025c8 <inst_283>
800025c4:	7900306f          	j	80005d54 <bad_trap>

800025c8 <inst_283>:
800025c8:	00000513          	li	a0,0
800025cc:	555555b7          	lui	a1,0x55555
800025d0:	55458593          	addi	a1,a1,1364 # 55555554 <absimm+0x10263025>
800025d4:	00b53633          	sltu	a2,a0,a1
800025d8:	42c72223          	sw	a2,1060(a4)
800025dc:	00100093          	li	ra,1
800025e0:	00c08463          	beq	ra,a2,800025e8 <inst_284>
800025e4:	7700306f          	j	80005d54 <bad_trap>

800025e8 <inst_284>:
800025e8:	00000513          	li	a0,0
800025ec:	aaaab5b7          	lui	a1,0xaaaab
800025f0:	aa958593          	addi	a1,a1,-1367 # aaaaaaa9 <imm12+0xaaaaafd9>
800025f4:	00b53633          	sltu	a2,a0,a1
800025f8:	42c72423          	sw	a2,1064(a4)
800025fc:	00100093          	li	ra,1
80002600:	00c08463          	beq	ra,a2,80002608 <inst_285>
80002604:	7500306f          	j	80005d54 <bad_trap>

80002608 <inst_285>:
80002608:	00000513          	li	a0,0
8000260c:	00400593          	li	a1,4
80002610:	00b53633          	sltu	a2,a0,a1
80002614:	42c72623          	sw	a2,1068(a4)
80002618:	00100093          	li	ra,1
8000261c:	00c08463          	beq	ra,a2,80002624 <inst_286>
80002620:	7340306f          	j	80005d54 <bad_trap>

80002624 <inst_286>:
80002624:	00000513          	li	a0,0
80002628:	333335b7          	lui	a1,0x33333
8000262c:	33258593          	addi	a1,a1,818 # 33333332 <offset+0x33333032>
80002630:	00b53633          	sltu	a2,a0,a1
80002634:	42c72823          	sw	a2,1072(a4)
80002638:	00100093          	li	ra,1
8000263c:	00c08463          	beq	ra,a2,80002644 <inst_287>
80002640:	7140306f          	j	80005d54 <bad_trap>

80002644 <inst_287>:
80002644:	00000513          	li	a0,0
80002648:	666665b7          	lui	a1,0x66666
8000264c:	66558593          	addi	a1,a1,1637 # 66666665 <absimm+0x21374136>
80002650:	00b53633          	sltu	a2,a0,a1
80002654:	42c72a23          	sw	a2,1076(a4)
80002658:	00100093          	li	ra,1
8000265c:	00c08463          	beq	ra,a2,80002664 <inst_288>
80002660:	6f40306f          	j	80005d54 <bad_trap>

80002664 <inst_288>:
80002664:	00000513          	li	a0,0
80002668:	0000b5b7          	lui	a1,0xb
8000266c:	50358593          	addi	a1,a1,1283 # b503 <offset+0xb203>
80002670:	00b53633          	sltu	a2,a0,a1
80002674:	42c72c23          	sw	a2,1080(a4)
80002678:	00100093          	li	ra,1
8000267c:	00c08463          	beq	ra,a2,80002684 <inst_289>
80002680:	6d40306f          	j	80005d54 <bad_trap>

80002684 <inst_289>:
80002684:	00000513          	li	a0,0
80002688:	000105b7          	lui	a1,0x10
8000268c:	ffe58593          	addi	a1,a1,-2 # fffe <offset+0xfcfe>
80002690:	00b53633          	sltu	a2,a0,a1
80002694:	42c72e23          	sw	a2,1084(a4)
80002698:	00100093          	li	ra,1
8000269c:	00c08463          	beq	ra,a2,800026a4 <inst_290>
800026a0:	6b40306f          	j	80005d54 <bad_trap>

800026a4 <inst_290>:
800026a4:	00000513          	li	a0,0
800026a8:	555555b7          	lui	a1,0x55555
800026ac:	55658593          	addi	a1,a1,1366 # 55555556 <absimm+0x10263027>
800026b0:	00b53633          	sltu	a2,a0,a1
800026b4:	44c72023          	sw	a2,1088(a4)
800026b8:	00100093          	li	ra,1
800026bc:	00c08463          	beq	ra,a2,800026c4 <inst_291>
800026c0:	6940306f          	j	80005d54 <bad_trap>

800026c4 <inst_291>:
800026c4:	00000513          	li	a0,0
800026c8:	aaaab5b7          	lui	a1,0xaaaab
800026cc:	aab58593          	addi	a1,a1,-1365 # aaaaaaab <imm12+0xaaaaafdb>
800026d0:	00b53633          	sltu	a2,a0,a1
800026d4:	44c72223          	sw	a2,1092(a4)
800026d8:	00100093          	li	ra,1
800026dc:	00c08463          	beq	ra,a2,800026e4 <inst_292>
800026e0:	6740306f          	j	80005d54 <bad_trap>

800026e4 <inst_292>:
800026e4:	00000513          	li	a0,0
800026e8:	00600593          	li	a1,6
800026ec:	00b53633          	sltu	a2,a0,a1
800026f0:	44c72423          	sw	a2,1096(a4)
800026f4:	00100093          	li	ra,1
800026f8:	00c08463          	beq	ra,a2,80002700 <inst_293>
800026fc:	6580306f          	j	80005d54 <bad_trap>

80002700 <inst_293>:
80002700:	00000513          	li	a0,0
80002704:	333335b7          	lui	a1,0x33333
80002708:	33458593          	addi	a1,a1,820 # 33333334 <offset+0x33333034>
8000270c:	00b53633          	sltu	a2,a0,a1
80002710:	44c72623          	sw	a2,1100(a4)
80002714:	00100093          	li	ra,1
80002718:	00c08463          	beq	ra,a2,80002720 <inst_294>
8000271c:	6380306f          	j	80005d54 <bad_trap>

80002720 <inst_294>:
80002720:	00000513          	li	a0,0
80002724:	666665b7          	lui	a1,0x66666
80002728:	66758593          	addi	a1,a1,1639 # 66666667 <absimm+0x21374138>
8000272c:	00b53633          	sltu	a2,a0,a1
80002730:	44c72823          	sw	a2,1104(a4)
80002734:	00100093          	li	ra,1
80002738:	00c08463          	beq	ra,a2,80002740 <inst_295>
8000273c:	6180306f          	j	80005d54 <bad_trap>

80002740 <inst_295>:
80002740:	00000513          	li	a0,0
80002744:	0000b5b7          	lui	a1,0xb
80002748:	50558593          	addi	a1,a1,1285 # b505 <offset+0xb205>
8000274c:	00b53633          	sltu	a2,a0,a1
80002750:	44c72a23          	sw	a2,1108(a4)
80002754:	00100093          	li	ra,1
80002758:	00c08463          	beq	ra,a2,80002760 <inst_296>
8000275c:	5f80306f          	j	80005d54 <bad_trap>

80002760 <inst_296>:
80002760:	00000513          	li	a0,0
80002764:	00100593          	li	a1,1
80002768:	00b53633          	sltu	a2,a0,a1
8000276c:	44c72c23          	sw	a2,1112(a4)
80002770:	00100093          	li	ra,1
80002774:	00c08463          	beq	ra,a2,8000277c <inst_297>
80002778:	5dc0306f          	j	80005d54 <bad_trap>

8000277c <inst_297>:
8000277c:	00000513          	li	a0,0
80002780:	000105b7          	lui	a1,0x10
80002784:	00b53633          	sltu	a2,a0,a1
80002788:	44c72e23          	sw	a2,1116(a4)
8000278c:	00100093          	li	ra,1
80002790:	00c08463          	beq	ra,a2,80002798 <inst_298>
80002794:	5c00306f          	j	80005d54 <bad_trap>

80002798 <inst_298>:
80002798:	00010537          	lui	a0,0x10
8000279c:	fff50513          	addi	a0,a0,-1 # ffff <offset+0xfcff>
800027a0:	00300593          	li	a1,3
800027a4:	00b53633          	sltu	a2,a0,a1
800027a8:	46c72023          	sw	a2,1120(a4)
800027ac:	00000093          	li	ra,0
800027b0:	00c08463          	beq	ra,a2,800027b8 <inst_299>
800027b4:	5a00306f          	j	80005d54 <bad_trap>

800027b8 <inst_299>:
800027b8:	00010537          	lui	a0,0x10
800027bc:	fff50513          	addi	a0,a0,-1 # ffff <offset+0xfcff>
800027c0:	555555b7          	lui	a1,0x55555
800027c4:	55558593          	addi	a1,a1,1365 # 55555555 <absimm+0x10263026>
800027c8:	00b53633          	sltu	a2,a0,a1
800027cc:	46c72223          	sw	a2,1124(a4)
800027d0:	00100093          	li	ra,1
800027d4:	00c08463          	beq	ra,a2,800027dc <inst_300>
800027d8:	57c0306f          	j	80005d54 <bad_trap>

800027dc <inst_300>:
800027dc:	00010537          	lui	a0,0x10
800027e0:	fff50513          	addi	a0,a0,-1 # ffff <offset+0xfcff>
800027e4:	aaaab5b7          	lui	a1,0xaaaab
800027e8:	aaa58593          	addi	a1,a1,-1366 # aaaaaaaa <imm12+0xaaaaafda>
800027ec:	00b53633          	sltu	a2,a0,a1
800027f0:	46c72423          	sw	a2,1128(a4)
800027f4:	00100093          	li	ra,1
800027f8:	00c08463          	beq	ra,a2,80002800 <inst_301>
800027fc:	5580306f          	j	80005d54 <bad_trap>

80002800 <inst_301>:
80002800:	00010537          	lui	a0,0x10
80002804:	fff50513          	addi	a0,a0,-1 # ffff <offset+0xfcff>
80002808:	00500593          	li	a1,5
8000280c:	00b53633          	sltu	a2,a0,a1
80002810:	46c72623          	sw	a2,1132(a4)
80002814:	00000093          	li	ra,0
80002818:	00c08463          	beq	ra,a2,80002820 <inst_302>
8000281c:	5380306f          	j	80005d54 <bad_trap>

80002820 <inst_302>:
80002820:	00010537          	lui	a0,0x10
80002824:	fff50513          	addi	a0,a0,-1 # ffff <offset+0xfcff>
80002828:	333335b7          	lui	a1,0x33333
8000282c:	33358593          	addi	a1,a1,819 # 33333333 <offset+0x33333033>
80002830:	00b53633          	sltu	a2,a0,a1
80002834:	46c72823          	sw	a2,1136(a4)
80002838:	00100093          	li	ra,1
8000283c:	00c08463          	beq	ra,a2,80002844 <inst_303>
80002840:	5140306f          	j	80005d54 <bad_trap>

80002844 <inst_303>:
80002844:	00010537          	lui	a0,0x10
80002848:	fff50513          	addi	a0,a0,-1 # ffff <offset+0xfcff>
8000284c:	666665b7          	lui	a1,0x66666
80002850:	66658593          	addi	a1,a1,1638 # 66666666 <absimm+0x21374137>
80002854:	00b53633          	sltu	a2,a0,a1
80002858:	46c72a23          	sw	a2,1140(a4)
8000285c:	00100093          	li	ra,1
80002860:	00c08463          	beq	ra,a2,80002868 <inst_304>
80002864:	4f00306f          	j	80005d54 <bad_trap>

80002868 <inst_304>:
80002868:	00010537          	lui	a0,0x10
8000286c:	fff50513          	addi	a0,a0,-1 # ffff <offset+0xfcff>
80002870:	0000b5b7          	lui	a1,0xb
80002874:	50458593          	addi	a1,a1,1284 # b504 <offset+0xb204>
80002878:	00b53633          	sltu	a2,a0,a1
8000287c:	46c72c23          	sw	a2,1144(a4)
80002880:	00000093          	li	ra,0
80002884:	00c08463          	beq	ra,a2,8000288c <inst_305>
80002888:	4cc0306f          	j	80005d54 <bad_trap>

8000288c <inst_305>:
8000288c:	00010537          	lui	a0,0x10
80002890:	fff50513          	addi	a0,a0,-1 # ffff <offset+0xfcff>
80002894:	00000593          	li	a1,0
80002898:	00b53633          	sltu	a2,a0,a1
8000289c:	46c72e23          	sw	a2,1148(a4)
800028a0:	00000093          	li	ra,0
800028a4:	00c08463          	beq	ra,a2,800028ac <inst_306>
800028a8:	4ac0306f          	j	80005d54 <bad_trap>

800028ac <inst_306>:
800028ac:	00010537          	lui	a0,0x10
800028b0:	fff50513          	addi	a0,a0,-1 # ffff <offset+0xfcff>
800028b4:	000105b7          	lui	a1,0x10
800028b8:	fff58593          	addi	a1,a1,-1 # ffff <offset+0xfcff>
800028bc:	00b53633          	sltu	a2,a0,a1
800028c0:	48c72023          	sw	a2,1152(a4)
800028c4:	00000093          	li	ra,0
800028c8:	00c08463          	beq	ra,a2,800028d0 <inst_307>
800028cc:	4880306f          	j	80005d54 <bad_trap>

800028d0 <inst_307>:
800028d0:	00010537          	lui	a0,0x10
800028d4:	fff50513          	addi	a0,a0,-1 # ffff <offset+0xfcff>
800028d8:	00200593          	li	a1,2
800028dc:	00b53633          	sltu	a2,a0,a1
800028e0:	48c72223          	sw	a2,1156(a4)
800028e4:	00000093          	li	ra,0
800028e8:	00c08463          	beq	ra,a2,800028f0 <inst_308>
800028ec:	4680306f          	j	80005d54 <bad_trap>

800028f0 <inst_308>:
800028f0:	00010537          	lui	a0,0x10
800028f4:	fff50513          	addi	a0,a0,-1 # ffff <offset+0xfcff>
800028f8:	555555b7          	lui	a1,0x55555
800028fc:	55458593          	addi	a1,a1,1364 # 55555554 <absimm+0x10263025>
80002900:	00b53633          	sltu	a2,a0,a1
80002904:	48c72423          	sw	a2,1160(a4)
80002908:	00100093          	li	ra,1
8000290c:	00c08463          	beq	ra,a2,80002914 <inst_309>
80002910:	4440306f          	j	80005d54 <bad_trap>

80002914 <inst_309>:
80002914:	00010537          	lui	a0,0x10
80002918:	fff50513          	addi	a0,a0,-1 # ffff <offset+0xfcff>
8000291c:	aaaab5b7          	lui	a1,0xaaaab
80002920:	aa958593          	addi	a1,a1,-1367 # aaaaaaa9 <imm12+0xaaaaafd9>
80002924:	00b53633          	sltu	a2,a0,a1
80002928:	48c72623          	sw	a2,1164(a4)
8000292c:	00100093          	li	ra,1
80002930:	00c08463          	beq	ra,a2,80002938 <inst_310>
80002934:	4200306f          	j	80005d54 <bad_trap>

80002938 <inst_310>:
80002938:	00010537          	lui	a0,0x10
8000293c:	fff50513          	addi	a0,a0,-1 # ffff <offset+0xfcff>
80002940:	00400593          	li	a1,4
80002944:	00b53633          	sltu	a2,a0,a1
80002948:	48c72823          	sw	a2,1168(a4)
8000294c:	00000093          	li	ra,0
80002950:	00c08463          	beq	ra,a2,80002958 <inst_311>
80002954:	4000306f          	j	80005d54 <bad_trap>

80002958 <inst_311>:
80002958:	00010537          	lui	a0,0x10
8000295c:	fff50513          	addi	a0,a0,-1 # ffff <offset+0xfcff>
80002960:	333335b7          	lui	a1,0x33333
80002964:	33258593          	addi	a1,a1,818 # 33333332 <offset+0x33333032>
80002968:	00b53633          	sltu	a2,a0,a1
8000296c:	48c72a23          	sw	a2,1172(a4)
80002970:	00100093          	li	ra,1
80002974:	00c08463          	beq	ra,a2,8000297c <inst_312>
80002978:	3dc0306f          	j	80005d54 <bad_trap>

8000297c <inst_312>:
8000297c:	00010537          	lui	a0,0x10
80002980:	fff50513          	addi	a0,a0,-1 # ffff <offset+0xfcff>
80002984:	666665b7          	lui	a1,0x66666
80002988:	66558593          	addi	a1,a1,1637 # 66666665 <absimm+0x21374136>
8000298c:	00b53633          	sltu	a2,a0,a1
80002990:	48c72c23          	sw	a2,1176(a4)
80002994:	00100093          	li	ra,1
80002998:	00c08463          	beq	ra,a2,800029a0 <inst_313>
8000299c:	3b80306f          	j	80005d54 <bad_trap>

800029a0 <inst_313>:
800029a0:	00010537          	lui	a0,0x10
800029a4:	fff50513          	addi	a0,a0,-1 # ffff <offset+0xfcff>
800029a8:	0000b5b7          	lui	a1,0xb
800029ac:	50358593          	addi	a1,a1,1283 # b503 <offset+0xb203>
800029b0:	00b53633          	sltu	a2,a0,a1
800029b4:	48c72e23          	sw	a2,1180(a4)
800029b8:	00000093          	li	ra,0
800029bc:	00c08463          	beq	ra,a2,800029c4 <inst_314>
800029c0:	3940306f          	j	80005d54 <bad_trap>

800029c4 <inst_314>:
800029c4:	00010537          	lui	a0,0x10
800029c8:	fff50513          	addi	a0,a0,-1 # ffff <offset+0xfcff>
800029cc:	000105b7          	lui	a1,0x10
800029d0:	ffe58593          	addi	a1,a1,-2 # fffe <offset+0xfcfe>
800029d4:	00b53633          	sltu	a2,a0,a1
800029d8:	4ac72023          	sw	a2,1184(a4)
800029dc:	00000093          	li	ra,0
800029e0:	00c08463          	beq	ra,a2,800029e8 <inst_315>
800029e4:	3700306f          	j	80005d54 <bad_trap>

800029e8 <inst_315>:
800029e8:	00010537          	lui	a0,0x10
800029ec:	fff50513          	addi	a0,a0,-1 # ffff <offset+0xfcff>
800029f0:	555555b7          	lui	a1,0x55555
800029f4:	55658593          	addi	a1,a1,1366 # 55555556 <absimm+0x10263027>
800029f8:	00b53633          	sltu	a2,a0,a1
800029fc:	4ac72223          	sw	a2,1188(a4)
80002a00:	00100093          	li	ra,1
80002a04:	00c08463          	beq	ra,a2,80002a0c <inst_316>
80002a08:	34c0306f          	j	80005d54 <bad_trap>

80002a0c <inst_316>:
80002a0c:	00010537          	lui	a0,0x10
80002a10:	fff50513          	addi	a0,a0,-1 # ffff <offset+0xfcff>
80002a14:	aaaab5b7          	lui	a1,0xaaaab
80002a18:	aab58593          	addi	a1,a1,-1365 # aaaaaaab <imm12+0xaaaaafdb>
80002a1c:	00b53633          	sltu	a2,a0,a1
80002a20:	4ac72423          	sw	a2,1192(a4)
80002a24:	00100093          	li	ra,1
80002a28:	00c08463          	beq	ra,a2,80002a30 <inst_317>
80002a2c:	3280306f          	j	80005d54 <bad_trap>

80002a30 <inst_317>:
80002a30:	00010537          	lui	a0,0x10
80002a34:	fff50513          	addi	a0,a0,-1 # ffff <offset+0xfcff>
80002a38:	00600593          	li	a1,6
80002a3c:	00b53633          	sltu	a2,a0,a1
80002a40:	4ac72623          	sw	a2,1196(a4)
80002a44:	00000093          	li	ra,0
80002a48:	00c08463          	beq	ra,a2,80002a50 <inst_318>
80002a4c:	3080306f          	j	80005d54 <bad_trap>

80002a50 <inst_318>:
80002a50:	00010537          	lui	a0,0x10
80002a54:	fff50513          	addi	a0,a0,-1 # ffff <offset+0xfcff>
80002a58:	333335b7          	lui	a1,0x33333
80002a5c:	33458593          	addi	a1,a1,820 # 33333334 <offset+0x33333034>
80002a60:	00b53633          	sltu	a2,a0,a1
80002a64:	4ac72823          	sw	a2,1200(a4)
80002a68:	00100093          	li	ra,1
80002a6c:	00c08463          	beq	ra,a2,80002a74 <inst_319>
80002a70:	2e40306f          	j	80005d54 <bad_trap>

80002a74 <inst_319>:
80002a74:	00010537          	lui	a0,0x10
80002a78:	fff50513          	addi	a0,a0,-1 # ffff <offset+0xfcff>
80002a7c:	666665b7          	lui	a1,0x66666
80002a80:	66758593          	addi	a1,a1,1639 # 66666667 <absimm+0x21374138>
80002a84:	00b53633          	sltu	a2,a0,a1
80002a88:	4ac72a23          	sw	a2,1204(a4)
80002a8c:	00100093          	li	ra,1
80002a90:	00c08463          	beq	ra,a2,80002a98 <inst_320>
80002a94:	2c00306f          	j	80005d54 <bad_trap>

80002a98 <inst_320>:
80002a98:	00010537          	lui	a0,0x10
80002a9c:	fff50513          	addi	a0,a0,-1 # ffff <offset+0xfcff>
80002aa0:	0000b5b7          	lui	a1,0xb
80002aa4:	50558593          	addi	a1,a1,1285 # b505 <offset+0xb205>
80002aa8:	00b53633          	sltu	a2,a0,a1
80002aac:	4ac72c23          	sw	a2,1208(a4)
80002ab0:	00000093          	li	ra,0
80002ab4:	00c08463          	beq	ra,a2,80002abc <inst_321>
80002ab8:	29c0306f          	j	80005d54 <bad_trap>

80002abc <inst_321>:
80002abc:	00010537          	lui	a0,0x10
80002ac0:	fff50513          	addi	a0,a0,-1 # ffff <offset+0xfcff>
80002ac4:	00100593          	li	a1,1
80002ac8:	00b53633          	sltu	a2,a0,a1
80002acc:	4ac72e23          	sw	a2,1212(a4)
80002ad0:	00000093          	li	ra,0
80002ad4:	00c08463          	beq	ra,a2,80002adc <inst_322>
80002ad8:	27c0306f          	j	80005d54 <bad_trap>

80002adc <inst_322>:
80002adc:	00010537          	lui	a0,0x10
80002ae0:	fff50513          	addi	a0,a0,-1 # ffff <offset+0xfcff>
80002ae4:	000105b7          	lui	a1,0x10
80002ae8:	00b53633          	sltu	a2,a0,a1
80002aec:	4cc72023          	sw	a2,1216(a4)
80002af0:	00100093          	li	ra,1
80002af4:	00c08463          	beq	ra,a2,80002afc <inst_323>
80002af8:	25c0306f          	j	80005d54 <bad_trap>

80002afc <inst_323>:
80002afc:	00200513          	li	a0,2
80002b00:	00300593          	li	a1,3
80002b04:	00b53633          	sltu	a2,a0,a1
80002b08:	4cc72223          	sw	a2,1220(a4)
80002b0c:	00100093          	li	ra,1
80002b10:	00c08463          	beq	ra,a2,80002b18 <inst_324>
80002b14:	2400306f          	j	80005d54 <bad_trap>

80002b18 <inst_324>:
80002b18:	00200513          	li	a0,2
80002b1c:	555555b7          	lui	a1,0x55555
80002b20:	55558593          	addi	a1,a1,1365 # 55555555 <absimm+0x10263026>
80002b24:	00b53633          	sltu	a2,a0,a1
80002b28:	4cc72423          	sw	a2,1224(a4)
80002b2c:	00100093          	li	ra,1
80002b30:	00c08463          	beq	ra,a2,80002b38 <inst_325>
80002b34:	2200306f          	j	80005d54 <bad_trap>

80002b38 <inst_325>:
80002b38:	00200513          	li	a0,2
80002b3c:	aaaab5b7          	lui	a1,0xaaaab
80002b40:	aaa58593          	addi	a1,a1,-1366 # aaaaaaaa <imm12+0xaaaaafda>
80002b44:	00b53633          	sltu	a2,a0,a1
80002b48:	4cc72623          	sw	a2,1228(a4)
80002b4c:	00100093          	li	ra,1
80002b50:	00c08463          	beq	ra,a2,80002b58 <inst_326>
80002b54:	2000306f          	j	80005d54 <bad_trap>

80002b58 <inst_326>:
80002b58:	00200513          	li	a0,2
80002b5c:	00500593          	li	a1,5
80002b60:	00b53633          	sltu	a2,a0,a1
80002b64:	4cc72823          	sw	a2,1232(a4)
80002b68:	00100093          	li	ra,1
80002b6c:	00c08463          	beq	ra,a2,80002b74 <inst_327>
80002b70:	1e40306f          	j	80005d54 <bad_trap>

80002b74 <inst_327>:
80002b74:	00200513          	li	a0,2
80002b78:	333335b7          	lui	a1,0x33333
80002b7c:	33358593          	addi	a1,a1,819 # 33333333 <offset+0x33333033>
80002b80:	00b53633          	sltu	a2,a0,a1
80002b84:	4cc72a23          	sw	a2,1236(a4)
80002b88:	00100093          	li	ra,1
80002b8c:	00c08463          	beq	ra,a2,80002b94 <inst_328>
80002b90:	1c40306f          	j	80005d54 <bad_trap>

80002b94 <inst_328>:
80002b94:	00200513          	li	a0,2
80002b98:	666665b7          	lui	a1,0x66666
80002b9c:	66658593          	addi	a1,a1,1638 # 66666666 <absimm+0x21374137>
80002ba0:	00b53633          	sltu	a2,a0,a1
80002ba4:	4cc72c23          	sw	a2,1240(a4)
80002ba8:	00100093          	li	ra,1
80002bac:	00c08463          	beq	ra,a2,80002bb4 <inst_329>
80002bb0:	1a40306f          	j	80005d54 <bad_trap>

80002bb4 <inst_329>:
80002bb4:	00200513          	li	a0,2
80002bb8:	0000b5b7          	lui	a1,0xb
80002bbc:	50458593          	addi	a1,a1,1284 # b504 <offset+0xb204>
80002bc0:	00b53633          	sltu	a2,a0,a1
80002bc4:	4cc72e23          	sw	a2,1244(a4)
80002bc8:	00100093          	li	ra,1
80002bcc:	00c08463          	beq	ra,a2,80002bd4 <inst_330>
80002bd0:	1840306f          	j	80005d54 <bad_trap>

80002bd4 <inst_330>:
80002bd4:	00200513          	li	a0,2
80002bd8:	00000593          	li	a1,0
80002bdc:	00b53633          	sltu	a2,a0,a1
80002be0:	4ec72023          	sw	a2,1248(a4)
80002be4:	00000093          	li	ra,0
80002be8:	00c08463          	beq	ra,a2,80002bf0 <inst_331>
80002bec:	1680306f          	j	80005d54 <bad_trap>

80002bf0 <inst_331>:
80002bf0:	00200513          	li	a0,2
80002bf4:	000105b7          	lui	a1,0x10
80002bf8:	fff58593          	addi	a1,a1,-1 # ffff <offset+0xfcff>
80002bfc:	00b53633          	sltu	a2,a0,a1
80002c00:	4ec72223          	sw	a2,1252(a4)
80002c04:	00100093          	li	ra,1
80002c08:	00c08463          	beq	ra,a2,80002c10 <inst_332>
80002c0c:	1480306f          	j	80005d54 <bad_trap>

80002c10 <inst_332>:
80002c10:	00200513          	li	a0,2
80002c14:	00200593          	li	a1,2
80002c18:	00b53633          	sltu	a2,a0,a1
80002c1c:	4ec72423          	sw	a2,1256(a4)
80002c20:	00000093          	li	ra,0
80002c24:	00c08463          	beq	ra,a2,80002c2c <inst_333>
80002c28:	12c0306f          	j	80005d54 <bad_trap>

80002c2c <inst_333>:
80002c2c:	00200513          	li	a0,2
80002c30:	555555b7          	lui	a1,0x55555
80002c34:	55458593          	addi	a1,a1,1364 # 55555554 <absimm+0x10263025>
80002c38:	00b53633          	sltu	a2,a0,a1
80002c3c:	4ec72623          	sw	a2,1260(a4)
80002c40:	00100093          	li	ra,1
80002c44:	00c08463          	beq	ra,a2,80002c4c <inst_334>
80002c48:	10c0306f          	j	80005d54 <bad_trap>

80002c4c <inst_334>:
80002c4c:	00200513          	li	a0,2
80002c50:	aaaab5b7          	lui	a1,0xaaaab
80002c54:	aa958593          	addi	a1,a1,-1367 # aaaaaaa9 <imm12+0xaaaaafd9>
80002c58:	00b53633          	sltu	a2,a0,a1
80002c5c:	4ec72823          	sw	a2,1264(a4)
80002c60:	00100093          	li	ra,1
80002c64:	00c08463          	beq	ra,a2,80002c6c <inst_335>
80002c68:	0ec0306f          	j	80005d54 <bad_trap>

80002c6c <inst_335>:
80002c6c:	00200513          	li	a0,2
80002c70:	00400593          	li	a1,4
80002c74:	00b53633          	sltu	a2,a0,a1
80002c78:	4ec72a23          	sw	a2,1268(a4)
80002c7c:	00100093          	li	ra,1
80002c80:	00c08463          	beq	ra,a2,80002c88 <inst_336>
80002c84:	0d00306f          	j	80005d54 <bad_trap>

80002c88 <inst_336>:
80002c88:	00200513          	li	a0,2
80002c8c:	333335b7          	lui	a1,0x33333
80002c90:	33258593          	addi	a1,a1,818 # 33333332 <offset+0x33333032>
80002c94:	00b53633          	sltu	a2,a0,a1
80002c98:	4ec72c23          	sw	a2,1272(a4)
80002c9c:	00100093          	li	ra,1
80002ca0:	00c08463          	beq	ra,a2,80002ca8 <inst_337>
80002ca4:	0b00306f          	j	80005d54 <bad_trap>

80002ca8 <inst_337>:
80002ca8:	00200513          	li	a0,2
80002cac:	0000b5b7          	lui	a1,0xb
80002cb0:	50358593          	addi	a1,a1,1283 # b503 <offset+0xb203>
80002cb4:	00b53633          	sltu	a2,a0,a1
80002cb8:	4ec72e23          	sw	a2,1276(a4)
80002cbc:	00100093          	li	ra,1
80002cc0:	00c08463          	beq	ra,a2,80002cc8 <inst_338>
80002cc4:	0900306f          	j	80005d54 <bad_trap>

80002cc8 <inst_338>:
80002cc8:	00200513          	li	a0,2
80002ccc:	000105b7          	lui	a1,0x10
80002cd0:	ffe58593          	addi	a1,a1,-2 # fffe <offset+0xfcfe>
80002cd4:	00b53633          	sltu	a2,a0,a1
80002cd8:	50c72023          	sw	a2,1280(a4)
80002cdc:	00100093          	li	ra,1
80002ce0:	00c08463          	beq	ra,a2,80002ce8 <inst_339>
80002ce4:	0700306f          	j	80005d54 <bad_trap>

80002ce8 <inst_339>:
80002ce8:	00200513          	li	a0,2
80002cec:	555555b7          	lui	a1,0x55555
80002cf0:	55658593          	addi	a1,a1,1366 # 55555556 <absimm+0x10263027>
80002cf4:	00b53633          	sltu	a2,a0,a1
80002cf8:	50c72223          	sw	a2,1284(a4)
80002cfc:	00100093          	li	ra,1
80002d00:	00c08463          	beq	ra,a2,80002d08 <inst_340>
80002d04:	0500306f          	j	80005d54 <bad_trap>

80002d08 <inst_340>:
80002d08:	00200513          	li	a0,2
80002d0c:	aaaab5b7          	lui	a1,0xaaaab
80002d10:	aab58593          	addi	a1,a1,-1365 # aaaaaaab <imm12+0xaaaaafdb>
80002d14:	00b53633          	sltu	a2,a0,a1
80002d18:	50c72423          	sw	a2,1288(a4)
80002d1c:	00100093          	li	ra,1
80002d20:	00c08463          	beq	ra,a2,80002d28 <inst_341>
80002d24:	0300306f          	j	80005d54 <bad_trap>

80002d28 <inst_341>:
80002d28:	00200513          	li	a0,2
80002d2c:	00600593          	li	a1,6
80002d30:	00b53633          	sltu	a2,a0,a1
80002d34:	50c72623          	sw	a2,1292(a4)
80002d38:	00100093          	li	ra,1
80002d3c:	00c08463          	beq	ra,a2,80002d44 <inst_342>
80002d40:	0140306f          	j	80005d54 <bad_trap>

80002d44 <inst_342>:
80002d44:	00200513          	li	a0,2
80002d48:	333335b7          	lui	a1,0x33333
80002d4c:	33458593          	addi	a1,a1,820 # 33333334 <offset+0x33333034>
80002d50:	00b53633          	sltu	a2,a0,a1
80002d54:	50c72823          	sw	a2,1296(a4)
80002d58:	00100093          	li	ra,1
80002d5c:	00c08463          	beq	ra,a2,80002d64 <inst_343>
80002d60:	7f50206f          	j	80005d54 <bad_trap>

80002d64 <inst_343>:
80002d64:	00200513          	li	a0,2
80002d68:	666665b7          	lui	a1,0x66666
80002d6c:	66758593          	addi	a1,a1,1639 # 66666667 <absimm+0x21374138>
80002d70:	00b53633          	sltu	a2,a0,a1
80002d74:	50c72a23          	sw	a2,1300(a4)
80002d78:	00100093          	li	ra,1
80002d7c:	00c08463          	beq	ra,a2,80002d84 <inst_344>
80002d80:	7d50206f          	j	80005d54 <bad_trap>

80002d84 <inst_344>:
80002d84:	00200513          	li	a0,2
80002d88:	0000b5b7          	lui	a1,0xb
80002d8c:	50558593          	addi	a1,a1,1285 # b505 <offset+0xb205>
80002d90:	00b53633          	sltu	a2,a0,a1
80002d94:	50c72c23          	sw	a2,1304(a4)
80002d98:	00100093          	li	ra,1
80002d9c:	00c08463          	beq	ra,a2,80002da4 <inst_345>
80002da0:	7b50206f          	j	80005d54 <bad_trap>

80002da4 <inst_345>:
80002da4:	00200513          	li	a0,2
80002da8:	00100593          	li	a1,1
80002dac:	00b53633          	sltu	a2,a0,a1
80002db0:	50c72e23          	sw	a2,1308(a4)
80002db4:	00000093          	li	ra,0
80002db8:	00c08463          	beq	ra,a2,80002dc0 <inst_346>
80002dbc:	7990206f          	j	80005d54 <bad_trap>

80002dc0 <inst_346>:
80002dc0:	00200513          	li	a0,2
80002dc4:	000105b7          	lui	a1,0x10
80002dc8:	00b53633          	sltu	a2,a0,a1
80002dcc:	52c72023          	sw	a2,1312(a4)
80002dd0:	00100093          	li	ra,1
80002dd4:	00c08463          	beq	ra,a2,80002ddc <inst_347>
80002dd8:	77d0206f          	j	80005d54 <bad_trap>

80002ddc <inst_347>:
80002ddc:	55555537          	lui	a0,0x55555
80002de0:	55450513          	addi	a0,a0,1364 # 55555554 <absimm+0x10263025>
80002de4:	00300593          	li	a1,3
80002de8:	00b53633          	sltu	a2,a0,a1
80002dec:	52c72223          	sw	a2,1316(a4)
80002df0:	00000093          	li	ra,0
80002df4:	00c08463          	beq	ra,a2,80002dfc <inst_348>
80002df8:	75d0206f          	j	80005d54 <bad_trap>

80002dfc <inst_348>:
80002dfc:	55555537          	lui	a0,0x55555
80002e00:	55450513          	addi	a0,a0,1364 # 55555554 <absimm+0x10263025>
80002e04:	555555b7          	lui	a1,0x55555
80002e08:	55558593          	addi	a1,a1,1365 # 55555555 <absimm+0x10263026>
80002e0c:	00b53633          	sltu	a2,a0,a1
80002e10:	52c72423          	sw	a2,1320(a4)
80002e14:	00100093          	li	ra,1
80002e18:	00c08463          	beq	ra,a2,80002e20 <inst_349>
80002e1c:	7390206f          	j	80005d54 <bad_trap>

80002e20 <inst_349>:
80002e20:	55555537          	lui	a0,0x55555
80002e24:	55450513          	addi	a0,a0,1364 # 55555554 <absimm+0x10263025>
80002e28:	00500593          	li	a1,5
80002e2c:	00b53633          	sltu	a2,a0,a1
80002e30:	52c72623          	sw	a2,1324(a4)
80002e34:	00000093          	li	ra,0
80002e38:	00c08463          	beq	ra,a2,80002e40 <inst_350>
80002e3c:	7190206f          	j	80005d54 <bad_trap>

80002e40 <inst_350>:
80002e40:	55555537          	lui	a0,0x55555
80002e44:	55450513          	addi	a0,a0,1364 # 55555554 <absimm+0x10263025>
80002e48:	333335b7          	lui	a1,0x33333
80002e4c:	33358593          	addi	a1,a1,819 # 33333333 <offset+0x33333033>
80002e50:	00b53633          	sltu	a2,a0,a1
80002e54:	52c72823          	sw	a2,1328(a4)
80002e58:	00000093          	li	ra,0
80002e5c:	00c08463          	beq	ra,a2,80002e64 <inst_351>
80002e60:	6f50206f          	j	80005d54 <bad_trap>

80002e64 <inst_351>:
80002e64:	55555537          	lui	a0,0x55555
80002e68:	55450513          	addi	a0,a0,1364 # 55555554 <absimm+0x10263025>
80002e6c:	666665b7          	lui	a1,0x66666
80002e70:	66658593          	addi	a1,a1,1638 # 66666666 <absimm+0x21374137>
80002e74:	00b53633          	sltu	a2,a0,a1
80002e78:	52c72a23          	sw	a2,1332(a4)
80002e7c:	00100093          	li	ra,1
80002e80:	00c08463          	beq	ra,a2,80002e88 <inst_352>
80002e84:	6d10206f          	j	80005d54 <bad_trap>

80002e88 <inst_352>:
80002e88:	55555537          	lui	a0,0x55555
80002e8c:	55450513          	addi	a0,a0,1364 # 55555554 <absimm+0x10263025>
80002e90:	0000b5b7          	lui	a1,0xb
80002e94:	50458593          	addi	a1,a1,1284 # b504 <offset+0xb204>
80002e98:	00b53633          	sltu	a2,a0,a1
80002e9c:	52c72c23          	sw	a2,1336(a4)
80002ea0:	00000093          	li	ra,0
80002ea4:	00c08463          	beq	ra,a2,80002eac <inst_353>
80002ea8:	6ad0206f          	j	80005d54 <bad_trap>

80002eac <inst_353>:
80002eac:	55555537          	lui	a0,0x55555
80002eb0:	55450513          	addi	a0,a0,1364 # 55555554 <absimm+0x10263025>
80002eb4:	00000593          	li	a1,0
80002eb8:	00b53633          	sltu	a2,a0,a1
80002ebc:	52c72e23          	sw	a2,1340(a4)
80002ec0:	00000093          	li	ra,0
80002ec4:	00c08463          	beq	ra,a2,80002ecc <inst_354>
80002ec8:	68d0206f          	j	80005d54 <bad_trap>

80002ecc <inst_354>:
80002ecc:	55555537          	lui	a0,0x55555
80002ed0:	55450513          	addi	a0,a0,1364 # 55555554 <absimm+0x10263025>
80002ed4:	000105b7          	lui	a1,0x10
80002ed8:	fff58593          	addi	a1,a1,-1 # ffff <offset+0xfcff>
80002edc:	00b53633          	sltu	a2,a0,a1
80002ee0:	54c72023          	sw	a2,1344(a4)
80002ee4:	00000093          	li	ra,0
80002ee8:	00c08463          	beq	ra,a2,80002ef0 <inst_355>
80002eec:	6690206f          	j	80005d54 <bad_trap>

80002ef0 <inst_355>:
80002ef0:	55555537          	lui	a0,0x55555
80002ef4:	55450513          	addi	a0,a0,1364 # 55555554 <absimm+0x10263025>
80002ef8:	00200593          	li	a1,2
80002efc:	00b53633          	sltu	a2,a0,a1
80002f00:	54c72223          	sw	a2,1348(a4)
80002f04:	00000093          	li	ra,0
80002f08:	00c08463          	beq	ra,a2,80002f10 <inst_356>
80002f0c:	6490206f          	j	80005d54 <bad_trap>

80002f10 <inst_356>:
80002f10:	55555537          	lui	a0,0x55555
80002f14:	55450513          	addi	a0,a0,1364 # 55555554 <absimm+0x10263025>
80002f18:	555555b7          	lui	a1,0x55555
80002f1c:	55458593          	addi	a1,a1,1364 # 55555554 <absimm+0x10263025>
80002f20:	00b53633          	sltu	a2,a0,a1
80002f24:	54c72423          	sw	a2,1352(a4)
80002f28:	00000093          	li	ra,0
80002f2c:	00c08463          	beq	ra,a2,80002f34 <inst_357>
80002f30:	6250206f          	j	80005d54 <bad_trap>

80002f34 <inst_357>:
80002f34:	55555537          	lui	a0,0x55555
80002f38:	55450513          	addi	a0,a0,1364 # 55555554 <absimm+0x10263025>
80002f3c:	aaaab5b7          	lui	a1,0xaaaab
80002f40:	aa958593          	addi	a1,a1,-1367 # aaaaaaa9 <imm12+0xaaaaafd9>
80002f44:	00b53633          	sltu	a2,a0,a1
80002f48:	54c72623          	sw	a2,1356(a4)
80002f4c:	00100093          	li	ra,1
80002f50:	00c08463          	beq	ra,a2,80002f58 <inst_358>
80002f54:	6010206f          	j	80005d54 <bad_trap>

80002f58 <inst_358>:
80002f58:	55555537          	lui	a0,0x55555
80002f5c:	55450513          	addi	a0,a0,1364 # 55555554 <absimm+0x10263025>
80002f60:	00400593          	li	a1,4
80002f64:	00b53633          	sltu	a2,a0,a1
80002f68:	54c72823          	sw	a2,1360(a4)
80002f6c:	00000093          	li	ra,0
80002f70:	00c08463          	beq	ra,a2,80002f78 <inst_359>
80002f74:	5e10206f          	j	80005d54 <bad_trap>

80002f78 <inst_359>:
80002f78:	55555537          	lui	a0,0x55555
80002f7c:	55450513          	addi	a0,a0,1364 # 55555554 <absimm+0x10263025>
80002f80:	333335b7          	lui	a1,0x33333
80002f84:	33258593          	addi	a1,a1,818 # 33333332 <offset+0x33333032>
80002f88:	00b53633          	sltu	a2,a0,a1
80002f8c:	54c72a23          	sw	a2,1364(a4)
80002f90:	00000093          	li	ra,0
80002f94:	00c08463          	beq	ra,a2,80002f9c <inst_360>
80002f98:	5bd0206f          	j	80005d54 <bad_trap>

80002f9c <inst_360>:
80002f9c:	55555537          	lui	a0,0x55555
80002fa0:	55450513          	addi	a0,a0,1364 # 55555554 <absimm+0x10263025>
80002fa4:	666665b7          	lui	a1,0x66666
80002fa8:	66558593          	addi	a1,a1,1637 # 66666665 <absimm+0x21374136>
80002fac:	00b53633          	sltu	a2,a0,a1
80002fb0:	54c72c23          	sw	a2,1368(a4)
80002fb4:	00100093          	li	ra,1
80002fb8:	00c08463          	beq	ra,a2,80002fc0 <inst_361>
80002fbc:	5990206f          	j	80005d54 <bad_trap>

80002fc0 <inst_361>:
80002fc0:	55555537          	lui	a0,0x55555
80002fc4:	55450513          	addi	a0,a0,1364 # 55555554 <absimm+0x10263025>
80002fc8:	0000b5b7          	lui	a1,0xb
80002fcc:	50358593          	addi	a1,a1,1283 # b503 <offset+0xb203>
80002fd0:	00b53633          	sltu	a2,a0,a1
80002fd4:	54c72e23          	sw	a2,1372(a4)
80002fd8:	00000093          	li	ra,0
80002fdc:	00c08463          	beq	ra,a2,80002fe4 <inst_362>
80002fe0:	5750206f          	j	80005d54 <bad_trap>

80002fe4 <inst_362>:
80002fe4:	55555537          	lui	a0,0x55555
80002fe8:	55450513          	addi	a0,a0,1364 # 55555554 <absimm+0x10263025>
80002fec:	000105b7          	lui	a1,0x10
80002ff0:	ffe58593          	addi	a1,a1,-2 # fffe <offset+0xfcfe>
80002ff4:	00b53633          	sltu	a2,a0,a1
80002ff8:	56c72023          	sw	a2,1376(a4)
80002ffc:	00000093          	li	ra,0
80003000:	00c08463          	beq	ra,a2,80003008 <inst_363>
80003004:	5510206f          	j	80005d54 <bad_trap>

80003008 <inst_363>:
80003008:	55555537          	lui	a0,0x55555
8000300c:	55450513          	addi	a0,a0,1364 # 55555554 <absimm+0x10263025>
80003010:	555555b7          	lui	a1,0x55555
80003014:	55658593          	addi	a1,a1,1366 # 55555556 <absimm+0x10263027>
80003018:	00b53633          	sltu	a2,a0,a1
8000301c:	56c72223          	sw	a2,1380(a4)
80003020:	00100093          	li	ra,1
80003024:	00c08463          	beq	ra,a2,8000302c <inst_364>
80003028:	52d0206f          	j	80005d54 <bad_trap>

8000302c <inst_364>:
8000302c:	55555537          	lui	a0,0x55555
80003030:	55450513          	addi	a0,a0,1364 # 55555554 <absimm+0x10263025>
80003034:	aaaab5b7          	lui	a1,0xaaaab
80003038:	aab58593          	addi	a1,a1,-1365 # aaaaaaab <imm12+0xaaaaafdb>
8000303c:	00b53633          	sltu	a2,a0,a1
80003040:	56c72423          	sw	a2,1384(a4)
80003044:	00100093          	li	ra,1
80003048:	00c08463          	beq	ra,a2,80003050 <inst_365>
8000304c:	5090206f          	j	80005d54 <bad_trap>

80003050 <inst_365>:
80003050:	55555537          	lui	a0,0x55555
80003054:	55450513          	addi	a0,a0,1364 # 55555554 <absimm+0x10263025>
80003058:	00600593          	li	a1,6
8000305c:	00b53633          	sltu	a2,a0,a1
80003060:	56c72623          	sw	a2,1388(a4)
80003064:	00000093          	li	ra,0
80003068:	00c08463          	beq	ra,a2,80003070 <inst_366>
8000306c:	4e90206f          	j	80005d54 <bad_trap>

80003070 <inst_366>:
80003070:	55555537          	lui	a0,0x55555
80003074:	55450513          	addi	a0,a0,1364 # 55555554 <absimm+0x10263025>
80003078:	333335b7          	lui	a1,0x33333
8000307c:	33458593          	addi	a1,a1,820 # 33333334 <offset+0x33333034>
80003080:	00b53633          	sltu	a2,a0,a1
80003084:	56c72823          	sw	a2,1392(a4)
80003088:	00000093          	li	ra,0
8000308c:	00c08463          	beq	ra,a2,80003094 <inst_367>
80003090:	4c50206f          	j	80005d54 <bad_trap>

80003094 <inst_367>:
80003094:	55555537          	lui	a0,0x55555
80003098:	55450513          	addi	a0,a0,1364 # 55555554 <absimm+0x10263025>
8000309c:	666665b7          	lui	a1,0x66666
800030a0:	66758593          	addi	a1,a1,1639 # 66666667 <absimm+0x21374138>
800030a4:	00b53633          	sltu	a2,a0,a1
800030a8:	56c72a23          	sw	a2,1396(a4)
800030ac:	00100093          	li	ra,1
800030b0:	00c08463          	beq	ra,a2,800030b8 <inst_368>
800030b4:	4a10206f          	j	80005d54 <bad_trap>

800030b8 <inst_368>:
800030b8:	55555537          	lui	a0,0x55555
800030bc:	55450513          	addi	a0,a0,1364 # 55555554 <absimm+0x10263025>
800030c0:	0000b5b7          	lui	a1,0xb
800030c4:	50558593          	addi	a1,a1,1285 # b505 <offset+0xb205>
800030c8:	00b53633          	sltu	a2,a0,a1
800030cc:	56c72c23          	sw	a2,1400(a4)
800030d0:	00000093          	li	ra,0
800030d4:	00c08463          	beq	ra,a2,800030dc <inst_369>
800030d8:	47d0206f          	j	80005d54 <bad_trap>

800030dc <inst_369>:
800030dc:	55555537          	lui	a0,0x55555
800030e0:	55450513          	addi	a0,a0,1364 # 55555554 <absimm+0x10263025>
800030e4:	00100593          	li	a1,1
800030e8:	00b53633          	sltu	a2,a0,a1
800030ec:	56c72e23          	sw	a2,1404(a4)
800030f0:	00000093          	li	ra,0
800030f4:	00c08463          	beq	ra,a2,800030fc <inst_370>
800030f8:	45d0206f          	j	80005d54 <bad_trap>

800030fc <inst_370>:
800030fc:	55555537          	lui	a0,0x55555
80003100:	55450513          	addi	a0,a0,1364 # 55555554 <absimm+0x10263025>
80003104:	000105b7          	lui	a1,0x10
80003108:	00b53633          	sltu	a2,a0,a1
8000310c:	58c72023          	sw	a2,1408(a4)
80003110:	00000093          	li	ra,0
80003114:	00c08463          	beq	ra,a2,8000311c <inst_371>
80003118:	43d0206f          	j	80005d54 <bad_trap>

8000311c <inst_371>:
8000311c:	aaaab537          	lui	a0,0xaaaab
80003120:	aa950513          	addi	a0,a0,-1367 # aaaaaaa9 <imm12+0xaaaaafd9>
80003124:	00300593          	li	a1,3
80003128:	00b53633          	sltu	a2,a0,a1
8000312c:	58c72223          	sw	a2,1412(a4)
80003130:	00000093          	li	ra,0
80003134:	00c08463          	beq	ra,a2,8000313c <inst_372>
80003138:	41d0206f          	j	80005d54 <bad_trap>

8000313c <inst_372>:
8000313c:	aaaab537          	lui	a0,0xaaaab
80003140:	aa950513          	addi	a0,a0,-1367 # aaaaaaa9 <imm12+0xaaaaafd9>
80003144:	555555b7          	lui	a1,0x55555
80003148:	55558593          	addi	a1,a1,1365 # 55555555 <absimm+0x10263026>
8000314c:	00b53633          	sltu	a2,a0,a1
80003150:	58c72423          	sw	a2,1416(a4)
80003154:	00000093          	li	ra,0
80003158:	00c08463          	beq	ra,a2,80003160 <inst_373>
8000315c:	3f90206f          	j	80005d54 <bad_trap>

80003160 <inst_373>:
80003160:	aaaab537          	lui	a0,0xaaaab
80003164:	aa950513          	addi	a0,a0,-1367 # aaaaaaa9 <imm12+0xaaaaafd9>
80003168:	aaaab5b7          	lui	a1,0xaaaab
8000316c:	aaa58593          	addi	a1,a1,-1366 # aaaaaaaa <imm12+0xaaaaafda>
80003170:	00b53633          	sltu	a2,a0,a1
80003174:	58c72623          	sw	a2,1420(a4)
80003178:	00100093          	li	ra,1
8000317c:	00c08463          	beq	ra,a2,80003184 <inst_374>
80003180:	3d50206f          	j	80005d54 <bad_trap>

80003184 <inst_374>:
80003184:	aaaab537          	lui	a0,0xaaaab
80003188:	aa950513          	addi	a0,a0,-1367 # aaaaaaa9 <imm12+0xaaaaafd9>
8000318c:	00500593          	li	a1,5
80003190:	00b53633          	sltu	a2,a0,a1
80003194:	58c72823          	sw	a2,1424(a4)
80003198:	00000093          	li	ra,0
8000319c:	00c08463          	beq	ra,a2,800031a4 <inst_375>
800031a0:	3b50206f          	j	80005d54 <bad_trap>

800031a4 <inst_375>:
800031a4:	aaaab537          	lui	a0,0xaaaab
800031a8:	aa950513          	addi	a0,a0,-1367 # aaaaaaa9 <imm12+0xaaaaafd9>
800031ac:	333335b7          	lui	a1,0x33333
800031b0:	33358593          	addi	a1,a1,819 # 33333333 <offset+0x33333033>
800031b4:	00b53633          	sltu	a2,a0,a1
800031b8:	58c72a23          	sw	a2,1428(a4)
800031bc:	00000093          	li	ra,0
800031c0:	00c08463          	beq	ra,a2,800031c8 <inst_376>
800031c4:	3910206f          	j	80005d54 <bad_trap>

800031c8 <inst_376>:
800031c8:	aaaab537          	lui	a0,0xaaaab
800031cc:	aa950513          	addi	a0,a0,-1367 # aaaaaaa9 <imm12+0xaaaaafd9>
800031d0:	666665b7          	lui	a1,0x66666
800031d4:	66658593          	addi	a1,a1,1638 # 66666666 <absimm+0x21374137>
800031d8:	00b53633          	sltu	a2,a0,a1
800031dc:	58c72c23          	sw	a2,1432(a4)
800031e0:	00000093          	li	ra,0
800031e4:	00c08463          	beq	ra,a2,800031ec <inst_377>
800031e8:	36d0206f          	j	80005d54 <bad_trap>

800031ec <inst_377>:
800031ec:	aaaab537          	lui	a0,0xaaaab
800031f0:	aa950513          	addi	a0,a0,-1367 # aaaaaaa9 <imm12+0xaaaaafd9>
800031f4:	0000b5b7          	lui	a1,0xb
800031f8:	50458593          	addi	a1,a1,1284 # b504 <offset+0xb204>
800031fc:	00b53633          	sltu	a2,a0,a1
80003200:	58c72e23          	sw	a2,1436(a4)
80003204:	00000093          	li	ra,0
80003208:	00c08463          	beq	ra,a2,80003210 <inst_378>
8000320c:	3490206f          	j	80005d54 <bad_trap>

80003210 <inst_378>:
80003210:	aaaab537          	lui	a0,0xaaaab
80003214:	aa950513          	addi	a0,a0,-1367 # aaaaaaa9 <imm12+0xaaaaafd9>
80003218:	00000593          	li	a1,0
8000321c:	00b53633          	sltu	a2,a0,a1
80003220:	5ac72023          	sw	a2,1440(a4)
80003224:	00000093          	li	ra,0
80003228:	00c08463          	beq	ra,a2,80003230 <inst_379>
8000322c:	3290206f          	j	80005d54 <bad_trap>

80003230 <inst_379>:
80003230:	aaaab537          	lui	a0,0xaaaab
80003234:	aa950513          	addi	a0,a0,-1367 # aaaaaaa9 <imm12+0xaaaaafd9>
80003238:	000105b7          	lui	a1,0x10
8000323c:	fff58593          	addi	a1,a1,-1 # ffff <offset+0xfcff>
80003240:	00b53633          	sltu	a2,a0,a1
80003244:	5ac72223          	sw	a2,1444(a4)
80003248:	00000093          	li	ra,0
8000324c:	00c08463          	beq	ra,a2,80003254 <inst_380>
80003250:	3050206f          	j	80005d54 <bad_trap>

80003254 <inst_380>:
80003254:	aaaab537          	lui	a0,0xaaaab
80003258:	aa950513          	addi	a0,a0,-1367 # aaaaaaa9 <imm12+0xaaaaafd9>
8000325c:	00200593          	li	a1,2
80003260:	00b53633          	sltu	a2,a0,a1
80003264:	5ac72423          	sw	a2,1448(a4)
80003268:	00000093          	li	ra,0
8000326c:	00c08463          	beq	ra,a2,80003274 <inst_381>
80003270:	2e50206f          	j	80005d54 <bad_trap>

80003274 <inst_381>:
80003274:	aaaab537          	lui	a0,0xaaaab
80003278:	aa950513          	addi	a0,a0,-1367 # aaaaaaa9 <imm12+0xaaaaafd9>
8000327c:	555555b7          	lui	a1,0x55555
80003280:	55458593          	addi	a1,a1,1364 # 55555554 <absimm+0x10263025>
80003284:	00b53633          	sltu	a2,a0,a1
80003288:	5ac72623          	sw	a2,1452(a4)
8000328c:	00000093          	li	ra,0
80003290:	00c08463          	beq	ra,a2,80003298 <inst_382>
80003294:	2c10206f          	j	80005d54 <bad_trap>

80003298 <inst_382>:
80003298:	aaaab537          	lui	a0,0xaaaab
8000329c:	aa950513          	addi	a0,a0,-1367 # aaaaaaa9 <imm12+0xaaaaafd9>
800032a0:	aaaab5b7          	lui	a1,0xaaaab
800032a4:	aa958593          	addi	a1,a1,-1367 # aaaaaaa9 <imm12+0xaaaaafd9>
800032a8:	00b53633          	sltu	a2,a0,a1
800032ac:	5ac72823          	sw	a2,1456(a4)
800032b0:	00000093          	li	ra,0
800032b4:	00c08463          	beq	ra,a2,800032bc <inst_383>
800032b8:	29d0206f          	j	80005d54 <bad_trap>

800032bc <inst_383>:
800032bc:	aaaab537          	lui	a0,0xaaaab
800032c0:	aa950513          	addi	a0,a0,-1367 # aaaaaaa9 <imm12+0xaaaaafd9>
800032c4:	00400593          	li	a1,4
800032c8:	00b53633          	sltu	a2,a0,a1
800032cc:	5ac72a23          	sw	a2,1460(a4)
800032d0:	00000093          	li	ra,0
800032d4:	00c08463          	beq	ra,a2,800032dc <inst_384>
800032d8:	27d0206f          	j	80005d54 <bad_trap>

800032dc <inst_384>:
800032dc:	aaaab537          	lui	a0,0xaaaab
800032e0:	aa950513          	addi	a0,a0,-1367 # aaaaaaa9 <imm12+0xaaaaafd9>
800032e4:	333335b7          	lui	a1,0x33333
800032e8:	33258593          	addi	a1,a1,818 # 33333332 <offset+0x33333032>
800032ec:	00b53633          	sltu	a2,a0,a1
800032f0:	5ac72c23          	sw	a2,1464(a4)
800032f4:	00000093          	li	ra,0
800032f8:	00c08463          	beq	ra,a2,80003300 <inst_385>
800032fc:	2590206f          	j	80005d54 <bad_trap>

80003300 <inst_385>:
80003300:	aaaab537          	lui	a0,0xaaaab
80003304:	aa950513          	addi	a0,a0,-1367 # aaaaaaa9 <imm12+0xaaaaafd9>
80003308:	666665b7          	lui	a1,0x66666
8000330c:	66558593          	addi	a1,a1,1637 # 66666665 <absimm+0x21374136>
80003310:	00b53633          	sltu	a2,a0,a1
80003314:	5ac72e23          	sw	a2,1468(a4)
80003318:	00000093          	li	ra,0
8000331c:	00c08463          	beq	ra,a2,80003324 <inst_386>
80003320:	2350206f          	j	80005d54 <bad_trap>

80003324 <inst_386>:
80003324:	aaaab537          	lui	a0,0xaaaab
80003328:	aa950513          	addi	a0,a0,-1367 # aaaaaaa9 <imm12+0xaaaaafd9>
8000332c:	0000b5b7          	lui	a1,0xb
80003330:	50358593          	addi	a1,a1,1283 # b503 <offset+0xb203>
80003334:	00b53633          	sltu	a2,a0,a1
80003338:	5cc72023          	sw	a2,1472(a4)
8000333c:	00000093          	li	ra,0
80003340:	00c08463          	beq	ra,a2,80003348 <inst_387>
80003344:	2110206f          	j	80005d54 <bad_trap>

80003348 <inst_387>:
80003348:	aaaab537          	lui	a0,0xaaaab
8000334c:	aa950513          	addi	a0,a0,-1367 # aaaaaaa9 <imm12+0xaaaaafd9>
80003350:	000105b7          	lui	a1,0x10
80003354:	ffe58593          	addi	a1,a1,-2 # fffe <offset+0xfcfe>
80003358:	00b53633          	sltu	a2,a0,a1
8000335c:	5cc72223          	sw	a2,1476(a4)
80003360:	00000093          	li	ra,0
80003364:	00c08463          	beq	ra,a2,8000336c <inst_388>
80003368:	1ed0206f          	j	80005d54 <bad_trap>

8000336c <inst_388>:
8000336c:	aaaab537          	lui	a0,0xaaaab
80003370:	aa950513          	addi	a0,a0,-1367 # aaaaaaa9 <imm12+0xaaaaafd9>
80003374:	555555b7          	lui	a1,0x55555
80003378:	55658593          	addi	a1,a1,1366 # 55555556 <absimm+0x10263027>
8000337c:	00b53633          	sltu	a2,a0,a1
80003380:	5cc72423          	sw	a2,1480(a4)
80003384:	00000093          	li	ra,0
80003388:	00c08463          	beq	ra,a2,80003390 <inst_389>
8000338c:	1c90206f          	j	80005d54 <bad_trap>

80003390 <inst_389>:
80003390:	aaaab537          	lui	a0,0xaaaab
80003394:	aa950513          	addi	a0,a0,-1367 # aaaaaaa9 <imm12+0xaaaaafd9>
80003398:	aaaab5b7          	lui	a1,0xaaaab
8000339c:	aab58593          	addi	a1,a1,-1365 # aaaaaaab <imm12+0xaaaaafdb>
800033a0:	00b53633          	sltu	a2,a0,a1
800033a4:	5cc72623          	sw	a2,1484(a4)
800033a8:	00100093          	li	ra,1
800033ac:	00c08463          	beq	ra,a2,800033b4 <inst_390>
800033b0:	1a50206f          	j	80005d54 <bad_trap>

800033b4 <inst_390>:
800033b4:	aaaab537          	lui	a0,0xaaaab
800033b8:	aa950513          	addi	a0,a0,-1367 # aaaaaaa9 <imm12+0xaaaaafd9>
800033bc:	00600593          	li	a1,6
800033c0:	00b53633          	sltu	a2,a0,a1
800033c4:	5cc72823          	sw	a2,1488(a4)
800033c8:	00000093          	li	ra,0
800033cc:	00c08463          	beq	ra,a2,800033d4 <inst_391>
800033d0:	1850206f          	j	80005d54 <bad_trap>

800033d4 <inst_391>:
800033d4:	aaaab537          	lui	a0,0xaaaab
800033d8:	aa950513          	addi	a0,a0,-1367 # aaaaaaa9 <imm12+0xaaaaafd9>
800033dc:	333335b7          	lui	a1,0x33333
800033e0:	33458593          	addi	a1,a1,820 # 33333334 <offset+0x33333034>
800033e4:	00b53633          	sltu	a2,a0,a1
800033e8:	5cc72a23          	sw	a2,1492(a4)
800033ec:	00000093          	li	ra,0
800033f0:	00c08463          	beq	ra,a2,800033f8 <inst_392>
800033f4:	1610206f          	j	80005d54 <bad_trap>

800033f8 <inst_392>:
800033f8:	aaaab537          	lui	a0,0xaaaab
800033fc:	aa950513          	addi	a0,a0,-1367 # aaaaaaa9 <imm12+0xaaaaafd9>
80003400:	666665b7          	lui	a1,0x66666
80003404:	66758593          	addi	a1,a1,1639 # 66666667 <absimm+0x21374138>
80003408:	00b53633          	sltu	a2,a0,a1
8000340c:	5cc72c23          	sw	a2,1496(a4)
80003410:	00000093          	li	ra,0
80003414:	00c08463          	beq	ra,a2,8000341c <inst_393>
80003418:	13d0206f          	j	80005d54 <bad_trap>

8000341c <inst_393>:
8000341c:	aaaab537          	lui	a0,0xaaaab
80003420:	aa950513          	addi	a0,a0,-1367 # aaaaaaa9 <imm12+0xaaaaafd9>
80003424:	0000b5b7          	lui	a1,0xb
80003428:	50558593          	addi	a1,a1,1285 # b505 <offset+0xb205>
8000342c:	00b53633          	sltu	a2,a0,a1
80003430:	5cc72e23          	sw	a2,1500(a4)
80003434:	00000093          	li	ra,0
80003438:	00c08463          	beq	ra,a2,80003440 <inst_394>
8000343c:	1190206f          	j	80005d54 <bad_trap>

80003440 <inst_394>:
80003440:	aaaab537          	lui	a0,0xaaaab
80003444:	aa950513          	addi	a0,a0,-1367 # aaaaaaa9 <imm12+0xaaaaafd9>
80003448:	00100593          	li	a1,1
8000344c:	00b53633          	sltu	a2,a0,a1
80003450:	5ec72023          	sw	a2,1504(a4)
80003454:	00000093          	li	ra,0
80003458:	00c08463          	beq	ra,a2,80003460 <inst_395>
8000345c:	0f90206f          	j	80005d54 <bad_trap>

80003460 <inst_395>:
80003460:	aaaab537          	lui	a0,0xaaaab
80003464:	aa950513          	addi	a0,a0,-1367 # aaaaaaa9 <imm12+0xaaaaafd9>
80003468:	000105b7          	lui	a1,0x10
8000346c:	00b53633          	sltu	a2,a0,a1
80003470:	5ec72223          	sw	a2,1508(a4)
80003474:	00000093          	li	ra,0
80003478:	00c08463          	beq	ra,a2,80003480 <inst_396>
8000347c:	0d90206f          	j	80005d54 <bad_trap>

80003480 <inst_396>:
80003480:	00400513          	li	a0,4
80003484:	00300593          	li	a1,3
80003488:	00b53633          	sltu	a2,a0,a1
8000348c:	5ec72423          	sw	a2,1512(a4)
80003490:	00000093          	li	ra,0
80003494:	00c08463          	beq	ra,a2,8000349c <inst_397>
80003498:	0bd0206f          	j	80005d54 <bad_trap>

8000349c <inst_397>:
8000349c:	00400513          	li	a0,4
800034a0:	555555b7          	lui	a1,0x55555
800034a4:	55558593          	addi	a1,a1,1365 # 55555555 <absimm+0x10263026>
800034a8:	00b53633          	sltu	a2,a0,a1
800034ac:	5ec72623          	sw	a2,1516(a4)
800034b0:	00100093          	li	ra,1
800034b4:	00c08463          	beq	ra,a2,800034bc <inst_398>
800034b8:	09d0206f          	j	80005d54 <bad_trap>

800034bc <inst_398>:
800034bc:	00400513          	li	a0,4
800034c0:	aaaab5b7          	lui	a1,0xaaaab
800034c4:	aaa58593          	addi	a1,a1,-1366 # aaaaaaaa <imm12+0xaaaaafda>
800034c8:	00b53633          	sltu	a2,a0,a1
800034cc:	5ec72823          	sw	a2,1520(a4)
800034d0:	00100093          	li	ra,1
800034d4:	00c08463          	beq	ra,a2,800034dc <inst_399>
800034d8:	07d0206f          	j	80005d54 <bad_trap>

800034dc <inst_399>:
800034dc:	00400513          	li	a0,4
800034e0:	00500593          	li	a1,5
800034e4:	00b53633          	sltu	a2,a0,a1
800034e8:	5ec72a23          	sw	a2,1524(a4)
800034ec:	00100093          	li	ra,1
800034f0:	00c08463          	beq	ra,a2,800034f8 <inst_400>
800034f4:	0610206f          	j	80005d54 <bad_trap>

800034f8 <inst_400>:
800034f8:	00400513          	li	a0,4
800034fc:	333335b7          	lui	a1,0x33333
80003500:	33358593          	addi	a1,a1,819 # 33333333 <offset+0x33333033>
80003504:	00b53633          	sltu	a2,a0,a1
80003508:	5ec72c23          	sw	a2,1528(a4)
8000350c:	00100093          	li	ra,1
80003510:	00c08463          	beq	ra,a2,80003518 <inst_401>
80003514:	0410206f          	j	80005d54 <bad_trap>

80003518 <inst_401>:
80003518:	00400513          	li	a0,4
8000351c:	666665b7          	lui	a1,0x66666
80003520:	66658593          	addi	a1,a1,1638 # 66666666 <absimm+0x21374137>
80003524:	00b53633          	sltu	a2,a0,a1
80003528:	5ec72e23          	sw	a2,1532(a4)
8000352c:	00100093          	li	ra,1
80003530:	00c08463          	beq	ra,a2,80003538 <inst_402>
80003534:	0210206f          	j	80005d54 <bad_trap>

80003538 <inst_402>:
80003538:	00400513          	li	a0,4
8000353c:	0000b5b7          	lui	a1,0xb
80003540:	50458593          	addi	a1,a1,1284 # b504 <offset+0xb204>
80003544:	00b53633          	sltu	a2,a0,a1
80003548:	60c72023          	sw	a2,1536(a4)
8000354c:	00100093          	li	ra,1
80003550:	00c08463          	beq	ra,a2,80003558 <inst_403>
80003554:	0010206f          	j	80005d54 <bad_trap>

80003558 <inst_403>:
80003558:	00400513          	li	a0,4
8000355c:	00000593          	li	a1,0
80003560:	00b53633          	sltu	a2,a0,a1
80003564:	60c72223          	sw	a2,1540(a4)
80003568:	00000093          	li	ra,0
8000356c:	00c08463          	beq	ra,a2,80003574 <inst_404>
80003570:	7e40206f          	j	80005d54 <bad_trap>

80003574 <inst_404>:
80003574:	00400513          	li	a0,4
80003578:	000105b7          	lui	a1,0x10
8000357c:	fff58593          	addi	a1,a1,-1 # ffff <offset+0xfcff>
80003580:	00b53633          	sltu	a2,a0,a1
80003584:	60c72423          	sw	a2,1544(a4)
80003588:	00100093          	li	ra,1
8000358c:	00c08463          	beq	ra,a2,80003594 <inst_405>
80003590:	7c40206f          	j	80005d54 <bad_trap>

80003594 <inst_405>:
80003594:	00400513          	li	a0,4
80003598:	555555b7          	lui	a1,0x55555
8000359c:	55458593          	addi	a1,a1,1364 # 55555554 <absimm+0x10263025>
800035a0:	00b53633          	sltu	a2,a0,a1
800035a4:	60c72623          	sw	a2,1548(a4)
800035a8:	00100093          	li	ra,1
800035ac:	00c08463          	beq	ra,a2,800035b4 <inst_406>
800035b0:	7a40206f          	j	80005d54 <bad_trap>

800035b4 <inst_406>:
800035b4:	00400513          	li	a0,4
800035b8:	aaaab5b7          	lui	a1,0xaaaab
800035bc:	aa958593          	addi	a1,a1,-1367 # aaaaaaa9 <imm12+0xaaaaafd9>
800035c0:	00b53633          	sltu	a2,a0,a1
800035c4:	60c72823          	sw	a2,1552(a4)
800035c8:	00100093          	li	ra,1
800035cc:	00c08463          	beq	ra,a2,800035d4 <inst_407>
800035d0:	7840206f          	j	80005d54 <bad_trap>

800035d4 <inst_407>:
800035d4:	00400513          	li	a0,4
800035d8:	00400593          	li	a1,4
800035dc:	00b53633          	sltu	a2,a0,a1
800035e0:	60c72a23          	sw	a2,1556(a4)
800035e4:	00000093          	li	ra,0
800035e8:	00c08463          	beq	ra,a2,800035f0 <inst_408>
800035ec:	7680206f          	j	80005d54 <bad_trap>

800035f0 <inst_408>:
800035f0:	00400513          	li	a0,4
800035f4:	333335b7          	lui	a1,0x33333
800035f8:	33258593          	addi	a1,a1,818 # 33333332 <offset+0x33333032>
800035fc:	00b53633          	sltu	a2,a0,a1
80003600:	60c72c23          	sw	a2,1560(a4)
80003604:	00100093          	li	ra,1
80003608:	00c08463          	beq	ra,a2,80003610 <inst_409>
8000360c:	7480206f          	j	80005d54 <bad_trap>

80003610 <inst_409>:
80003610:	00400513          	li	a0,4
80003614:	666665b7          	lui	a1,0x66666
80003618:	66558593          	addi	a1,a1,1637 # 66666665 <absimm+0x21374136>
8000361c:	00b53633          	sltu	a2,a0,a1
80003620:	60c72e23          	sw	a2,1564(a4)
80003624:	00100093          	li	ra,1
80003628:	00c08463          	beq	ra,a2,80003630 <inst_410>
8000362c:	7280206f          	j	80005d54 <bad_trap>

80003630 <inst_410>:
80003630:	00400513          	li	a0,4
80003634:	0000b5b7          	lui	a1,0xb
80003638:	50358593          	addi	a1,a1,1283 # b503 <offset+0xb203>
8000363c:	00b53633          	sltu	a2,a0,a1
80003640:	62c72023          	sw	a2,1568(a4)
80003644:	00100093          	li	ra,1
80003648:	00c08463          	beq	ra,a2,80003650 <inst_411>
8000364c:	7080206f          	j	80005d54 <bad_trap>

80003650 <inst_411>:
80003650:	00400513          	li	a0,4
80003654:	000105b7          	lui	a1,0x10
80003658:	ffe58593          	addi	a1,a1,-2 # fffe <offset+0xfcfe>
8000365c:	00b53633          	sltu	a2,a0,a1
80003660:	62c72223          	sw	a2,1572(a4)
80003664:	00100093          	li	ra,1
80003668:	00c08463          	beq	ra,a2,80003670 <inst_412>
8000366c:	6e80206f          	j	80005d54 <bad_trap>

80003670 <inst_412>:
80003670:	00400513          	li	a0,4
80003674:	555555b7          	lui	a1,0x55555
80003678:	55658593          	addi	a1,a1,1366 # 55555556 <absimm+0x10263027>
8000367c:	00b53633          	sltu	a2,a0,a1
80003680:	62c72423          	sw	a2,1576(a4)
80003684:	00100093          	li	ra,1
80003688:	00c08463          	beq	ra,a2,80003690 <inst_413>
8000368c:	6c80206f          	j	80005d54 <bad_trap>

80003690 <inst_413>:
80003690:	00400513          	li	a0,4
80003694:	aaaab5b7          	lui	a1,0xaaaab
80003698:	aab58593          	addi	a1,a1,-1365 # aaaaaaab <imm12+0xaaaaafdb>
8000369c:	00b53633          	sltu	a2,a0,a1
800036a0:	62c72623          	sw	a2,1580(a4)
800036a4:	00100093          	li	ra,1
800036a8:	00c08463          	beq	ra,a2,800036b0 <inst_414>
800036ac:	6a80206f          	j	80005d54 <bad_trap>

800036b0 <inst_414>:
800036b0:	00400513          	li	a0,4
800036b4:	00600593          	li	a1,6
800036b8:	00b53633          	sltu	a2,a0,a1
800036bc:	62c72823          	sw	a2,1584(a4)
800036c0:	00100093          	li	ra,1
800036c4:	00c08463          	beq	ra,a2,800036cc <inst_415>
800036c8:	68c0206f          	j	80005d54 <bad_trap>

800036cc <inst_415>:
800036cc:	00400513          	li	a0,4
800036d0:	333335b7          	lui	a1,0x33333
800036d4:	33458593          	addi	a1,a1,820 # 33333334 <offset+0x33333034>
800036d8:	00b53633          	sltu	a2,a0,a1
800036dc:	62c72a23          	sw	a2,1588(a4)
800036e0:	00100093          	li	ra,1
800036e4:	00c08463          	beq	ra,a2,800036ec <inst_416>
800036e8:	66c0206f          	j	80005d54 <bad_trap>

800036ec <inst_416>:
800036ec:	00400513          	li	a0,4
800036f0:	666665b7          	lui	a1,0x66666
800036f4:	66758593          	addi	a1,a1,1639 # 66666667 <absimm+0x21374138>
800036f8:	00b53633          	sltu	a2,a0,a1
800036fc:	62c72c23          	sw	a2,1592(a4)
80003700:	00100093          	li	ra,1
80003704:	00c08463          	beq	ra,a2,8000370c <inst_417>
80003708:	64c0206f          	j	80005d54 <bad_trap>

8000370c <inst_417>:
8000370c:	00400513          	li	a0,4
80003710:	0000b5b7          	lui	a1,0xb
80003714:	50558593          	addi	a1,a1,1285 # b505 <offset+0xb205>
80003718:	00b53633          	sltu	a2,a0,a1
8000371c:	62c72e23          	sw	a2,1596(a4)
80003720:	00100093          	li	ra,1
80003724:	00c08463          	beq	ra,a2,8000372c <inst_418>
80003728:	62c0206f          	j	80005d54 <bad_trap>

8000372c <inst_418>:
8000372c:	00400513          	li	a0,4
80003730:	00100593          	li	a1,1
80003734:	00b53633          	sltu	a2,a0,a1
80003738:	64c72023          	sw	a2,1600(a4)
8000373c:	00000093          	li	ra,0
80003740:	00c08463          	beq	ra,a2,80003748 <inst_419>
80003744:	6100206f          	j	80005d54 <bad_trap>

80003748 <inst_419>:
80003748:	00400513          	li	a0,4
8000374c:	000105b7          	lui	a1,0x10
80003750:	00b53633          	sltu	a2,a0,a1
80003754:	64c72223          	sw	a2,1604(a4)
80003758:	00100093          	li	ra,1
8000375c:	00c08463          	beq	ra,a2,80003764 <inst_420>
80003760:	5f40206f          	j	80005d54 <bad_trap>

80003764 <inst_420>:
80003764:	33333537          	lui	a0,0x33333
80003768:	33250513          	addi	a0,a0,818 # 33333332 <offset+0x33333032>
8000376c:	00300593          	li	a1,3
80003770:	00b53633          	sltu	a2,a0,a1
80003774:	64c72423          	sw	a2,1608(a4)
80003778:	00000093          	li	ra,0
8000377c:	00c08463          	beq	ra,a2,80003784 <inst_421>
80003780:	5d40206f          	j	80005d54 <bad_trap>

80003784 <inst_421>:
80003784:	33333537          	lui	a0,0x33333
80003788:	33250513          	addi	a0,a0,818 # 33333332 <offset+0x33333032>
8000378c:	555555b7          	lui	a1,0x55555
80003790:	55558593          	addi	a1,a1,1365 # 55555555 <absimm+0x10263026>
80003794:	00b53633          	sltu	a2,a0,a1
80003798:	64c72623          	sw	a2,1612(a4)
8000379c:	00100093          	li	ra,1
800037a0:	00c08463          	beq	ra,a2,800037a8 <inst_422>
800037a4:	5b00206f          	j	80005d54 <bad_trap>

800037a8 <inst_422>:
800037a8:	33333537          	lui	a0,0x33333
800037ac:	33250513          	addi	a0,a0,818 # 33333332 <offset+0x33333032>
800037b0:	aaaab5b7          	lui	a1,0xaaaab
800037b4:	aaa58593          	addi	a1,a1,-1366 # aaaaaaaa <imm12+0xaaaaafda>
800037b8:	00b53633          	sltu	a2,a0,a1
800037bc:	64c72823          	sw	a2,1616(a4)
800037c0:	00100093          	li	ra,1
800037c4:	00c08463          	beq	ra,a2,800037cc <inst_423>
800037c8:	58c0206f          	j	80005d54 <bad_trap>

800037cc <inst_423>:
800037cc:	33333537          	lui	a0,0x33333
800037d0:	33250513          	addi	a0,a0,818 # 33333332 <offset+0x33333032>
800037d4:	00500593          	li	a1,5
800037d8:	00b53633          	sltu	a2,a0,a1
800037dc:	64c72a23          	sw	a2,1620(a4)
800037e0:	00000093          	li	ra,0
800037e4:	00c08463          	beq	ra,a2,800037ec <inst_424>
800037e8:	56c0206f          	j	80005d54 <bad_trap>

800037ec <inst_424>:
800037ec:	33333537          	lui	a0,0x33333
800037f0:	33250513          	addi	a0,a0,818 # 33333332 <offset+0x33333032>
800037f4:	333335b7          	lui	a1,0x33333
800037f8:	33358593          	addi	a1,a1,819 # 33333333 <offset+0x33333033>
800037fc:	00b53633          	sltu	a2,a0,a1
80003800:	64c72c23          	sw	a2,1624(a4)
80003804:	00100093          	li	ra,1
80003808:	00c08463          	beq	ra,a2,80003810 <inst_425>
8000380c:	5480206f          	j	80005d54 <bad_trap>

80003810 <inst_425>:
80003810:	33333537          	lui	a0,0x33333
80003814:	33250513          	addi	a0,a0,818 # 33333332 <offset+0x33333032>
80003818:	666665b7          	lui	a1,0x66666
8000381c:	66658593          	addi	a1,a1,1638 # 66666666 <absimm+0x21374137>
80003820:	00b53633          	sltu	a2,a0,a1
80003824:	64c72e23          	sw	a2,1628(a4)
80003828:	00100093          	li	ra,1
8000382c:	00c08463          	beq	ra,a2,80003834 <inst_426>
80003830:	5240206f          	j	80005d54 <bad_trap>

80003834 <inst_426>:
80003834:	33333537          	lui	a0,0x33333
80003838:	33250513          	addi	a0,a0,818 # 33333332 <offset+0x33333032>
8000383c:	0000b5b7          	lui	a1,0xb
80003840:	50458593          	addi	a1,a1,1284 # b504 <offset+0xb204>
80003844:	00b53633          	sltu	a2,a0,a1
80003848:	66c72023          	sw	a2,1632(a4)
8000384c:	00000093          	li	ra,0
80003850:	00c08463          	beq	ra,a2,80003858 <inst_427>
80003854:	5000206f          	j	80005d54 <bad_trap>

80003858 <inst_427>:
80003858:	33333537          	lui	a0,0x33333
8000385c:	33250513          	addi	a0,a0,818 # 33333332 <offset+0x33333032>
80003860:	00000593          	li	a1,0
80003864:	00b53633          	sltu	a2,a0,a1
80003868:	66c72223          	sw	a2,1636(a4)
8000386c:	00000093          	li	ra,0
80003870:	00c08463          	beq	ra,a2,80003878 <inst_428>
80003874:	4e00206f          	j	80005d54 <bad_trap>

80003878 <inst_428>:
80003878:	33333537          	lui	a0,0x33333
8000387c:	33250513          	addi	a0,a0,818 # 33333332 <offset+0x33333032>
80003880:	000105b7          	lui	a1,0x10
80003884:	fff58593          	addi	a1,a1,-1 # ffff <offset+0xfcff>
80003888:	00b53633          	sltu	a2,a0,a1
8000388c:	66c72423          	sw	a2,1640(a4)
80003890:	00000093          	li	ra,0
80003894:	00c08463          	beq	ra,a2,8000389c <inst_429>
80003898:	4bc0206f          	j	80005d54 <bad_trap>

8000389c <inst_429>:
8000389c:	33333537          	lui	a0,0x33333
800038a0:	33250513          	addi	a0,a0,818 # 33333332 <offset+0x33333032>
800038a4:	00200593          	li	a1,2
800038a8:	00b53633          	sltu	a2,a0,a1
800038ac:	66c72623          	sw	a2,1644(a4)
800038b0:	00000093          	li	ra,0
800038b4:	00c08463          	beq	ra,a2,800038bc <inst_430>
800038b8:	49c0206f          	j	80005d54 <bad_trap>

800038bc <inst_430>:
800038bc:	33333537          	lui	a0,0x33333
800038c0:	33250513          	addi	a0,a0,818 # 33333332 <offset+0x33333032>
800038c4:	555555b7          	lui	a1,0x55555
800038c8:	55458593          	addi	a1,a1,1364 # 55555554 <absimm+0x10263025>
800038cc:	00b53633          	sltu	a2,a0,a1
800038d0:	66c72823          	sw	a2,1648(a4)
800038d4:	00100093          	li	ra,1
800038d8:	00c08463          	beq	ra,a2,800038e0 <inst_431>
800038dc:	4780206f          	j	80005d54 <bad_trap>

800038e0 <inst_431>:
800038e0:	33333537          	lui	a0,0x33333
800038e4:	33250513          	addi	a0,a0,818 # 33333332 <offset+0x33333032>
800038e8:	aaaab5b7          	lui	a1,0xaaaab
800038ec:	aa958593          	addi	a1,a1,-1367 # aaaaaaa9 <imm12+0xaaaaafd9>
800038f0:	00b53633          	sltu	a2,a0,a1
800038f4:	66c72a23          	sw	a2,1652(a4)
800038f8:	00100093          	li	ra,1
800038fc:	00c08463          	beq	ra,a2,80003904 <inst_432>
80003900:	4540206f          	j	80005d54 <bad_trap>

80003904 <inst_432>:
80003904:	33333537          	lui	a0,0x33333
80003908:	33250513          	addi	a0,a0,818 # 33333332 <offset+0x33333032>
8000390c:	00400593          	li	a1,4
80003910:	00b53633          	sltu	a2,a0,a1
80003914:	66c72c23          	sw	a2,1656(a4)
80003918:	00000093          	li	ra,0
8000391c:	00c08463          	beq	ra,a2,80003924 <inst_433>
80003920:	4340206f          	j	80005d54 <bad_trap>

80003924 <inst_433>:
80003924:	33333537          	lui	a0,0x33333
80003928:	33250513          	addi	a0,a0,818 # 33333332 <offset+0x33333032>
8000392c:	333335b7          	lui	a1,0x33333
80003930:	33258593          	addi	a1,a1,818 # 33333332 <offset+0x33333032>
80003934:	00b53633          	sltu	a2,a0,a1
80003938:	66c72e23          	sw	a2,1660(a4)
8000393c:	00000093          	li	ra,0
80003940:	00c08463          	beq	ra,a2,80003948 <inst_434>
80003944:	4100206f          	j	80005d54 <bad_trap>

80003948 <inst_434>:
80003948:	33333537          	lui	a0,0x33333
8000394c:	33250513          	addi	a0,a0,818 # 33333332 <offset+0x33333032>
80003950:	666665b7          	lui	a1,0x66666
80003954:	66558593          	addi	a1,a1,1637 # 66666665 <absimm+0x21374136>
80003958:	00b53633          	sltu	a2,a0,a1
8000395c:	68c72023          	sw	a2,1664(a4)
80003960:	00100093          	li	ra,1
80003964:	00c08463          	beq	ra,a2,8000396c <inst_435>
80003968:	3ec0206f          	j	80005d54 <bad_trap>

8000396c <inst_435>:
8000396c:	33333537          	lui	a0,0x33333
80003970:	33250513          	addi	a0,a0,818 # 33333332 <offset+0x33333032>
80003974:	0000b5b7          	lui	a1,0xb
80003978:	50358593          	addi	a1,a1,1283 # b503 <offset+0xb203>
8000397c:	00b53633          	sltu	a2,a0,a1
80003980:	68c72223          	sw	a2,1668(a4)
80003984:	00000093          	li	ra,0
80003988:	00c08463          	beq	ra,a2,80003990 <inst_436>
8000398c:	3c80206f          	j	80005d54 <bad_trap>

80003990 <inst_436>:
80003990:	33333537          	lui	a0,0x33333
80003994:	33250513          	addi	a0,a0,818 # 33333332 <offset+0x33333032>
80003998:	000105b7          	lui	a1,0x10
8000399c:	ffe58593          	addi	a1,a1,-2 # fffe <offset+0xfcfe>
800039a0:	00b53633          	sltu	a2,a0,a1
800039a4:	68c72423          	sw	a2,1672(a4)
800039a8:	00000093          	li	ra,0
800039ac:	00c08463          	beq	ra,a2,800039b4 <inst_437>
800039b0:	3a40206f          	j	80005d54 <bad_trap>

800039b4 <inst_437>:
800039b4:	33333537          	lui	a0,0x33333
800039b8:	33250513          	addi	a0,a0,818 # 33333332 <offset+0x33333032>
800039bc:	555555b7          	lui	a1,0x55555
800039c0:	55658593          	addi	a1,a1,1366 # 55555556 <absimm+0x10263027>
800039c4:	00b53633          	sltu	a2,a0,a1
800039c8:	68c72623          	sw	a2,1676(a4)
800039cc:	00100093          	li	ra,1
800039d0:	00c08463          	beq	ra,a2,800039d8 <inst_438>
800039d4:	3800206f          	j	80005d54 <bad_trap>

800039d8 <inst_438>:
800039d8:	33333537          	lui	a0,0x33333
800039dc:	33250513          	addi	a0,a0,818 # 33333332 <offset+0x33333032>
800039e0:	aaaab5b7          	lui	a1,0xaaaab
800039e4:	aab58593          	addi	a1,a1,-1365 # aaaaaaab <imm12+0xaaaaafdb>
800039e8:	00b53633          	sltu	a2,a0,a1
800039ec:	68c72823          	sw	a2,1680(a4)
800039f0:	00100093          	li	ra,1
800039f4:	00c08463          	beq	ra,a2,800039fc <inst_439>
800039f8:	35c0206f          	j	80005d54 <bad_trap>

800039fc <inst_439>:
800039fc:	33333537          	lui	a0,0x33333
80003a00:	33250513          	addi	a0,a0,818 # 33333332 <offset+0x33333032>
80003a04:	00600593          	li	a1,6
80003a08:	00b53633          	sltu	a2,a0,a1
80003a0c:	68c72a23          	sw	a2,1684(a4)
80003a10:	00000093          	li	ra,0
80003a14:	00c08463          	beq	ra,a2,80003a1c <inst_440>
80003a18:	33c0206f          	j	80005d54 <bad_trap>

80003a1c <inst_440>:
80003a1c:	33333537          	lui	a0,0x33333
80003a20:	33250513          	addi	a0,a0,818 # 33333332 <offset+0x33333032>
80003a24:	333335b7          	lui	a1,0x33333
80003a28:	33458593          	addi	a1,a1,820 # 33333334 <offset+0x33333034>
80003a2c:	00b53633          	sltu	a2,a0,a1
80003a30:	68c72c23          	sw	a2,1688(a4)
80003a34:	00100093          	li	ra,1
80003a38:	00c08463          	beq	ra,a2,80003a40 <inst_441>
80003a3c:	3180206f          	j	80005d54 <bad_trap>

80003a40 <inst_441>:
80003a40:	33333537          	lui	a0,0x33333
80003a44:	33250513          	addi	a0,a0,818 # 33333332 <offset+0x33333032>
80003a48:	666665b7          	lui	a1,0x66666
80003a4c:	66758593          	addi	a1,a1,1639 # 66666667 <absimm+0x21374138>
80003a50:	00b53633          	sltu	a2,a0,a1
80003a54:	68c72e23          	sw	a2,1692(a4)
80003a58:	00100093          	li	ra,1
80003a5c:	00c08463          	beq	ra,a2,80003a64 <inst_442>
80003a60:	2f40206f          	j	80005d54 <bad_trap>

80003a64 <inst_442>:
80003a64:	33333537          	lui	a0,0x33333
80003a68:	33250513          	addi	a0,a0,818 # 33333332 <offset+0x33333032>
80003a6c:	0000b5b7          	lui	a1,0xb
80003a70:	50558593          	addi	a1,a1,1285 # b505 <offset+0xb205>
80003a74:	00b53633          	sltu	a2,a0,a1
80003a78:	6ac72023          	sw	a2,1696(a4)
80003a7c:	00000093          	li	ra,0
80003a80:	00c08463          	beq	ra,a2,80003a88 <inst_443>
80003a84:	2d00206f          	j	80005d54 <bad_trap>

80003a88 <inst_443>:
80003a88:	33333537          	lui	a0,0x33333
80003a8c:	33250513          	addi	a0,a0,818 # 33333332 <offset+0x33333032>
80003a90:	00100593          	li	a1,1
80003a94:	00b53633          	sltu	a2,a0,a1
80003a98:	6ac72223          	sw	a2,1700(a4)
80003a9c:	00000093          	li	ra,0
80003aa0:	00c08463          	beq	ra,a2,80003aa8 <inst_444>
80003aa4:	2b00206f          	j	80005d54 <bad_trap>

80003aa8 <inst_444>:
80003aa8:	33333537          	lui	a0,0x33333
80003aac:	33250513          	addi	a0,a0,818 # 33333332 <offset+0x33333032>
80003ab0:	000105b7          	lui	a1,0x10
80003ab4:	00b53633          	sltu	a2,a0,a1
80003ab8:	6ac72423          	sw	a2,1704(a4)
80003abc:	00000093          	li	ra,0
80003ac0:	00c08463          	beq	ra,a2,80003ac8 <inst_445>
80003ac4:	2900206f          	j	80005d54 <bad_trap>

80003ac8 <inst_445>:
80003ac8:	66666537          	lui	a0,0x66666
80003acc:	66550513          	addi	a0,a0,1637 # 66666665 <absimm+0x21374136>
80003ad0:	00300593          	li	a1,3
80003ad4:	00b53633          	sltu	a2,a0,a1
80003ad8:	6ac72623          	sw	a2,1708(a4)
80003adc:	00000093          	li	ra,0
80003ae0:	00c08463          	beq	ra,a2,80003ae8 <inst_446>
80003ae4:	2700206f          	j	80005d54 <bad_trap>

80003ae8 <inst_446>:
80003ae8:	66666537          	lui	a0,0x66666
80003aec:	66550513          	addi	a0,a0,1637 # 66666665 <absimm+0x21374136>
80003af0:	555555b7          	lui	a1,0x55555
80003af4:	55558593          	addi	a1,a1,1365 # 55555555 <absimm+0x10263026>
80003af8:	00b53633          	sltu	a2,a0,a1
80003afc:	6ac72823          	sw	a2,1712(a4)
80003b00:	00000093          	li	ra,0
80003b04:	00c08463          	beq	ra,a2,80003b0c <inst_447>
80003b08:	24c0206f          	j	80005d54 <bad_trap>

80003b0c <inst_447>:
80003b0c:	66666537          	lui	a0,0x66666
80003b10:	66550513          	addi	a0,a0,1637 # 66666665 <absimm+0x21374136>
80003b14:	aaaab5b7          	lui	a1,0xaaaab
80003b18:	aaa58593          	addi	a1,a1,-1366 # aaaaaaaa <imm12+0xaaaaafda>
80003b1c:	00b53633          	sltu	a2,a0,a1
80003b20:	6ac72a23          	sw	a2,1716(a4)
80003b24:	00100093          	li	ra,1
80003b28:	00c08463          	beq	ra,a2,80003b30 <inst_448>
80003b2c:	2280206f          	j	80005d54 <bad_trap>

80003b30 <inst_448>:
80003b30:	66666537          	lui	a0,0x66666
80003b34:	66550513          	addi	a0,a0,1637 # 66666665 <absimm+0x21374136>
80003b38:	00500593          	li	a1,5
80003b3c:	00b53633          	sltu	a2,a0,a1
80003b40:	6ac72c23          	sw	a2,1720(a4)
80003b44:	00000093          	li	ra,0
80003b48:	00c08463          	beq	ra,a2,80003b50 <inst_449>
80003b4c:	2080206f          	j	80005d54 <bad_trap>

80003b50 <inst_449>:
80003b50:	66666537          	lui	a0,0x66666
80003b54:	66550513          	addi	a0,a0,1637 # 66666665 <absimm+0x21374136>
80003b58:	333335b7          	lui	a1,0x33333
80003b5c:	33358593          	addi	a1,a1,819 # 33333333 <offset+0x33333033>
80003b60:	00b53633          	sltu	a2,a0,a1
80003b64:	6ac72e23          	sw	a2,1724(a4)
80003b68:	00000093          	li	ra,0
80003b6c:	00c08463          	beq	ra,a2,80003b74 <inst_450>
80003b70:	1e40206f          	j	80005d54 <bad_trap>

80003b74 <inst_450>:
80003b74:	66666537          	lui	a0,0x66666
80003b78:	66550513          	addi	a0,a0,1637 # 66666665 <absimm+0x21374136>
80003b7c:	666665b7          	lui	a1,0x66666
80003b80:	66658593          	addi	a1,a1,1638 # 66666666 <absimm+0x21374137>
80003b84:	00b53633          	sltu	a2,a0,a1
80003b88:	6cc72023          	sw	a2,1728(a4)
80003b8c:	00100093          	li	ra,1
80003b90:	00c08463          	beq	ra,a2,80003b98 <inst_451>
80003b94:	1c00206f          	j	80005d54 <bad_trap>

80003b98 <inst_451>:
80003b98:	66666537          	lui	a0,0x66666
80003b9c:	66550513          	addi	a0,a0,1637 # 66666665 <absimm+0x21374136>
80003ba0:	0000b5b7          	lui	a1,0xb
80003ba4:	50458593          	addi	a1,a1,1284 # b504 <offset+0xb204>
80003ba8:	00b53633          	sltu	a2,a0,a1
80003bac:	6cc72223          	sw	a2,1732(a4)
80003bb0:	00000093          	li	ra,0
80003bb4:	00c08463          	beq	ra,a2,80003bbc <inst_452>
80003bb8:	19c0206f          	j	80005d54 <bad_trap>

80003bbc <inst_452>:
80003bbc:	66666537          	lui	a0,0x66666
80003bc0:	66550513          	addi	a0,a0,1637 # 66666665 <absimm+0x21374136>
80003bc4:	00000593          	li	a1,0
80003bc8:	00b53633          	sltu	a2,a0,a1
80003bcc:	6cc72423          	sw	a2,1736(a4)
80003bd0:	00000093          	li	ra,0
80003bd4:	00c08463          	beq	ra,a2,80003bdc <inst_453>
80003bd8:	17c0206f          	j	80005d54 <bad_trap>

80003bdc <inst_453>:
80003bdc:	66666537          	lui	a0,0x66666
80003be0:	66550513          	addi	a0,a0,1637 # 66666665 <absimm+0x21374136>
80003be4:	000105b7          	lui	a1,0x10
80003be8:	fff58593          	addi	a1,a1,-1 # ffff <offset+0xfcff>
80003bec:	00b53633          	sltu	a2,a0,a1
80003bf0:	6cc72623          	sw	a2,1740(a4)
80003bf4:	00000093          	li	ra,0
80003bf8:	00c08463          	beq	ra,a2,80003c00 <inst_454>
80003bfc:	1580206f          	j	80005d54 <bad_trap>

80003c00 <inst_454>:
80003c00:	66666537          	lui	a0,0x66666
80003c04:	66550513          	addi	a0,a0,1637 # 66666665 <absimm+0x21374136>
80003c08:	00200593          	li	a1,2
80003c0c:	00b53633          	sltu	a2,a0,a1
80003c10:	6cc72823          	sw	a2,1744(a4)
80003c14:	00000093          	li	ra,0
80003c18:	00c08463          	beq	ra,a2,80003c20 <inst_455>
80003c1c:	1380206f          	j	80005d54 <bad_trap>

80003c20 <inst_455>:
80003c20:	66666537          	lui	a0,0x66666
80003c24:	66550513          	addi	a0,a0,1637 # 66666665 <absimm+0x21374136>
80003c28:	555555b7          	lui	a1,0x55555
80003c2c:	55458593          	addi	a1,a1,1364 # 55555554 <absimm+0x10263025>
80003c30:	00b53633          	sltu	a2,a0,a1
80003c34:	6cc72a23          	sw	a2,1748(a4)
80003c38:	00000093          	li	ra,0
80003c3c:	00c08463          	beq	ra,a2,80003c44 <inst_456>
80003c40:	1140206f          	j	80005d54 <bad_trap>

80003c44 <inst_456>:
80003c44:	66666537          	lui	a0,0x66666
80003c48:	66550513          	addi	a0,a0,1637 # 66666665 <absimm+0x21374136>
80003c4c:	aaaab5b7          	lui	a1,0xaaaab
80003c50:	aa958593          	addi	a1,a1,-1367 # aaaaaaa9 <imm12+0xaaaaafd9>
80003c54:	00b53633          	sltu	a2,a0,a1
80003c58:	6cc72c23          	sw	a2,1752(a4)
80003c5c:	00100093          	li	ra,1
80003c60:	00c08463          	beq	ra,a2,80003c68 <inst_457>
80003c64:	0f00206f          	j	80005d54 <bad_trap>

80003c68 <inst_457>:
80003c68:	66666537          	lui	a0,0x66666
80003c6c:	66550513          	addi	a0,a0,1637 # 66666665 <absimm+0x21374136>
80003c70:	00400593          	li	a1,4
80003c74:	00b53633          	sltu	a2,a0,a1
80003c78:	6cc72e23          	sw	a2,1756(a4)
80003c7c:	00000093          	li	ra,0
80003c80:	00c08463          	beq	ra,a2,80003c88 <inst_458>
80003c84:	0d00206f          	j	80005d54 <bad_trap>

80003c88 <inst_458>:
80003c88:	66666537          	lui	a0,0x66666
80003c8c:	66550513          	addi	a0,a0,1637 # 66666665 <absimm+0x21374136>
80003c90:	333335b7          	lui	a1,0x33333
80003c94:	33258593          	addi	a1,a1,818 # 33333332 <offset+0x33333032>
80003c98:	00b53633          	sltu	a2,a0,a1
80003c9c:	6ec72023          	sw	a2,1760(a4)
80003ca0:	00000093          	li	ra,0
80003ca4:	00c08463          	beq	ra,a2,80003cac <inst_459>
80003ca8:	0ac0206f          	j	80005d54 <bad_trap>

80003cac <inst_459>:
80003cac:	66666537          	lui	a0,0x66666
80003cb0:	66550513          	addi	a0,a0,1637 # 66666665 <absimm+0x21374136>
80003cb4:	666665b7          	lui	a1,0x66666
80003cb8:	66558593          	addi	a1,a1,1637 # 66666665 <absimm+0x21374136>
80003cbc:	00b53633          	sltu	a2,a0,a1
80003cc0:	6ec72223          	sw	a2,1764(a4)
80003cc4:	00000093          	li	ra,0
80003cc8:	00c08463          	beq	ra,a2,80003cd0 <inst_460>
80003ccc:	0880206f          	j	80005d54 <bad_trap>

80003cd0 <inst_460>:
80003cd0:	66666537          	lui	a0,0x66666
80003cd4:	66550513          	addi	a0,a0,1637 # 66666665 <absimm+0x21374136>
80003cd8:	0000b5b7          	lui	a1,0xb
80003cdc:	50358593          	addi	a1,a1,1283 # b503 <offset+0xb203>
80003ce0:	00b53633          	sltu	a2,a0,a1
80003ce4:	6ec72423          	sw	a2,1768(a4)
80003ce8:	00000093          	li	ra,0
80003cec:	00c08463          	beq	ra,a2,80003cf4 <inst_461>
80003cf0:	0640206f          	j	80005d54 <bad_trap>

80003cf4 <inst_461>:
80003cf4:	66666537          	lui	a0,0x66666
80003cf8:	66550513          	addi	a0,a0,1637 # 66666665 <absimm+0x21374136>
80003cfc:	000105b7          	lui	a1,0x10
80003d00:	ffe58593          	addi	a1,a1,-2 # fffe <offset+0xfcfe>
80003d04:	00b53633          	sltu	a2,a0,a1
80003d08:	6ec72623          	sw	a2,1772(a4)
80003d0c:	00000093          	li	ra,0
80003d10:	00c08463          	beq	ra,a2,80003d18 <inst_462>
80003d14:	0400206f          	j	80005d54 <bad_trap>

80003d18 <inst_462>:
80003d18:	66666537          	lui	a0,0x66666
80003d1c:	66550513          	addi	a0,a0,1637 # 66666665 <absimm+0x21374136>
80003d20:	555555b7          	lui	a1,0x55555
80003d24:	55658593          	addi	a1,a1,1366 # 55555556 <absimm+0x10263027>
80003d28:	00b53633          	sltu	a2,a0,a1
80003d2c:	6ec72823          	sw	a2,1776(a4)
80003d30:	00000093          	li	ra,0
80003d34:	00c08463          	beq	ra,a2,80003d3c <inst_463>
80003d38:	01c0206f          	j	80005d54 <bad_trap>

80003d3c <inst_463>:
80003d3c:	66666537          	lui	a0,0x66666
80003d40:	66550513          	addi	a0,a0,1637 # 66666665 <absimm+0x21374136>
80003d44:	00100593          	li	a1,1
80003d48:	00b53633          	sltu	a2,a0,a1
80003d4c:	6ec72a23          	sw	a2,1780(a4)
80003d50:	00000093          	li	ra,0
80003d54:	00c08463          	beq	ra,a2,80003d5c <inst_464>
80003d58:	7fd0106f          	j	80005d54 <bad_trap>

80003d5c <inst_464>:
80003d5c:	66666537          	lui	a0,0x66666
80003d60:	66550513          	addi	a0,a0,1637 # 66666665 <absimm+0x21374136>
80003d64:	000105b7          	lui	a1,0x10
80003d68:	00b53633          	sltu	a2,a0,a1
80003d6c:	6ec72c23          	sw	a2,1784(a4)
80003d70:	00000093          	li	ra,0
80003d74:	00c08463          	beq	ra,a2,80003d7c <inst_465>
80003d78:	7dd0106f          	j	80005d54 <bad_trap>

80003d7c <inst_465>:
80003d7c:	0000b537          	lui	a0,0xb
80003d80:	50350513          	addi	a0,a0,1283 # b503 <offset+0xb203>
80003d84:	00300593          	li	a1,3
80003d88:	00b53633          	sltu	a2,a0,a1
80003d8c:	6ec72e23          	sw	a2,1788(a4)
80003d90:	00000093          	li	ra,0
80003d94:	00c08463          	beq	ra,a2,80003d9c <inst_466>
80003d98:	7bd0106f          	j	80005d54 <bad_trap>

80003d9c <inst_466>:
80003d9c:	0000b537          	lui	a0,0xb
80003da0:	50350513          	addi	a0,a0,1283 # b503 <offset+0xb203>
80003da4:	555555b7          	lui	a1,0x55555
80003da8:	55558593          	addi	a1,a1,1365 # 55555555 <absimm+0x10263026>
80003dac:	00b53633          	sltu	a2,a0,a1
80003db0:	70c72023          	sw	a2,1792(a4)
80003db4:	00100093          	li	ra,1
80003db8:	00c08463          	beq	ra,a2,80003dc0 <inst_467>
80003dbc:	7990106f          	j	80005d54 <bad_trap>

80003dc0 <inst_467>:
80003dc0:	0000b537          	lui	a0,0xb
80003dc4:	50350513          	addi	a0,a0,1283 # b503 <offset+0xb203>
80003dc8:	aaaab5b7          	lui	a1,0xaaaab
80003dcc:	aaa58593          	addi	a1,a1,-1366 # aaaaaaaa <imm12+0xaaaaafda>
80003dd0:	00b53633          	sltu	a2,a0,a1
80003dd4:	70c72223          	sw	a2,1796(a4)
80003dd8:	00100093          	li	ra,1
80003ddc:	00c08463          	beq	ra,a2,80003de4 <inst_468>
80003de0:	7750106f          	j	80005d54 <bad_trap>

80003de4 <inst_468>:
80003de4:	0000b537          	lui	a0,0xb
80003de8:	50350513          	addi	a0,a0,1283 # b503 <offset+0xb203>
80003dec:	00500593          	li	a1,5
80003df0:	00b53633          	sltu	a2,a0,a1
80003df4:	70c72423          	sw	a2,1800(a4)
80003df8:	00000093          	li	ra,0
80003dfc:	00c08463          	beq	ra,a2,80003e04 <inst_469>
80003e00:	7550106f          	j	80005d54 <bad_trap>

80003e04 <inst_469>:
80003e04:	0000b537          	lui	a0,0xb
80003e08:	50350513          	addi	a0,a0,1283 # b503 <offset+0xb203>
80003e0c:	333335b7          	lui	a1,0x33333
80003e10:	33358593          	addi	a1,a1,819 # 33333333 <offset+0x33333033>
80003e14:	00b53633          	sltu	a2,a0,a1
80003e18:	70c72623          	sw	a2,1804(a4)
80003e1c:	00100093          	li	ra,1
80003e20:	00c08463          	beq	ra,a2,80003e28 <inst_470>
80003e24:	7310106f          	j	80005d54 <bad_trap>

80003e28 <inst_470>:
80003e28:	0000b537          	lui	a0,0xb
80003e2c:	50350513          	addi	a0,a0,1283 # b503 <offset+0xb203>
80003e30:	666665b7          	lui	a1,0x66666
80003e34:	66658593          	addi	a1,a1,1638 # 66666666 <absimm+0x21374137>
80003e38:	00b53633          	sltu	a2,a0,a1
80003e3c:	70c72823          	sw	a2,1808(a4)
80003e40:	00100093          	li	ra,1
80003e44:	00c08463          	beq	ra,a2,80003e4c <inst_471>
80003e48:	70d0106f          	j	80005d54 <bad_trap>

80003e4c <inst_471>:
80003e4c:	0000b537          	lui	a0,0xb
80003e50:	50350513          	addi	a0,a0,1283 # b503 <offset+0xb203>
80003e54:	0000b5b7          	lui	a1,0xb
80003e58:	50458593          	addi	a1,a1,1284 # b504 <offset+0xb204>
80003e5c:	00b53633          	sltu	a2,a0,a1
80003e60:	70c72a23          	sw	a2,1812(a4)
80003e64:	00100093          	li	ra,1
80003e68:	00c08463          	beq	ra,a2,80003e70 <inst_472>
80003e6c:	6e90106f          	j	80005d54 <bad_trap>

80003e70 <inst_472>:
80003e70:	0000b537          	lui	a0,0xb
80003e74:	50350513          	addi	a0,a0,1283 # b503 <offset+0xb203>
80003e78:	00000593          	li	a1,0
80003e7c:	00b53633          	sltu	a2,a0,a1
80003e80:	70c72c23          	sw	a2,1816(a4)
80003e84:	00000093          	li	ra,0
80003e88:	00c08463          	beq	ra,a2,80003e90 <inst_473>
80003e8c:	6c90106f          	j	80005d54 <bad_trap>

80003e90 <inst_473>:
80003e90:	0000b537          	lui	a0,0xb
80003e94:	50350513          	addi	a0,a0,1283 # b503 <offset+0xb203>
80003e98:	000105b7          	lui	a1,0x10
80003e9c:	fff58593          	addi	a1,a1,-1 # ffff <offset+0xfcff>
80003ea0:	00b53633          	sltu	a2,a0,a1
80003ea4:	70c72e23          	sw	a2,1820(a4)
80003ea8:	00100093          	li	ra,1
80003eac:	00c08463          	beq	ra,a2,80003eb4 <inst_474>
80003eb0:	6a50106f          	j	80005d54 <bad_trap>

80003eb4 <inst_474>:
80003eb4:	0000b537          	lui	a0,0xb
80003eb8:	50350513          	addi	a0,a0,1283 # b503 <offset+0xb203>
80003ebc:	00200593          	li	a1,2
80003ec0:	00b53633          	sltu	a2,a0,a1
80003ec4:	72c72023          	sw	a2,1824(a4)
80003ec8:	00000093          	li	ra,0
80003ecc:	00c08463          	beq	ra,a2,80003ed4 <inst_475>
80003ed0:	6850106f          	j	80005d54 <bad_trap>

80003ed4 <inst_475>:
80003ed4:	0000b537          	lui	a0,0xb
80003ed8:	50350513          	addi	a0,a0,1283 # b503 <offset+0xb203>
80003edc:	555555b7          	lui	a1,0x55555
80003ee0:	55458593          	addi	a1,a1,1364 # 55555554 <absimm+0x10263025>
80003ee4:	00b53633          	sltu	a2,a0,a1
80003ee8:	72c72223          	sw	a2,1828(a4)
80003eec:	00100093          	li	ra,1
80003ef0:	00c08463          	beq	ra,a2,80003ef8 <inst_476>
80003ef4:	6610106f          	j	80005d54 <bad_trap>

80003ef8 <inst_476>:
80003ef8:	0000b537          	lui	a0,0xb
80003efc:	50350513          	addi	a0,a0,1283 # b503 <offset+0xb203>
80003f00:	aaaab5b7          	lui	a1,0xaaaab
80003f04:	aa958593          	addi	a1,a1,-1367 # aaaaaaa9 <imm12+0xaaaaafd9>
80003f08:	00b53633          	sltu	a2,a0,a1
80003f0c:	72c72423          	sw	a2,1832(a4)
80003f10:	00100093          	li	ra,1
80003f14:	00c08463          	beq	ra,a2,80003f1c <inst_477>
80003f18:	63d0106f          	j	80005d54 <bad_trap>

80003f1c <inst_477>:
80003f1c:	0000b537          	lui	a0,0xb
80003f20:	50350513          	addi	a0,a0,1283 # b503 <offset+0xb203>
80003f24:	00400593          	li	a1,4
80003f28:	00b53633          	sltu	a2,a0,a1
80003f2c:	72c72623          	sw	a2,1836(a4)
80003f30:	00000093          	li	ra,0
80003f34:	00c08463          	beq	ra,a2,80003f3c <inst_478>
80003f38:	61d0106f          	j	80005d54 <bad_trap>

80003f3c <inst_478>:
80003f3c:	0000b537          	lui	a0,0xb
80003f40:	50350513          	addi	a0,a0,1283 # b503 <offset+0xb203>
80003f44:	333335b7          	lui	a1,0x33333
80003f48:	33258593          	addi	a1,a1,818 # 33333332 <offset+0x33333032>
80003f4c:	00b53633          	sltu	a2,a0,a1
80003f50:	72c72823          	sw	a2,1840(a4)
80003f54:	00100093          	li	ra,1
80003f58:	00c08463          	beq	ra,a2,80003f60 <inst_479>
80003f5c:	5f90106f          	j	80005d54 <bad_trap>

80003f60 <inst_479>:
80003f60:	0000b537          	lui	a0,0xb
80003f64:	50350513          	addi	a0,a0,1283 # b503 <offset+0xb203>
80003f68:	666665b7          	lui	a1,0x66666
80003f6c:	66558593          	addi	a1,a1,1637 # 66666665 <absimm+0x21374136>
80003f70:	00b53633          	sltu	a2,a0,a1
80003f74:	72c72a23          	sw	a2,1844(a4)
80003f78:	00100093          	li	ra,1
80003f7c:	00c08463          	beq	ra,a2,80003f84 <inst_480>
80003f80:	5d50106f          	j	80005d54 <bad_trap>

80003f84 <inst_480>:
80003f84:	0000b537          	lui	a0,0xb
80003f88:	50350513          	addi	a0,a0,1283 # b503 <offset+0xb203>
80003f8c:	0000b5b7          	lui	a1,0xb
80003f90:	50358593          	addi	a1,a1,1283 # b503 <offset+0xb203>
80003f94:	00b53633          	sltu	a2,a0,a1
80003f98:	72c72c23          	sw	a2,1848(a4)
80003f9c:	00000093          	li	ra,0
80003fa0:	00c08463          	beq	ra,a2,80003fa8 <inst_481>
80003fa4:	5b10106f          	j	80005d54 <bad_trap>

80003fa8 <inst_481>:
80003fa8:	0000b537          	lui	a0,0xb
80003fac:	50350513          	addi	a0,a0,1283 # b503 <offset+0xb203>
80003fb0:	000105b7          	lui	a1,0x10
80003fb4:	ffe58593          	addi	a1,a1,-2 # fffe <offset+0xfcfe>
80003fb8:	00b53633          	sltu	a2,a0,a1
80003fbc:	72c72e23          	sw	a2,1852(a4)
80003fc0:	00100093          	li	ra,1
80003fc4:	00c08463          	beq	ra,a2,80003fcc <inst_482>
80003fc8:	58d0106f          	j	80005d54 <bad_trap>

80003fcc <inst_482>:
80003fcc:	0000b537          	lui	a0,0xb
80003fd0:	50350513          	addi	a0,a0,1283 # b503 <offset+0xb203>
80003fd4:	555555b7          	lui	a1,0x55555
80003fd8:	55658593          	addi	a1,a1,1366 # 55555556 <absimm+0x10263027>
80003fdc:	00b53633          	sltu	a2,a0,a1
80003fe0:	74c72023          	sw	a2,1856(a4)
80003fe4:	00100093          	li	ra,1
80003fe8:	00c08463          	beq	ra,a2,80003ff0 <inst_483>
80003fec:	5690106f          	j	80005d54 <bad_trap>

80003ff0 <inst_483>:
80003ff0:	0000b537          	lui	a0,0xb
80003ff4:	50350513          	addi	a0,a0,1283 # b503 <offset+0xb203>
80003ff8:	aaaab5b7          	lui	a1,0xaaaab
80003ffc:	aab58593          	addi	a1,a1,-1365 # aaaaaaab <imm12+0xaaaaafdb>
80004000:	00b53633          	sltu	a2,a0,a1
80004004:	74c72223          	sw	a2,1860(a4)
80004008:	00100093          	li	ra,1
8000400c:	00c08463          	beq	ra,a2,80004014 <inst_484>
80004010:	5450106f          	j	80005d54 <bad_trap>

80004014 <inst_484>:
80004014:	0000b537          	lui	a0,0xb
80004018:	50350513          	addi	a0,a0,1283 # b503 <offset+0xb203>
8000401c:	00600593          	li	a1,6
80004020:	00b53633          	sltu	a2,a0,a1
80004024:	74c72423          	sw	a2,1864(a4)
80004028:	00000093          	li	ra,0
8000402c:	00c08463          	beq	ra,a2,80004034 <inst_485>
80004030:	5250106f          	j	80005d54 <bad_trap>

80004034 <inst_485>:
80004034:	0000b537          	lui	a0,0xb
80004038:	50350513          	addi	a0,a0,1283 # b503 <offset+0xb203>
8000403c:	333335b7          	lui	a1,0x33333
80004040:	33458593          	addi	a1,a1,820 # 33333334 <offset+0x33333034>
80004044:	00b53633          	sltu	a2,a0,a1
80004048:	74c72623          	sw	a2,1868(a4)
8000404c:	00100093          	li	ra,1
80004050:	00c08463          	beq	ra,a2,80004058 <inst_486>
80004054:	5010106f          	j	80005d54 <bad_trap>

80004058 <inst_486>:
80004058:	0000b537          	lui	a0,0xb
8000405c:	50350513          	addi	a0,a0,1283 # b503 <offset+0xb203>
80004060:	666665b7          	lui	a1,0x66666
80004064:	66758593          	addi	a1,a1,1639 # 66666667 <absimm+0x21374138>
80004068:	00b53633          	sltu	a2,a0,a1
8000406c:	74c72823          	sw	a2,1872(a4)
80004070:	00100093          	li	ra,1
80004074:	00c08463          	beq	ra,a2,8000407c <inst_487>
80004078:	4dd0106f          	j	80005d54 <bad_trap>

8000407c <inst_487>:
8000407c:	0000b537          	lui	a0,0xb
80004080:	50350513          	addi	a0,a0,1283 # b503 <offset+0xb203>
80004084:	0000b5b7          	lui	a1,0xb
80004088:	50558593          	addi	a1,a1,1285 # b505 <offset+0xb205>
8000408c:	00b53633          	sltu	a2,a0,a1
80004090:	74c72a23          	sw	a2,1876(a4)
80004094:	00100093          	li	ra,1
80004098:	00c08463          	beq	ra,a2,800040a0 <inst_488>
8000409c:	4b90106f          	j	80005d54 <bad_trap>

800040a0 <inst_488>:
800040a0:	0000b537          	lui	a0,0xb
800040a4:	50350513          	addi	a0,a0,1283 # b503 <offset+0xb203>
800040a8:	00100593          	li	a1,1
800040ac:	00b53633          	sltu	a2,a0,a1
800040b0:	74c72c23          	sw	a2,1880(a4)
800040b4:	00000093          	li	ra,0
800040b8:	00c08463          	beq	ra,a2,800040c0 <inst_489>
800040bc:	4990106f          	j	80005d54 <bad_trap>

800040c0 <inst_489>:
800040c0:	0000b537          	lui	a0,0xb
800040c4:	50350513          	addi	a0,a0,1283 # b503 <offset+0xb203>
800040c8:	000105b7          	lui	a1,0x10
800040cc:	00b53633          	sltu	a2,a0,a1
800040d0:	74c72e23          	sw	a2,1884(a4)
800040d4:	00100093          	li	ra,1
800040d8:	00c08463          	beq	ra,a2,800040e0 <inst_490>
800040dc:	4790106f          	j	80005d54 <bad_trap>

800040e0 <inst_490>:
800040e0:	00010537          	lui	a0,0x10
800040e4:	ffe50513          	addi	a0,a0,-2 # fffe <offset+0xfcfe>
800040e8:	00300593          	li	a1,3
800040ec:	00b53633          	sltu	a2,a0,a1
800040f0:	76c72023          	sw	a2,1888(a4)
800040f4:	00000093          	li	ra,0
800040f8:	00c08463          	beq	ra,a2,80004100 <inst_491>
800040fc:	4590106f          	j	80005d54 <bad_trap>

80004100 <inst_491>:
80004100:	00010537          	lui	a0,0x10
80004104:	ffe50513          	addi	a0,a0,-2 # fffe <offset+0xfcfe>
80004108:	555555b7          	lui	a1,0x55555
8000410c:	55558593          	addi	a1,a1,1365 # 55555555 <absimm+0x10263026>
80004110:	00b53633          	sltu	a2,a0,a1
80004114:	76c72223          	sw	a2,1892(a4)
80004118:	00100093          	li	ra,1
8000411c:	00c08463          	beq	ra,a2,80004124 <inst_492>
80004120:	4350106f          	j	80005d54 <bad_trap>

80004124 <inst_492>:
80004124:	00010537          	lui	a0,0x10
80004128:	ffe50513          	addi	a0,a0,-2 # fffe <offset+0xfcfe>
8000412c:	aaaab5b7          	lui	a1,0xaaaab
80004130:	aaa58593          	addi	a1,a1,-1366 # aaaaaaaa <imm12+0xaaaaafda>
80004134:	00b53633          	sltu	a2,a0,a1
80004138:	76c72423          	sw	a2,1896(a4)
8000413c:	00100093          	li	ra,1
80004140:	00c08463          	beq	ra,a2,80004148 <inst_493>
80004144:	4110106f          	j	80005d54 <bad_trap>

80004148 <inst_493>:
80004148:	00010537          	lui	a0,0x10
8000414c:	ffe50513          	addi	a0,a0,-2 # fffe <offset+0xfcfe>
80004150:	00500593          	li	a1,5
80004154:	00b53633          	sltu	a2,a0,a1
80004158:	76c72623          	sw	a2,1900(a4)
8000415c:	00000093          	li	ra,0
80004160:	00c08463          	beq	ra,a2,80004168 <inst_494>
80004164:	3f10106f          	j	80005d54 <bad_trap>

80004168 <inst_494>:
80004168:	00010537          	lui	a0,0x10
8000416c:	ffe50513          	addi	a0,a0,-2 # fffe <offset+0xfcfe>
80004170:	333335b7          	lui	a1,0x33333
80004174:	33358593          	addi	a1,a1,819 # 33333333 <offset+0x33333033>
80004178:	00b53633          	sltu	a2,a0,a1
8000417c:	76c72823          	sw	a2,1904(a4)
80004180:	00100093          	li	ra,1
80004184:	00c08463          	beq	ra,a2,8000418c <inst_495>
80004188:	3cd0106f          	j	80005d54 <bad_trap>

8000418c <inst_495>:
8000418c:	00010537          	lui	a0,0x10
80004190:	ffe50513          	addi	a0,a0,-2 # fffe <offset+0xfcfe>
80004194:	666665b7          	lui	a1,0x66666
80004198:	66658593          	addi	a1,a1,1638 # 66666666 <absimm+0x21374137>
8000419c:	00b53633          	sltu	a2,a0,a1
800041a0:	76c72a23          	sw	a2,1908(a4)
800041a4:	00100093          	li	ra,1
800041a8:	00c08463          	beq	ra,a2,800041b0 <inst_496>
800041ac:	3a90106f          	j	80005d54 <bad_trap>

800041b0 <inst_496>:
800041b0:	00010537          	lui	a0,0x10
800041b4:	ffe50513          	addi	a0,a0,-2 # fffe <offset+0xfcfe>
800041b8:	0000b5b7          	lui	a1,0xb
800041bc:	50458593          	addi	a1,a1,1284 # b504 <offset+0xb204>
800041c0:	00b53633          	sltu	a2,a0,a1
800041c4:	76c72c23          	sw	a2,1912(a4)
800041c8:	00000093          	li	ra,0
800041cc:	00c08463          	beq	ra,a2,800041d4 <inst_497>
800041d0:	3850106f          	j	80005d54 <bad_trap>

800041d4 <inst_497>:
800041d4:	00010537          	lui	a0,0x10
800041d8:	ffe50513          	addi	a0,a0,-2 # fffe <offset+0xfcfe>
800041dc:	00000593          	li	a1,0
800041e0:	00b53633          	sltu	a2,a0,a1
800041e4:	76c72e23          	sw	a2,1916(a4)
800041e8:	00000093          	li	ra,0
800041ec:	00c08463          	beq	ra,a2,800041f4 <inst_498>
800041f0:	3650106f          	j	80005d54 <bad_trap>

800041f4 <inst_498>:
800041f4:	00010537          	lui	a0,0x10
800041f8:	ffe50513          	addi	a0,a0,-2 # fffe <offset+0xfcfe>
800041fc:	000105b7          	lui	a1,0x10
80004200:	fff58593          	addi	a1,a1,-1 # ffff <offset+0xfcff>
80004204:	00b53633          	sltu	a2,a0,a1
80004208:	78c72023          	sw	a2,1920(a4)
8000420c:	00100093          	li	ra,1
80004210:	00c08463          	beq	ra,a2,80004218 <inst_499>
80004214:	3410106f          	j	80005d54 <bad_trap>

80004218 <inst_499>:
80004218:	00010537          	lui	a0,0x10
8000421c:	ffe50513          	addi	a0,a0,-2 # fffe <offset+0xfcfe>
80004220:	00200593          	li	a1,2
80004224:	00b53633          	sltu	a2,a0,a1
80004228:	78c72223          	sw	a2,1924(a4)
8000422c:	00000093          	li	ra,0
80004230:	00c08463          	beq	ra,a2,80004238 <inst_500>
80004234:	3210106f          	j	80005d54 <bad_trap>

80004238 <inst_500>:
80004238:	00010537          	lui	a0,0x10
8000423c:	ffe50513          	addi	a0,a0,-2 # fffe <offset+0xfcfe>
80004240:	555555b7          	lui	a1,0x55555
80004244:	55458593          	addi	a1,a1,1364 # 55555554 <absimm+0x10263025>
80004248:	00b53633          	sltu	a2,a0,a1
8000424c:	78c72423          	sw	a2,1928(a4)
80004250:	00100093          	li	ra,1
80004254:	00c08463          	beq	ra,a2,8000425c <inst_501>
80004258:	2fd0106f          	j	80005d54 <bad_trap>

8000425c <inst_501>:
8000425c:	00010537          	lui	a0,0x10
80004260:	ffe50513          	addi	a0,a0,-2 # fffe <offset+0xfcfe>
80004264:	aaaab5b7          	lui	a1,0xaaaab
80004268:	aa958593          	addi	a1,a1,-1367 # aaaaaaa9 <imm12+0xaaaaafd9>
8000426c:	00b53633          	sltu	a2,a0,a1
80004270:	78c72623          	sw	a2,1932(a4)
80004274:	00100093          	li	ra,1
80004278:	00c08463          	beq	ra,a2,80004280 <inst_502>
8000427c:	2d90106f          	j	80005d54 <bad_trap>

80004280 <inst_502>:
80004280:	00010537          	lui	a0,0x10
80004284:	ffe50513          	addi	a0,a0,-2 # fffe <offset+0xfcfe>
80004288:	00400593          	li	a1,4
8000428c:	00b53633          	sltu	a2,a0,a1
80004290:	78c72823          	sw	a2,1936(a4)
80004294:	00000093          	li	ra,0
80004298:	00c08463          	beq	ra,a2,800042a0 <inst_503>
8000429c:	2b90106f          	j	80005d54 <bad_trap>

800042a0 <inst_503>:
800042a0:	00010537          	lui	a0,0x10
800042a4:	ffe50513          	addi	a0,a0,-2 # fffe <offset+0xfcfe>
800042a8:	333335b7          	lui	a1,0x33333
800042ac:	33258593          	addi	a1,a1,818 # 33333332 <offset+0x33333032>
800042b0:	00b53633          	sltu	a2,a0,a1
800042b4:	78c72a23          	sw	a2,1940(a4)
800042b8:	00100093          	li	ra,1
800042bc:	00c08463          	beq	ra,a2,800042c4 <inst_504>
800042c0:	2950106f          	j	80005d54 <bad_trap>

800042c4 <inst_504>:
800042c4:	00010537          	lui	a0,0x10
800042c8:	ffe50513          	addi	a0,a0,-2 # fffe <offset+0xfcfe>
800042cc:	666665b7          	lui	a1,0x66666
800042d0:	66558593          	addi	a1,a1,1637 # 66666665 <absimm+0x21374136>
800042d4:	00b53633          	sltu	a2,a0,a1
800042d8:	78c72c23          	sw	a2,1944(a4)
800042dc:	00100093          	li	ra,1
800042e0:	00c08463          	beq	ra,a2,800042e8 <inst_505>
800042e4:	2710106f          	j	80005d54 <bad_trap>

800042e8 <inst_505>:
800042e8:	00010537          	lui	a0,0x10
800042ec:	ffe50513          	addi	a0,a0,-2 # fffe <offset+0xfcfe>
800042f0:	0000b5b7          	lui	a1,0xb
800042f4:	50358593          	addi	a1,a1,1283 # b503 <offset+0xb203>
800042f8:	00b53633          	sltu	a2,a0,a1
800042fc:	78c72e23          	sw	a2,1948(a4)
80004300:	00000093          	li	ra,0
80004304:	00c08463          	beq	ra,a2,8000430c <inst_506>
80004308:	24d0106f          	j	80005d54 <bad_trap>

8000430c <inst_506>:
8000430c:	00010537          	lui	a0,0x10
80004310:	ffe50513          	addi	a0,a0,-2 # fffe <offset+0xfcfe>
80004314:	000105b7          	lui	a1,0x10
80004318:	ffe58593          	addi	a1,a1,-2 # fffe <offset+0xfcfe>
8000431c:	00b53633          	sltu	a2,a0,a1
80004320:	7ac72023          	sw	a2,1952(a4)
80004324:	00000093          	li	ra,0
80004328:	00c08463          	beq	ra,a2,80004330 <inst_507>
8000432c:	2290106f          	j	80005d54 <bad_trap>

80004330 <inst_507>:
80004330:	00010537          	lui	a0,0x10
80004334:	ffe50513          	addi	a0,a0,-2 # fffe <offset+0xfcfe>
80004338:	555555b7          	lui	a1,0x55555
8000433c:	55658593          	addi	a1,a1,1366 # 55555556 <absimm+0x10263027>
80004340:	00b53633          	sltu	a2,a0,a1
80004344:	7ac72223          	sw	a2,1956(a4)
80004348:	00100093          	li	ra,1
8000434c:	00c08463          	beq	ra,a2,80004354 <inst_508>
80004350:	2050106f          	j	80005d54 <bad_trap>

80004354 <inst_508>:
80004354:	00010537          	lui	a0,0x10
80004358:	ffe50513          	addi	a0,a0,-2 # fffe <offset+0xfcfe>
8000435c:	aaaab5b7          	lui	a1,0xaaaab
80004360:	aab58593          	addi	a1,a1,-1365 # aaaaaaab <imm12+0xaaaaafdb>
80004364:	00b53633          	sltu	a2,a0,a1
80004368:	7ac72423          	sw	a2,1960(a4)
8000436c:	00100093          	li	ra,1
80004370:	00c08463          	beq	ra,a2,80004378 <inst_509>
80004374:	1e10106f          	j	80005d54 <bad_trap>

80004378 <inst_509>:
80004378:	00010537          	lui	a0,0x10
8000437c:	ffe50513          	addi	a0,a0,-2 # fffe <offset+0xfcfe>
80004380:	00600593          	li	a1,6
80004384:	00b53633          	sltu	a2,a0,a1
80004388:	7ac72623          	sw	a2,1964(a4)
8000438c:	00000093          	li	ra,0
80004390:	00c08463          	beq	ra,a2,80004398 <inst_510>
80004394:	1c10106f          	j	80005d54 <bad_trap>

80004398 <inst_510>:
80004398:	00010537          	lui	a0,0x10
8000439c:	ffe50513          	addi	a0,a0,-2 # fffe <offset+0xfcfe>
800043a0:	333335b7          	lui	a1,0x33333
800043a4:	33458593          	addi	a1,a1,820 # 33333334 <offset+0x33333034>
800043a8:	00b53633          	sltu	a2,a0,a1
800043ac:	7ac72823          	sw	a2,1968(a4)
800043b0:	00100093          	li	ra,1
800043b4:	00c08463          	beq	ra,a2,800043bc <inst_511>
800043b8:	19d0106f          	j	80005d54 <bad_trap>

800043bc <inst_511>:
800043bc:	00010537          	lui	a0,0x10
800043c0:	ffe50513          	addi	a0,a0,-2 # fffe <offset+0xfcfe>
800043c4:	666665b7          	lui	a1,0x66666
800043c8:	66758593          	addi	a1,a1,1639 # 66666667 <absimm+0x21374138>
800043cc:	00b53633          	sltu	a2,a0,a1
800043d0:	7ac72a23          	sw	a2,1972(a4)
800043d4:	00100093          	li	ra,1
800043d8:	00c08463          	beq	ra,a2,800043e0 <inst_512>
800043dc:	1790106f          	j	80005d54 <bad_trap>

800043e0 <inst_512>:
800043e0:	00010537          	lui	a0,0x10
800043e4:	ffe50513          	addi	a0,a0,-2 # fffe <offset+0xfcfe>
800043e8:	0000b5b7          	lui	a1,0xb
800043ec:	50558593          	addi	a1,a1,1285 # b505 <offset+0xb205>
800043f0:	00b53633          	sltu	a2,a0,a1
800043f4:	7ac72c23          	sw	a2,1976(a4)
800043f8:	00000093          	li	ra,0
800043fc:	00c08463          	beq	ra,a2,80004404 <inst_513>
80004400:	1550106f          	j	80005d54 <bad_trap>

80004404 <inst_513>:
80004404:	00010537          	lui	a0,0x10
80004408:	ffe50513          	addi	a0,a0,-2 # fffe <offset+0xfcfe>
8000440c:	00100593          	li	a1,1
80004410:	00b53633          	sltu	a2,a0,a1
80004414:	7ac72e23          	sw	a2,1980(a4)
80004418:	00000093          	li	ra,0
8000441c:	00c08463          	beq	ra,a2,80004424 <inst_514>
80004420:	1350106f          	j	80005d54 <bad_trap>

80004424 <inst_514>:
80004424:	00010537          	lui	a0,0x10
80004428:	ffe50513          	addi	a0,a0,-2 # fffe <offset+0xfcfe>
8000442c:	000105b7          	lui	a1,0x10
80004430:	00b53633          	sltu	a2,a0,a1
80004434:	7cc72023          	sw	a2,1984(a4)
80004438:	00100093          	li	ra,1
8000443c:	00c08463          	beq	ra,a2,80004444 <inst_515>
80004440:	1150106f          	j	80005d54 <bad_trap>

80004444 <inst_515>:
80004444:	55555537          	lui	a0,0x55555
80004448:	55650513          	addi	a0,a0,1366 # 55555556 <absimm+0x10263027>
8000444c:	00300593          	li	a1,3
80004450:	00b53633          	sltu	a2,a0,a1
80004454:	7cc72223          	sw	a2,1988(a4)
80004458:	00000093          	li	ra,0
8000445c:	00c08463          	beq	ra,a2,80004464 <inst_516>
80004460:	0f50106f          	j	80005d54 <bad_trap>

80004464 <inst_516>:
80004464:	55555537          	lui	a0,0x55555
80004468:	55650513          	addi	a0,a0,1366 # 55555556 <absimm+0x10263027>
8000446c:	555555b7          	lui	a1,0x55555
80004470:	55558593          	addi	a1,a1,1365 # 55555555 <absimm+0x10263026>
80004474:	00b53633          	sltu	a2,a0,a1
80004478:	7cc72423          	sw	a2,1992(a4)
8000447c:	00000093          	li	ra,0
80004480:	00c08463          	beq	ra,a2,80004488 <inst_517>
80004484:	0d10106f          	j	80005d54 <bad_trap>

80004488 <inst_517>:
80004488:	55555537          	lui	a0,0x55555
8000448c:	55650513          	addi	a0,a0,1366 # 55555556 <absimm+0x10263027>
80004490:	aaaab5b7          	lui	a1,0xaaaab
80004494:	aaa58593          	addi	a1,a1,-1366 # aaaaaaaa <imm12+0xaaaaafda>
80004498:	00b53633          	sltu	a2,a0,a1
8000449c:	7cc72623          	sw	a2,1996(a4)
800044a0:	00100093          	li	ra,1
800044a4:	00c08463          	beq	ra,a2,800044ac <inst_518>
800044a8:	0ad0106f          	j	80005d54 <bad_trap>

800044ac <inst_518>:
800044ac:	55555537          	lui	a0,0x55555
800044b0:	55650513          	addi	a0,a0,1366 # 55555556 <absimm+0x10263027>
800044b4:	00500593          	li	a1,5
800044b8:	00b53633          	sltu	a2,a0,a1
800044bc:	7cc72823          	sw	a2,2000(a4)
800044c0:	00000093          	li	ra,0
800044c4:	00c08463          	beq	ra,a2,800044cc <inst_519>
800044c8:	08d0106f          	j	80005d54 <bad_trap>

800044cc <inst_519>:
800044cc:	55555537          	lui	a0,0x55555
800044d0:	55650513          	addi	a0,a0,1366 # 55555556 <absimm+0x10263027>
800044d4:	333335b7          	lui	a1,0x33333
800044d8:	33358593          	addi	a1,a1,819 # 33333333 <offset+0x33333033>
800044dc:	00b53633          	sltu	a2,a0,a1
800044e0:	7cc72a23          	sw	a2,2004(a4)
800044e4:	00000093          	li	ra,0
800044e8:	00c08463          	beq	ra,a2,800044f0 <inst_520>
800044ec:	0690106f          	j	80005d54 <bad_trap>

800044f0 <inst_520>:
800044f0:	55555537          	lui	a0,0x55555
800044f4:	55650513          	addi	a0,a0,1366 # 55555556 <absimm+0x10263027>
800044f8:	666665b7          	lui	a1,0x66666
800044fc:	66658593          	addi	a1,a1,1638 # 66666666 <absimm+0x21374137>
80004500:	00b53633          	sltu	a2,a0,a1
80004504:	7cc72c23          	sw	a2,2008(a4)
80004508:	00100093          	li	ra,1
8000450c:	00c08463          	beq	ra,a2,80004514 <inst_521>
80004510:	0450106f          	j	80005d54 <bad_trap>

80004514 <inst_521>:
80004514:	55555537          	lui	a0,0x55555
80004518:	55650513          	addi	a0,a0,1366 # 55555556 <absimm+0x10263027>
8000451c:	0000b5b7          	lui	a1,0xb
80004520:	50458593          	addi	a1,a1,1284 # b504 <offset+0xb204>
80004524:	00b53633          	sltu	a2,a0,a1
80004528:	7cc72e23          	sw	a2,2012(a4)
8000452c:	00000093          	li	ra,0
80004530:	00c08463          	beq	ra,a2,80004538 <inst_522>
80004534:	0210106f          	j	80005d54 <bad_trap>

80004538 <inst_522>:
80004538:	55555537          	lui	a0,0x55555
8000453c:	55650513          	addi	a0,a0,1366 # 55555556 <absimm+0x10263027>
80004540:	00000593          	li	a1,0
80004544:	00b53633          	sltu	a2,a0,a1
80004548:	7ec72023          	sw	a2,2016(a4)
8000454c:	00000093          	li	ra,0
80004550:	00c08463          	beq	ra,a2,80004558 <inst_523>
80004554:	0010106f          	j	80005d54 <bad_trap>

80004558 <inst_523>:
80004558:	55555537          	lui	a0,0x55555
8000455c:	55650513          	addi	a0,a0,1366 # 55555556 <absimm+0x10263027>
80004560:	000105b7          	lui	a1,0x10
80004564:	fff58593          	addi	a1,a1,-1 # ffff <offset+0xfcff>
80004568:	00b53633          	sltu	a2,a0,a1
8000456c:	7ec72223          	sw	a2,2020(a4)
80004570:	00000093          	li	ra,0
80004574:	00c08463          	beq	ra,a2,8000457c <inst_524>
80004578:	7dc0106f          	j	80005d54 <bad_trap>

8000457c <inst_524>:
8000457c:	55555537          	lui	a0,0x55555
80004580:	55650513          	addi	a0,a0,1366 # 55555556 <absimm+0x10263027>
80004584:	00200593          	li	a1,2
80004588:	00b53633          	sltu	a2,a0,a1
8000458c:	7ec72423          	sw	a2,2024(a4)
80004590:	00000093          	li	ra,0
80004594:	00c08463          	beq	ra,a2,8000459c <inst_525>
80004598:	7bc0106f          	j	80005d54 <bad_trap>

8000459c <inst_525>:
8000459c:	55555537          	lui	a0,0x55555
800045a0:	55650513          	addi	a0,a0,1366 # 55555556 <absimm+0x10263027>
800045a4:	555555b7          	lui	a1,0x55555
800045a8:	55458593          	addi	a1,a1,1364 # 55555554 <absimm+0x10263025>
800045ac:	00b53633          	sltu	a2,a0,a1
800045b0:	7ec72623          	sw	a2,2028(a4)
800045b4:	00000093          	li	ra,0
800045b8:	00c08463          	beq	ra,a2,800045c0 <inst_526>
800045bc:	7980106f          	j	80005d54 <bad_trap>

800045c0 <inst_526>:
800045c0:	55555537          	lui	a0,0x55555
800045c4:	55650513          	addi	a0,a0,1366 # 55555556 <absimm+0x10263027>
800045c8:	aaaab5b7          	lui	a1,0xaaaab
800045cc:	aa958593          	addi	a1,a1,-1367 # aaaaaaa9 <imm12+0xaaaaafd9>
800045d0:	00b53633          	sltu	a2,a0,a1
800045d4:	7ec72823          	sw	a2,2032(a4)
800045d8:	00100093          	li	ra,1
800045dc:	00c08463          	beq	ra,a2,800045e4 <inst_527>
800045e0:	7740106f          	j	80005d54 <bad_trap>

800045e4 <inst_527>:
800045e4:	55555537          	lui	a0,0x55555
800045e8:	55650513          	addi	a0,a0,1366 # 55555556 <absimm+0x10263027>
800045ec:	00400593          	li	a1,4
800045f0:	00b53633          	sltu	a2,a0,a1
800045f4:	7ec72a23          	sw	a2,2036(a4)
800045f8:	00000093          	li	ra,0
800045fc:	00c08463          	beq	ra,a2,80004604 <inst_528>
80004600:	7540106f          	j	80005d54 <bad_trap>

80004604 <inst_528>:
80004604:	55555537          	lui	a0,0x55555
80004608:	55650513          	addi	a0,a0,1366 # 55555556 <absimm+0x10263027>
8000460c:	333335b7          	lui	a1,0x33333
80004610:	33258593          	addi	a1,a1,818 # 33333332 <offset+0x33333032>
80004614:	00b53633          	sltu	a2,a0,a1
80004618:	7ec72c23          	sw	a2,2040(a4)
8000461c:	00000093          	li	ra,0
80004620:	00c08463          	beq	ra,a2,80004628 <inst_529>
80004624:	7300106f          	j	80005d54 <bad_trap>

80004628 <inst_529>:
80004628:	55555537          	lui	a0,0x55555
8000462c:	55650513          	addi	a0,a0,1366 # 55555556 <absimm+0x10263027>
80004630:	666665b7          	lui	a1,0x66666
80004634:	66558593          	addi	a1,a1,1637 # 66666665 <absimm+0x21374136>
80004638:	00b53633          	sltu	a2,a0,a1
8000463c:	7ec72e23          	sw	a2,2044(a4)
80004640:	00100093          	li	ra,1
80004644:	00c08463          	beq	ra,a2,8000464c <inst_529+0x24>
80004648:	70c0106f          	j	80005d54 <bad_trap>
8000464c:	00000013          	nop
80004650:	00000013          	nop
80004654:	00000013          	nop
80004658:	00000013          	nop
8000465c:	00000013          	nop
80004660:	00003717          	auipc	a4,0x3
80004664:	1ec70713          	addi	a4,a4,492 # 8000784c <signature_x14_1>
80004668:	00000013          	nop
8000466c:	00000013          	nop
80004670:	00000013          	nop
80004674:	00000013          	nop
80004678:	00000013          	nop
8000467c:	00000013          	nop

80004680 <inst_530>:
80004680:	55555537          	lui	a0,0x55555
80004684:	55650513          	addi	a0,a0,1366 # 55555556 <absimm+0x10263027>
80004688:	0000b5b7          	lui	a1,0xb
8000468c:	50358593          	addi	a1,a1,1283 # b503 <offset+0xb203>
80004690:	00b53633          	sltu	a2,a0,a1
80004694:	00c72023          	sw	a2,0(a4)
80004698:	00000093          	li	ra,0
8000469c:	00c08463          	beq	ra,a2,800046a4 <inst_531>
800046a0:	6b40106f          	j	80005d54 <bad_trap>

800046a4 <inst_531>:
800046a4:	55555537          	lui	a0,0x55555
800046a8:	55650513          	addi	a0,a0,1366 # 55555556 <absimm+0x10263027>
800046ac:	000105b7          	lui	a1,0x10
800046b0:	ffe58593          	addi	a1,a1,-2 # fffe <offset+0xfcfe>
800046b4:	00b53633          	sltu	a2,a0,a1
800046b8:	00c72223          	sw	a2,4(a4)
800046bc:	00000093          	li	ra,0
800046c0:	00c08463          	beq	ra,a2,800046c8 <inst_532>
800046c4:	6900106f          	j	80005d54 <bad_trap>

800046c8 <inst_532>:
800046c8:	55555537          	lui	a0,0x55555
800046cc:	55650513          	addi	a0,a0,1366 # 55555556 <absimm+0x10263027>
800046d0:	555555b7          	lui	a1,0x55555
800046d4:	55658593          	addi	a1,a1,1366 # 55555556 <absimm+0x10263027>
800046d8:	00b53633          	sltu	a2,a0,a1
800046dc:	00c72423          	sw	a2,8(a4)
800046e0:	00000093          	li	ra,0
800046e4:	00c08463          	beq	ra,a2,800046ec <inst_533>
800046e8:	66c0106f          	j	80005d54 <bad_trap>

800046ec <inst_533>:
800046ec:	55555537          	lui	a0,0x55555
800046f0:	55650513          	addi	a0,a0,1366 # 55555556 <absimm+0x10263027>
800046f4:	aaaab5b7          	lui	a1,0xaaaab
800046f8:	aab58593          	addi	a1,a1,-1365 # aaaaaaab <imm12+0xaaaaafdb>
800046fc:	00b53633          	sltu	a2,a0,a1
80004700:	00c72623          	sw	a2,12(a4)
80004704:	00100093          	li	ra,1
80004708:	00c08463          	beq	ra,a2,80004710 <inst_534>
8000470c:	6480106f          	j	80005d54 <bad_trap>

80004710 <inst_534>:
80004710:	55555537          	lui	a0,0x55555
80004714:	55650513          	addi	a0,a0,1366 # 55555556 <absimm+0x10263027>
80004718:	00600593          	li	a1,6
8000471c:	00b53633          	sltu	a2,a0,a1
80004720:	00c72823          	sw	a2,16(a4)
80004724:	00000093          	li	ra,0
80004728:	00c08463          	beq	ra,a2,80004730 <inst_535>
8000472c:	6280106f          	j	80005d54 <bad_trap>

80004730 <inst_535>:
80004730:	55555537          	lui	a0,0x55555
80004734:	55650513          	addi	a0,a0,1366 # 55555556 <absimm+0x10263027>
80004738:	333335b7          	lui	a1,0x33333
8000473c:	33458593          	addi	a1,a1,820 # 33333334 <offset+0x33333034>
80004740:	00b53633          	sltu	a2,a0,a1
80004744:	00c72a23          	sw	a2,20(a4)
80004748:	00000093          	li	ra,0
8000474c:	00c08463          	beq	ra,a2,80004754 <inst_536>
80004750:	6040106f          	j	80005d54 <bad_trap>

80004754 <inst_536>:
80004754:	55555537          	lui	a0,0x55555
80004758:	55650513          	addi	a0,a0,1366 # 55555556 <absimm+0x10263027>
8000475c:	666665b7          	lui	a1,0x66666
80004760:	66758593          	addi	a1,a1,1639 # 66666667 <absimm+0x21374138>
80004764:	00b53633          	sltu	a2,a0,a1
80004768:	00c72c23          	sw	a2,24(a4)
8000476c:	00100093          	li	ra,1
80004770:	00c08463          	beq	ra,a2,80004778 <inst_537>
80004774:	5e00106f          	j	80005d54 <bad_trap>

80004778 <inst_537>:
80004778:	55555537          	lui	a0,0x55555
8000477c:	55650513          	addi	a0,a0,1366 # 55555556 <absimm+0x10263027>
80004780:	0000b5b7          	lui	a1,0xb
80004784:	50558593          	addi	a1,a1,1285 # b505 <offset+0xb205>
80004788:	00b53633          	sltu	a2,a0,a1
8000478c:	00c72e23          	sw	a2,28(a4)
80004790:	00000093          	li	ra,0
80004794:	00c08463          	beq	ra,a2,8000479c <inst_538>
80004798:	5bc0106f          	j	80005d54 <bad_trap>

8000479c <inst_538>:
8000479c:	55555537          	lui	a0,0x55555
800047a0:	55650513          	addi	a0,a0,1366 # 55555556 <absimm+0x10263027>
800047a4:	00100593          	li	a1,1
800047a8:	00b53633          	sltu	a2,a0,a1
800047ac:	02c72023          	sw	a2,32(a4)
800047b0:	00000093          	li	ra,0
800047b4:	00c08463          	beq	ra,a2,800047bc <inst_539>
800047b8:	59c0106f          	j	80005d54 <bad_trap>

800047bc <inst_539>:
800047bc:	55555537          	lui	a0,0x55555
800047c0:	55650513          	addi	a0,a0,1366 # 55555556 <absimm+0x10263027>
800047c4:	000105b7          	lui	a1,0x10
800047c8:	00b53633          	sltu	a2,a0,a1
800047cc:	02c72223          	sw	a2,36(a4)
800047d0:	00000093          	li	ra,0
800047d4:	00c08463          	beq	ra,a2,800047dc <inst_540>
800047d8:	57c0106f          	j	80005d54 <bad_trap>

800047dc <inst_540>:
800047dc:	aaaab537          	lui	a0,0xaaaab
800047e0:	aab50513          	addi	a0,a0,-1365 # aaaaaaab <imm12+0xaaaaafdb>
800047e4:	00300593          	li	a1,3
800047e8:	00b53633          	sltu	a2,a0,a1
800047ec:	02c72423          	sw	a2,40(a4)
800047f0:	00000093          	li	ra,0
800047f4:	00c08463          	beq	ra,a2,800047fc <inst_541>
800047f8:	55c0106f          	j	80005d54 <bad_trap>

800047fc <inst_541>:
800047fc:	aaaab537          	lui	a0,0xaaaab
80004800:	aab50513          	addi	a0,a0,-1365 # aaaaaaab <imm12+0xaaaaafdb>
80004804:	555555b7          	lui	a1,0x55555
80004808:	55558593          	addi	a1,a1,1365 # 55555555 <absimm+0x10263026>
8000480c:	00b53633          	sltu	a2,a0,a1
80004810:	02c72623          	sw	a2,44(a4)
80004814:	00000093          	li	ra,0
80004818:	00c08463          	beq	ra,a2,80004820 <inst_542>
8000481c:	5380106f          	j	80005d54 <bad_trap>

80004820 <inst_542>:
80004820:	aaaab537          	lui	a0,0xaaaab
80004824:	aab50513          	addi	a0,a0,-1365 # aaaaaaab <imm12+0xaaaaafdb>
80004828:	aaaab5b7          	lui	a1,0xaaaab
8000482c:	aaa58593          	addi	a1,a1,-1366 # aaaaaaaa <imm12+0xaaaaafda>
80004830:	00b53633          	sltu	a2,a0,a1
80004834:	02c72823          	sw	a2,48(a4)
80004838:	00000093          	li	ra,0
8000483c:	00c08463          	beq	ra,a2,80004844 <inst_543>
80004840:	5140106f          	j	80005d54 <bad_trap>

80004844 <inst_543>:
80004844:	aaaab537          	lui	a0,0xaaaab
80004848:	aab50513          	addi	a0,a0,-1365 # aaaaaaab <imm12+0xaaaaafdb>
8000484c:	00500593          	li	a1,5
80004850:	00b53633          	sltu	a2,a0,a1
80004854:	02c72a23          	sw	a2,52(a4)
80004858:	00000093          	li	ra,0
8000485c:	00c08463          	beq	ra,a2,80004864 <inst_544>
80004860:	4f40106f          	j	80005d54 <bad_trap>

80004864 <inst_544>:
80004864:	aaaab537          	lui	a0,0xaaaab
80004868:	aab50513          	addi	a0,a0,-1365 # aaaaaaab <imm12+0xaaaaafdb>
8000486c:	333335b7          	lui	a1,0x33333
80004870:	33358593          	addi	a1,a1,819 # 33333333 <offset+0x33333033>
80004874:	00b53633          	sltu	a2,a0,a1
80004878:	02c72c23          	sw	a2,56(a4)
8000487c:	00000093          	li	ra,0
80004880:	00c08463          	beq	ra,a2,80004888 <inst_545>
80004884:	4d00106f          	j	80005d54 <bad_trap>

80004888 <inst_545>:
80004888:	aaaab537          	lui	a0,0xaaaab
8000488c:	aab50513          	addi	a0,a0,-1365 # aaaaaaab <imm12+0xaaaaafdb>
80004890:	666665b7          	lui	a1,0x66666
80004894:	66658593          	addi	a1,a1,1638 # 66666666 <absimm+0x21374137>
80004898:	00b53633          	sltu	a2,a0,a1
8000489c:	02c72e23          	sw	a2,60(a4)
800048a0:	00000093          	li	ra,0
800048a4:	00c08463          	beq	ra,a2,800048ac <inst_546>
800048a8:	4ac0106f          	j	80005d54 <bad_trap>

800048ac <inst_546>:
800048ac:	aaaab537          	lui	a0,0xaaaab
800048b0:	aab50513          	addi	a0,a0,-1365 # aaaaaaab <imm12+0xaaaaafdb>
800048b4:	0000b5b7          	lui	a1,0xb
800048b8:	50458593          	addi	a1,a1,1284 # b504 <offset+0xb204>
800048bc:	00b53633          	sltu	a2,a0,a1
800048c0:	04c72023          	sw	a2,64(a4)
800048c4:	00000093          	li	ra,0
800048c8:	00c08463          	beq	ra,a2,800048d0 <inst_547>
800048cc:	4880106f          	j	80005d54 <bad_trap>

800048d0 <inst_547>:
800048d0:	aaaab537          	lui	a0,0xaaaab
800048d4:	aab50513          	addi	a0,a0,-1365 # aaaaaaab <imm12+0xaaaaafdb>
800048d8:	00000593          	li	a1,0
800048dc:	00b53633          	sltu	a2,a0,a1
800048e0:	04c72223          	sw	a2,68(a4)
800048e4:	00000093          	li	ra,0
800048e8:	00c08463          	beq	ra,a2,800048f0 <inst_548>
800048ec:	4680106f          	j	80005d54 <bad_trap>

800048f0 <inst_548>:
800048f0:	aaaab537          	lui	a0,0xaaaab
800048f4:	aab50513          	addi	a0,a0,-1365 # aaaaaaab <imm12+0xaaaaafdb>
800048f8:	000105b7          	lui	a1,0x10
800048fc:	fff58593          	addi	a1,a1,-1 # ffff <offset+0xfcff>
80004900:	00b53633          	sltu	a2,a0,a1
80004904:	04c72423          	sw	a2,72(a4)
80004908:	00000093          	li	ra,0
8000490c:	00c08463          	beq	ra,a2,80004914 <inst_549>
80004910:	4440106f          	j	80005d54 <bad_trap>

80004914 <inst_549>:
80004914:	aaaab537          	lui	a0,0xaaaab
80004918:	aab50513          	addi	a0,a0,-1365 # aaaaaaab <imm12+0xaaaaafdb>
8000491c:	00200593          	li	a1,2
80004920:	00b53633          	sltu	a2,a0,a1
80004924:	04c72623          	sw	a2,76(a4)
80004928:	00000093          	li	ra,0
8000492c:	00c08463          	beq	ra,a2,80004934 <inst_550>
80004930:	4240106f          	j	80005d54 <bad_trap>

80004934 <inst_550>:
80004934:	aaaab537          	lui	a0,0xaaaab
80004938:	aab50513          	addi	a0,a0,-1365 # aaaaaaab <imm12+0xaaaaafdb>
8000493c:	555555b7          	lui	a1,0x55555
80004940:	55458593          	addi	a1,a1,1364 # 55555554 <absimm+0x10263025>
80004944:	00b53633          	sltu	a2,a0,a1
80004948:	04c72823          	sw	a2,80(a4)
8000494c:	00000093          	li	ra,0
80004950:	00c08463          	beq	ra,a2,80004958 <inst_551>
80004954:	4000106f          	j	80005d54 <bad_trap>

80004958 <inst_551>:
80004958:	aaaab537          	lui	a0,0xaaaab
8000495c:	aab50513          	addi	a0,a0,-1365 # aaaaaaab <imm12+0xaaaaafdb>
80004960:	aaaab5b7          	lui	a1,0xaaaab
80004964:	aa958593          	addi	a1,a1,-1367 # aaaaaaa9 <imm12+0xaaaaafd9>
80004968:	00b53633          	sltu	a2,a0,a1
8000496c:	04c72a23          	sw	a2,84(a4)
80004970:	00000093          	li	ra,0
80004974:	00c08463          	beq	ra,a2,8000497c <inst_552>
80004978:	3dc0106f          	j	80005d54 <bad_trap>

8000497c <inst_552>:
8000497c:	aaaab537          	lui	a0,0xaaaab
80004980:	aab50513          	addi	a0,a0,-1365 # aaaaaaab <imm12+0xaaaaafdb>
80004984:	00400593          	li	a1,4
80004988:	00b53633          	sltu	a2,a0,a1
8000498c:	04c72c23          	sw	a2,88(a4)
80004990:	00000093          	li	ra,0
80004994:	00c08463          	beq	ra,a2,8000499c <inst_553>
80004998:	3bc0106f          	j	80005d54 <bad_trap>

8000499c <inst_553>:
8000499c:	aaaab537          	lui	a0,0xaaaab
800049a0:	aab50513          	addi	a0,a0,-1365 # aaaaaaab <imm12+0xaaaaafdb>
800049a4:	333335b7          	lui	a1,0x33333
800049a8:	33258593          	addi	a1,a1,818 # 33333332 <offset+0x33333032>
800049ac:	00b53633          	sltu	a2,a0,a1
800049b0:	04c72e23          	sw	a2,92(a4)
800049b4:	00000093          	li	ra,0
800049b8:	00c08463          	beq	ra,a2,800049c0 <inst_554>
800049bc:	3980106f          	j	80005d54 <bad_trap>

800049c0 <inst_554>:
800049c0:	aaaab537          	lui	a0,0xaaaab
800049c4:	aab50513          	addi	a0,a0,-1365 # aaaaaaab <imm12+0xaaaaafdb>
800049c8:	666665b7          	lui	a1,0x66666
800049cc:	66558593          	addi	a1,a1,1637 # 66666665 <absimm+0x21374136>
800049d0:	00b53633          	sltu	a2,a0,a1
800049d4:	06c72023          	sw	a2,96(a4)
800049d8:	00000093          	li	ra,0
800049dc:	00c08463          	beq	ra,a2,800049e4 <inst_555>
800049e0:	3740106f          	j	80005d54 <bad_trap>

800049e4 <inst_555>:
800049e4:	aaaab537          	lui	a0,0xaaaab
800049e8:	aab50513          	addi	a0,a0,-1365 # aaaaaaab <imm12+0xaaaaafdb>
800049ec:	0000b5b7          	lui	a1,0xb
800049f0:	50358593          	addi	a1,a1,1283 # b503 <offset+0xb203>
800049f4:	00b53633          	sltu	a2,a0,a1
800049f8:	06c72223          	sw	a2,100(a4)
800049fc:	00000093          	li	ra,0
80004a00:	00c08463          	beq	ra,a2,80004a08 <inst_556>
80004a04:	3500106f          	j	80005d54 <bad_trap>

80004a08 <inst_556>:
80004a08:	aaaab537          	lui	a0,0xaaaab
80004a0c:	aab50513          	addi	a0,a0,-1365 # aaaaaaab <imm12+0xaaaaafdb>
80004a10:	000105b7          	lui	a1,0x10
80004a14:	ffe58593          	addi	a1,a1,-2 # fffe <offset+0xfcfe>
80004a18:	00b53633          	sltu	a2,a0,a1
80004a1c:	06c72423          	sw	a2,104(a4)
80004a20:	00000093          	li	ra,0
80004a24:	00c08463          	beq	ra,a2,80004a2c <inst_557>
80004a28:	32c0106f          	j	80005d54 <bad_trap>

80004a2c <inst_557>:
80004a2c:	aaaab537          	lui	a0,0xaaaab
80004a30:	aab50513          	addi	a0,a0,-1365 # aaaaaaab <imm12+0xaaaaafdb>
80004a34:	555555b7          	lui	a1,0x55555
80004a38:	55658593          	addi	a1,a1,1366 # 55555556 <absimm+0x10263027>
80004a3c:	00b53633          	sltu	a2,a0,a1
80004a40:	06c72623          	sw	a2,108(a4)
80004a44:	00000093          	li	ra,0
80004a48:	00c08463          	beq	ra,a2,80004a50 <inst_558>
80004a4c:	3080106f          	j	80005d54 <bad_trap>

80004a50 <inst_558>:
80004a50:	aaaab537          	lui	a0,0xaaaab
80004a54:	aab50513          	addi	a0,a0,-1365 # aaaaaaab <imm12+0xaaaaafdb>
80004a58:	aaaab5b7          	lui	a1,0xaaaab
80004a5c:	aab58593          	addi	a1,a1,-1365 # aaaaaaab <imm12+0xaaaaafdb>
80004a60:	00b53633          	sltu	a2,a0,a1
80004a64:	06c72823          	sw	a2,112(a4)
80004a68:	00000093          	li	ra,0
80004a6c:	00c08463          	beq	ra,a2,80004a74 <inst_559>
80004a70:	2e40106f          	j	80005d54 <bad_trap>

80004a74 <inst_559>:
80004a74:	aaaab537          	lui	a0,0xaaaab
80004a78:	aab50513          	addi	a0,a0,-1365 # aaaaaaab <imm12+0xaaaaafdb>
80004a7c:	00600593          	li	a1,6
80004a80:	00b53633          	sltu	a2,a0,a1
80004a84:	06c72a23          	sw	a2,116(a4)
80004a88:	00000093          	li	ra,0
80004a8c:	00c08463          	beq	ra,a2,80004a94 <inst_560>
80004a90:	2c40106f          	j	80005d54 <bad_trap>

80004a94 <inst_560>:
80004a94:	aaaab537          	lui	a0,0xaaaab
80004a98:	aab50513          	addi	a0,a0,-1365 # aaaaaaab <imm12+0xaaaaafdb>
80004a9c:	333335b7          	lui	a1,0x33333
80004aa0:	33458593          	addi	a1,a1,820 # 33333334 <offset+0x33333034>
80004aa4:	00b53633          	sltu	a2,a0,a1
80004aa8:	06c72c23          	sw	a2,120(a4)
80004aac:	00000093          	li	ra,0
80004ab0:	00c08463          	beq	ra,a2,80004ab8 <inst_561>
80004ab4:	2a00106f          	j	80005d54 <bad_trap>

80004ab8 <inst_561>:
80004ab8:	aaaab537          	lui	a0,0xaaaab
80004abc:	aab50513          	addi	a0,a0,-1365 # aaaaaaab <imm12+0xaaaaafdb>
80004ac0:	666665b7          	lui	a1,0x66666
80004ac4:	66758593          	addi	a1,a1,1639 # 66666667 <absimm+0x21374138>
80004ac8:	00b53633          	sltu	a2,a0,a1
80004acc:	06c72e23          	sw	a2,124(a4)
80004ad0:	00000093          	li	ra,0
80004ad4:	00c08463          	beq	ra,a2,80004adc <inst_562>
80004ad8:	27c0106f          	j	80005d54 <bad_trap>

80004adc <inst_562>:
80004adc:	aaaab537          	lui	a0,0xaaaab
80004ae0:	aab50513          	addi	a0,a0,-1365 # aaaaaaab <imm12+0xaaaaafdb>
80004ae4:	0000b5b7          	lui	a1,0xb
80004ae8:	50558593          	addi	a1,a1,1285 # b505 <offset+0xb205>
80004aec:	00b53633          	sltu	a2,a0,a1
80004af0:	08c72023          	sw	a2,128(a4)
80004af4:	00000093          	li	ra,0
80004af8:	00c08463          	beq	ra,a2,80004b00 <inst_563>
80004afc:	2580106f          	j	80005d54 <bad_trap>

80004b00 <inst_563>:
80004b00:	aaaab537          	lui	a0,0xaaaab
80004b04:	aab50513          	addi	a0,a0,-1365 # aaaaaaab <imm12+0xaaaaafdb>
80004b08:	00100593          	li	a1,1
80004b0c:	00b53633          	sltu	a2,a0,a1
80004b10:	08c72223          	sw	a2,132(a4)
80004b14:	00000093          	li	ra,0
80004b18:	00c08463          	beq	ra,a2,80004b20 <inst_564>
80004b1c:	2380106f          	j	80005d54 <bad_trap>

80004b20 <inst_564>:
80004b20:	aaaab537          	lui	a0,0xaaaab
80004b24:	aab50513          	addi	a0,a0,-1365 # aaaaaaab <imm12+0xaaaaafdb>
80004b28:	000105b7          	lui	a1,0x10
80004b2c:	00b53633          	sltu	a2,a0,a1
80004b30:	08c72423          	sw	a2,136(a4)
80004b34:	00000093          	li	ra,0
80004b38:	00c08463          	beq	ra,a2,80004b40 <inst_565>
80004b3c:	2180106f          	j	80005d54 <bad_trap>

80004b40 <inst_565>:
80004b40:	00600513          	li	a0,6
80004b44:	00300593          	li	a1,3
80004b48:	00b53633          	sltu	a2,a0,a1
80004b4c:	08c72623          	sw	a2,140(a4)
80004b50:	00000093          	li	ra,0
80004b54:	00c08463          	beq	ra,a2,80004b5c <inst_566>
80004b58:	1fc0106f          	j	80005d54 <bad_trap>

80004b5c <inst_566>:
80004b5c:	00600513          	li	a0,6
80004b60:	555555b7          	lui	a1,0x55555
80004b64:	55558593          	addi	a1,a1,1365 # 55555555 <absimm+0x10263026>
80004b68:	00b53633          	sltu	a2,a0,a1
80004b6c:	08c72823          	sw	a2,144(a4)
80004b70:	00100093          	li	ra,1
80004b74:	00c08463          	beq	ra,a2,80004b7c <inst_567>
80004b78:	1dc0106f          	j	80005d54 <bad_trap>

80004b7c <inst_567>:
80004b7c:	00600513          	li	a0,6
80004b80:	aaaab5b7          	lui	a1,0xaaaab
80004b84:	aaa58593          	addi	a1,a1,-1366 # aaaaaaaa <imm12+0xaaaaafda>
80004b88:	00b53633          	sltu	a2,a0,a1
80004b8c:	08c72a23          	sw	a2,148(a4)
80004b90:	00100093          	li	ra,1
80004b94:	00c08463          	beq	ra,a2,80004b9c <inst_568>
80004b98:	1bc0106f          	j	80005d54 <bad_trap>

80004b9c <inst_568>:
80004b9c:	00600513          	li	a0,6
80004ba0:	00500593          	li	a1,5
80004ba4:	00b53633          	sltu	a2,a0,a1
80004ba8:	08c72c23          	sw	a2,152(a4)
80004bac:	00000093          	li	ra,0
80004bb0:	00c08463          	beq	ra,a2,80004bb8 <inst_569>
80004bb4:	1a00106f          	j	80005d54 <bad_trap>

80004bb8 <inst_569>:
80004bb8:	00600513          	li	a0,6
80004bbc:	333335b7          	lui	a1,0x33333
80004bc0:	33358593          	addi	a1,a1,819 # 33333333 <offset+0x33333033>
80004bc4:	00b53633          	sltu	a2,a0,a1
80004bc8:	08c72e23          	sw	a2,156(a4)
80004bcc:	00100093          	li	ra,1
80004bd0:	00c08463          	beq	ra,a2,80004bd8 <inst_570>
80004bd4:	1800106f          	j	80005d54 <bad_trap>

80004bd8 <inst_570>:
80004bd8:	00600513          	li	a0,6
80004bdc:	666665b7          	lui	a1,0x66666
80004be0:	66658593          	addi	a1,a1,1638 # 66666666 <absimm+0x21374137>
80004be4:	00b53633          	sltu	a2,a0,a1
80004be8:	0ac72023          	sw	a2,160(a4)
80004bec:	00100093          	li	ra,1
80004bf0:	00c08463          	beq	ra,a2,80004bf8 <inst_571>
80004bf4:	1600106f          	j	80005d54 <bad_trap>

80004bf8 <inst_571>:
80004bf8:	00600513          	li	a0,6
80004bfc:	0000b5b7          	lui	a1,0xb
80004c00:	50458593          	addi	a1,a1,1284 # b504 <offset+0xb204>
80004c04:	00b53633          	sltu	a2,a0,a1
80004c08:	0ac72223          	sw	a2,164(a4)
80004c0c:	00100093          	li	ra,1
80004c10:	00c08463          	beq	ra,a2,80004c18 <inst_572>
80004c14:	1400106f          	j	80005d54 <bad_trap>

80004c18 <inst_572>:
80004c18:	00600513          	li	a0,6
80004c1c:	00000593          	li	a1,0
80004c20:	00b53633          	sltu	a2,a0,a1
80004c24:	0ac72423          	sw	a2,168(a4)
80004c28:	00000093          	li	ra,0
80004c2c:	00c08463          	beq	ra,a2,80004c34 <inst_573>
80004c30:	1240106f          	j	80005d54 <bad_trap>

80004c34 <inst_573>:
80004c34:	00600513          	li	a0,6
80004c38:	000105b7          	lui	a1,0x10
80004c3c:	fff58593          	addi	a1,a1,-1 # ffff <offset+0xfcff>
80004c40:	00b53633          	sltu	a2,a0,a1
80004c44:	0ac72623          	sw	a2,172(a4)
80004c48:	00100093          	li	ra,1
80004c4c:	00c08463          	beq	ra,a2,80004c54 <inst_574>
80004c50:	1040106f          	j	80005d54 <bad_trap>

80004c54 <inst_574>:
80004c54:	00600513          	li	a0,6
80004c58:	00200593          	li	a1,2
80004c5c:	00b53633          	sltu	a2,a0,a1
80004c60:	0ac72823          	sw	a2,176(a4)
80004c64:	00000093          	li	ra,0
80004c68:	00c08463          	beq	ra,a2,80004c70 <inst_575>
80004c6c:	0e80106f          	j	80005d54 <bad_trap>

80004c70 <inst_575>:
80004c70:	00600513          	li	a0,6
80004c74:	555555b7          	lui	a1,0x55555
80004c78:	55458593          	addi	a1,a1,1364 # 55555554 <absimm+0x10263025>
80004c7c:	00b53633          	sltu	a2,a0,a1
80004c80:	0ac72a23          	sw	a2,180(a4)
80004c84:	00100093          	li	ra,1
80004c88:	00c08463          	beq	ra,a2,80004c90 <inst_576>
80004c8c:	0c80106f          	j	80005d54 <bad_trap>

80004c90 <inst_576>:
80004c90:	00600513          	li	a0,6
80004c94:	aaaab5b7          	lui	a1,0xaaaab
80004c98:	aa958593          	addi	a1,a1,-1367 # aaaaaaa9 <imm12+0xaaaaafd9>
80004c9c:	00b53633          	sltu	a2,a0,a1
80004ca0:	0ac72c23          	sw	a2,184(a4)
80004ca4:	00100093          	li	ra,1
80004ca8:	00c08463          	beq	ra,a2,80004cb0 <inst_577>
80004cac:	0a80106f          	j	80005d54 <bad_trap>

80004cb0 <inst_577>:
80004cb0:	00600513          	li	a0,6
80004cb4:	00400593          	li	a1,4
80004cb8:	00b53633          	sltu	a2,a0,a1
80004cbc:	0ac72e23          	sw	a2,188(a4)
80004cc0:	00000093          	li	ra,0
80004cc4:	00c08463          	beq	ra,a2,80004ccc <inst_578>
80004cc8:	08c0106f          	j	80005d54 <bad_trap>

80004ccc <inst_578>:
80004ccc:	00600513          	li	a0,6
80004cd0:	333335b7          	lui	a1,0x33333
80004cd4:	33258593          	addi	a1,a1,818 # 33333332 <offset+0x33333032>
80004cd8:	00b53633          	sltu	a2,a0,a1
80004cdc:	0cc72023          	sw	a2,192(a4)
80004ce0:	00100093          	li	ra,1
80004ce4:	00c08463          	beq	ra,a2,80004cec <inst_579>
80004ce8:	06c0106f          	j	80005d54 <bad_trap>

80004cec <inst_579>:
80004cec:	00600513          	li	a0,6
80004cf0:	666665b7          	lui	a1,0x66666
80004cf4:	66558593          	addi	a1,a1,1637 # 66666665 <absimm+0x21374136>
80004cf8:	00b53633          	sltu	a2,a0,a1
80004cfc:	0cc72223          	sw	a2,196(a4)
80004d00:	00100093          	li	ra,1
80004d04:	00c08463          	beq	ra,a2,80004d0c <inst_580>
80004d08:	04c0106f          	j	80005d54 <bad_trap>

80004d0c <inst_580>:
80004d0c:	00600513          	li	a0,6
80004d10:	0000b5b7          	lui	a1,0xb
80004d14:	50358593          	addi	a1,a1,1283 # b503 <offset+0xb203>
80004d18:	00b53633          	sltu	a2,a0,a1
80004d1c:	0cc72423          	sw	a2,200(a4)
80004d20:	00100093          	li	ra,1
80004d24:	00c08463          	beq	ra,a2,80004d2c <inst_581>
80004d28:	02c0106f          	j	80005d54 <bad_trap>

80004d2c <inst_581>:
80004d2c:	00600513          	li	a0,6
80004d30:	000105b7          	lui	a1,0x10
80004d34:	ffe58593          	addi	a1,a1,-2 # fffe <offset+0xfcfe>
80004d38:	00b53633          	sltu	a2,a0,a1
80004d3c:	0cc72623          	sw	a2,204(a4)
80004d40:	00100093          	li	ra,1
80004d44:	00c08463          	beq	ra,a2,80004d4c <inst_582>
80004d48:	00c0106f          	j	80005d54 <bad_trap>

80004d4c <inst_582>:
80004d4c:	00600513          	li	a0,6
80004d50:	555555b7          	lui	a1,0x55555
80004d54:	55658593          	addi	a1,a1,1366 # 55555556 <absimm+0x10263027>
80004d58:	00b53633          	sltu	a2,a0,a1
80004d5c:	0cc72823          	sw	a2,208(a4)
80004d60:	00100093          	li	ra,1
80004d64:	7ec098e3          	bne	ra,a2,80005d54 <bad_trap>

80004d68 <inst_583>:
80004d68:	00600513          	li	a0,6
80004d6c:	aaaab5b7          	lui	a1,0xaaaab
80004d70:	aab58593          	addi	a1,a1,-1365 # aaaaaaab <imm12+0xaaaaafdb>
80004d74:	00b53633          	sltu	a2,a0,a1
80004d78:	0cc72a23          	sw	a2,212(a4)
80004d7c:	00100093          	li	ra,1
80004d80:	7cc09ae3          	bne	ra,a2,80005d54 <bad_trap>

80004d84 <inst_584>:
80004d84:	00600513          	li	a0,6
80004d88:	00600593          	li	a1,6
80004d8c:	00b53633          	sltu	a2,a0,a1
80004d90:	0cc72c23          	sw	a2,216(a4)
80004d94:	00000093          	li	ra,0
80004d98:	7ac09ee3          	bne	ra,a2,80005d54 <bad_trap>

80004d9c <inst_585>:
80004d9c:	00600513          	li	a0,6
80004da0:	333335b7          	lui	a1,0x33333
80004da4:	33458593          	addi	a1,a1,820 # 33333334 <offset+0x33333034>
80004da8:	00b53633          	sltu	a2,a0,a1
80004dac:	0cc72e23          	sw	a2,220(a4)
80004db0:	00100093          	li	ra,1
80004db4:	7ac090e3          	bne	ra,a2,80005d54 <bad_trap>

80004db8 <inst_586>:
80004db8:	00600513          	li	a0,6
80004dbc:	666665b7          	lui	a1,0x66666
80004dc0:	66758593          	addi	a1,a1,1639 # 66666667 <absimm+0x21374138>
80004dc4:	00b53633          	sltu	a2,a0,a1
80004dc8:	0ec72023          	sw	a2,224(a4)
80004dcc:	00100093          	li	ra,1
80004dd0:	78c092e3          	bne	ra,a2,80005d54 <bad_trap>

80004dd4 <inst_587>:
80004dd4:	00600513          	li	a0,6
80004dd8:	0000b5b7          	lui	a1,0xb
80004ddc:	50558593          	addi	a1,a1,1285 # b505 <offset+0xb205>
80004de0:	00b53633          	sltu	a2,a0,a1
80004de4:	0ec72223          	sw	a2,228(a4)
80004de8:	00100093          	li	ra,1
80004dec:	76c094e3          	bne	ra,a2,80005d54 <bad_trap>

80004df0 <inst_588>:
80004df0:	00600513          	li	a0,6
80004df4:	00100593          	li	a1,1
80004df8:	00b53633          	sltu	a2,a0,a1
80004dfc:	0ec72423          	sw	a2,232(a4)
80004e00:	00000093          	li	ra,0
80004e04:	74c098e3          	bne	ra,a2,80005d54 <bad_trap>

80004e08 <inst_589>:
80004e08:	00600513          	li	a0,6
80004e0c:	000105b7          	lui	a1,0x10
80004e10:	00b53633          	sltu	a2,a0,a1
80004e14:	0ec72623          	sw	a2,236(a4)
80004e18:	00100093          	li	ra,1
80004e1c:	72c09ce3          	bne	ra,a2,80005d54 <bad_trap>

80004e20 <inst_590>:
80004e20:	33333537          	lui	a0,0x33333
80004e24:	33450513          	addi	a0,a0,820 # 33333334 <offset+0x33333034>
80004e28:	00300593          	li	a1,3
80004e2c:	00b53633          	sltu	a2,a0,a1
80004e30:	0ec72823          	sw	a2,240(a4)
80004e34:	00000093          	li	ra,0
80004e38:	70c09ee3          	bne	ra,a2,80005d54 <bad_trap>

80004e3c <inst_591>:
80004e3c:	66666537          	lui	a0,0x66666
80004e40:	66550513          	addi	a0,a0,1637 # 66666665 <absimm+0x21374136>
80004e44:	aaaab5b7          	lui	a1,0xaaaab
80004e48:	aab58593          	addi	a1,a1,-1365 # aaaaaaab <imm12+0xaaaaafdb>
80004e4c:	00b53633          	sltu	a2,a0,a1
80004e50:	0ec72a23          	sw	a2,244(a4)
80004e54:	00100093          	li	ra,1
80004e58:	6ec09ee3          	bne	ra,a2,80005d54 <bad_trap>

80004e5c <inst_592>:
80004e5c:	33333537          	lui	a0,0x33333
80004e60:	33450513          	addi	a0,a0,820 # 33333334 <offset+0x33333034>
80004e64:	555555b7          	lui	a1,0x55555
80004e68:	55558593          	addi	a1,a1,1365 # 55555555 <absimm+0x10263026>
80004e6c:	00b53633          	sltu	a2,a0,a1
80004e70:	0ec72c23          	sw	a2,248(a4)
80004e74:	00100093          	li	ra,1
80004e78:	6cc09ee3          	bne	ra,a2,80005d54 <bad_trap>

80004e7c <inst_593>:
80004e7c:	33333537          	lui	a0,0x33333
80004e80:	33450513          	addi	a0,a0,820 # 33333334 <offset+0x33333034>
80004e84:	aaaab5b7          	lui	a1,0xaaaab
80004e88:	aaa58593          	addi	a1,a1,-1366 # aaaaaaaa <imm12+0xaaaaafda>
80004e8c:	00b53633          	sltu	a2,a0,a1
80004e90:	0ec72e23          	sw	a2,252(a4)
80004e94:	00100093          	li	ra,1
80004e98:	6ac09ee3          	bne	ra,a2,80005d54 <bad_trap>

80004e9c <inst_594>:
80004e9c:	33333537          	lui	a0,0x33333
80004ea0:	33450513          	addi	a0,a0,820 # 33333334 <offset+0x33333034>
80004ea4:	00500593          	li	a1,5
80004ea8:	00b53633          	sltu	a2,a0,a1
80004eac:	10c72023          	sw	a2,256(a4)
80004eb0:	00000093          	li	ra,0
80004eb4:	6ac090e3          	bne	ra,a2,80005d54 <bad_trap>

80004eb8 <inst_595>:
80004eb8:	33333537          	lui	a0,0x33333
80004ebc:	33450513          	addi	a0,a0,820 # 33333334 <offset+0x33333034>
80004ec0:	333335b7          	lui	a1,0x33333
80004ec4:	33358593          	addi	a1,a1,819 # 33333333 <offset+0x33333033>
80004ec8:	00b53633          	sltu	a2,a0,a1
80004ecc:	10c72223          	sw	a2,260(a4)
80004ed0:	00000093          	li	ra,0
80004ed4:	68c090e3          	bne	ra,a2,80005d54 <bad_trap>

80004ed8 <inst_596>:
80004ed8:	33333537          	lui	a0,0x33333
80004edc:	33450513          	addi	a0,a0,820 # 33333334 <offset+0x33333034>
80004ee0:	666665b7          	lui	a1,0x66666
80004ee4:	66658593          	addi	a1,a1,1638 # 66666666 <absimm+0x21374137>
80004ee8:	00b53633          	sltu	a2,a0,a1
80004eec:	10c72423          	sw	a2,264(a4)
80004ef0:	00100093          	li	ra,1
80004ef4:	66c090e3          	bne	ra,a2,80005d54 <bad_trap>

80004ef8 <inst_597>:
80004ef8:	33333537          	lui	a0,0x33333
80004efc:	33450513          	addi	a0,a0,820 # 33333334 <offset+0x33333034>
80004f00:	0000b5b7          	lui	a1,0xb
80004f04:	50458593          	addi	a1,a1,1284 # b504 <offset+0xb204>
80004f08:	00b53633          	sltu	a2,a0,a1
80004f0c:	10c72623          	sw	a2,268(a4)
80004f10:	00000093          	li	ra,0
80004f14:	64c090e3          	bne	ra,a2,80005d54 <bad_trap>

80004f18 <inst_598>:
80004f18:	33333537          	lui	a0,0x33333
80004f1c:	33450513          	addi	a0,a0,820 # 33333334 <offset+0x33333034>
80004f20:	00000593          	li	a1,0
80004f24:	00b53633          	sltu	a2,a0,a1
80004f28:	10c72823          	sw	a2,272(a4)
80004f2c:	00000093          	li	ra,0
80004f30:	62c092e3          	bne	ra,a2,80005d54 <bad_trap>

80004f34 <inst_599>:
80004f34:	33333537          	lui	a0,0x33333
80004f38:	33450513          	addi	a0,a0,820 # 33333334 <offset+0x33333034>
80004f3c:	000105b7          	lui	a1,0x10
80004f40:	fff58593          	addi	a1,a1,-1 # ffff <offset+0xfcff>
80004f44:	00b53633          	sltu	a2,a0,a1
80004f48:	10c72a23          	sw	a2,276(a4)
80004f4c:	00000093          	li	ra,0
80004f50:	60c092e3          	bne	ra,a2,80005d54 <bad_trap>

80004f54 <inst_600>:
80004f54:	33333537          	lui	a0,0x33333
80004f58:	33450513          	addi	a0,a0,820 # 33333334 <offset+0x33333034>
80004f5c:	00200593          	li	a1,2
80004f60:	00b53633          	sltu	a2,a0,a1
80004f64:	10c72c23          	sw	a2,280(a4)
80004f68:	00000093          	li	ra,0
80004f6c:	5ec094e3          	bne	ra,a2,80005d54 <bad_trap>

80004f70 <inst_601>:
80004f70:	33333537          	lui	a0,0x33333
80004f74:	33450513          	addi	a0,a0,820 # 33333334 <offset+0x33333034>
80004f78:	555555b7          	lui	a1,0x55555
80004f7c:	55458593          	addi	a1,a1,1364 # 55555554 <absimm+0x10263025>
80004f80:	00b53633          	sltu	a2,a0,a1
80004f84:	10c72e23          	sw	a2,284(a4)
80004f88:	00100093          	li	ra,1
80004f8c:	5cc094e3          	bne	ra,a2,80005d54 <bad_trap>

80004f90 <inst_602>:
80004f90:	33333537          	lui	a0,0x33333
80004f94:	33450513          	addi	a0,a0,820 # 33333334 <offset+0x33333034>
80004f98:	aaaab5b7          	lui	a1,0xaaaab
80004f9c:	aa958593          	addi	a1,a1,-1367 # aaaaaaa9 <imm12+0xaaaaafd9>
80004fa0:	00b53633          	sltu	a2,a0,a1
80004fa4:	12c72023          	sw	a2,288(a4)
80004fa8:	00100093          	li	ra,1
80004fac:	5ac094e3          	bne	ra,a2,80005d54 <bad_trap>

80004fb0 <inst_603>:
80004fb0:	33333537          	lui	a0,0x33333
80004fb4:	33450513          	addi	a0,a0,820 # 33333334 <offset+0x33333034>
80004fb8:	00400593          	li	a1,4
80004fbc:	00b53633          	sltu	a2,a0,a1
80004fc0:	12c72223          	sw	a2,292(a4)
80004fc4:	00000093          	li	ra,0
80004fc8:	58c096e3          	bne	ra,a2,80005d54 <bad_trap>

80004fcc <inst_604>:
80004fcc:	33333537          	lui	a0,0x33333
80004fd0:	33450513          	addi	a0,a0,820 # 33333334 <offset+0x33333034>
80004fd4:	333335b7          	lui	a1,0x33333
80004fd8:	33258593          	addi	a1,a1,818 # 33333332 <offset+0x33333032>
80004fdc:	00b53633          	sltu	a2,a0,a1
80004fe0:	12c72423          	sw	a2,296(a4)
80004fe4:	00000093          	li	ra,0
80004fe8:	56c096e3          	bne	ra,a2,80005d54 <bad_trap>

80004fec <inst_605>:
80004fec:	33333537          	lui	a0,0x33333
80004ff0:	33450513          	addi	a0,a0,820 # 33333334 <offset+0x33333034>
80004ff4:	666665b7          	lui	a1,0x66666
80004ff8:	66558593          	addi	a1,a1,1637 # 66666665 <absimm+0x21374136>
80004ffc:	00b53633          	sltu	a2,a0,a1
80005000:	12c72623          	sw	a2,300(a4)
80005004:	00100093          	li	ra,1
80005008:	54c096e3          	bne	ra,a2,80005d54 <bad_trap>

8000500c <inst_606>:
8000500c:	33333537          	lui	a0,0x33333
80005010:	33450513          	addi	a0,a0,820 # 33333334 <offset+0x33333034>
80005014:	0000b5b7          	lui	a1,0xb
80005018:	50358593          	addi	a1,a1,1283 # b503 <offset+0xb203>
8000501c:	00b53633          	sltu	a2,a0,a1
80005020:	12c72823          	sw	a2,304(a4)
80005024:	00000093          	li	ra,0
80005028:	52c096e3          	bne	ra,a2,80005d54 <bad_trap>

8000502c <inst_607>:
8000502c:	33333537          	lui	a0,0x33333
80005030:	33450513          	addi	a0,a0,820 # 33333334 <offset+0x33333034>
80005034:	000105b7          	lui	a1,0x10
80005038:	ffe58593          	addi	a1,a1,-2 # fffe <offset+0xfcfe>
8000503c:	00b53633          	sltu	a2,a0,a1
80005040:	12c72a23          	sw	a2,308(a4)
80005044:	00000093          	li	ra,0
80005048:	50c096e3          	bne	ra,a2,80005d54 <bad_trap>

8000504c <inst_608>:
8000504c:	33333537          	lui	a0,0x33333
80005050:	33450513          	addi	a0,a0,820 # 33333334 <offset+0x33333034>
80005054:	555555b7          	lui	a1,0x55555
80005058:	55658593          	addi	a1,a1,1366 # 55555556 <absimm+0x10263027>
8000505c:	00b53633          	sltu	a2,a0,a1
80005060:	12c72c23          	sw	a2,312(a4)
80005064:	00100093          	li	ra,1
80005068:	4ec096e3          	bne	ra,a2,80005d54 <bad_trap>

8000506c <inst_609>:
8000506c:	33333537          	lui	a0,0x33333
80005070:	33450513          	addi	a0,a0,820 # 33333334 <offset+0x33333034>
80005074:	aaaab5b7          	lui	a1,0xaaaab
80005078:	aab58593          	addi	a1,a1,-1365 # aaaaaaab <imm12+0xaaaaafdb>
8000507c:	00b53633          	sltu	a2,a0,a1
80005080:	12c72e23          	sw	a2,316(a4)
80005084:	00100093          	li	ra,1
80005088:	4cc096e3          	bne	ra,a2,80005d54 <bad_trap>

8000508c <inst_610>:
8000508c:	33333537          	lui	a0,0x33333
80005090:	33450513          	addi	a0,a0,820 # 33333334 <offset+0x33333034>
80005094:	00600593          	li	a1,6
80005098:	00b53633          	sltu	a2,a0,a1
8000509c:	14c72023          	sw	a2,320(a4)
800050a0:	00000093          	li	ra,0
800050a4:	4ac098e3          	bne	ra,a2,80005d54 <bad_trap>

800050a8 <inst_611>:
800050a8:	33333537          	lui	a0,0x33333
800050ac:	33450513          	addi	a0,a0,820 # 33333334 <offset+0x33333034>
800050b0:	333335b7          	lui	a1,0x33333
800050b4:	33458593          	addi	a1,a1,820 # 33333334 <offset+0x33333034>
800050b8:	00b53633          	sltu	a2,a0,a1
800050bc:	14c72223          	sw	a2,324(a4)
800050c0:	00000093          	li	ra,0
800050c4:	48c098e3          	bne	ra,a2,80005d54 <bad_trap>

800050c8 <inst_612>:
800050c8:	33333537          	lui	a0,0x33333
800050cc:	33450513          	addi	a0,a0,820 # 33333334 <offset+0x33333034>
800050d0:	666665b7          	lui	a1,0x66666
800050d4:	66758593          	addi	a1,a1,1639 # 66666667 <absimm+0x21374138>
800050d8:	00b53633          	sltu	a2,a0,a1
800050dc:	14c72423          	sw	a2,328(a4)
800050e0:	00100093          	li	ra,1
800050e4:	46c098e3          	bne	ra,a2,80005d54 <bad_trap>

800050e8 <inst_613>:
800050e8:	33333537          	lui	a0,0x33333
800050ec:	33450513          	addi	a0,a0,820 # 33333334 <offset+0x33333034>
800050f0:	0000b5b7          	lui	a1,0xb
800050f4:	50558593          	addi	a1,a1,1285 # b505 <offset+0xb205>
800050f8:	00b53633          	sltu	a2,a0,a1
800050fc:	14c72623          	sw	a2,332(a4)
80005100:	00000093          	li	ra,0
80005104:	44c098e3          	bne	ra,a2,80005d54 <bad_trap>

80005108 <inst_614>:
80005108:	33333537          	lui	a0,0x33333
8000510c:	33450513          	addi	a0,a0,820 # 33333334 <offset+0x33333034>
80005110:	00100593          	li	a1,1
80005114:	00b53633          	sltu	a2,a0,a1
80005118:	14c72823          	sw	a2,336(a4)
8000511c:	00000093          	li	ra,0
80005120:	42c09ae3          	bne	ra,a2,80005d54 <bad_trap>

80005124 <inst_615>:
80005124:	33333537          	lui	a0,0x33333
80005128:	33450513          	addi	a0,a0,820 # 33333334 <offset+0x33333034>
8000512c:	000105b7          	lui	a1,0x10
80005130:	00b53633          	sltu	a2,a0,a1
80005134:	14c72a23          	sw	a2,340(a4)
80005138:	00000093          	li	ra,0
8000513c:	40c09ce3          	bne	ra,a2,80005d54 <bad_trap>

80005140 <inst_616>:
80005140:	66666537          	lui	a0,0x66666
80005144:	66750513          	addi	a0,a0,1639 # 66666667 <absimm+0x21374138>
80005148:	00300593          	li	a1,3
8000514c:	00b53633          	sltu	a2,a0,a1
80005150:	14c72c23          	sw	a2,344(a4)
80005154:	00000093          	li	ra,0
80005158:	3ec09ee3          	bne	ra,a2,80005d54 <bad_trap>

8000515c <inst_617>:
8000515c:	66666537          	lui	a0,0x66666
80005160:	66750513          	addi	a0,a0,1639 # 66666667 <absimm+0x21374138>
80005164:	555555b7          	lui	a1,0x55555
80005168:	55558593          	addi	a1,a1,1365 # 55555555 <absimm+0x10263026>
8000516c:	00b53633          	sltu	a2,a0,a1
80005170:	14c72e23          	sw	a2,348(a4)
80005174:	00000093          	li	ra,0
80005178:	3cc09ee3          	bne	ra,a2,80005d54 <bad_trap>

8000517c <inst_618>:
8000517c:	66666537          	lui	a0,0x66666
80005180:	66750513          	addi	a0,a0,1639 # 66666667 <absimm+0x21374138>
80005184:	aaaab5b7          	lui	a1,0xaaaab
80005188:	aaa58593          	addi	a1,a1,-1366 # aaaaaaaa <imm12+0xaaaaafda>
8000518c:	00b53633          	sltu	a2,a0,a1
80005190:	16c72023          	sw	a2,352(a4)
80005194:	00100093          	li	ra,1
80005198:	3ac09ee3          	bne	ra,a2,80005d54 <bad_trap>

8000519c <inst_619>:
8000519c:	66666537          	lui	a0,0x66666
800051a0:	66750513          	addi	a0,a0,1639 # 66666667 <absimm+0x21374138>
800051a4:	00500593          	li	a1,5
800051a8:	00b53633          	sltu	a2,a0,a1
800051ac:	16c72223          	sw	a2,356(a4)
800051b0:	00000093          	li	ra,0
800051b4:	3ac090e3          	bne	ra,a2,80005d54 <bad_trap>

800051b8 <inst_620>:
800051b8:	66666537          	lui	a0,0x66666
800051bc:	66750513          	addi	a0,a0,1639 # 66666667 <absimm+0x21374138>
800051c0:	333335b7          	lui	a1,0x33333
800051c4:	33358593          	addi	a1,a1,819 # 33333333 <offset+0x33333033>
800051c8:	00b53633          	sltu	a2,a0,a1
800051cc:	16c72423          	sw	a2,360(a4)
800051d0:	00000093          	li	ra,0
800051d4:	38c090e3          	bne	ra,a2,80005d54 <bad_trap>

800051d8 <inst_621>:
800051d8:	66666537          	lui	a0,0x66666
800051dc:	66750513          	addi	a0,a0,1639 # 66666667 <absimm+0x21374138>
800051e0:	666665b7          	lui	a1,0x66666
800051e4:	66658593          	addi	a1,a1,1638 # 66666666 <absimm+0x21374137>
800051e8:	00b53633          	sltu	a2,a0,a1
800051ec:	16c72623          	sw	a2,364(a4)
800051f0:	00000093          	li	ra,0
800051f4:	36c090e3          	bne	ra,a2,80005d54 <bad_trap>

800051f8 <inst_622>:
800051f8:	66666537          	lui	a0,0x66666
800051fc:	66750513          	addi	a0,a0,1639 # 66666667 <absimm+0x21374138>
80005200:	0000b5b7          	lui	a1,0xb
80005204:	50458593          	addi	a1,a1,1284 # b504 <offset+0xb204>
80005208:	00b53633          	sltu	a2,a0,a1
8000520c:	16c72823          	sw	a2,368(a4)
80005210:	00000093          	li	ra,0
80005214:	34c090e3          	bne	ra,a2,80005d54 <bad_trap>

80005218 <inst_623>:
80005218:	66666537          	lui	a0,0x66666
8000521c:	66750513          	addi	a0,a0,1639 # 66666667 <absimm+0x21374138>
80005220:	00000593          	li	a1,0
80005224:	00b53633          	sltu	a2,a0,a1
80005228:	16c72a23          	sw	a2,372(a4)
8000522c:	00000093          	li	ra,0
80005230:	32c092e3          	bne	ra,a2,80005d54 <bad_trap>

80005234 <inst_624>:
80005234:	66666537          	lui	a0,0x66666
80005238:	66750513          	addi	a0,a0,1639 # 66666667 <absimm+0x21374138>
8000523c:	000105b7          	lui	a1,0x10
80005240:	fff58593          	addi	a1,a1,-1 # ffff <offset+0xfcff>
80005244:	00b53633          	sltu	a2,a0,a1
80005248:	16c72c23          	sw	a2,376(a4)
8000524c:	00000093          	li	ra,0
80005250:	30c092e3          	bne	ra,a2,80005d54 <bad_trap>

80005254 <inst_625>:
80005254:	66666537          	lui	a0,0x66666
80005258:	66750513          	addi	a0,a0,1639 # 66666667 <absimm+0x21374138>
8000525c:	00200593          	li	a1,2
80005260:	00b53633          	sltu	a2,a0,a1
80005264:	16c72e23          	sw	a2,380(a4)
80005268:	00000093          	li	ra,0
8000526c:	2ec094e3          	bne	ra,a2,80005d54 <bad_trap>

80005270 <inst_626>:
80005270:	66666537          	lui	a0,0x66666
80005274:	66750513          	addi	a0,a0,1639 # 66666667 <absimm+0x21374138>
80005278:	555555b7          	lui	a1,0x55555
8000527c:	55458593          	addi	a1,a1,1364 # 55555554 <absimm+0x10263025>
80005280:	00b53633          	sltu	a2,a0,a1
80005284:	18c72023          	sw	a2,384(a4)
80005288:	00000093          	li	ra,0
8000528c:	2cc094e3          	bne	ra,a2,80005d54 <bad_trap>

80005290 <inst_627>:
80005290:	66666537          	lui	a0,0x66666
80005294:	66750513          	addi	a0,a0,1639 # 66666667 <absimm+0x21374138>
80005298:	aaaab5b7          	lui	a1,0xaaaab
8000529c:	aa958593          	addi	a1,a1,-1367 # aaaaaaa9 <imm12+0xaaaaafd9>
800052a0:	00b53633          	sltu	a2,a0,a1
800052a4:	18c72223          	sw	a2,388(a4)
800052a8:	00100093          	li	ra,1
800052ac:	2ac094e3          	bne	ra,a2,80005d54 <bad_trap>

800052b0 <inst_628>:
800052b0:	66666537          	lui	a0,0x66666
800052b4:	66750513          	addi	a0,a0,1639 # 66666667 <absimm+0x21374138>
800052b8:	00400593          	li	a1,4
800052bc:	00b53633          	sltu	a2,a0,a1
800052c0:	18c72423          	sw	a2,392(a4)
800052c4:	00000093          	li	ra,0
800052c8:	28c096e3          	bne	ra,a2,80005d54 <bad_trap>

800052cc <inst_629>:
800052cc:	66666537          	lui	a0,0x66666
800052d0:	66750513          	addi	a0,a0,1639 # 66666667 <absimm+0x21374138>
800052d4:	333335b7          	lui	a1,0x33333
800052d8:	33258593          	addi	a1,a1,818 # 33333332 <offset+0x33333032>
800052dc:	00b53633          	sltu	a2,a0,a1
800052e0:	18c72623          	sw	a2,396(a4)
800052e4:	00000093          	li	ra,0
800052e8:	26c096e3          	bne	ra,a2,80005d54 <bad_trap>

800052ec <inst_630>:
800052ec:	66666537          	lui	a0,0x66666
800052f0:	66750513          	addi	a0,a0,1639 # 66666667 <absimm+0x21374138>
800052f4:	666665b7          	lui	a1,0x66666
800052f8:	66558593          	addi	a1,a1,1637 # 66666665 <absimm+0x21374136>
800052fc:	00b53633          	sltu	a2,a0,a1
80005300:	18c72823          	sw	a2,400(a4)
80005304:	00000093          	li	ra,0
80005308:	24c096e3          	bne	ra,a2,80005d54 <bad_trap>

8000530c <inst_631>:
8000530c:	66666537          	lui	a0,0x66666
80005310:	66750513          	addi	a0,a0,1639 # 66666667 <absimm+0x21374138>
80005314:	0000b5b7          	lui	a1,0xb
80005318:	50358593          	addi	a1,a1,1283 # b503 <offset+0xb203>
8000531c:	00b53633          	sltu	a2,a0,a1
80005320:	18c72a23          	sw	a2,404(a4)
80005324:	00000093          	li	ra,0
80005328:	22c096e3          	bne	ra,a2,80005d54 <bad_trap>

8000532c <inst_632>:
8000532c:	66666537          	lui	a0,0x66666
80005330:	66750513          	addi	a0,a0,1639 # 66666667 <absimm+0x21374138>
80005334:	000105b7          	lui	a1,0x10
80005338:	ffe58593          	addi	a1,a1,-2 # fffe <offset+0xfcfe>
8000533c:	00b53633          	sltu	a2,a0,a1
80005340:	18c72c23          	sw	a2,408(a4)
80005344:	00000093          	li	ra,0
80005348:	20c096e3          	bne	ra,a2,80005d54 <bad_trap>

8000534c <inst_633>:
8000534c:	66666537          	lui	a0,0x66666
80005350:	66750513          	addi	a0,a0,1639 # 66666667 <absimm+0x21374138>
80005354:	555555b7          	lui	a1,0x55555
80005358:	55658593          	addi	a1,a1,1366 # 55555556 <absimm+0x10263027>
8000535c:	00b53633          	sltu	a2,a0,a1
80005360:	18c72e23          	sw	a2,412(a4)
80005364:	00000093          	li	ra,0
80005368:	1ec096e3          	bne	ra,a2,80005d54 <bad_trap>

8000536c <inst_634>:
8000536c:	66666537          	lui	a0,0x66666
80005370:	66750513          	addi	a0,a0,1639 # 66666667 <absimm+0x21374138>
80005374:	aaaab5b7          	lui	a1,0xaaaab
80005378:	aab58593          	addi	a1,a1,-1365 # aaaaaaab <imm12+0xaaaaafdb>
8000537c:	00b53633          	sltu	a2,a0,a1
80005380:	1ac72023          	sw	a2,416(a4)
80005384:	00100093          	li	ra,1
80005388:	1cc096e3          	bne	ra,a2,80005d54 <bad_trap>

8000538c <inst_635>:
8000538c:	66666537          	lui	a0,0x66666
80005390:	66750513          	addi	a0,a0,1639 # 66666667 <absimm+0x21374138>
80005394:	00600593          	li	a1,6
80005398:	00b53633          	sltu	a2,a0,a1
8000539c:	1ac72223          	sw	a2,420(a4)
800053a0:	00000093          	li	ra,0
800053a4:	1ac098e3          	bne	ra,a2,80005d54 <bad_trap>

800053a8 <inst_636>:
800053a8:	66666537          	lui	a0,0x66666
800053ac:	66750513          	addi	a0,a0,1639 # 66666667 <absimm+0x21374138>
800053b0:	333335b7          	lui	a1,0x33333
800053b4:	33458593          	addi	a1,a1,820 # 33333334 <offset+0x33333034>
800053b8:	00b53633          	sltu	a2,a0,a1
800053bc:	1ac72423          	sw	a2,424(a4)
800053c0:	00000093          	li	ra,0
800053c4:	18c098e3          	bne	ra,a2,80005d54 <bad_trap>

800053c8 <inst_637>:
800053c8:	66666537          	lui	a0,0x66666
800053cc:	66750513          	addi	a0,a0,1639 # 66666667 <absimm+0x21374138>
800053d0:	666665b7          	lui	a1,0x66666
800053d4:	66758593          	addi	a1,a1,1639 # 66666667 <absimm+0x21374138>
800053d8:	00b53633          	sltu	a2,a0,a1
800053dc:	1ac72623          	sw	a2,428(a4)
800053e0:	00000093          	li	ra,0
800053e4:	16c098e3          	bne	ra,a2,80005d54 <bad_trap>

800053e8 <inst_638>:
800053e8:	66666537          	lui	a0,0x66666
800053ec:	66750513          	addi	a0,a0,1639 # 66666667 <absimm+0x21374138>
800053f0:	0000b5b7          	lui	a1,0xb
800053f4:	50558593          	addi	a1,a1,1285 # b505 <offset+0xb205>
800053f8:	00b53633          	sltu	a2,a0,a1
800053fc:	1ac72823          	sw	a2,432(a4)
80005400:	00000093          	li	ra,0
80005404:	14c098e3          	bne	ra,a2,80005d54 <bad_trap>

80005408 <inst_639>:
80005408:	66666537          	lui	a0,0x66666
8000540c:	66750513          	addi	a0,a0,1639 # 66666667 <absimm+0x21374138>
80005410:	00100593          	li	a1,1
80005414:	00b53633          	sltu	a2,a0,a1
80005418:	1ac72a23          	sw	a2,436(a4)
8000541c:	00000093          	li	ra,0
80005420:	12c09ae3          	bne	ra,a2,80005d54 <bad_trap>

80005424 <inst_640>:
80005424:	66666537          	lui	a0,0x66666
80005428:	66750513          	addi	a0,a0,1639 # 66666667 <absimm+0x21374138>
8000542c:	000105b7          	lui	a1,0x10
80005430:	00b53633          	sltu	a2,a0,a1
80005434:	1ac72c23          	sw	a2,440(a4)
80005438:	00000093          	li	ra,0
8000543c:	10c09ce3          	bne	ra,a2,80005d54 <bad_trap>

80005440 <inst_641>:
80005440:	0000b537          	lui	a0,0xb
80005444:	50550513          	addi	a0,a0,1285 # b505 <offset+0xb205>
80005448:	00300593          	li	a1,3
8000544c:	00b53633          	sltu	a2,a0,a1
80005450:	1ac72e23          	sw	a2,444(a4)
80005454:	00000093          	li	ra,0
80005458:	0ec09ee3          	bne	ra,a2,80005d54 <bad_trap>

8000545c <inst_642>:
8000545c:	0000b537          	lui	a0,0xb
80005460:	50550513          	addi	a0,a0,1285 # b505 <offset+0xb205>
80005464:	555555b7          	lui	a1,0x55555
80005468:	55558593          	addi	a1,a1,1365 # 55555555 <absimm+0x10263026>
8000546c:	00b53633          	sltu	a2,a0,a1
80005470:	1cc72023          	sw	a2,448(a4)
80005474:	00100093          	li	ra,1
80005478:	0cc09ee3          	bne	ra,a2,80005d54 <bad_trap>

8000547c <inst_643>:
8000547c:	0000b537          	lui	a0,0xb
80005480:	50550513          	addi	a0,a0,1285 # b505 <offset+0xb205>
80005484:	aaaab5b7          	lui	a1,0xaaaab
80005488:	aaa58593          	addi	a1,a1,-1366 # aaaaaaaa <imm12+0xaaaaafda>
8000548c:	00b53633          	sltu	a2,a0,a1
80005490:	1cc72223          	sw	a2,452(a4)
80005494:	00100093          	li	ra,1
80005498:	0ac09ee3          	bne	ra,a2,80005d54 <bad_trap>

8000549c <inst_644>:
8000549c:	0000b537          	lui	a0,0xb
800054a0:	50550513          	addi	a0,a0,1285 # b505 <offset+0xb205>
800054a4:	00500593          	li	a1,5
800054a8:	00b53633          	sltu	a2,a0,a1
800054ac:	1cc72423          	sw	a2,456(a4)
800054b0:	00000093          	li	ra,0
800054b4:	0ac090e3          	bne	ra,a2,80005d54 <bad_trap>

800054b8 <inst_645>:
800054b8:	0000b537          	lui	a0,0xb
800054bc:	50550513          	addi	a0,a0,1285 # b505 <offset+0xb205>
800054c0:	333335b7          	lui	a1,0x33333
800054c4:	33358593          	addi	a1,a1,819 # 33333333 <offset+0x33333033>
800054c8:	00b53633          	sltu	a2,a0,a1
800054cc:	1cc72623          	sw	a2,460(a4)
800054d0:	00100093          	li	ra,1
800054d4:	08c090e3          	bne	ra,a2,80005d54 <bad_trap>

800054d8 <inst_646>:
800054d8:	0000b537          	lui	a0,0xb
800054dc:	50550513          	addi	a0,a0,1285 # b505 <offset+0xb205>
800054e0:	666665b7          	lui	a1,0x66666
800054e4:	66658593          	addi	a1,a1,1638 # 66666666 <absimm+0x21374137>
800054e8:	00b53633          	sltu	a2,a0,a1
800054ec:	1cc72823          	sw	a2,464(a4)
800054f0:	00100093          	li	ra,1
800054f4:	06c090e3          	bne	ra,a2,80005d54 <bad_trap>

800054f8 <inst_647>:
800054f8:	0000b537          	lui	a0,0xb
800054fc:	50550513          	addi	a0,a0,1285 # b505 <offset+0xb205>
80005500:	0000b5b7          	lui	a1,0xb
80005504:	50458593          	addi	a1,a1,1284 # b504 <offset+0xb204>
80005508:	00b53633          	sltu	a2,a0,a1
8000550c:	1cc72a23          	sw	a2,468(a4)
80005510:	00000093          	li	ra,0
80005514:	04c090e3          	bne	ra,a2,80005d54 <bad_trap>

80005518 <inst_648>:
80005518:	0000b537          	lui	a0,0xb
8000551c:	50550513          	addi	a0,a0,1285 # b505 <offset+0xb205>
80005520:	00000593          	li	a1,0
80005524:	00b53633          	sltu	a2,a0,a1
80005528:	1cc72c23          	sw	a2,472(a4)
8000552c:	00000093          	li	ra,0
80005530:	02c092e3          	bne	ra,a2,80005d54 <bad_trap>

80005534 <inst_649>:
80005534:	0000b537          	lui	a0,0xb
80005538:	50550513          	addi	a0,a0,1285 # b505 <offset+0xb205>
8000553c:	000105b7          	lui	a1,0x10
80005540:	fff58593          	addi	a1,a1,-1 # ffff <offset+0xfcff>
80005544:	00b53633          	sltu	a2,a0,a1
80005548:	1cc72e23          	sw	a2,476(a4)
8000554c:	00100093          	li	ra,1
80005550:	00c092e3          	bne	ra,a2,80005d54 <bad_trap>

80005554 <inst_650>:
80005554:	0000b537          	lui	a0,0xb
80005558:	50550513          	addi	a0,a0,1285 # b505 <offset+0xb205>
8000555c:	00200593          	li	a1,2
80005560:	00b53633          	sltu	a2,a0,a1
80005564:	1ec72023          	sw	a2,480(a4)
80005568:	00000093          	li	ra,0
8000556c:	7ec09463          	bne	ra,a2,80005d54 <bad_trap>

80005570 <inst_651>:
80005570:	0000b537          	lui	a0,0xb
80005574:	50550513          	addi	a0,a0,1285 # b505 <offset+0xb205>
80005578:	555555b7          	lui	a1,0x55555
8000557c:	55458593          	addi	a1,a1,1364 # 55555554 <absimm+0x10263025>
80005580:	00b53633          	sltu	a2,a0,a1
80005584:	1ec72223          	sw	a2,484(a4)
80005588:	00100093          	li	ra,1
8000558c:	7cc09463          	bne	ra,a2,80005d54 <bad_trap>

80005590 <inst_652>:
80005590:	0000b537          	lui	a0,0xb
80005594:	50550513          	addi	a0,a0,1285 # b505 <offset+0xb205>
80005598:	aaaab5b7          	lui	a1,0xaaaab
8000559c:	aa958593          	addi	a1,a1,-1367 # aaaaaaa9 <imm12+0xaaaaafd9>
800055a0:	00b53633          	sltu	a2,a0,a1
800055a4:	1ec72423          	sw	a2,488(a4)
800055a8:	00100093          	li	ra,1
800055ac:	7ac09463          	bne	ra,a2,80005d54 <bad_trap>

800055b0 <inst_653>:
800055b0:	0000b537          	lui	a0,0xb
800055b4:	50550513          	addi	a0,a0,1285 # b505 <offset+0xb205>
800055b8:	00400593          	li	a1,4
800055bc:	00b53633          	sltu	a2,a0,a1
800055c0:	1ec72623          	sw	a2,492(a4)
800055c4:	00000093          	li	ra,0
800055c8:	78c09663          	bne	ra,a2,80005d54 <bad_trap>

800055cc <inst_654>:
800055cc:	0000b537          	lui	a0,0xb
800055d0:	50550513          	addi	a0,a0,1285 # b505 <offset+0xb205>
800055d4:	333335b7          	lui	a1,0x33333
800055d8:	33258593          	addi	a1,a1,818 # 33333332 <offset+0x33333032>
800055dc:	00b53633          	sltu	a2,a0,a1
800055e0:	1ec72823          	sw	a2,496(a4)
800055e4:	00100093          	li	ra,1
800055e8:	76c09663          	bne	ra,a2,80005d54 <bad_trap>

800055ec <inst_655>:
800055ec:	0000b537          	lui	a0,0xb
800055f0:	50550513          	addi	a0,a0,1285 # b505 <offset+0xb205>
800055f4:	666665b7          	lui	a1,0x66666
800055f8:	66558593          	addi	a1,a1,1637 # 66666665 <absimm+0x21374136>
800055fc:	00b53633          	sltu	a2,a0,a1
80005600:	1ec72a23          	sw	a2,500(a4)
80005604:	00100093          	li	ra,1
80005608:	74c09663          	bne	ra,a2,80005d54 <bad_trap>

8000560c <inst_656>:
8000560c:	0000b537          	lui	a0,0xb
80005610:	50550513          	addi	a0,a0,1285 # b505 <offset+0xb205>
80005614:	0000b5b7          	lui	a1,0xb
80005618:	50358593          	addi	a1,a1,1283 # b503 <offset+0xb203>
8000561c:	00b53633          	sltu	a2,a0,a1
80005620:	1ec72c23          	sw	a2,504(a4)
80005624:	00000093          	li	ra,0
80005628:	72c09663          	bne	ra,a2,80005d54 <bad_trap>

8000562c <inst_657>:
8000562c:	0000b537          	lui	a0,0xb
80005630:	50550513          	addi	a0,a0,1285 # b505 <offset+0xb205>
80005634:	000105b7          	lui	a1,0x10
80005638:	ffe58593          	addi	a1,a1,-2 # fffe <offset+0xfcfe>
8000563c:	00b53633          	sltu	a2,a0,a1
80005640:	1ec72e23          	sw	a2,508(a4)
80005644:	00100093          	li	ra,1
80005648:	70c09663          	bne	ra,a2,80005d54 <bad_trap>

8000564c <inst_658>:
8000564c:	0000b537          	lui	a0,0xb
80005650:	50550513          	addi	a0,a0,1285 # b505 <offset+0xb205>
80005654:	555555b7          	lui	a1,0x55555
80005658:	55658593          	addi	a1,a1,1366 # 55555556 <absimm+0x10263027>
8000565c:	00b53633          	sltu	a2,a0,a1
80005660:	20c72023          	sw	a2,512(a4)
80005664:	00100093          	li	ra,1
80005668:	6ec09663          	bne	ra,a2,80005d54 <bad_trap>

8000566c <inst_659>:
8000566c:	0000b537          	lui	a0,0xb
80005670:	50550513          	addi	a0,a0,1285 # b505 <offset+0xb205>
80005674:	aaaab5b7          	lui	a1,0xaaaab
80005678:	aab58593          	addi	a1,a1,-1365 # aaaaaaab <imm12+0xaaaaafdb>
8000567c:	00b53633          	sltu	a2,a0,a1
80005680:	20c72223          	sw	a2,516(a4)
80005684:	00100093          	li	ra,1
80005688:	6cc09663          	bne	ra,a2,80005d54 <bad_trap>

8000568c <inst_660>:
8000568c:	0000b537          	lui	a0,0xb
80005690:	50550513          	addi	a0,a0,1285 # b505 <offset+0xb205>
80005694:	00600593          	li	a1,6
80005698:	00b53633          	sltu	a2,a0,a1
8000569c:	20c72423          	sw	a2,520(a4)
800056a0:	00000093          	li	ra,0
800056a4:	6ac09863          	bne	ra,a2,80005d54 <bad_trap>

800056a8 <inst_661>:
800056a8:	0000b537          	lui	a0,0xb
800056ac:	50550513          	addi	a0,a0,1285 # b505 <offset+0xb205>
800056b0:	333335b7          	lui	a1,0x33333
800056b4:	33458593          	addi	a1,a1,820 # 33333334 <offset+0x33333034>
800056b8:	00b53633          	sltu	a2,a0,a1
800056bc:	20c72623          	sw	a2,524(a4)
800056c0:	00100093          	li	ra,1
800056c4:	68c09863          	bne	ra,a2,80005d54 <bad_trap>

800056c8 <inst_662>:
800056c8:	0000b537          	lui	a0,0xb
800056cc:	50550513          	addi	a0,a0,1285 # b505 <offset+0xb205>
800056d0:	666665b7          	lui	a1,0x66666
800056d4:	66758593          	addi	a1,a1,1639 # 66666667 <absimm+0x21374138>
800056d8:	00b53633          	sltu	a2,a0,a1
800056dc:	20c72823          	sw	a2,528(a4)
800056e0:	00100093          	li	ra,1
800056e4:	66c09863          	bne	ra,a2,80005d54 <bad_trap>

800056e8 <inst_663>:
800056e8:	0000b537          	lui	a0,0xb
800056ec:	50550513          	addi	a0,a0,1285 # b505 <offset+0xb205>
800056f0:	0000b5b7          	lui	a1,0xb
800056f4:	50558593          	addi	a1,a1,1285 # b505 <offset+0xb205>
800056f8:	00b53633          	sltu	a2,a0,a1
800056fc:	20c72a23          	sw	a2,532(a4)
80005700:	00000093          	li	ra,0
80005704:	64c09863          	bne	ra,a2,80005d54 <bad_trap>

80005708 <inst_664>:
80005708:	0000b537          	lui	a0,0xb
8000570c:	50550513          	addi	a0,a0,1285 # b505 <offset+0xb205>
80005710:	00100593          	li	a1,1
80005714:	00b53633          	sltu	a2,a0,a1
80005718:	20c72c23          	sw	a2,536(a4)
8000571c:	00000093          	li	ra,0
80005720:	62c09a63          	bne	ra,a2,80005d54 <bad_trap>

80005724 <inst_665>:
80005724:	0000b537          	lui	a0,0xb
80005728:	50550513          	addi	a0,a0,1285 # b505 <offset+0xb205>
8000572c:	000105b7          	lui	a1,0x10
80005730:	00b53633          	sltu	a2,a0,a1
80005734:	20c72e23          	sw	a2,540(a4)
80005738:	00100093          	li	ra,1
8000573c:	60c09c63          	bne	ra,a2,80005d54 <bad_trap>

80005740 <inst_666>:
80005740:	00100513          	li	a0,1
80005744:	00300593          	li	a1,3
80005748:	00b53633          	sltu	a2,a0,a1
8000574c:	22c72023          	sw	a2,544(a4)
80005750:	00100093          	li	ra,1
80005754:	60c09063          	bne	ra,a2,80005d54 <bad_trap>

80005758 <inst_667>:
80005758:	00100513          	li	a0,1
8000575c:	555555b7          	lui	a1,0x55555
80005760:	55558593          	addi	a1,a1,1365 # 55555555 <absimm+0x10263026>
80005764:	00b53633          	sltu	a2,a0,a1
80005768:	22c72223          	sw	a2,548(a4)
8000576c:	00100093          	li	ra,1
80005770:	5ec09263          	bne	ra,a2,80005d54 <bad_trap>

80005774 <inst_668>:
80005774:	00100513          	li	a0,1
80005778:	aaaab5b7          	lui	a1,0xaaaab
8000577c:	aaa58593          	addi	a1,a1,-1366 # aaaaaaaa <imm12+0xaaaaafda>
80005780:	00b53633          	sltu	a2,a0,a1
80005784:	22c72423          	sw	a2,552(a4)
80005788:	00100093          	li	ra,1
8000578c:	5cc09463          	bne	ra,a2,80005d54 <bad_trap>

80005790 <inst_669>:
80005790:	00100513          	li	a0,1
80005794:	00500593          	li	a1,5
80005798:	00b53633          	sltu	a2,a0,a1
8000579c:	22c72623          	sw	a2,556(a4)
800057a0:	00100093          	li	ra,1
800057a4:	5ac09863          	bne	ra,a2,80005d54 <bad_trap>

800057a8 <inst_670>:
800057a8:	00100513          	li	a0,1
800057ac:	333335b7          	lui	a1,0x33333
800057b0:	33358593          	addi	a1,a1,819 # 33333333 <offset+0x33333033>
800057b4:	00b53633          	sltu	a2,a0,a1
800057b8:	22c72823          	sw	a2,560(a4)
800057bc:	00100093          	li	ra,1
800057c0:	58c09a63          	bne	ra,a2,80005d54 <bad_trap>

800057c4 <inst_671>:
800057c4:	00100513          	li	a0,1
800057c8:	666665b7          	lui	a1,0x66666
800057cc:	66658593          	addi	a1,a1,1638 # 66666666 <absimm+0x21374137>
800057d0:	00b53633          	sltu	a2,a0,a1
800057d4:	22c72a23          	sw	a2,564(a4)
800057d8:	00100093          	li	ra,1
800057dc:	56c09c63          	bne	ra,a2,80005d54 <bad_trap>

800057e0 <inst_672>:
800057e0:	00100513          	li	a0,1
800057e4:	0000b5b7          	lui	a1,0xb
800057e8:	50458593          	addi	a1,a1,1284 # b504 <offset+0xb204>
800057ec:	00b53633          	sltu	a2,a0,a1
800057f0:	22c72c23          	sw	a2,568(a4)
800057f4:	00100093          	li	ra,1
800057f8:	54c09e63          	bne	ra,a2,80005d54 <bad_trap>

800057fc <inst_673>:
800057fc:	00100513          	li	a0,1
80005800:	00000593          	li	a1,0
80005804:	00b53633          	sltu	a2,a0,a1
80005808:	22c72e23          	sw	a2,572(a4)
8000580c:	00000093          	li	ra,0
80005810:	54c09263          	bne	ra,a2,80005d54 <bad_trap>

80005814 <inst_674>:
80005814:	00100513          	li	a0,1
80005818:	000105b7          	lui	a1,0x10
8000581c:	fff58593          	addi	a1,a1,-1 # ffff <offset+0xfcff>
80005820:	00b53633          	sltu	a2,a0,a1
80005824:	24c72023          	sw	a2,576(a4)
80005828:	00100093          	li	ra,1
8000582c:	52c09463          	bne	ra,a2,80005d54 <bad_trap>

80005830 <inst_675>:
80005830:	00100513          	li	a0,1
80005834:	00200593          	li	a1,2
80005838:	00b53633          	sltu	a2,a0,a1
8000583c:	24c72223          	sw	a2,580(a4)
80005840:	00100093          	li	ra,1
80005844:	50c09863          	bne	ra,a2,80005d54 <bad_trap>

80005848 <inst_676>:
80005848:	00100513          	li	a0,1
8000584c:	555555b7          	lui	a1,0x55555
80005850:	55458593          	addi	a1,a1,1364 # 55555554 <absimm+0x10263025>
80005854:	00b53633          	sltu	a2,a0,a1
80005858:	24c72423          	sw	a2,584(a4)
8000585c:	00100093          	li	ra,1
80005860:	4ec09a63          	bne	ra,a2,80005d54 <bad_trap>

80005864 <inst_677>:
80005864:	00100513          	li	a0,1
80005868:	aaaab5b7          	lui	a1,0xaaaab
8000586c:	aa958593          	addi	a1,a1,-1367 # aaaaaaa9 <imm12+0xaaaaafd9>
80005870:	00b53633          	sltu	a2,a0,a1
80005874:	24c72623          	sw	a2,588(a4)
80005878:	00100093          	li	ra,1
8000587c:	4cc09c63          	bne	ra,a2,80005d54 <bad_trap>

80005880 <inst_678>:
80005880:	00100513          	li	a0,1
80005884:	00400593          	li	a1,4
80005888:	00b53633          	sltu	a2,a0,a1
8000588c:	24c72823          	sw	a2,592(a4)
80005890:	00100093          	li	ra,1
80005894:	4cc09063          	bne	ra,a2,80005d54 <bad_trap>

80005898 <inst_679>:
80005898:	00100513          	li	a0,1
8000589c:	333335b7          	lui	a1,0x33333
800058a0:	33258593          	addi	a1,a1,818 # 33333332 <offset+0x33333032>
800058a4:	00b53633          	sltu	a2,a0,a1
800058a8:	24c72a23          	sw	a2,596(a4)
800058ac:	00100093          	li	ra,1
800058b0:	4ac09263          	bne	ra,a2,80005d54 <bad_trap>

800058b4 <inst_680>:
800058b4:	00100513          	li	a0,1
800058b8:	666665b7          	lui	a1,0x66666
800058bc:	66558593          	addi	a1,a1,1637 # 66666665 <absimm+0x21374136>
800058c0:	00b53633          	sltu	a2,a0,a1
800058c4:	24c72c23          	sw	a2,600(a4)
800058c8:	00100093          	li	ra,1
800058cc:	48c09463          	bne	ra,a2,80005d54 <bad_trap>

800058d0 <inst_681>:
800058d0:	00100513          	li	a0,1
800058d4:	0000b5b7          	lui	a1,0xb
800058d8:	50358593          	addi	a1,a1,1283 # b503 <offset+0xb203>
800058dc:	00b53633          	sltu	a2,a0,a1
800058e0:	24c72e23          	sw	a2,604(a4)
800058e4:	00100093          	li	ra,1
800058e8:	46c09663          	bne	ra,a2,80005d54 <bad_trap>

800058ec <inst_682>:
800058ec:	00100513          	li	a0,1
800058f0:	000105b7          	lui	a1,0x10
800058f4:	ffe58593          	addi	a1,a1,-2 # fffe <offset+0xfcfe>
800058f8:	00b53633          	sltu	a2,a0,a1
800058fc:	26c72023          	sw	a2,608(a4)
80005900:	00100093          	li	ra,1
80005904:	44c09863          	bne	ra,a2,80005d54 <bad_trap>

80005908 <inst_683>:
80005908:	00100513          	li	a0,1
8000590c:	555555b7          	lui	a1,0x55555
80005910:	55658593          	addi	a1,a1,1366 # 55555556 <absimm+0x10263027>
80005914:	00b53633          	sltu	a2,a0,a1
80005918:	26c72223          	sw	a2,612(a4)
8000591c:	00100093          	li	ra,1
80005920:	42c09a63          	bne	ra,a2,80005d54 <bad_trap>

80005924 <inst_684>:
80005924:	00100513          	li	a0,1
80005928:	aaaab5b7          	lui	a1,0xaaaab
8000592c:	aab58593          	addi	a1,a1,-1365 # aaaaaaab <imm12+0xaaaaafdb>
80005930:	00b53633          	sltu	a2,a0,a1
80005934:	26c72423          	sw	a2,616(a4)
80005938:	00100093          	li	ra,1
8000593c:	40c09c63          	bne	ra,a2,80005d54 <bad_trap>

80005940 <inst_685>:
80005940:	00100513          	li	a0,1
80005944:	00600593          	li	a1,6
80005948:	00b53633          	sltu	a2,a0,a1
8000594c:	26c72623          	sw	a2,620(a4)
80005950:	00100093          	li	ra,1
80005954:	40c09063          	bne	ra,a2,80005d54 <bad_trap>

80005958 <inst_686>:
80005958:	00100513          	li	a0,1
8000595c:	333335b7          	lui	a1,0x33333
80005960:	33458593          	addi	a1,a1,820 # 33333334 <offset+0x33333034>
80005964:	00b53633          	sltu	a2,a0,a1
80005968:	26c72823          	sw	a2,624(a4)
8000596c:	00100093          	li	ra,1
80005970:	3ec09263          	bne	ra,a2,80005d54 <bad_trap>

80005974 <inst_687>:
80005974:	00100513          	li	a0,1
80005978:	666665b7          	lui	a1,0x66666
8000597c:	66758593          	addi	a1,a1,1639 # 66666667 <absimm+0x21374138>
80005980:	00b53633          	sltu	a2,a0,a1
80005984:	26c72a23          	sw	a2,628(a4)
80005988:	00100093          	li	ra,1
8000598c:	3cc09463          	bne	ra,a2,80005d54 <bad_trap>

80005990 <inst_688>:
80005990:	00100513          	li	a0,1
80005994:	0000b5b7          	lui	a1,0xb
80005998:	50558593          	addi	a1,a1,1285 # b505 <offset+0xb205>
8000599c:	00b53633          	sltu	a2,a0,a1
800059a0:	26c72c23          	sw	a2,632(a4)
800059a4:	00100093          	li	ra,1
800059a8:	3ac09663          	bne	ra,a2,80005d54 <bad_trap>

800059ac <inst_689>:
800059ac:	00100513          	li	a0,1
800059b0:	000105b7          	lui	a1,0x10
800059b4:	00b53633          	sltu	a2,a0,a1
800059b8:	26c72e23          	sw	a2,636(a4)
800059bc:	00100093          	li	ra,1
800059c0:	38c09a63          	bne	ra,a2,80005d54 <bad_trap>

800059c4 <inst_690>:
800059c4:	00010537          	lui	a0,0x10
800059c8:	00300593          	li	a1,3
800059cc:	00b53633          	sltu	a2,a0,a1
800059d0:	28c72023          	sw	a2,640(a4)
800059d4:	00000093          	li	ra,0
800059d8:	36c09e63          	bne	ra,a2,80005d54 <bad_trap>

800059dc <inst_691>:
800059dc:	00010537          	lui	a0,0x10
800059e0:	555555b7          	lui	a1,0x55555
800059e4:	55558593          	addi	a1,a1,1365 # 55555555 <absimm+0x10263026>
800059e8:	00b53633          	sltu	a2,a0,a1
800059ec:	28c72223          	sw	a2,644(a4)
800059f0:	00100093          	li	ra,1
800059f4:	36c09063          	bne	ra,a2,80005d54 <bad_trap>

800059f8 <inst_692>:
800059f8:	00010537          	lui	a0,0x10
800059fc:	aaaab5b7          	lui	a1,0xaaaab
80005a00:	aaa58593          	addi	a1,a1,-1366 # aaaaaaaa <imm12+0xaaaaafda>
80005a04:	00b53633          	sltu	a2,a0,a1
80005a08:	28c72423          	sw	a2,648(a4)
80005a0c:	00100093          	li	ra,1
80005a10:	34c09263          	bne	ra,a2,80005d54 <bad_trap>

80005a14 <inst_693>:
80005a14:	00010537          	lui	a0,0x10
80005a18:	333335b7          	lui	a1,0x33333
80005a1c:	33358593          	addi	a1,a1,819 # 33333333 <offset+0x33333033>
80005a20:	00b53633          	sltu	a2,a0,a1
80005a24:	28c72623          	sw	a2,652(a4)
80005a28:	00100093          	li	ra,1
80005a2c:	32c09463          	bne	ra,a2,80005d54 <bad_trap>

80005a30 <inst_694>:
80005a30:	00010537          	lui	a0,0x10
80005a34:	666665b7          	lui	a1,0x66666
80005a38:	66658593          	addi	a1,a1,1638 # 66666666 <absimm+0x21374137>
80005a3c:	00b53633          	sltu	a2,a0,a1
80005a40:	28c72823          	sw	a2,656(a4)
80005a44:	00100093          	li	ra,1
80005a48:	30c09663          	bne	ra,a2,80005d54 <bad_trap>

80005a4c <inst_695>:
80005a4c:	00010537          	lui	a0,0x10
80005a50:	0000b5b7          	lui	a1,0xb
80005a54:	50458593          	addi	a1,a1,1284 # b504 <offset+0xb204>
80005a58:	00b53633          	sltu	a2,a0,a1
80005a5c:	28c72a23          	sw	a2,660(a4)
80005a60:	00000093          	li	ra,0
80005a64:	2ec09863          	bne	ra,a2,80005d54 <bad_trap>

80005a68 <inst_696>:
80005a68:	00010537          	lui	a0,0x10
80005a6c:	00000593          	li	a1,0
80005a70:	00b53633          	sltu	a2,a0,a1
80005a74:	28c72c23          	sw	a2,664(a4)
80005a78:	00000093          	li	ra,0
80005a7c:	2cc09c63          	bne	ra,a2,80005d54 <bad_trap>

80005a80 <inst_697>:
80005a80:	00010537          	lui	a0,0x10
80005a84:	000105b7          	lui	a1,0x10
80005a88:	fff58593          	addi	a1,a1,-1 # ffff <offset+0xfcff>
80005a8c:	00b53633          	sltu	a2,a0,a1
80005a90:	28c72e23          	sw	a2,668(a4)
80005a94:	00000093          	li	ra,0
80005a98:	2ac09e63          	bne	ra,a2,80005d54 <bad_trap>

80005a9c <inst_698>:
80005a9c:	00010537          	lui	a0,0x10
80005aa0:	00200593          	li	a1,2
80005aa4:	00b53633          	sltu	a2,a0,a1
80005aa8:	2ac72023          	sw	a2,672(a4)
80005aac:	00000093          	li	ra,0
80005ab0:	2ac09263          	bne	ra,a2,80005d54 <bad_trap>

80005ab4 <inst_699>:
80005ab4:	00010537          	lui	a0,0x10
80005ab8:	555555b7          	lui	a1,0x55555
80005abc:	55458593          	addi	a1,a1,1364 # 55555554 <absimm+0x10263025>
80005ac0:	00b53633          	sltu	a2,a0,a1
80005ac4:	2ac72223          	sw	a2,676(a4)
80005ac8:	00100093          	li	ra,1
80005acc:	28c09463          	bne	ra,a2,80005d54 <bad_trap>

80005ad0 <inst_700>:
80005ad0:	00010537          	lui	a0,0x10
80005ad4:	aaaab5b7          	lui	a1,0xaaaab
80005ad8:	aa958593          	addi	a1,a1,-1367 # aaaaaaa9 <imm12+0xaaaaafd9>
80005adc:	00b53633          	sltu	a2,a0,a1
80005ae0:	2ac72423          	sw	a2,680(a4)
80005ae4:	00100093          	li	ra,1
80005ae8:	26c09663          	bne	ra,a2,80005d54 <bad_trap>

80005aec <inst_701>:
80005aec:	00010537          	lui	a0,0x10
80005af0:	00400593          	li	a1,4
80005af4:	00b53633          	sltu	a2,a0,a1
80005af8:	2ac72623          	sw	a2,684(a4)
80005afc:	00000093          	li	ra,0
80005b00:	24c09a63          	bne	ra,a2,80005d54 <bad_trap>

80005b04 <inst_702>:
80005b04:	00010537          	lui	a0,0x10
80005b08:	333335b7          	lui	a1,0x33333
80005b0c:	33258593          	addi	a1,a1,818 # 33333332 <offset+0x33333032>
80005b10:	00b53633          	sltu	a2,a0,a1
80005b14:	2ac72823          	sw	a2,688(a4)
80005b18:	00100093          	li	ra,1
80005b1c:	22c09c63          	bne	ra,a2,80005d54 <bad_trap>

80005b20 <inst_703>:
80005b20:	00010537          	lui	a0,0x10
80005b24:	666665b7          	lui	a1,0x66666
80005b28:	66558593          	addi	a1,a1,1637 # 66666665 <absimm+0x21374136>
80005b2c:	00b53633          	sltu	a2,a0,a1
80005b30:	2ac72a23          	sw	a2,692(a4)
80005b34:	00100093          	li	ra,1
80005b38:	20c09e63          	bne	ra,a2,80005d54 <bad_trap>

80005b3c <inst_704>:
80005b3c:	00010537          	lui	a0,0x10
80005b40:	0000b5b7          	lui	a1,0xb
80005b44:	50358593          	addi	a1,a1,1283 # b503 <offset+0xb203>
80005b48:	00b53633          	sltu	a2,a0,a1
80005b4c:	2ac72c23          	sw	a2,696(a4)
80005b50:	00000093          	li	ra,0
80005b54:	20c09063          	bne	ra,a2,80005d54 <bad_trap>

80005b58 <inst_705>:
80005b58:	00010537          	lui	a0,0x10
80005b5c:	000105b7          	lui	a1,0x10
80005b60:	ffe58593          	addi	a1,a1,-2 # fffe <offset+0xfcfe>
80005b64:	00b53633          	sltu	a2,a0,a1
80005b68:	2ac72e23          	sw	a2,700(a4)
80005b6c:	00000093          	li	ra,0
80005b70:	1ec09263          	bne	ra,a2,80005d54 <bad_trap>

80005b74 <inst_706>:
80005b74:	00010537          	lui	a0,0x10
80005b78:	555555b7          	lui	a1,0x55555
80005b7c:	55658593          	addi	a1,a1,1366 # 55555556 <absimm+0x10263027>
80005b80:	00b53633          	sltu	a2,a0,a1
80005b84:	2cc72023          	sw	a2,704(a4)
80005b88:	00100093          	li	ra,1
80005b8c:	1cc09463          	bne	ra,a2,80005d54 <bad_trap>

80005b90 <inst_707>:
80005b90:	00010537          	lui	a0,0x10
80005b94:	aaaab5b7          	lui	a1,0xaaaab
80005b98:	aab58593          	addi	a1,a1,-1365 # aaaaaaab <imm12+0xaaaaafdb>
80005b9c:	00b53633          	sltu	a2,a0,a1
80005ba0:	2cc72223          	sw	a2,708(a4)
80005ba4:	00100093          	li	ra,1
80005ba8:	1ac09663          	bne	ra,a2,80005d54 <bad_trap>

80005bac <inst_708>:
80005bac:	00010537          	lui	a0,0x10
80005bb0:	00600593          	li	a1,6
80005bb4:	00b53633          	sltu	a2,a0,a1
80005bb8:	2cc72423          	sw	a2,712(a4)
80005bbc:	00000093          	li	ra,0
80005bc0:	18c09a63          	bne	ra,a2,80005d54 <bad_trap>

80005bc4 <inst_709>:
80005bc4:	00010537          	lui	a0,0x10
80005bc8:	333335b7          	lui	a1,0x33333
80005bcc:	33458593          	addi	a1,a1,820 # 33333334 <offset+0x33333034>
80005bd0:	00b53633          	sltu	a2,a0,a1
80005bd4:	2cc72623          	sw	a2,716(a4)
80005bd8:	00100093          	li	ra,1
80005bdc:	16c09c63          	bne	ra,a2,80005d54 <bad_trap>

80005be0 <inst_710>:
80005be0:	00010537          	lui	a0,0x10
80005be4:	666665b7          	lui	a1,0x66666
80005be8:	66758593          	addi	a1,a1,1639 # 66666667 <absimm+0x21374138>
80005bec:	00b53633          	sltu	a2,a0,a1
80005bf0:	2cc72823          	sw	a2,720(a4)
80005bf4:	00100093          	li	ra,1
80005bf8:	14c09e63          	bne	ra,a2,80005d54 <bad_trap>

80005bfc <inst_711>:
80005bfc:	00010537          	lui	a0,0x10
80005c00:	0000b5b7          	lui	a1,0xb
80005c04:	50558593          	addi	a1,a1,1285 # b505 <offset+0xb205>
80005c08:	00b53633          	sltu	a2,a0,a1
80005c0c:	2cc72a23          	sw	a2,724(a4)
80005c10:	00000093          	li	ra,0
80005c14:	14c09063          	bne	ra,a2,80005d54 <bad_trap>

80005c18 <inst_712>:
80005c18:	00010537          	lui	a0,0x10
80005c1c:	00100593          	li	a1,1
80005c20:	00b53633          	sltu	a2,a0,a1
80005c24:	2cc72c23          	sw	a2,728(a4)
80005c28:	00000093          	li	ra,0
80005c2c:	12c09463          	bne	ra,a2,80005d54 <bad_trap>

80005c30 <inst_713>:
80005c30:	00010537          	lui	a0,0x10
80005c34:	000105b7          	lui	a1,0x10
80005c38:	00b53633          	sltu	a2,a0,a1
80005c3c:	2cc72e23          	sw	a2,732(a4)
80005c40:	00000093          	li	ra,0
80005c44:	10c09863          	bne	ra,a2,80005d54 <bad_trap>

80005c48 <inst_714>:
80005c48:	66666537          	lui	a0,0x66666
80005c4c:	66550513          	addi	a0,a0,1637 # 66666665 <absimm+0x21374136>
80005c50:	00600593          	li	a1,6
80005c54:	00b53633          	sltu	a2,a0,a1
80005c58:	2ec72023          	sw	a2,736(a4)
80005c5c:	00000093          	li	ra,0
80005c60:	0ec09a63          	bne	ra,a2,80005d54 <bad_trap>

80005c64 <inst_715>:
80005c64:	66666537          	lui	a0,0x66666
80005c68:	66550513          	addi	a0,a0,1637 # 66666665 <absimm+0x21374136>
80005c6c:	333335b7          	lui	a1,0x33333
80005c70:	33458593          	addi	a1,a1,820 # 33333334 <offset+0x33333034>
80005c74:	00b53633          	sltu	a2,a0,a1
80005c78:	2ec72223          	sw	a2,740(a4)
80005c7c:	00000093          	li	ra,0
80005c80:	0cc09a63          	bne	ra,a2,80005d54 <bad_trap>

80005c84 <inst_716>:
80005c84:	66666537          	lui	a0,0x66666
80005c88:	66550513          	addi	a0,a0,1637 # 66666665 <absimm+0x21374136>
80005c8c:	666665b7          	lui	a1,0x66666
80005c90:	66758593          	addi	a1,a1,1639 # 66666667 <absimm+0x21374138>
80005c94:	00b53633          	sltu	a2,a0,a1
80005c98:	2ec72423          	sw	a2,744(a4)
80005c9c:	00100093          	li	ra,1
80005ca0:	0ac09a63          	bne	ra,a2,80005d54 <bad_trap>

80005ca4 <inst_717>:
80005ca4:	66666537          	lui	a0,0x66666
80005ca8:	66550513          	addi	a0,a0,1637 # 66666665 <absimm+0x21374136>
80005cac:	0000b5b7          	lui	a1,0xb
80005cb0:	50558593          	addi	a1,a1,1285 # b505 <offset+0xb205>
80005cb4:	00b53633          	sltu	a2,a0,a1
80005cb8:	2ec72623          	sw	a2,748(a4)
80005cbc:	00000093          	li	ra,0
80005cc0:	08c09a63          	bne	ra,a2,80005d54 <bad_trap>

80005cc4 <inst_718>:
80005cc4:	00001537          	lui	a0,0x1
80005cc8:	80050513          	addi	a0,a0,-2048 # 800 <offset+0x500>
80005ccc:	ffe00593          	li	a1,-2
80005cd0:	00b53633          	sltu	a2,a0,a1
80005cd4:	2ec72823          	sw	a2,752(a4)
80005cd8:	00100093          	li	ra,1
80005cdc:	06c09c63          	bne	ra,a2,80005d54 <bad_trap>

80005ce0 <inst_719>:
80005ce0:	00100537          	lui	a0,0x100
80005ce4:	001005b7          	lui	a1,0x100
80005ce8:	00b53633          	sltu	a2,a0,a1
80005cec:	2ec72a23          	sw	a2,756(a4)
80005cf0:	00000093          	li	ra,0
80005cf4:	06c09063          	bne	ra,a2,80005d54 <bad_trap>

80005cf8 <inst_720>:
80005cf8:	00400513          	li	a0,4
80005cfc:	00200593          	li	a1,2
80005d00:	00b53633          	sltu	a2,a0,a1
80005d04:	2ec72c23          	sw	a2,760(a4)
80005d08:	00000093          	li	ra,0
80005d0c:	04c09463          	bne	ra,a2,80005d54 <bad_trap>

80005d10 <inst_721>:
80005d10:	e0000537          	lui	a0,0xe0000
80005d14:	fff50513          	addi	a0,a0,-1 # dfffffff <imm12+0xe000052f>
80005d18:	000105b7          	lui	a1,0x10
80005d1c:	00b53633          	sltu	a2,a0,a1
80005d20:	2ec72e23          	sw	a2,764(a4)
80005d24:	00000093          	li	ra,0
80005d28:	02c09663          	bne	ra,a2,80005d54 <bad_trap>

80005d2c <cleanup_epilogs>:
80005d2c:	0200006f          	j	80005d4c <exit_cleanup>

80005d30 <abort_tests>:
80005d30:	17812483          	lw	s1,376(sp) # 1000178 <offset+0xfffe78>
80005d34:	18012303          	lw	t1,384(sp)
80005d38:	00930333          	add	t1,t1,s1
80005d3c:	bad0e337          	lui	t1,0xbad0e
80005d40:	ad030313          	addi	t1,t1,-1328 # bad0dad0 <imm12+0xbad0e000>
80005d44:	fe64ae23          	sw	t1,-4(s1)
80005d48:	0040006f          	j	80005d4c <exit_cleanup>

80005d4c <exit_cleanup>:
80005d4c:	00000513          	li	a0,0
80005d50:	010000ef          	jal	ra,80005d60 <halt>

80005d54 <bad_trap>:
80005d54:	00100513          	li	a0,1
80005d58:	008000ef          	jal	ra,80005d60 <halt>
80005d5c:	0000                	unimp
	...

80005d60 <halt>:
80005d60:	0000006f          	j	80005d60 <halt>

80005d64 <_trm_init>:
80005d64:	ff010113          	addi	sp,sp,-16
80005d68:	00000517          	auipc	a0,0x0
80005d6c:	01450513          	addi	a0,a0,20 # 80005d7c <_etext>
80005d70:	00112623          	sw	ra,12(sp)
80005d74:	a9cfa0ef          	jal	ra,80000010 <main>
80005d78:	0000006f          	j	80005d78 <_trm_init+0x14>
