
test/xori-riscv32-ni.elf:     file format elf32-littleriscv


Disassembly of section .text:

80000000 <_start>:
80000000:	00000413          	li	s0,0
80000004:	00017117          	auipc	sp,0x17
80000008:	ffc10113          	addi	sp,sp,-4 # 80017000 <_end>
8000000c:	100040ef          	jal	ra,8000410c <_trm_init>

80000010 <main>:
80000010:	010000ef          	jal	ra,80000020 <rvtest_entry_point>
80000014:	00000513          	li	a0,0
80000018:	00008067          	ret
8000001c:	0000                	unimp
	...

80000020 <rvtest_entry_point>:
80000020:	7d5c0837          	lui	a6,0x7d5c0
80000024:	ddb80813          	addi	a6,a6,-549 # 7d5bfddb <absimm+0x382cd8ac>
80000028:	00785893          	srli	a7,a6,0x7
8000002c:	01985793          	srli	a5,a6,0x19
80000030:	00f8e8b3          	or	a7,a7,a5
80000034:	0078d913          	srli	s2,a7,0x7
80000038:	0198d793          	srli	a5,a7,0x19
8000003c:	00f96933          	or	s2,s2,a5
80000040:	00795993          	srli	s3,s2,0x7
80000044:	01995793          	srli	a5,s2,0x19
80000048:	00f9e9b3          	or	s3,s3,a5
8000004c:	0079da13          	srli	s4,s3,0x7
80000050:	0199d793          	srli	a5,s3,0x19
80000054:	00fa6a33          	or	s4,s4,a5
80000058:	007a5a93          	srli	s5,s4,0x7
8000005c:	019a5793          	srli	a5,s4,0x19
80000060:	00faeab3          	or	s5,s5,a5
80000064:	007adb13          	srli	s6,s5,0x7
80000068:	019ad793          	srli	a5,s5,0x19
8000006c:	00fb6b33          	or	s6,s6,a5
80000070:	007b5b93          	srli	s7,s6,0x7
80000074:	019b5793          	srli	a5,s6,0x19
80000078:	00fbebb3          	or	s7,s7,a5
8000007c:	007bdc13          	srli	s8,s7,0x7
80000080:	019bd793          	srli	a5,s7,0x19
80000084:	00fc6c33          	or	s8,s8,a5
80000088:	007c5c93          	srli	s9,s8,0x7
8000008c:	019c5793          	srli	a5,s8,0x19
80000090:	00fcecb3          	or	s9,s9,a5
80000094:	007cdd13          	srli	s10,s9,0x7
80000098:	019cd793          	srli	a5,s9,0x19
8000009c:	00fd6d33          	or	s10,s10,a5
800000a0:	007d5d93          	srli	s11,s10,0x7
800000a4:	019d5793          	srli	a5,s10,0x19
800000a8:	00fdedb3          	or	s11,s11,a5
800000ac:	007dde13          	srli	t3,s11,0x7
800000b0:	019dd793          	srli	a5,s11,0x19
800000b4:	00fe6e33          	or	t3,t3,a5
800000b8:	007e5e93          	srli	t4,t3,0x7
800000bc:	019e5793          	srli	a5,t3,0x19
800000c0:	00feeeb3          	or	t4,t4,a5
800000c4:	007edf13          	srli	t5,t4,0x7
800000c8:	019ed793          	srli	a5,t4,0x19
800000cc:	00ff6f33          	or	t5,t5,a5
800000d0:	feedc0b7          	lui	ra,0xfeedc
800000d4:	ead08093          	addi	ra,ra,-339 # feedbead <imm12+0xfeedc3dd>
800000d8:	0070d113          	srli	sp,ra,0x7
800000dc:	0190d793          	srli	a5,ra,0x19
800000e0:	00f16133          	or	sp,sp,a5
800000e4:	00715193          	srli	gp,sp,0x7
800000e8:	01915793          	srli	a5,sp,0x19
800000ec:	00f1e1b3          	or	gp,gp,a5
800000f0:	0071d213          	srli	tp,gp,0x7
800000f4:	0191d793          	srli	a5,gp,0x19
800000f8:	00f26233          	or	tp,tp,a5
800000fc:	00725293          	srli	t0,tp,0x7
80000100:	01925793          	srli	a5,tp,0x19
80000104:	00f2e2b3          	or	t0,t0,a5
80000108:	0072d313          	srli	t1,t0,0x7
8000010c:	0192d793          	srli	a5,t0,0x19
80000110:	00f36333          	or	t1,t1,a5
80000114:	00735393          	srli	t2,t1,0x7
80000118:	01935793          	srli	a5,t1,0x19
8000011c:	00f3e3b3          	or	t2,t2,a5
80000120:	0073d413          	srli	s0,t2,0x7
80000124:	0193d793          	srli	a5,t2,0x19
80000128:	00f46433          	or	s0,s0,a5
8000012c:	00745493          	srli	s1,s0,0x7
80000130:	01945793          	srli	a5,s0,0x19
80000134:	00f4e4b3          	or	s1,s1,a5
80000138:	0074d513          	srli	a0,s1,0x7
8000013c:	0194d793          	srli	a5,s1,0x19
80000140:	00f56533          	or	a0,a0,a5
80000144:	00755593          	srli	a1,a0,0x7
80000148:	01955793          	srli	a5,a0,0x19
8000014c:	00f5e5b3          	or	a1,a1,a5
80000150:	0075d613          	srli	a2,a1,0x7
80000154:	0195d793          	srli	a5,a1,0x19
80000158:	00f66633          	or	a2,a2,a5
8000015c:	00765693          	srli	a3,a2,0x7
80000160:	01965793          	srli	a5,a2,0x19
80000164:	00f6e6b3          	or	a3,a3,a5

80000168 <rvtest_code_begin>:
80000168:	00000013          	nop
8000016c:	00000013          	nop
80000170:	00000013          	nop
80000174:	00000013          	nop
80000178:	00000013          	nop
8000017c:	00000013          	nop
80000180:	00006117          	auipc	sp,0x6
80000184:	e8410113          	addi	sp,sp,-380 # 80006004 <signature_x2_0>
80000188:	00000013          	nop
8000018c:	00000013          	nop
80000190:	00000013          	nop
80000194:	00000013          	nop
80000198:	00000013          	nop
8000019c:	00000013          	nop

800001a0 <inst_0>:
800001a0:	33333c37          	lui	s8,0x33333
800001a4:	334c0c13          	addi	s8,s8,820 # 33333334 <offset+0x333332b4>
800001a8:	800c4513          	xori	a0,s8,-2048
800001ac:	00a12023          	sw	a0,0(sp)
800001b0:	ccccd6b7          	lui	a3,0xccccd
800001b4:	b3468693          	addi	a3,a3,-1228 # cccccb34 <imm12+0xccccd064>
800001b8:	00a68463          	beq	a3,a0,800001c0 <inst_1>
800001bc:	72d0306f          	j	800040e8 <bad_trap>

800001c0 <inst_1>:
800001c0:	00400913          	li	s2,4
800001c4:	00094913          	xori	s2,s2,0
800001c8:	01212223          	sw	s2,4(sp)
800001cc:	00400693          	li	a3,4
800001d0:	01268463          	beq	a3,s2,800001d8 <inst_2>
800001d4:	7150306f          	j	800040e8 <bad_trap>

800001d8 <inst_2>:
800001d8:	ffc00793          	li	a5,-4
800001dc:	7ff7cc13          	xori	s8,a5,2047
800001e0:	01812423          	sw	s8,8(sp)
800001e4:	80300693          	li	a3,-2045
800001e8:	01868463          	beq	a3,s8,800001f0 <inst_3>
800001ec:	6fd0306f          	j	800040e8 <bad_trap>

800001f0 <inst_3>:
800001f0:	00200593          	li	a1,2
800001f4:	0015ca13          	xori	s4,a1,1
800001f8:	01412623          	sw	s4,12(sp)
800001fc:	00300693          	li	a3,3
80000200:	01468463          	beq	a3,s4,80000208 <inst_4>
80000204:	6e50306f          	j	800040e8 <bad_trap>

80000208 <inst_4>:
80000208:	800003b7          	lui	t2,0x80000
8000020c:	5543ca93          	xori	s5,t2,1364
80000210:	01512823          	sw	s5,16(sp)
80000214:	800006b7          	lui	a3,0x80000
80000218:	55468693          	addi	a3,a3,1364 # 80000554 <imm12+0x80000a84>
8000021c:	01568463          	beq	a3,s5,80000224 <inst_5>
80000220:	6c90306f          	j	800040e8 <bad_trap>

80000224 <inst_5>:
80000224:	00000893          	li	a7,0
80000228:	bff8cd93          	xori	s11,a7,-1025
8000022c:	01b12a23          	sw	s11,20(sp)
80000230:	bff00693          	li	a3,-1025
80000234:	01b68463          	beq	a3,s11,8000023c <inst_6>
80000238:	6b10306f          	j	800040e8 <bad_trap>

8000023c <inst_6>:
8000023c:	80000b37          	lui	s6,0x80000
80000240:	fffb0b13          	addi	s6,s6,-1 # 7fffffff <imm12+0x8000052f>
80000244:	ff6b4093          	xori	ra,s6,-10
80000248:	00112c23          	sw	ra,24(sp)
8000024c:	800006b7          	lui	a3,0x80000
80000250:	00968693          	addi	a3,a3,9 # 80000009 <imm12+0x80000539>
80000254:	00168463          	beq	a3,ra,8000025c <inst_7>
80000258:	6910306f          	j	800040e8 <bad_trap>

8000025c <inst_7>:
8000025c:	00100a13          	li	s4,1
80000260:	004a4b13          	xori	s6,s4,4
80000264:	01612e23          	sw	s6,28(sp)
80000268:	00500693          	li	a3,5
8000026c:	01668463          	beq	a3,s6,80000274 <inst_8>
80000270:	6790306f          	j	800040e8 <bad_trap>

80000274 <inst_8>:
80000274:	dff00993          	li	s3,-513
80000278:	dff9cf93          	xori	t6,s3,-513
8000027c:	03f12023          	sw	t6,32(sp)
80000280:	00000693          	li	a3,0
80000284:	01f68463          	beq	a3,t6,8000028c <inst_9>
80000288:	6610306f          	j	800040e8 <bad_trap>

8000028c <inst_9>:
8000028c:	fdf00493          	li	s1,-33
80000290:	0024c293          	xori	t0,s1,2
80000294:	02512223          	sw	t0,36(sp)
80000298:	fdd00693          	li	a3,-35
8000029c:	00568463          	beq	a3,t0,800002a4 <inst_10>
800002a0:	6490306f          	j	800040e8 <bad_trap>

800002a4 <inst_10>:
800002a4:	80000e37          	lui	t3,0x80000
800002a8:	008e4e93          	xori	t4,t3,8
800002ac:	03d12423          	sw	t4,40(sp)
800002b0:	800006b7          	lui	a3,0x80000
800002b4:	00868693          	addi	a3,a3,8 # 80000008 <imm12+0x80000538>
800002b8:	01d68463          	beq	a3,t4,800002c0 <inst_11>
800002bc:	62d0306f          	j	800040e8 <bad_trap>

800002c0 <inst_11>:
800002c0:	c0000f37          	lui	t5,0xc0000
800002c4:	ffff0f13          	addi	t5,t5,-1 # bfffffff <imm12+0xc000052f>
800002c8:	010f4213          	xori	tp,t5,16
800002cc:	02412623          	sw	tp,44(sp)
800002d0:	c00006b7          	lui	a3,0xc0000
800002d4:	fef68693          	addi	a3,a3,-17 # bfffffef <imm12+0xc000051f>
800002d8:	00468463          	beq	a3,tp,800002e0 <inst_12>
800002dc:	60d0306f          	j	800040e8 <bad_trap>

800002e0 <inst_12>:
800002e0:	80000db7          	lui	s11,0x80000
800002e4:	fffd8d93          	addi	s11,s11,-1 # 7fffffff <imm12+0x8000052f>
800002e8:	020dc413          	xori	s0,s11,32
800002ec:	02812823          	sw	s0,48(sp)
800002f0:	800006b7          	lui	a3,0x80000
800002f4:	fdf68693          	addi	a3,a3,-33 # 7fffffdf <imm12+0x8000050f>
800002f8:	00868463          	beq	a3,s0,80000300 <inst_13>
800002fc:	5ed0306f          	j	800040e8 <bad_trap>

80000300 <inst_13>:
80000300:	666661b7          	lui	gp,0x66666
80000304:	66618193          	addi	gp,gp,1638 # 66666666 <absimm+0x21374137>
80000308:	0401cc93          	xori	s9,gp,64
8000030c:	03912a23          	sw	s9,52(sp)
80000310:	666666b7          	lui	a3,0x66666
80000314:	62668693          	addi	a3,a3,1574 # 66666626 <absimm+0x213740f7>
80000318:	01968463          	beq	a3,s9,80000320 <inst_14>
8000031c:	5cd0306f          	j	800040e8 <bad_trap>

80000320 <inst_14>:
80000320:	fff80fb7          	lui	t6,0xfff80
80000324:	ffff8f93          	addi	t6,t6,-1 # fff7ffff <imm12+0xfff8052f>
80000328:	080fc893          	xori	a7,t6,128
8000032c:	03112c23          	sw	a7,56(sp)
80000330:	fff806b7          	lui	a3,0xfff80
80000334:	f7f68693          	addi	a3,a3,-129 # fff7ff7f <imm12+0xfff804af>
80000338:	01168463          	beq	a3,a7,80000340 <inst_15>
8000033c:	5ad0306f          	j	800040e8 <bad_trap>

80000340 <inst_15>:
80000340:	ffff5eb7          	lui	t4,0xffff5
80000344:	afce8e93          	addi	t4,t4,-1284 # ffff4afc <imm12+0xffff502c>
80000348:	100ec813          	xori	a6,t4,256
8000034c:	03012e23          	sw	a6,60(sp)
80000350:	ffff56b7          	lui	a3,0xffff5
80000354:	bfc68693          	addi	a3,a3,-1028 # ffff4bfc <imm12+0xffff512c>
80000358:	01068463          	beq	a3,a6,80000360 <inst_16>
8000035c:	58d0306f          	j	800040e8 <bad_trap>

80000360 <inst_16>:
80000360:	00000213          	li	tp,0
80000364:	20024313          	xori	t1,tp,512
80000368:	04612023          	sw	t1,64(sp)
8000036c:	20000693          	li	a3,512
80000370:	00668463          	beq	a3,t1,80000378 <inst_17>
80000374:	5750306f          	j	800040e8 <bad_trap>

80000378 <inst_17>:
80000378:	fff00737          	lui	a4,0xfff00
8000037c:	fff70713          	addi	a4,a4,-1 # ffefffff <imm12+0xfff0052f>
80000380:	40074193          	xori	gp,a4,1024
80000384:	04312223          	sw	gp,68(sp)
80000388:	fff006b7          	lui	a3,0xfff00
8000038c:	bff68693          	addi	a3,a3,-1025 # ffeffbff <imm12+0xfff0012f>
80000390:	00368463          	beq	a3,gp,80000398 <inst_18>
80000394:	5550306f          	j	800040e8 <bad_trap>

80000398 <inst_18>:
80000398:	ff900613          	li	a2,-7
8000039c:	ffe64793          	xori	a5,a2,-2
800003a0:	04f12423          	sw	a5,72(sp)
800003a4:	00700693          	li	a3,7
800003a8:	00f68463          	beq	a3,a5,800003b0 <inst_19>
800003ac:	53d0306f          	j	800040e8 <bad_trap>

800003b0 <inst_19>:
800003b0:	00500a93          	li	s5,5
800003b4:	ffdac493          	xori	s1,s5,-3
800003b8:	04912623          	sw	s1,76(sp)
800003bc:	ff800213          	li	tp,-8
800003c0:	00920463          	beq	tp,s1,800003c8 <inst_20>
800003c4:	5250306f          	j	800040e8 <bad_trap>

800003c8 <inst_20>:
800003c8:	ffff5537          	lui	a0,0xffff5
800003cc:	afc50513          	addi	a0,a0,-1284 # ffff4afc <imm12+0xffff502c>
800003d0:	ffb54993          	xori	s3,a0,-5
800003d4:	05312823          	sw	s3,80(sp)
800003d8:	0000b237          	lui	tp,0xb
800003dc:	50720213          	addi	tp,tp,1287 # b507 <offset+0xb487>
800003e0:	01320463          	beq	tp,s3,800003e8 <inst_21>
800003e4:	5050306f          	j	800040e8 <bad_trap>

800003e8 <inst_21>:
800003e8:	00100813          	li	a6,1
800003ec:	ff784d13          	xori	s10,a6,-9
800003f0:	05a12a23          	sw	s10,84(sp)
800003f4:	ff600213          	li	tp,-10
800003f8:	01a20463          	beq	tp,s10,80000400 <inst_21+0x18>
800003fc:	4ed0306f          	j	800040e8 <bad_trap>
80000400:	00006197          	auipc	gp,0x6
80000404:	c5c18193          	addi	gp,gp,-932 # 8000605c <signature_x3_0>
80000408:	00000013          	nop
8000040c:	00000013          	nop
80000410:	00000013          	nop
80000414:	00000013          	nop
80000418:	00000013          	nop
8000041c:	00000013          	nop

80000420 <inst_22>:
80000420:	66666d37          	lui	s10,0x66666
80000424:	667d0d13          	addi	s10,s10,1639 # 66666667 <absimm+0x21374138>
80000428:	fefd4f13          	xori	t5,s10,-17
8000042c:	01e1a023          	sw	t5,0(gp)
80000430:	9999a237          	lui	tp,0x9999a
80000434:	98820213          	addi	tp,tp,-1656 # 99999988 <imm12+0x99999eb8>
80000438:	01e20463          	beq	tp,t5,80000440 <inst_23>
8000043c:	4ad0306f          	j	800040e8 <bad_trap>

80000440 <inst_23>:
80000440:	fbf00093          	li	ra,-65
80000444:	fdf0cb93          	xori	s7,ra,-33
80000448:	0171a223          	sw	s7,4(gp)
8000044c:	06000213          	li	tp,96
80000450:	01720463          	beq	tp,s7,80000458 <inst_24>
80000454:	4950306f          	j	800040e8 <bad_trap>

80000458 <inst_24>:
80000458:	fff00313          	li	t1,-1
8000045c:	fbf34013          	xori	zero,t1,-65
80000460:	0001a423          	sw	zero,8(gp)
80000464:	00000213          	li	tp,0
80000468:	00020463          	beqz	tp,80000470 <inst_25>
8000046c:	47d0306f          	j	800040e8 <bad_trap>

80000470 <inst_25>:
80000470:	55555137          	lui	sp,0x55555
80000474:	55510113          	addi	sp,sp,1365 # 55555555 <absimm+0x10263026>
80000478:	f7f14393          	xori	t2,sp,-129
8000047c:	0071a623          	sw	t2,12(gp)
80000480:	aaaab237          	lui	tp,0xaaaab
80000484:	a2a20213          	addi	tp,tp,-1494 # aaaaaa2a <imm12+0xaaaaaf5a>
80000488:	00720463          	beq	tp,t2,80000490 <inst_26>
8000048c:	45d0306f          	j	800040e8 <bad_trap>

80000490 <inst_26>:
80000490:	00000013          	nop
80000494:	eff04713          	xori	a4,zero,-257
80000498:	00e1a823          	sw	a4,16(gp)
8000049c:	eff00213          	li	tp,-257
800004a0:	00e20463          	beq	tp,a4,800004a8 <inst_27>
800004a4:	4450306f          	j	800040e8 <bad_trap>

800004a8 <inst_27>:
800004a8:	40000437          	lui	s0,0x40000
800004ac:	fff40413          	addi	s0,s0,-1 # 3fffffff <offset+0x3fffff7f>
800004b0:	55544693          	xori	a3,s0,1365
800004b4:	00d1aa23          	sw	a3,20(gp)
800004b8:	40000237          	lui	tp,0x40000
800004bc:	aaa20213          	addi	tp,tp,-1366 # 3ffffaaa <offset+0x3ffffa2a>
800004c0:	00d20463          	beq	tp,a3,800004c8 <inst_28>
800004c4:	4250306f          	j	800040e8 <bad_trap>

800004c8 <inst_28>:
800004c8:	ff900c93          	li	s9,-7
800004cc:	aaacc613          	xori	a2,s9,-1366
800004d0:	00c1ac23          	sw	a2,24(gp)
800004d4:	55300213          	li	tp,1363
800004d8:	00c20463          	beq	tp,a2,800004e0 <inst_29>
800004dc:	40d0306f          	j	800040e8 <bad_trap>

800004e0 <inst_29>:
800004e0:	00800693          	li	a3,8
800004e4:	0006c593          	xori	a1,a3,0
800004e8:	00b1ae23          	sw	a1,28(gp)
800004ec:	00800213          	li	tp,8
800004f0:	00b20463          	beq	tp,a1,800004f8 <inst_30>
800004f4:	3f50306f          	j	800040e8 <bad_trap>

800004f8 <inst_30>:
800004f8:	01000b93          	li	s7,16
800004fc:	001bc113          	xori	sp,s7,1
80000500:	0221a023          	sw	sp,32(gp)
80000504:	01100213          	li	tp,17
80000508:	00220463          	beq	tp,sp,80000510 <inst_31>
8000050c:	3dd0306f          	j	800040e8 <bad_trap>

80000510 <inst_31>:
80000510:	02000293          	li	t0,32
80000514:	5552ce13          	xori	t3,t0,1365
80000518:	03c1a223          	sw	t3,36(gp)
8000051c:	57500213          	li	tp,1397
80000520:	01c20463          	beq	tp,t3,80000528 <inst_32>
80000524:	3c50306f          	j	800040e8 <bad_trap>

80000528 <inst_32>:
80000528:	04000513          	li	a0,64
8000052c:	10054593          	xori	a1,a0,256
80000530:	02b1a423          	sw	a1,40(gp)
80000534:	14000213          	li	tp,320
80000538:	00b20463          	beq	tp,a1,80000540 <inst_33>
8000053c:	3ad0306f          	j	800040e8 <bad_trap>

80000540 <inst_33>:
80000540:	08000513          	li	a0,128
80000544:	00554593          	xori	a1,a0,5
80000548:	02b1a623          	sw	a1,44(gp)
8000054c:	08500213          	li	tp,133
80000550:	00b20463          	beq	tp,a1,80000558 <inst_34>
80000554:	3950306f          	j	800040e8 <bad_trap>

80000558 <inst_34>:
80000558:	10000513          	li	a0,256
8000055c:	fbf54593          	xori	a1,a0,-65
80000560:	02b1a823          	sw	a1,48(gp)
80000564:	ebf00213          	li	tp,-321
80000568:	00b20463          	beq	tp,a1,80000570 <inst_35>
8000056c:	37d0306f          	j	800040e8 <bad_trap>

80000570 <inst_35>:
80000570:	20000513          	li	a0,512
80000574:	00254593          	xori	a1,a0,2
80000578:	02b1aa23          	sw	a1,52(gp)
8000057c:	20200213          	li	tp,514
80000580:	00b20463          	beq	tp,a1,80000588 <inst_36>
80000584:	3650306f          	j	800040e8 <bad_trap>

80000588 <inst_36>:
80000588:	40000513          	li	a0,1024
8000058c:	aab54593          	xori	a1,a0,-1365
80000590:	02b1ac23          	sw	a1,56(gp)
80000594:	eab00213          	li	tp,-341
80000598:	00b20463          	beq	tp,a1,800005a0 <inst_37>
8000059c:	34d0306f          	j	800040e8 <bad_trap>

800005a0 <inst_37>:
800005a0:	00001537          	lui	a0,0x1
800005a4:	80050513          	addi	a0,a0,-2048 # 800 <offset+0x780>
800005a8:	00454593          	xori	a1,a0,4
800005ac:	02b1ae23          	sw	a1,60(gp)
800005b0:	00001237          	lui	tp,0x1
800005b4:	80420213          	addi	tp,tp,-2044 # 804 <offset+0x784>
800005b8:	00b20463          	beq	tp,a1,800005c0 <inst_38>
800005bc:	32d0306f          	j	800040e8 <bad_trap>

800005c0 <inst_38>:
800005c0:	00001537          	lui	a0,0x1
800005c4:	00854593          	xori	a1,a0,8
800005c8:	04b1a023          	sw	a1,64(gp)
800005cc:	00001237          	lui	tp,0x1
800005d0:	00820213          	addi	tp,tp,8 # 1008 <offset+0xf88>
800005d4:	00b20463          	beq	tp,a1,800005dc <inst_39>
800005d8:	3110306f          	j	800040e8 <bad_trap>

800005dc <inst_39>:
800005dc:	00002537          	lui	a0,0x2
800005e0:	55454593          	xori	a1,a0,1364
800005e4:	04b1a223          	sw	a1,68(gp)
800005e8:	00002237          	lui	tp,0x2
800005ec:	55420213          	addi	tp,tp,1364 # 2554 <offset+0x24d4>
800005f0:	00b20463          	beq	tp,a1,800005f8 <inst_40>
800005f4:	2f50306f          	j	800040e8 <bad_trap>

800005f8 <inst_40>:
800005f8:	00004537          	lui	a0,0x4
800005fc:	00454593          	xori	a1,a0,4
80000600:	04b1a423          	sw	a1,72(gp)
80000604:	00004237          	lui	tp,0x4
80000608:	00420213          	addi	tp,tp,4 # 4004 <offset+0x3f84>
8000060c:	00b20463          	beq	tp,a1,80000614 <inst_41>
80000610:	2d90306f          	j	800040e8 <bad_trap>

80000614 <inst_41>:
80000614:	00008537          	lui	a0,0x8
80000618:	7ff54593          	xori	a1,a0,2047
8000061c:	04b1a623          	sw	a1,76(gp)
80000620:	00008237          	lui	tp,0x8
80000624:	7ff20213          	addi	tp,tp,2047 # 87ff <offset+0x877f>
80000628:	00b20463          	beq	tp,a1,80000630 <inst_42>
8000062c:	2bd0306f          	j	800040e8 <bad_trap>

80000630 <inst_42>:
80000630:	00010537          	lui	a0,0x10
80000634:	04054593          	xori	a1,a0,64
80000638:	04b1a823          	sw	a1,80(gp)
8000063c:	00010237          	lui	tp,0x10
80000640:	04020213          	addi	tp,tp,64 # 10040 <offset+0xffc0>
80000644:	00b20463          	beq	tp,a1,8000064c <inst_43>
80000648:	2a10306f          	j	800040e8 <bad_trap>

8000064c <inst_43>:
8000064c:	00020537          	lui	a0,0x20
80000650:	02c54593          	xori	a1,a0,44
80000654:	04b1aa23          	sw	a1,84(gp)
80000658:	00020237          	lui	tp,0x20
8000065c:	02c20213          	addi	tp,tp,44 # 2002c <offset+0x1ffac>
80000660:	00b20463          	beq	tp,a1,80000668 <inst_44>
80000664:	2850306f          	j	800040e8 <bad_trap>

80000668 <inst_44>:
80000668:	00040537          	lui	a0,0x40
8000066c:	aaa54593          	xori	a1,a0,-1366
80000670:	04b1ac23          	sw	a1,88(gp)
80000674:	fffc0237          	lui	tp,0xfffc0
80000678:	aaa20213          	addi	tp,tp,-1366 # fffbfaaa <imm12+0xfffbffda>
8000067c:	00b20463          	beq	tp,a1,80000684 <inst_45>
80000680:	2690306f          	j	800040e8 <bad_trap>

80000684 <inst_45>:
80000684:	00080537          	lui	a0,0x80
80000688:	33354593          	xori	a1,a0,819
8000068c:	04b1ae23          	sw	a1,92(gp)
80000690:	00080237          	lui	tp,0x80
80000694:	33320213          	addi	tp,tp,819 # 80333 <offset+0x802b3>
80000698:	00b20463          	beq	tp,a1,800006a0 <inst_46>
8000069c:	24d0306f          	j	800040e8 <bad_trap>

800006a0 <inst_46>:
800006a0:	00100537          	lui	a0,0x100
800006a4:	ffa54593          	xori	a1,a0,-6
800006a8:	06b1a023          	sw	a1,96(gp)
800006ac:	fff00237          	lui	tp,0xfff00
800006b0:	ffa20213          	addi	tp,tp,-6 # ffeffffa <imm12+0xfff0052a>
800006b4:	00b20463          	beq	tp,a1,800006bc <inst_47>
800006b8:	2310306f          	j	800040e8 <bad_trap>

800006bc <inst_47>:
800006bc:	00200537          	lui	a0,0x200
800006c0:	ffd54593          	xori	a1,a0,-3
800006c4:	06b1a223          	sw	a1,100(gp)
800006c8:	ffe00237          	lui	tp,0xffe00
800006cc:	ffd20213          	addi	tp,tp,-3 # ffdffffd <imm12+0xffe0052d>
800006d0:	00b20463          	beq	tp,a1,800006d8 <inst_48>
800006d4:	2150306f          	j	800040e8 <bad_trap>

800006d8 <inst_48>:
800006d8:	00400537          	lui	a0,0x400
800006dc:	55554593          	xori	a1,a0,1365
800006e0:	06b1a423          	sw	a1,104(gp)
800006e4:	00400237          	lui	tp,0x400
800006e8:	55520213          	addi	tp,tp,1365 # 400555 <offset+0x4004d5>
800006ec:	00b20463          	beq	tp,a1,800006f4 <inst_49>
800006f0:	1f90306f          	j	800040e8 <bad_trap>

800006f4 <inst_49>:
800006f4:	00800537          	lui	a0,0x800
800006f8:	ff754593          	xori	a1,a0,-9
800006fc:	06b1a623          	sw	a1,108(gp)
80000700:	ff800237          	lui	tp,0xff800
80000704:	ff720213          	addi	tp,tp,-9 # ff7ffff7 <imm12+0xff800527>
80000708:	00b20463          	beq	tp,a1,80000710 <inst_50>
8000070c:	1dd0306f          	j	800040e8 <bad_trap>

80000710 <inst_50>:
80000710:	01000537          	lui	a0,0x1000
80000714:	00554593          	xori	a1,a0,5
80000718:	06b1a823          	sw	a1,112(gp)
8000071c:	01000237          	lui	tp,0x1000
80000720:	00520213          	addi	tp,tp,5 # 1000005 <offset+0xffff85>
80000724:	00b20463          	beq	tp,a1,8000072c <inst_51>
80000728:	1c10306f          	j	800040e8 <bad_trap>

8000072c <inst_51>:
8000072c:	02000537          	lui	a0,0x2000
80000730:	dff54593          	xori	a1,a0,-513
80000734:	06b1aa23          	sw	a1,116(gp)
80000738:	fe000237          	lui	tp,0xfe000
8000073c:	dff20213          	addi	tp,tp,-513 # fdfffdff <imm12+0xfe00032f>
80000740:	00b20463          	beq	tp,a1,80000748 <inst_52>
80000744:	1a50306f          	j	800040e8 <bad_trap>

80000748 <inst_52>:
80000748:	04000537          	lui	a0,0x4000
8000074c:	00054593          	xori	a1,a0,0
80000750:	06b1ac23          	sw	a1,120(gp)
80000754:	04000237          	lui	tp,0x4000
80000758:	00b20463          	beq	tp,a1,80000760 <inst_53>
8000075c:	18d0306f          	j	800040e8 <bad_trap>

80000760 <inst_53>:
80000760:	08000537          	lui	a0,0x8000
80000764:	33454593          	xori	a1,a0,820
80000768:	06b1ae23          	sw	a1,124(gp)
8000076c:	08000237          	lui	tp,0x8000
80000770:	33420213          	addi	tp,tp,820 # 8000334 <offset+0x80002b4>
80000774:	00b20463          	beq	tp,a1,8000077c <inst_54>
80000778:	1710306f          	j	800040e8 <bad_trap>

8000077c <inst_54>:
8000077c:	10000537          	lui	a0,0x10000
80000780:	fbf54593          	xori	a1,a0,-65
80000784:	08b1a023          	sw	a1,128(gp)
80000788:	f0000237          	lui	tp,0xf0000
8000078c:	fbf20213          	addi	tp,tp,-65 # efffffbf <imm12+0xf00004ef>
80000790:	00b20463          	beq	tp,a1,80000798 <inst_55>
80000794:	1550306f          	j	800040e8 <bad_trap>

80000798 <inst_55>:
80000798:	20000537          	lui	a0,0x20000
8000079c:	55554593          	xori	a1,a0,1365
800007a0:	08b1a223          	sw	a1,132(gp)
800007a4:	20000237          	lui	tp,0x20000
800007a8:	55520213          	addi	tp,tp,1365 # 20000555 <offset+0x200004d5>
800007ac:	00b20463          	beq	tp,a1,800007b4 <inst_56>
800007b0:	1390306f          	j	800040e8 <bad_trap>

800007b4 <inst_56>:
800007b4:	40000537          	lui	a0,0x40000
800007b8:	aaa54593          	xori	a1,a0,-1366
800007bc:	08b1a423          	sw	a1,136(gp)
800007c0:	c0000237          	lui	tp,0xc0000
800007c4:	aaa20213          	addi	tp,tp,-1366 # bffffaaa <imm12+0xbfffffda>
800007c8:	00b20463          	beq	tp,a1,800007d0 <inst_57>
800007cc:	11d0306f          	j	800040e8 <bad_trap>

800007d0 <inst_57>:
800007d0:	ffe00513          	li	a0,-2
800007d4:	00454593          	xori	a1,a0,4
800007d8:	08b1a623          	sw	a1,140(gp)
800007dc:	ffa00213          	li	tp,-6
800007e0:	00b20463          	beq	tp,a1,800007e8 <inst_58>
800007e4:	1050306f          	j	800040e8 <bad_trap>

800007e8 <inst_58>:
800007e8:	ffd00513          	li	a0,-3
800007ec:	ffd54593          	xori	a1,a0,-3
800007f0:	08b1a823          	sw	a1,144(gp)
800007f4:	00000213          	li	tp,0
800007f8:	00b20463          	beq	tp,a1,80000800 <inst_59>
800007fc:	0ed0306f          	j	800040e8 <bad_trap>

80000800 <inst_59>:
80000800:	ffb00513          	li	a0,-5
80000804:	c0054593          	xori	a1,a0,-1024
80000808:	08b1aa23          	sw	a1,148(gp)
8000080c:	3fb00213          	li	tp,1019
80000810:	00b20463          	beq	tp,a1,80000818 <inst_60>
80000814:	0d50306f          	j	800040e8 <bad_trap>

80000818 <inst_60>:
80000818:	ff700513          	li	a0,-9
8000081c:	aab54593          	xori	a1,a0,-1365
80000820:	08b1ac23          	sw	a1,152(gp)
80000824:	55c00213          	li	tp,1372
80000828:	00b20463          	beq	tp,a1,80000830 <inst_61>
8000082c:	0bd0306f          	j	800040e8 <bad_trap>

80000830 <inst_61>:
80000830:	fef00513          	li	a0,-17
80000834:	08054593          	xori	a1,a0,128
80000838:	08b1ae23          	sw	a1,156(gp)
8000083c:	f6f00213          	li	tp,-145
80000840:	00b20463          	beq	tp,a1,80000848 <inst_62>
80000844:	0a50306f          	j	800040e8 <bad_trap>

80000848 <inst_62>:
80000848:	f7f00513          	li	a0,-129
8000084c:	66654593          	xori	a1,a0,1638
80000850:	0ab1a023          	sw	a1,160(gp)
80000854:	91900213          	li	tp,-1767
80000858:	00b20463          	beq	tp,a1,80000860 <inst_63>
8000085c:	08d0306f          	j	800040e8 <bad_trap>

80000860 <inst_63>:
80000860:	eff00513          	li	a0,-257
80000864:	00654593          	xori	a1,a0,6
80000868:	0ab1a223          	sw	a1,164(gp)
8000086c:	ef900213          	li	tp,-263
80000870:	00b20463          	beq	tp,a1,80000878 <inst_64>
80000874:	0750306f          	j	800040e8 <bad_trap>

80000878 <inst_64>:
80000878:	bff00513          	li	a0,-1025
8000087c:	00654593          	xori	a1,a0,6
80000880:	0ab1a423          	sw	a1,168(gp)
80000884:	bf900213          	li	tp,-1031
80000888:	00b20463          	beq	tp,a1,80000890 <inst_65>
8000088c:	05d0306f          	j	800040e8 <bad_trap>

80000890 <inst_65>:
80000890:	fffff537          	lui	a0,0xfffff
80000894:	7ff50513          	addi	a0,a0,2047 # fffff7ff <imm12+0xfffffd2f>
80000898:	00254593          	xori	a1,a0,2
8000089c:	0ab1a623          	sw	a1,172(gp)
800008a0:	fffff237          	lui	tp,0xfffff
800008a4:	7fd20213          	addi	tp,tp,2045 # fffff7fd <imm12+0xfffffd2d>
800008a8:	00b20463          	beq	tp,a1,800008b0 <inst_66>
800008ac:	03d0306f          	j	800040e8 <bad_trap>

800008b0 <inst_66>:
800008b0:	fffff537          	lui	a0,0xfffff
800008b4:	fff50513          	addi	a0,a0,-1 # ffffefff <imm12+0xfffff52f>
800008b8:	00054593          	xori	a1,a0,0
800008bc:	0ab1a823          	sw	a1,176(gp)
800008c0:	fffff237          	lui	tp,0xfffff
800008c4:	fff20213          	addi	tp,tp,-1 # ffffefff <imm12+0xfffff52f>
800008c8:	00b20463          	beq	tp,a1,800008d0 <inst_67>
800008cc:	01d0306f          	j	800040e8 <bad_trap>

800008d0 <inst_67>:
800008d0:	ffffe537          	lui	a0,0xffffe
800008d4:	fff50513          	addi	a0,a0,-1 # ffffdfff <imm12+0xffffe52f>
800008d8:	7ff54593          	xori	a1,a0,2047
800008dc:	0ab1aa23          	sw	a1,180(gp)
800008e0:	ffffe237          	lui	tp,0xffffe
800008e4:	80020213          	addi	tp,tp,-2048 # ffffd800 <imm12+0xffffdd30>
800008e8:	00b20463          	beq	tp,a1,800008f0 <inst_68>
800008ec:	7fc0306f          	j	800040e8 <bad_trap>

800008f0 <inst_68>:
800008f0:	ffffc537          	lui	a0,0xffffc
800008f4:	fff50513          	addi	a0,a0,-1 # ffffbfff <imm12+0xffffc52f>
800008f8:	fd454593          	xori	a1,a0,-44
800008fc:	0ab1ac23          	sw	a1,184(gp)
80000900:	00004237          	lui	tp,0x4
80000904:	02b20213          	addi	tp,tp,43 # 402b <offset+0x3fab>
80000908:	00b20463          	beq	tp,a1,80000910 <inst_69>
8000090c:	7dc0306f          	j	800040e8 <bad_trap>

80000910 <inst_69>:
80000910:	ffff8537          	lui	a0,0xffff8
80000914:	fff50513          	addi	a0,a0,-1 # ffff7fff <imm12+0xffff852f>
80000918:	66554593          	xori	a1,a0,1637
8000091c:	0ab1ae23          	sw	a1,188(gp)
80000920:	ffff8237          	lui	tp,0xffff8
80000924:	99a20213          	addi	tp,tp,-1638 # ffff799a <imm12+0xffff7eca>
80000928:	00b20463          	beq	tp,a1,80000930 <inst_70>
8000092c:	7bc0306f          	j	800040e8 <bad_trap>

80000930 <inst_70>:
80000930:	ffff0537          	lui	a0,0xffff0
80000934:	fff50513          	addi	a0,a0,-1 # fffeffff <imm12+0xffff052f>
80000938:	33254593          	xori	a1,a0,818
8000093c:	0cb1a023          	sw	a1,192(gp)
80000940:	ffff0237          	lui	tp,0xffff0
80000944:	ccd20213          	addi	tp,tp,-819 # fffefccd <imm12+0xffff01fd>
80000948:	00b20463          	beq	tp,a1,80000950 <inst_71>
8000094c:	79c0306f          	j	800040e8 <bad_trap>

80000950 <inst_71>:
80000950:	fffe0537          	lui	a0,0xfffe0
80000954:	fff50513          	addi	a0,a0,-1 # fffdffff <imm12+0xfffe052f>
80000958:	eff54593          	xori	a1,a0,-257
8000095c:	0cb1a223          	sw	a1,196(gp)
80000960:	00020237          	lui	tp,0x20
80000964:	10020213          	addi	tp,tp,256 # 20100 <offset+0x20080>
80000968:	00b20463          	beq	tp,a1,80000970 <inst_72>
8000096c:	77c0306f          	j	800040e8 <bad_trap>

80000970 <inst_72>:
80000970:	fffc0537          	lui	a0,0xfffc0
80000974:	fff50513          	addi	a0,a0,-1 # fffbffff <imm12+0xfffc052f>
80000978:	80054593          	xori	a1,a0,-2048
8000097c:	0cb1a423          	sw	a1,200(gp)
80000980:	00040237          	lui	tp,0x40
80000984:	7ff20213          	addi	tp,tp,2047 # 407ff <offset+0x4077f>
80000988:	00b20463          	beq	tp,a1,80000990 <inst_73>
8000098c:	75c0306f          	j	800040e8 <bad_trap>

80000990 <inst_73>:
80000990:	ffe00537          	lui	a0,0xffe00
80000994:	fff50513          	addi	a0,a0,-1 # ffdfffff <imm12+0xffe0052f>
80000998:	00054593          	xori	a1,a0,0
8000099c:	0cb1a623          	sw	a1,204(gp)
800009a0:	ffe00237          	lui	tp,0xffe00
800009a4:	fff20213          	addi	tp,tp,-1 # ffdfffff <imm12+0xffe0052f>
800009a8:	00b20463          	beq	tp,a1,800009b0 <inst_74>
800009ac:	73c0306f          	j	800040e8 <bad_trap>

800009b0 <inst_74>:
800009b0:	ffc00537          	lui	a0,0xffc00
800009b4:	fff50513          	addi	a0,a0,-1 # ffbfffff <imm12+0xffc0052f>
800009b8:	66554593          	xori	a1,a0,1637
800009bc:	0cb1a823          	sw	a1,208(gp)
800009c0:	ffc00237          	lui	tp,0xffc00
800009c4:	99a20213          	addi	tp,tp,-1638 # ffbff99a <imm12+0xffbffeca>
800009c8:	00b20463          	beq	tp,a1,800009d0 <inst_75>
800009cc:	71c0306f          	j	800040e8 <bad_trap>

800009d0 <inst_75>:
800009d0:	ff800537          	lui	a0,0xff800
800009d4:	fff50513          	addi	a0,a0,-1 # ff7fffff <imm12+0xff80052f>
800009d8:	66754593          	xori	a1,a0,1639
800009dc:	0cb1aa23          	sw	a1,212(gp)
800009e0:	ff800237          	lui	tp,0xff800
800009e4:	99820213          	addi	tp,tp,-1640 # ff7ff998 <imm12+0xff7ffec8>
800009e8:	00b20463          	beq	tp,a1,800009f0 <inst_76>
800009ec:	6fc0306f          	j	800040e8 <bad_trap>

800009f0 <inst_76>:
800009f0:	ff000537          	lui	a0,0xff000
800009f4:	fff50513          	addi	a0,a0,-1 # feffffff <imm12+0xff00052f>
800009f8:	aaa54593          	xori	a1,a0,-1366
800009fc:	0cb1ac23          	sw	a1,216(gp)
80000a00:	01000237          	lui	tp,0x1000
80000a04:	55520213          	addi	tp,tp,1365 # 1000555 <offset+0x10004d5>
80000a08:	00b20463          	beq	tp,a1,80000a10 <inst_77>
80000a0c:	6dc0306f          	j	800040e8 <bad_trap>

80000a10 <inst_77>:
80000a10:	fe000537          	lui	a0,0xfe000
80000a14:	fff50513          	addi	a0,a0,-1 # fdffffff <imm12+0xfe00052f>
80000a18:	ff854593          	xori	a1,a0,-8
80000a1c:	0cb1ae23          	sw	a1,220(gp)
80000a20:	02000237          	lui	tp,0x2000
80000a24:	00720213          	addi	tp,tp,7 # 2000007 <offset+0x1ffff87>
80000a28:	00b20463          	beq	tp,a1,80000a30 <inst_78>
80000a2c:	6bc0306f          	j	800040e8 <bad_trap>

80000a30 <inst_78>:
80000a30:	fc000537          	lui	a0,0xfc000
80000a34:	fff50513          	addi	a0,a0,-1 # fbffffff <imm12+0xfc00052f>
80000a38:	ffe54593          	xori	a1,a0,-2
80000a3c:	0eb1a023          	sw	a1,224(gp)
80000a40:	04000237          	lui	tp,0x4000
80000a44:	00120213          	addi	tp,tp,1 # 4000001 <offset+0x3ffff81>
80000a48:	00b20463          	beq	tp,a1,80000a50 <inst_79>
80000a4c:	69c0306f          	j	800040e8 <bad_trap>

80000a50 <inst_79>:
80000a50:	f8000537          	lui	a0,0xf8000
80000a54:	fff50513          	addi	a0,a0,-1 # f7ffffff <imm12+0xf800052f>
80000a58:	c0054593          	xori	a1,a0,-1024
80000a5c:	0eb1a223          	sw	a1,228(gp)
80000a60:	08000237          	lui	tp,0x8000
80000a64:	3ff20213          	addi	tp,tp,1023 # 80003ff <offset+0x800037f>
80000a68:	00b20463          	beq	tp,a1,80000a70 <inst_80>
80000a6c:	67c0306f          	j	800040e8 <bad_trap>

80000a70 <inst_80>:
80000a70:	f0000537          	lui	a0,0xf0000
80000a74:	fff50513          	addi	a0,a0,-1 # efffffff <imm12+0xf000052f>
80000a78:	fd454593          	xori	a1,a0,-44
80000a7c:	0eb1a423          	sw	a1,232(gp)
80000a80:	10000237          	lui	tp,0x10000
80000a84:	02b20213          	addi	tp,tp,43 # 1000002b <offset+0xfffffab>
80000a88:	00b20463          	beq	tp,a1,80000a90 <inst_81>
80000a8c:	65c0306f          	j	800040e8 <bad_trap>

80000a90 <inst_81>:
80000a90:	e0000537          	lui	a0,0xe0000
80000a94:	fff50513          	addi	a0,a0,-1 # dfffffff <imm12+0xe000052f>
80000a98:	eff54593          	xori	a1,a0,-257
80000a9c:	0eb1a623          	sw	a1,236(gp)
80000aa0:	20000237          	lui	tp,0x20000
80000aa4:	10020213          	addi	tp,tp,256 # 20000100 <offset+0x20000080>
80000aa8:	00b20463          	beq	tp,a1,80000ab0 <inst_82>
80000aac:	63c0306f          	j	800040e8 <bad_trap>

80000ab0 <inst_82>:
80000ab0:	aaaab537          	lui	a0,0xaaaab
80000ab4:	aaa50513          	addi	a0,a0,-1366 # aaaaaaaa <imm12+0xaaaaafda>
80000ab8:	20054593          	xori	a1,a0,512
80000abc:	0eb1a823          	sw	a1,240(gp)
80000ac0:	aaaab237          	lui	tp,0xaaaab
80000ac4:	8aa20213          	addi	tp,tp,-1878 # aaaaa8aa <imm12+0xaaaaadda>
80000ac8:	00b20463          	beq	tp,a1,80000ad0 <inst_83>
80000acc:	61c0306f          	j	800040e8 <bad_trap>

80000ad0 <inst_83>:
80000ad0:	00300513          	li	a0,3
80000ad4:	00354593          	xori	a1,a0,3
80000ad8:	0eb1aa23          	sw	a1,244(gp)
80000adc:	00000213          	li	tp,0
80000ae0:	00b20463          	beq	tp,a1,80000ae8 <inst_84>
80000ae4:	6040306f          	j	800040e8 <bad_trap>

80000ae8 <inst_84>:
80000ae8:	00300513          	li	a0,3
80000aec:	55554593          	xori	a1,a0,1365
80000af0:	0eb1ac23          	sw	a1,248(gp)
80000af4:	55600213          	li	tp,1366
80000af8:	00b20463          	beq	tp,a1,80000b00 <inst_85>
80000afc:	5ec0306f          	j	800040e8 <bad_trap>

80000b00 <inst_85>:
80000b00:	00300513          	li	a0,3
80000b04:	aaa54593          	xori	a1,a0,-1366
80000b08:	0eb1ae23          	sw	a1,252(gp)
80000b0c:	aa900213          	li	tp,-1367
80000b10:	00b20463          	beq	tp,a1,80000b18 <inst_86>
80000b14:	5d40306f          	j	800040e8 <bad_trap>

80000b18 <inst_86>:
80000b18:	00300513          	li	a0,3
80000b1c:	00554593          	xori	a1,a0,5
80000b20:	10b1a023          	sw	a1,256(gp)
80000b24:	00600213          	li	tp,6
80000b28:	00b20463          	beq	tp,a1,80000b30 <inst_87>
80000b2c:	5bc0306f          	j	800040e8 <bad_trap>

80000b30 <inst_87>:
80000b30:	00300513          	li	a0,3
80000b34:	33354593          	xori	a1,a0,819
80000b38:	10b1a223          	sw	a1,260(gp)
80000b3c:	33000213          	li	tp,816
80000b40:	00b20463          	beq	tp,a1,80000b48 <inst_88>
80000b44:	5a40306f          	j	800040e8 <bad_trap>

80000b48 <inst_88>:
80000b48:	00300513          	li	a0,3
80000b4c:	66654593          	xori	a1,a0,1638
80000b50:	10b1a423          	sw	a1,264(gp)
80000b54:	66500213          	li	tp,1637
80000b58:	00b20463          	beq	tp,a1,80000b60 <inst_89>
80000b5c:	58c0306f          	j	800040e8 <bad_trap>

80000b60 <inst_89>:
80000b60:	00300513          	li	a0,3
80000b64:	fd354593          	xori	a1,a0,-45
80000b68:	10b1a623          	sw	a1,268(gp)
80000b6c:	fd000213          	li	tp,-48
80000b70:	00b20463          	beq	tp,a1,80000b78 <inst_90>
80000b74:	5740306f          	j	800040e8 <bad_trap>

80000b78 <inst_90>:
80000b78:	00300513          	li	a0,3
80000b7c:	02d54593          	xori	a1,a0,45
80000b80:	10b1a823          	sw	a1,272(gp)
80000b84:	02e00213          	li	tp,46
80000b88:	00b20463          	beq	tp,a1,80000b90 <inst_91>
80000b8c:	55c0306f          	j	800040e8 <bad_trap>

80000b90 <inst_91>:
80000b90:	00300513          	li	a0,3
80000b94:	00254593          	xori	a1,a0,2
80000b98:	10b1aa23          	sw	a1,276(gp)
80000b9c:	00100213          	li	tp,1
80000ba0:	00b20463          	beq	tp,a1,80000ba8 <inst_92>
80000ba4:	5440306f          	j	800040e8 <bad_trap>

80000ba8 <inst_92>:
80000ba8:	00300513          	li	a0,3
80000bac:	55454593          	xori	a1,a0,1364
80000bb0:	10b1ac23          	sw	a1,280(gp)
80000bb4:	55700213          	li	tp,1367
80000bb8:	00b20463          	beq	tp,a1,80000bc0 <inst_93>
80000bbc:	52c0306f          	j	800040e8 <bad_trap>

80000bc0 <inst_93>:
80000bc0:	00300513          	li	a0,3
80000bc4:	00054593          	xori	a1,a0,0
80000bc8:	10b1ae23          	sw	a1,284(gp)
80000bcc:	00300213          	li	tp,3
80000bd0:	00b20463          	beq	tp,a1,80000bd8 <inst_94>
80000bd4:	5140306f          	j	800040e8 <bad_trap>

80000bd8 <inst_94>:
80000bd8:	00300513          	li	a0,3
80000bdc:	00454593          	xori	a1,a0,4
80000be0:	12b1a023          	sw	a1,288(gp)
80000be4:	00700213          	li	tp,7
80000be8:	00b20463          	beq	tp,a1,80000bf0 <inst_95>
80000bec:	4fc0306f          	j	800040e8 <bad_trap>

80000bf0 <inst_95>:
80000bf0:	00300513          	li	a0,3
80000bf4:	33254593          	xori	a1,a0,818
80000bf8:	12b1a223          	sw	a1,292(gp)
80000bfc:	33100213          	li	tp,817
80000c00:	00b20463          	beq	tp,a1,80000c08 <inst_96>
80000c04:	4e40306f          	j	800040e8 <bad_trap>

80000c08 <inst_96>:
80000c08:	00300513          	li	a0,3
80000c0c:	66554593          	xori	a1,a0,1637
80000c10:	12b1a423          	sw	a1,296(gp)
80000c14:	66600213          	li	tp,1638
80000c18:	00b20463          	beq	tp,a1,80000c20 <inst_97>
80000c1c:	4cc0306f          	j	800040e8 <bad_trap>

80000c20 <inst_97>:
80000c20:	00300513          	li	a0,3
80000c24:	02c54593          	xori	a1,a0,44
80000c28:	12b1a623          	sw	a1,300(gp)
80000c2c:	02f00213          	li	tp,47
80000c30:	00b20463          	beq	tp,a1,80000c38 <inst_98>
80000c34:	4b40306f          	j	800040e8 <bad_trap>

80000c38 <inst_98>:
80000c38:	00300513          	li	a0,3
80000c3c:	55654593          	xori	a1,a0,1366
80000c40:	12b1a823          	sw	a1,304(gp)
80000c44:	55500213          	li	tp,1365
80000c48:	00b20463          	beq	tp,a1,80000c50 <inst_99>
80000c4c:	49c0306f          	j	800040e8 <bad_trap>

80000c50 <inst_99>:
80000c50:	00300513          	li	a0,3
80000c54:	aab54593          	xori	a1,a0,-1365
80000c58:	12b1aa23          	sw	a1,308(gp)
80000c5c:	aa800213          	li	tp,-1368
80000c60:	00b20463          	beq	tp,a1,80000c68 <inst_100>
80000c64:	4840306f          	j	800040e8 <bad_trap>

80000c68 <inst_100>:
80000c68:	00300513          	li	a0,3
80000c6c:	00654593          	xori	a1,a0,6
80000c70:	12b1ac23          	sw	a1,312(gp)
80000c74:	00500213          	li	tp,5
80000c78:	00b20463          	beq	tp,a1,80000c80 <inst_101>
80000c7c:	46c0306f          	j	800040e8 <bad_trap>

80000c80 <inst_101>:
80000c80:	00300513          	li	a0,3
80000c84:	33454593          	xori	a1,a0,820
80000c88:	12b1ae23          	sw	a1,316(gp)
80000c8c:	33700213          	li	tp,823
80000c90:	00b20463          	beq	tp,a1,80000c98 <inst_102>
80000c94:	4540306f          	j	800040e8 <bad_trap>

80000c98 <inst_102>:
80000c98:	00300513          	li	a0,3
80000c9c:	66754593          	xori	a1,a0,1639
80000ca0:	14b1a023          	sw	a1,320(gp)
80000ca4:	66400213          	li	tp,1636
80000ca8:	00b20463          	beq	tp,a1,80000cb0 <inst_103>
80000cac:	43c0306f          	j	800040e8 <bad_trap>

80000cb0 <inst_103>:
80000cb0:	00300513          	li	a0,3
80000cb4:	fd454593          	xori	a1,a0,-44
80000cb8:	14b1a223          	sw	a1,324(gp)
80000cbc:	fd700213          	li	tp,-41
80000cc0:	00b20463          	beq	tp,a1,80000cc8 <inst_104>
80000cc4:	4240306f          	j	800040e8 <bad_trap>

80000cc8 <inst_104>:
80000cc8:	00300513          	li	a0,3
80000ccc:	02e54593          	xori	a1,a0,46
80000cd0:	14b1a423          	sw	a1,328(gp)
80000cd4:	02d00213          	li	tp,45
80000cd8:	00b20463          	beq	tp,a1,80000ce0 <inst_105>
80000cdc:	40c0306f          	j	800040e8 <bad_trap>

80000ce0 <inst_105>:
80000ce0:	55555537          	lui	a0,0x55555
80000ce4:	55550513          	addi	a0,a0,1365 # 55555555 <absimm+0x10263026>
80000ce8:	00354593          	xori	a1,a0,3
80000cec:	14b1a623          	sw	a1,332(gp)
80000cf0:	55555237          	lui	tp,0x55555
80000cf4:	55620213          	addi	tp,tp,1366 # 55555556 <absimm+0x10263027>
80000cf8:	00b20463          	beq	tp,a1,80000d00 <inst_106>
80000cfc:	3ec0306f          	j	800040e8 <bad_trap>

80000d00 <inst_106>:
80000d00:	55555537          	lui	a0,0x55555
80000d04:	55550513          	addi	a0,a0,1365 # 55555555 <absimm+0x10263026>
80000d08:	55554593          	xori	a1,a0,1365
80000d0c:	14b1a823          	sw	a1,336(gp)
80000d10:	55555237          	lui	tp,0x55555
80000d14:	00b20463          	beq	tp,a1,80000d1c <inst_107>
80000d18:	3d00306f          	j	800040e8 <bad_trap>

80000d1c <inst_107>:
80000d1c:	55555537          	lui	a0,0x55555
80000d20:	55550513          	addi	a0,a0,1365 # 55555555 <absimm+0x10263026>
80000d24:	aaa54593          	xori	a1,a0,-1366
80000d28:	14b1aa23          	sw	a1,340(gp)
80000d2c:	aaaab237          	lui	tp,0xaaaab
80000d30:	fff20213          	addi	tp,tp,-1 # aaaaafff <imm12+0xaaaab52f>
80000d34:	00b20463          	beq	tp,a1,80000d3c <inst_108>
80000d38:	3b00306f          	j	800040e8 <bad_trap>

80000d3c <inst_108>:
80000d3c:	55555537          	lui	a0,0x55555
80000d40:	55550513          	addi	a0,a0,1365 # 55555555 <absimm+0x10263026>
80000d44:	00554593          	xori	a1,a0,5
80000d48:	14b1ac23          	sw	a1,344(gp)
80000d4c:	55555237          	lui	tp,0x55555
80000d50:	55020213          	addi	tp,tp,1360 # 55555550 <absimm+0x10263021>
80000d54:	00b20463          	beq	tp,a1,80000d5c <inst_109>
80000d58:	3900306f          	j	800040e8 <bad_trap>

80000d5c <inst_109>:
80000d5c:	55555537          	lui	a0,0x55555
80000d60:	55550513          	addi	a0,a0,1365 # 55555555 <absimm+0x10263026>
80000d64:	33354593          	xori	a1,a0,819
80000d68:	14b1ae23          	sw	a1,348(gp)
80000d6c:	55555237          	lui	tp,0x55555
80000d70:	66620213          	addi	tp,tp,1638 # 55555666 <absimm+0x10263137>
80000d74:	00b20463          	beq	tp,a1,80000d7c <inst_110>
80000d78:	3700306f          	j	800040e8 <bad_trap>

80000d7c <inst_110>:
80000d7c:	55555537          	lui	a0,0x55555
80000d80:	55550513          	addi	a0,a0,1365 # 55555555 <absimm+0x10263026>
80000d84:	66654593          	xori	a1,a0,1638
80000d88:	16b1a023          	sw	a1,352(gp)
80000d8c:	55555237          	lui	tp,0x55555
80000d90:	33320213          	addi	tp,tp,819 # 55555333 <absimm+0x10262e04>
80000d94:	00b20463          	beq	tp,a1,80000d9c <inst_111>
80000d98:	3500306f          	j	800040e8 <bad_trap>

80000d9c <inst_111>:
80000d9c:	55555537          	lui	a0,0x55555
80000da0:	55550513          	addi	a0,a0,1365 # 55555555 <absimm+0x10263026>
80000da4:	fd354593          	xori	a1,a0,-45
80000da8:	16b1a223          	sw	a1,356(gp)
80000dac:	aaaab237          	lui	tp,0xaaaab
80000db0:	a8620213          	addi	tp,tp,-1402 # aaaaaa86 <imm12+0xaaaaafb6>
80000db4:	00b20463          	beq	tp,a1,80000dbc <inst_112>
80000db8:	3300306f          	j	800040e8 <bad_trap>

80000dbc <inst_112>:
80000dbc:	55555537          	lui	a0,0x55555
80000dc0:	55550513          	addi	a0,a0,1365 # 55555555 <absimm+0x10263026>
80000dc4:	02d54593          	xori	a1,a0,45
80000dc8:	16b1a423          	sw	a1,360(gp)
80000dcc:	55555237          	lui	tp,0x55555
80000dd0:	57820213          	addi	tp,tp,1400 # 55555578 <absimm+0x10263049>
80000dd4:	00b20463          	beq	tp,a1,80000ddc <inst_113>
80000dd8:	3100306f          	j	800040e8 <bad_trap>

80000ddc <inst_113>:
80000ddc:	55555537          	lui	a0,0x55555
80000de0:	55550513          	addi	a0,a0,1365 # 55555555 <absimm+0x10263026>
80000de4:	00254593          	xori	a1,a0,2
80000de8:	16b1a623          	sw	a1,364(gp)
80000dec:	55555237          	lui	tp,0x55555
80000df0:	55720213          	addi	tp,tp,1367 # 55555557 <absimm+0x10263028>
80000df4:	00b20463          	beq	tp,a1,80000dfc <inst_114>
80000df8:	2f00306f          	j	800040e8 <bad_trap>

80000dfc <inst_114>:
80000dfc:	55555537          	lui	a0,0x55555
80000e00:	55550513          	addi	a0,a0,1365 # 55555555 <absimm+0x10263026>
80000e04:	55454593          	xori	a1,a0,1364
80000e08:	16b1a823          	sw	a1,368(gp)
80000e0c:	55555237          	lui	tp,0x55555
80000e10:	00120213          	addi	tp,tp,1 # 55555001 <absimm+0x10262ad2>
80000e14:	00b20463          	beq	tp,a1,80000e1c <inst_115>
80000e18:	2d00306f          	j	800040e8 <bad_trap>

80000e1c <inst_115>:
80000e1c:	55555537          	lui	a0,0x55555
80000e20:	55550513          	addi	a0,a0,1365 # 55555555 <absimm+0x10263026>
80000e24:	00054593          	xori	a1,a0,0
80000e28:	16b1aa23          	sw	a1,372(gp)
80000e2c:	55555237          	lui	tp,0x55555
80000e30:	55520213          	addi	tp,tp,1365 # 55555555 <absimm+0x10263026>
80000e34:	00b20463          	beq	tp,a1,80000e3c <inst_116>
80000e38:	2b00306f          	j	800040e8 <bad_trap>

80000e3c <inst_116>:
80000e3c:	55555537          	lui	a0,0x55555
80000e40:	55550513          	addi	a0,a0,1365 # 55555555 <absimm+0x10263026>
80000e44:	00454593          	xori	a1,a0,4
80000e48:	16b1ac23          	sw	a1,376(gp)
80000e4c:	55555237          	lui	tp,0x55555
80000e50:	55120213          	addi	tp,tp,1361 # 55555551 <absimm+0x10263022>
80000e54:	00b20463          	beq	tp,a1,80000e5c <inst_117>
80000e58:	2900306f          	j	800040e8 <bad_trap>

80000e5c <inst_117>:
80000e5c:	55555537          	lui	a0,0x55555
80000e60:	55550513          	addi	a0,a0,1365 # 55555555 <absimm+0x10263026>
80000e64:	33254593          	xori	a1,a0,818
80000e68:	16b1ae23          	sw	a1,380(gp)
80000e6c:	55555237          	lui	tp,0x55555
80000e70:	66720213          	addi	tp,tp,1639 # 55555667 <absimm+0x10263138>
80000e74:	00b20463          	beq	tp,a1,80000e7c <inst_118>
80000e78:	2700306f          	j	800040e8 <bad_trap>

80000e7c <inst_118>:
80000e7c:	55555537          	lui	a0,0x55555
80000e80:	55550513          	addi	a0,a0,1365 # 55555555 <absimm+0x10263026>
80000e84:	66554593          	xori	a1,a0,1637
80000e88:	18b1a023          	sw	a1,384(gp)
80000e8c:	55555237          	lui	tp,0x55555
80000e90:	33020213          	addi	tp,tp,816 # 55555330 <absimm+0x10262e01>
80000e94:	00b20463          	beq	tp,a1,80000e9c <inst_119>
80000e98:	2500306f          	j	800040e8 <bad_trap>

80000e9c <inst_119>:
80000e9c:	55555537          	lui	a0,0x55555
80000ea0:	55550513          	addi	a0,a0,1365 # 55555555 <absimm+0x10263026>
80000ea4:	02c54593          	xori	a1,a0,44
80000ea8:	18b1a223          	sw	a1,388(gp)
80000eac:	55555237          	lui	tp,0x55555
80000eb0:	57920213          	addi	tp,tp,1401 # 55555579 <absimm+0x1026304a>
80000eb4:	00b20463          	beq	tp,a1,80000ebc <inst_120>
80000eb8:	2300306f          	j	800040e8 <bad_trap>

80000ebc <inst_120>:
80000ebc:	55555537          	lui	a0,0x55555
80000ec0:	55550513          	addi	a0,a0,1365 # 55555555 <absimm+0x10263026>
80000ec4:	55654593          	xori	a1,a0,1366
80000ec8:	18b1a423          	sw	a1,392(gp)
80000ecc:	55555237          	lui	tp,0x55555
80000ed0:	00320213          	addi	tp,tp,3 # 55555003 <absimm+0x10262ad4>
80000ed4:	00b20463          	beq	tp,a1,80000edc <inst_121>
80000ed8:	2100306f          	j	800040e8 <bad_trap>

80000edc <inst_121>:
80000edc:	55555537          	lui	a0,0x55555
80000ee0:	55550513          	addi	a0,a0,1365 # 55555555 <absimm+0x10263026>
80000ee4:	aab54593          	xori	a1,a0,-1365
80000ee8:	18b1a623          	sw	a1,396(gp)
80000eec:	aaaab237          	lui	tp,0xaaaab
80000ef0:	ffe20213          	addi	tp,tp,-2 # aaaaaffe <imm12+0xaaaab52e>
80000ef4:	00b20463          	beq	tp,a1,80000efc <inst_122>
80000ef8:	1f00306f          	j	800040e8 <bad_trap>

80000efc <inst_122>:
80000efc:	55555537          	lui	a0,0x55555
80000f00:	55550513          	addi	a0,a0,1365 # 55555555 <absimm+0x10263026>
80000f04:	00654593          	xori	a1,a0,6
80000f08:	18b1a823          	sw	a1,400(gp)
80000f0c:	55555237          	lui	tp,0x55555
80000f10:	55320213          	addi	tp,tp,1363 # 55555553 <absimm+0x10263024>
80000f14:	00b20463          	beq	tp,a1,80000f1c <inst_123>
80000f18:	1d00306f          	j	800040e8 <bad_trap>

80000f1c <inst_123>:
80000f1c:	55555537          	lui	a0,0x55555
80000f20:	55550513          	addi	a0,a0,1365 # 55555555 <absimm+0x10263026>
80000f24:	33454593          	xori	a1,a0,820
80000f28:	18b1aa23          	sw	a1,404(gp)
80000f2c:	55555237          	lui	tp,0x55555
80000f30:	66120213          	addi	tp,tp,1633 # 55555661 <absimm+0x10263132>
80000f34:	00b20463          	beq	tp,a1,80000f3c <inst_124>
80000f38:	1b00306f          	j	800040e8 <bad_trap>

80000f3c <inst_124>:
80000f3c:	55555537          	lui	a0,0x55555
80000f40:	55550513          	addi	a0,a0,1365 # 55555555 <absimm+0x10263026>
80000f44:	66754593          	xori	a1,a0,1639
80000f48:	18b1ac23          	sw	a1,408(gp)
80000f4c:	55555237          	lui	tp,0x55555
80000f50:	33220213          	addi	tp,tp,818 # 55555332 <absimm+0x10262e03>
80000f54:	00b20463          	beq	tp,a1,80000f5c <inst_125>
80000f58:	1900306f          	j	800040e8 <bad_trap>

80000f5c <inst_125>:
80000f5c:	55555537          	lui	a0,0x55555
80000f60:	55550513          	addi	a0,a0,1365 # 55555555 <absimm+0x10263026>
80000f64:	fd454593          	xori	a1,a0,-44
80000f68:	18b1ae23          	sw	a1,412(gp)
80000f6c:	aaaab237          	lui	tp,0xaaaab
80000f70:	a8120213          	addi	tp,tp,-1407 # aaaaaa81 <imm12+0xaaaaafb1>
80000f74:	00b20463          	beq	tp,a1,80000f7c <inst_126>
80000f78:	1700306f          	j	800040e8 <bad_trap>

80000f7c <inst_126>:
80000f7c:	55555537          	lui	a0,0x55555
80000f80:	55550513          	addi	a0,a0,1365 # 55555555 <absimm+0x10263026>
80000f84:	02e54593          	xori	a1,a0,46
80000f88:	1ab1a023          	sw	a1,416(gp)
80000f8c:	55555237          	lui	tp,0x55555
80000f90:	57b20213          	addi	tp,tp,1403 # 5555557b <absimm+0x1026304c>
80000f94:	00b20463          	beq	tp,a1,80000f9c <inst_127>
80000f98:	1500306f          	j	800040e8 <bad_trap>

80000f9c <inst_127>:
80000f9c:	aaaab537          	lui	a0,0xaaaab
80000fa0:	aaa50513          	addi	a0,a0,-1366 # aaaaaaaa <imm12+0xaaaaafda>
80000fa4:	00354593          	xori	a1,a0,3
80000fa8:	1ab1a223          	sw	a1,420(gp)
80000fac:	aaaab237          	lui	tp,0xaaaab
80000fb0:	aa920213          	addi	tp,tp,-1367 # aaaaaaa9 <imm12+0xaaaaafd9>
80000fb4:	00b20463          	beq	tp,a1,80000fbc <inst_128>
80000fb8:	1300306f          	j	800040e8 <bad_trap>

80000fbc <inst_128>:
80000fbc:	aaaab537          	lui	a0,0xaaaab
80000fc0:	aaa50513          	addi	a0,a0,-1366 # aaaaaaaa <imm12+0xaaaaafda>
80000fc4:	55554593          	xori	a1,a0,1365
80000fc8:	1ab1a423          	sw	a1,424(gp)
80000fcc:	aaaab237          	lui	tp,0xaaaab
80000fd0:	fff20213          	addi	tp,tp,-1 # aaaaafff <imm12+0xaaaab52f>
80000fd4:	00b20463          	beq	tp,a1,80000fdc <inst_129>
80000fd8:	1100306f          	j	800040e8 <bad_trap>

80000fdc <inst_129>:
80000fdc:	aaaab537          	lui	a0,0xaaaab
80000fe0:	aaa50513          	addi	a0,a0,-1366 # aaaaaaaa <imm12+0xaaaaafda>
80000fe4:	aaa54593          	xori	a1,a0,-1366
80000fe8:	1ab1a623          	sw	a1,428(gp)
80000fec:	55555237          	lui	tp,0x55555
80000ff0:	00b20463          	beq	tp,a1,80000ff8 <inst_130>
80000ff4:	0f40306f          	j	800040e8 <bad_trap>

80000ff8 <inst_130>:
80000ff8:	aaaab537          	lui	a0,0xaaaab
80000ffc:	aaa50513          	addi	a0,a0,-1366 # aaaaaaaa <imm12+0xaaaaafda>
80001000:	00554593          	xori	a1,a0,5
80001004:	1ab1a823          	sw	a1,432(gp)
80001008:	aaaab237          	lui	tp,0xaaaab
8000100c:	aaf20213          	addi	tp,tp,-1361 # aaaaaaaf <imm12+0xaaaaafdf>
80001010:	00b20463          	beq	tp,a1,80001018 <inst_131>
80001014:	0d40306f          	j	800040e8 <bad_trap>

80001018 <inst_131>:
80001018:	aaaab537          	lui	a0,0xaaaab
8000101c:	aaa50513          	addi	a0,a0,-1366 # aaaaaaaa <imm12+0xaaaaafda>
80001020:	33354593          	xori	a1,a0,819
80001024:	1ab1aa23          	sw	a1,436(gp)
80001028:	aaaab237          	lui	tp,0xaaaab
8000102c:	99920213          	addi	tp,tp,-1639 # aaaaa999 <imm12+0xaaaaaec9>
80001030:	00b20463          	beq	tp,a1,80001038 <inst_132>
80001034:	0b40306f          	j	800040e8 <bad_trap>

80001038 <inst_132>:
80001038:	aaaab537          	lui	a0,0xaaaab
8000103c:	aaa50513          	addi	a0,a0,-1366 # aaaaaaaa <imm12+0xaaaaafda>
80001040:	66654593          	xori	a1,a0,1638
80001044:	1ab1ac23          	sw	a1,440(gp)
80001048:	aaaab237          	lui	tp,0xaaaab
8000104c:	ccc20213          	addi	tp,tp,-820 # aaaaaccc <imm12+0xaaaab1fc>
80001050:	00b20463          	beq	tp,a1,80001058 <inst_133>
80001054:	0940306f          	j	800040e8 <bad_trap>

80001058 <inst_133>:
80001058:	aaaab537          	lui	a0,0xaaaab
8000105c:	aaa50513          	addi	a0,a0,-1366 # aaaaaaaa <imm12+0xaaaaafda>
80001060:	fd354593          	xori	a1,a0,-45
80001064:	1ab1ae23          	sw	a1,444(gp)
80001068:	55555237          	lui	tp,0x55555
8000106c:	57920213          	addi	tp,tp,1401 # 55555579 <absimm+0x1026304a>
80001070:	00b20463          	beq	tp,a1,80001078 <inst_134>
80001074:	0740306f          	j	800040e8 <bad_trap>

80001078 <inst_134>:
80001078:	aaaab537          	lui	a0,0xaaaab
8000107c:	aaa50513          	addi	a0,a0,-1366 # aaaaaaaa <imm12+0xaaaaafda>
80001080:	02d54593          	xori	a1,a0,45
80001084:	1cb1a023          	sw	a1,448(gp)
80001088:	aaaab237          	lui	tp,0xaaaab
8000108c:	a8720213          	addi	tp,tp,-1401 # aaaaaa87 <imm12+0xaaaaafb7>
80001090:	00b20463          	beq	tp,a1,80001098 <inst_135>
80001094:	0540306f          	j	800040e8 <bad_trap>

80001098 <inst_135>:
80001098:	aaaab537          	lui	a0,0xaaaab
8000109c:	aaa50513          	addi	a0,a0,-1366 # aaaaaaaa <imm12+0xaaaaafda>
800010a0:	00254593          	xori	a1,a0,2
800010a4:	1cb1a223          	sw	a1,452(gp)
800010a8:	aaaab237          	lui	tp,0xaaaab
800010ac:	aa820213          	addi	tp,tp,-1368 # aaaaaaa8 <imm12+0xaaaaafd8>
800010b0:	00b20463          	beq	tp,a1,800010b8 <inst_136>
800010b4:	0340306f          	j	800040e8 <bad_trap>

800010b8 <inst_136>:
800010b8:	aaaab537          	lui	a0,0xaaaab
800010bc:	aaa50513          	addi	a0,a0,-1366 # aaaaaaaa <imm12+0xaaaaafda>
800010c0:	55454593          	xori	a1,a0,1364
800010c4:	1cb1a423          	sw	a1,456(gp)
800010c8:	aaaab237          	lui	tp,0xaaaab
800010cc:	ffe20213          	addi	tp,tp,-2 # aaaaaffe <imm12+0xaaaab52e>
800010d0:	00b20463          	beq	tp,a1,800010d8 <inst_137>
800010d4:	0140306f          	j	800040e8 <bad_trap>

800010d8 <inst_137>:
800010d8:	aaaab537          	lui	a0,0xaaaab
800010dc:	aaa50513          	addi	a0,a0,-1366 # aaaaaaaa <imm12+0xaaaaafda>
800010e0:	00054593          	xori	a1,a0,0
800010e4:	1cb1a623          	sw	a1,460(gp)
800010e8:	aaaab237          	lui	tp,0xaaaab
800010ec:	aaa20213          	addi	tp,tp,-1366 # aaaaaaaa <imm12+0xaaaaafda>
800010f0:	00b20463          	beq	tp,a1,800010f8 <inst_138>
800010f4:	7f50206f          	j	800040e8 <bad_trap>

800010f8 <inst_138>:
800010f8:	aaaab537          	lui	a0,0xaaaab
800010fc:	aaa50513          	addi	a0,a0,-1366 # aaaaaaaa <imm12+0xaaaaafda>
80001100:	00454593          	xori	a1,a0,4
80001104:	1cb1a823          	sw	a1,464(gp)
80001108:	aaaab237          	lui	tp,0xaaaab
8000110c:	aae20213          	addi	tp,tp,-1362 # aaaaaaae <imm12+0xaaaaafde>
80001110:	00b20463          	beq	tp,a1,80001118 <inst_139>
80001114:	7d50206f          	j	800040e8 <bad_trap>

80001118 <inst_139>:
80001118:	aaaab537          	lui	a0,0xaaaab
8000111c:	aaa50513          	addi	a0,a0,-1366 # aaaaaaaa <imm12+0xaaaaafda>
80001120:	33254593          	xori	a1,a0,818
80001124:	1cb1aa23          	sw	a1,468(gp)
80001128:	aaaab237          	lui	tp,0xaaaab
8000112c:	99820213          	addi	tp,tp,-1640 # aaaaa998 <imm12+0xaaaaaec8>
80001130:	00b20463          	beq	tp,a1,80001138 <inst_140>
80001134:	7b50206f          	j	800040e8 <bad_trap>

80001138 <inst_140>:
80001138:	aaaab537          	lui	a0,0xaaaab
8000113c:	aaa50513          	addi	a0,a0,-1366 # aaaaaaaa <imm12+0xaaaaafda>
80001140:	66554593          	xori	a1,a0,1637
80001144:	1cb1ac23          	sw	a1,472(gp)
80001148:	aaaab237          	lui	tp,0xaaaab
8000114c:	ccf20213          	addi	tp,tp,-817 # aaaaaccf <imm12+0xaaaab1ff>
80001150:	00b20463          	beq	tp,a1,80001158 <inst_141>
80001154:	7950206f          	j	800040e8 <bad_trap>

80001158 <inst_141>:
80001158:	aaaab537          	lui	a0,0xaaaab
8000115c:	aaa50513          	addi	a0,a0,-1366 # aaaaaaaa <imm12+0xaaaaafda>
80001160:	02c54593          	xori	a1,a0,44
80001164:	1cb1ae23          	sw	a1,476(gp)
80001168:	aaaab237          	lui	tp,0xaaaab
8000116c:	a8620213          	addi	tp,tp,-1402 # aaaaaa86 <imm12+0xaaaaafb6>
80001170:	00b20463          	beq	tp,a1,80001178 <inst_142>
80001174:	7750206f          	j	800040e8 <bad_trap>

80001178 <inst_142>:
80001178:	aaaab537          	lui	a0,0xaaaab
8000117c:	aaa50513          	addi	a0,a0,-1366 # aaaaaaaa <imm12+0xaaaaafda>
80001180:	55654593          	xori	a1,a0,1366
80001184:	1eb1a023          	sw	a1,480(gp)
80001188:	aaaab237          	lui	tp,0xaaaab
8000118c:	ffc20213          	addi	tp,tp,-4 # aaaaaffc <imm12+0xaaaab52c>
80001190:	00b20463          	beq	tp,a1,80001198 <inst_143>
80001194:	7550206f          	j	800040e8 <bad_trap>

80001198 <inst_143>:
80001198:	aaaab537          	lui	a0,0xaaaab
8000119c:	aaa50513          	addi	a0,a0,-1366 # aaaaaaaa <imm12+0xaaaaafda>
800011a0:	aab54593          	xori	a1,a0,-1365
800011a4:	1eb1a223          	sw	a1,484(gp)
800011a8:	55555237          	lui	tp,0x55555
800011ac:	00120213          	addi	tp,tp,1 # 55555001 <absimm+0x10262ad2>
800011b0:	00b20463          	beq	tp,a1,800011b8 <inst_144>
800011b4:	7350206f          	j	800040e8 <bad_trap>

800011b8 <inst_144>:
800011b8:	aaaab537          	lui	a0,0xaaaab
800011bc:	aaa50513          	addi	a0,a0,-1366 # aaaaaaaa <imm12+0xaaaaafda>
800011c0:	00654593          	xori	a1,a0,6
800011c4:	1eb1a423          	sw	a1,488(gp)
800011c8:	aaaab237          	lui	tp,0xaaaab
800011cc:	aac20213          	addi	tp,tp,-1364 # aaaaaaac <imm12+0xaaaaafdc>
800011d0:	00b20463          	beq	tp,a1,800011d8 <inst_145>
800011d4:	7150206f          	j	800040e8 <bad_trap>

800011d8 <inst_145>:
800011d8:	aaaab537          	lui	a0,0xaaaab
800011dc:	aaa50513          	addi	a0,a0,-1366 # aaaaaaaa <imm12+0xaaaaafda>
800011e0:	33454593          	xori	a1,a0,820
800011e4:	1eb1a623          	sw	a1,492(gp)
800011e8:	aaaab237          	lui	tp,0xaaaab
800011ec:	99e20213          	addi	tp,tp,-1634 # aaaaa99e <imm12+0xaaaaaece>
800011f0:	00b20463          	beq	tp,a1,800011f8 <inst_146>
800011f4:	6f50206f          	j	800040e8 <bad_trap>

800011f8 <inst_146>:
800011f8:	aaaab537          	lui	a0,0xaaaab
800011fc:	aaa50513          	addi	a0,a0,-1366 # aaaaaaaa <imm12+0xaaaaafda>
80001200:	66754593          	xori	a1,a0,1639
80001204:	1eb1a823          	sw	a1,496(gp)
80001208:	aaaab237          	lui	tp,0xaaaab
8000120c:	ccd20213          	addi	tp,tp,-819 # aaaaaccd <imm12+0xaaaab1fd>
80001210:	00b20463          	beq	tp,a1,80001218 <inst_147>
80001214:	6d50206f          	j	800040e8 <bad_trap>

80001218 <inst_147>:
80001218:	aaaab537          	lui	a0,0xaaaab
8000121c:	aaa50513          	addi	a0,a0,-1366 # aaaaaaaa <imm12+0xaaaaafda>
80001220:	fd454593          	xori	a1,a0,-44
80001224:	1eb1aa23          	sw	a1,500(gp)
80001228:	55555237          	lui	tp,0x55555
8000122c:	57e20213          	addi	tp,tp,1406 # 5555557e <absimm+0x1026304f>
80001230:	00b20463          	beq	tp,a1,80001238 <inst_148>
80001234:	6b50206f          	j	800040e8 <bad_trap>

80001238 <inst_148>:
80001238:	aaaab537          	lui	a0,0xaaaab
8000123c:	aaa50513          	addi	a0,a0,-1366 # aaaaaaaa <imm12+0xaaaaafda>
80001240:	02e54593          	xori	a1,a0,46
80001244:	1eb1ac23          	sw	a1,504(gp)
80001248:	aaaab237          	lui	tp,0xaaaab
8000124c:	a8420213          	addi	tp,tp,-1404 # aaaaaa84 <imm12+0xaaaaafb4>
80001250:	00b20463          	beq	tp,a1,80001258 <inst_149>
80001254:	6950206f          	j	800040e8 <bad_trap>

80001258 <inst_149>:
80001258:	00500513          	li	a0,5
8000125c:	00354593          	xori	a1,a0,3
80001260:	1eb1ae23          	sw	a1,508(gp)
80001264:	00600213          	li	tp,6
80001268:	00b20463          	beq	tp,a1,80001270 <inst_150>
8000126c:	67d0206f          	j	800040e8 <bad_trap>

80001270 <inst_150>:
80001270:	00500513          	li	a0,5
80001274:	55554593          	xori	a1,a0,1365
80001278:	20b1a023          	sw	a1,512(gp)
8000127c:	55000213          	li	tp,1360
80001280:	00b20463          	beq	tp,a1,80001288 <inst_151>
80001284:	6650206f          	j	800040e8 <bad_trap>

80001288 <inst_151>:
80001288:	00500513          	li	a0,5
8000128c:	aaa54593          	xori	a1,a0,-1366
80001290:	20b1a223          	sw	a1,516(gp)
80001294:	aaf00213          	li	tp,-1361
80001298:	00b20463          	beq	tp,a1,800012a0 <inst_152>
8000129c:	64d0206f          	j	800040e8 <bad_trap>

800012a0 <inst_152>:
800012a0:	00500513          	li	a0,5
800012a4:	00554593          	xori	a1,a0,5
800012a8:	20b1a423          	sw	a1,520(gp)
800012ac:	00000213          	li	tp,0
800012b0:	00b20463          	beq	tp,a1,800012b8 <inst_153>
800012b4:	6350206f          	j	800040e8 <bad_trap>

800012b8 <inst_153>:
800012b8:	00500513          	li	a0,5
800012bc:	33354593          	xori	a1,a0,819
800012c0:	20b1a623          	sw	a1,524(gp)
800012c4:	33600213          	li	tp,822
800012c8:	00b20463          	beq	tp,a1,800012d0 <inst_154>
800012cc:	61d0206f          	j	800040e8 <bad_trap>

800012d0 <inst_154>:
800012d0:	00500513          	li	a0,5
800012d4:	66654593          	xori	a1,a0,1638
800012d8:	20b1a823          	sw	a1,528(gp)
800012dc:	66300213          	li	tp,1635
800012e0:	00b20463          	beq	tp,a1,800012e8 <inst_155>
800012e4:	6050206f          	j	800040e8 <bad_trap>

800012e8 <inst_155>:
800012e8:	00500513          	li	a0,5
800012ec:	fd354593          	xori	a1,a0,-45
800012f0:	20b1aa23          	sw	a1,532(gp)
800012f4:	fd600213          	li	tp,-42
800012f8:	00b20463          	beq	tp,a1,80001300 <inst_156>
800012fc:	5ed0206f          	j	800040e8 <bad_trap>

80001300 <inst_156>:
80001300:	00500513          	li	a0,5
80001304:	02d54593          	xori	a1,a0,45
80001308:	20b1ac23          	sw	a1,536(gp)
8000130c:	02800213          	li	tp,40
80001310:	00b20463          	beq	tp,a1,80001318 <inst_157>
80001314:	5d50206f          	j	800040e8 <bad_trap>

80001318 <inst_157>:
80001318:	00500513          	li	a0,5
8000131c:	00254593          	xori	a1,a0,2
80001320:	20b1ae23          	sw	a1,540(gp)
80001324:	00700213          	li	tp,7
80001328:	00b20463          	beq	tp,a1,80001330 <inst_158>
8000132c:	5bd0206f          	j	800040e8 <bad_trap>

80001330 <inst_158>:
80001330:	00500513          	li	a0,5
80001334:	55454593          	xori	a1,a0,1364
80001338:	22b1a023          	sw	a1,544(gp)
8000133c:	55100213          	li	tp,1361
80001340:	00b20463          	beq	tp,a1,80001348 <inst_159>
80001344:	5a50206f          	j	800040e8 <bad_trap>

80001348 <inst_159>:
80001348:	00500513          	li	a0,5
8000134c:	00054593          	xori	a1,a0,0
80001350:	22b1a223          	sw	a1,548(gp)
80001354:	00500213          	li	tp,5
80001358:	00b20463          	beq	tp,a1,80001360 <inst_160>
8000135c:	58d0206f          	j	800040e8 <bad_trap>

80001360 <inst_160>:
80001360:	00500513          	li	a0,5
80001364:	00454593          	xori	a1,a0,4
80001368:	22b1a423          	sw	a1,552(gp)
8000136c:	00100213          	li	tp,1
80001370:	00b20463          	beq	tp,a1,80001378 <inst_161>
80001374:	5750206f          	j	800040e8 <bad_trap>

80001378 <inst_161>:
80001378:	00500513          	li	a0,5
8000137c:	33254593          	xori	a1,a0,818
80001380:	22b1a623          	sw	a1,556(gp)
80001384:	33700213          	li	tp,823
80001388:	00b20463          	beq	tp,a1,80001390 <inst_162>
8000138c:	55d0206f          	j	800040e8 <bad_trap>

80001390 <inst_162>:
80001390:	00500513          	li	a0,5
80001394:	66554593          	xori	a1,a0,1637
80001398:	22b1a823          	sw	a1,560(gp)
8000139c:	66000213          	li	tp,1632
800013a0:	00b20463          	beq	tp,a1,800013a8 <inst_163>
800013a4:	5450206f          	j	800040e8 <bad_trap>

800013a8 <inst_163>:
800013a8:	00500513          	li	a0,5
800013ac:	02c54593          	xori	a1,a0,44
800013b0:	22b1aa23          	sw	a1,564(gp)
800013b4:	02900213          	li	tp,41
800013b8:	00b20463          	beq	tp,a1,800013c0 <inst_164>
800013bc:	52d0206f          	j	800040e8 <bad_trap>

800013c0 <inst_164>:
800013c0:	00500513          	li	a0,5
800013c4:	55654593          	xori	a1,a0,1366
800013c8:	22b1ac23          	sw	a1,568(gp)
800013cc:	55300213          	li	tp,1363
800013d0:	00b20463          	beq	tp,a1,800013d8 <inst_165>
800013d4:	5150206f          	j	800040e8 <bad_trap>

800013d8 <inst_165>:
800013d8:	00500513          	li	a0,5
800013dc:	aab54593          	xori	a1,a0,-1365
800013e0:	22b1ae23          	sw	a1,572(gp)
800013e4:	aae00213          	li	tp,-1362
800013e8:	00b20463          	beq	tp,a1,800013f0 <inst_166>
800013ec:	4fd0206f          	j	800040e8 <bad_trap>

800013f0 <inst_166>:
800013f0:	00500513          	li	a0,5
800013f4:	00654593          	xori	a1,a0,6
800013f8:	24b1a023          	sw	a1,576(gp)
800013fc:	00300213          	li	tp,3
80001400:	00b20463          	beq	tp,a1,80001408 <inst_167>
80001404:	4e50206f          	j	800040e8 <bad_trap>

80001408 <inst_167>:
80001408:	00500513          	li	a0,5
8000140c:	33454593          	xori	a1,a0,820
80001410:	24b1a223          	sw	a1,580(gp)
80001414:	33100213          	li	tp,817
80001418:	00b20463          	beq	tp,a1,80001420 <inst_168>
8000141c:	4cd0206f          	j	800040e8 <bad_trap>

80001420 <inst_168>:
80001420:	00500513          	li	a0,5
80001424:	66754593          	xori	a1,a0,1639
80001428:	24b1a423          	sw	a1,584(gp)
8000142c:	66200213          	li	tp,1634
80001430:	00b20463          	beq	tp,a1,80001438 <inst_169>
80001434:	4b50206f          	j	800040e8 <bad_trap>

80001438 <inst_169>:
80001438:	00500513          	li	a0,5
8000143c:	fd454593          	xori	a1,a0,-44
80001440:	24b1a623          	sw	a1,588(gp)
80001444:	fd100213          	li	tp,-47
80001448:	00b20463          	beq	tp,a1,80001450 <inst_170>
8000144c:	49d0206f          	j	800040e8 <bad_trap>

80001450 <inst_170>:
80001450:	00500513          	li	a0,5
80001454:	02e54593          	xori	a1,a0,46
80001458:	24b1a823          	sw	a1,592(gp)
8000145c:	02b00213          	li	tp,43
80001460:	00b20463          	beq	tp,a1,80001468 <inst_171>
80001464:	4850206f          	j	800040e8 <bad_trap>

80001468 <inst_171>:
80001468:	33333537          	lui	a0,0x33333
8000146c:	33350513          	addi	a0,a0,819 # 33333333 <offset+0x333332b3>
80001470:	00354593          	xori	a1,a0,3
80001474:	24b1aa23          	sw	a1,596(gp)
80001478:	33333237          	lui	tp,0x33333
8000147c:	33020213          	addi	tp,tp,816 # 33333330 <offset+0x333332b0>
80001480:	00b20463          	beq	tp,a1,80001488 <inst_172>
80001484:	4650206f          	j	800040e8 <bad_trap>

80001488 <inst_172>:
80001488:	33333537          	lui	a0,0x33333
8000148c:	33350513          	addi	a0,a0,819 # 33333333 <offset+0x333332b3>
80001490:	55554593          	xori	a1,a0,1365
80001494:	24b1ac23          	sw	a1,600(gp)
80001498:	33333237          	lui	tp,0x33333
8000149c:	66620213          	addi	tp,tp,1638 # 33333666 <offset+0x333335e6>
800014a0:	00b20463          	beq	tp,a1,800014a8 <inst_173>
800014a4:	4450206f          	j	800040e8 <bad_trap>

800014a8 <inst_173>:
800014a8:	33333537          	lui	a0,0x33333
800014ac:	33350513          	addi	a0,a0,819 # 33333333 <offset+0x333332b3>
800014b0:	aaa54593          	xori	a1,a0,-1366
800014b4:	24b1ae23          	sw	a1,604(gp)
800014b8:	ccccd237          	lui	tp,0xccccd
800014bc:	99920213          	addi	tp,tp,-1639 # ccccc999 <imm12+0xcccccec9>
800014c0:	00b20463          	beq	tp,a1,800014c8 <inst_174>
800014c4:	4250206f          	j	800040e8 <bad_trap>

800014c8 <inst_174>:
800014c8:	33333537          	lui	a0,0x33333
800014cc:	33350513          	addi	a0,a0,819 # 33333333 <offset+0x333332b3>
800014d0:	00554593          	xori	a1,a0,5
800014d4:	26b1a023          	sw	a1,608(gp)
800014d8:	33333237          	lui	tp,0x33333
800014dc:	33620213          	addi	tp,tp,822 # 33333336 <offset+0x333332b6>
800014e0:	00b20463          	beq	tp,a1,800014e8 <inst_175>
800014e4:	4050206f          	j	800040e8 <bad_trap>

800014e8 <inst_175>:
800014e8:	33333537          	lui	a0,0x33333
800014ec:	33350513          	addi	a0,a0,819 # 33333333 <offset+0x333332b3>
800014f0:	33354593          	xori	a1,a0,819
800014f4:	26b1a223          	sw	a1,612(gp)
800014f8:	33333237          	lui	tp,0x33333
800014fc:	00b20463          	beq	tp,a1,80001504 <inst_176>
80001500:	3e90206f          	j	800040e8 <bad_trap>

80001504 <inst_176>:
80001504:	33333537          	lui	a0,0x33333
80001508:	33350513          	addi	a0,a0,819 # 33333333 <offset+0x333332b3>
8000150c:	66654593          	xori	a1,a0,1638
80001510:	26b1a423          	sw	a1,616(gp)
80001514:	33333237          	lui	tp,0x33333
80001518:	55520213          	addi	tp,tp,1365 # 33333555 <offset+0x333334d5>
8000151c:	00b20463          	beq	tp,a1,80001524 <inst_177>
80001520:	3c90206f          	j	800040e8 <bad_trap>

80001524 <inst_177>:
80001524:	33333537          	lui	a0,0x33333
80001528:	33350513          	addi	a0,a0,819 # 33333333 <offset+0x333332b3>
8000152c:	fd354593          	xori	a1,a0,-45
80001530:	26b1a623          	sw	a1,620(gp)
80001534:	ccccd237          	lui	tp,0xccccd
80001538:	ce020213          	addi	tp,tp,-800 # cccccce0 <imm12+0xccccd210>
8000153c:	00b20463          	beq	tp,a1,80001544 <inst_178>
80001540:	3a90206f          	j	800040e8 <bad_trap>

80001544 <inst_178>:
80001544:	33333537          	lui	a0,0x33333
80001548:	33350513          	addi	a0,a0,819 # 33333333 <offset+0x333332b3>
8000154c:	02d54593          	xori	a1,a0,45
80001550:	26b1a823          	sw	a1,624(gp)
80001554:	33333237          	lui	tp,0x33333
80001558:	31e20213          	addi	tp,tp,798 # 3333331e <offset+0x3333329e>
8000155c:	00b20463          	beq	tp,a1,80001564 <inst_179>
80001560:	3890206f          	j	800040e8 <bad_trap>

80001564 <inst_179>:
80001564:	33333537          	lui	a0,0x33333
80001568:	33350513          	addi	a0,a0,819 # 33333333 <offset+0x333332b3>
8000156c:	00254593          	xori	a1,a0,2
80001570:	26b1aa23          	sw	a1,628(gp)
80001574:	33333237          	lui	tp,0x33333
80001578:	33120213          	addi	tp,tp,817 # 33333331 <offset+0x333332b1>
8000157c:	00b20463          	beq	tp,a1,80001584 <inst_180>
80001580:	3690206f          	j	800040e8 <bad_trap>

80001584 <inst_180>:
80001584:	33333537          	lui	a0,0x33333
80001588:	33350513          	addi	a0,a0,819 # 33333333 <offset+0x333332b3>
8000158c:	55454593          	xori	a1,a0,1364
80001590:	26b1ac23          	sw	a1,632(gp)
80001594:	33333237          	lui	tp,0x33333
80001598:	66720213          	addi	tp,tp,1639 # 33333667 <offset+0x333335e7>
8000159c:	00b20463          	beq	tp,a1,800015a4 <inst_181>
800015a0:	3490206f          	j	800040e8 <bad_trap>

800015a4 <inst_181>:
800015a4:	33333537          	lui	a0,0x33333
800015a8:	33350513          	addi	a0,a0,819 # 33333333 <offset+0x333332b3>
800015ac:	00054593          	xori	a1,a0,0
800015b0:	26b1ae23          	sw	a1,636(gp)
800015b4:	33333237          	lui	tp,0x33333
800015b8:	33320213          	addi	tp,tp,819 # 33333333 <offset+0x333332b3>
800015bc:	00b20463          	beq	tp,a1,800015c4 <inst_182>
800015c0:	3290206f          	j	800040e8 <bad_trap>

800015c4 <inst_182>:
800015c4:	33333537          	lui	a0,0x33333
800015c8:	33350513          	addi	a0,a0,819 # 33333333 <offset+0x333332b3>
800015cc:	00454593          	xori	a1,a0,4
800015d0:	28b1a023          	sw	a1,640(gp)
800015d4:	33333237          	lui	tp,0x33333
800015d8:	33720213          	addi	tp,tp,823 # 33333337 <offset+0x333332b7>
800015dc:	00b20463          	beq	tp,a1,800015e4 <inst_183>
800015e0:	3090206f          	j	800040e8 <bad_trap>

800015e4 <inst_183>:
800015e4:	33333537          	lui	a0,0x33333
800015e8:	33350513          	addi	a0,a0,819 # 33333333 <offset+0x333332b3>
800015ec:	33254593          	xori	a1,a0,818
800015f0:	28b1a223          	sw	a1,644(gp)
800015f4:	33333237          	lui	tp,0x33333
800015f8:	00120213          	addi	tp,tp,1 # 33333001 <offset+0x33332f81>
800015fc:	00b20463          	beq	tp,a1,80001604 <inst_184>
80001600:	2e90206f          	j	800040e8 <bad_trap>

80001604 <inst_184>:
80001604:	33333537          	lui	a0,0x33333
80001608:	33350513          	addi	a0,a0,819 # 33333333 <offset+0x333332b3>
8000160c:	66554593          	xori	a1,a0,1637
80001610:	28b1a423          	sw	a1,648(gp)
80001614:	33333237          	lui	tp,0x33333
80001618:	55620213          	addi	tp,tp,1366 # 33333556 <offset+0x333334d6>
8000161c:	00b20463          	beq	tp,a1,80001624 <inst_185>
80001620:	2c90206f          	j	800040e8 <bad_trap>

80001624 <inst_185>:
80001624:	33333537          	lui	a0,0x33333
80001628:	33350513          	addi	a0,a0,819 # 33333333 <offset+0x333332b3>
8000162c:	02c54593          	xori	a1,a0,44
80001630:	28b1a623          	sw	a1,652(gp)
80001634:	33333237          	lui	tp,0x33333
80001638:	31f20213          	addi	tp,tp,799 # 3333331f <offset+0x3333329f>
8000163c:	00b20463          	beq	tp,a1,80001644 <inst_186>
80001640:	2a90206f          	j	800040e8 <bad_trap>

80001644 <inst_186>:
80001644:	33333537          	lui	a0,0x33333
80001648:	33350513          	addi	a0,a0,819 # 33333333 <offset+0x333332b3>
8000164c:	55654593          	xori	a1,a0,1366
80001650:	28b1a823          	sw	a1,656(gp)
80001654:	33333237          	lui	tp,0x33333
80001658:	66520213          	addi	tp,tp,1637 # 33333665 <offset+0x333335e5>
8000165c:	00b20463          	beq	tp,a1,80001664 <inst_187>
80001660:	2890206f          	j	800040e8 <bad_trap>

80001664 <inst_187>:
80001664:	33333537          	lui	a0,0x33333
80001668:	33350513          	addi	a0,a0,819 # 33333333 <offset+0x333332b3>
8000166c:	aab54593          	xori	a1,a0,-1365
80001670:	28b1aa23          	sw	a1,660(gp)
80001674:	ccccd237          	lui	tp,0xccccd
80001678:	99820213          	addi	tp,tp,-1640 # ccccc998 <imm12+0xcccccec8>
8000167c:	00b20463          	beq	tp,a1,80001684 <inst_188>
80001680:	2690206f          	j	800040e8 <bad_trap>

80001684 <inst_188>:
80001684:	33333537          	lui	a0,0x33333
80001688:	33350513          	addi	a0,a0,819 # 33333333 <offset+0x333332b3>
8000168c:	00654593          	xori	a1,a0,6
80001690:	28b1ac23          	sw	a1,664(gp)
80001694:	33333237          	lui	tp,0x33333
80001698:	33520213          	addi	tp,tp,821 # 33333335 <offset+0x333332b5>
8000169c:	00b20463          	beq	tp,a1,800016a4 <inst_189>
800016a0:	2490206f          	j	800040e8 <bad_trap>

800016a4 <inst_189>:
800016a4:	33333537          	lui	a0,0x33333
800016a8:	33350513          	addi	a0,a0,819 # 33333333 <offset+0x333332b3>
800016ac:	33454593          	xori	a1,a0,820
800016b0:	28b1ae23          	sw	a1,668(gp)
800016b4:	33333237          	lui	tp,0x33333
800016b8:	00720213          	addi	tp,tp,7 # 33333007 <offset+0x33332f87>
800016bc:	00b20463          	beq	tp,a1,800016c4 <inst_190>
800016c0:	2290206f          	j	800040e8 <bad_trap>

800016c4 <inst_190>:
800016c4:	33333537          	lui	a0,0x33333
800016c8:	33350513          	addi	a0,a0,819 # 33333333 <offset+0x333332b3>
800016cc:	66754593          	xori	a1,a0,1639
800016d0:	2ab1a023          	sw	a1,672(gp)
800016d4:	33333237          	lui	tp,0x33333
800016d8:	55420213          	addi	tp,tp,1364 # 33333554 <offset+0x333334d4>
800016dc:	00b20463          	beq	tp,a1,800016e4 <inst_191>
800016e0:	2090206f          	j	800040e8 <bad_trap>

800016e4 <inst_191>:
800016e4:	33333537          	lui	a0,0x33333
800016e8:	33350513          	addi	a0,a0,819 # 33333333 <offset+0x333332b3>
800016ec:	fd454593          	xori	a1,a0,-44
800016f0:	2ab1a223          	sw	a1,676(gp)
800016f4:	ccccd237          	lui	tp,0xccccd
800016f8:	ce720213          	addi	tp,tp,-793 # cccccce7 <imm12+0xccccd217>
800016fc:	00b20463          	beq	tp,a1,80001704 <inst_192>
80001700:	1e90206f          	j	800040e8 <bad_trap>

80001704 <inst_192>:
80001704:	33333537          	lui	a0,0x33333
80001708:	33350513          	addi	a0,a0,819 # 33333333 <offset+0x333332b3>
8000170c:	02e54593          	xori	a1,a0,46
80001710:	2ab1a423          	sw	a1,680(gp)
80001714:	33333237          	lui	tp,0x33333
80001718:	31d20213          	addi	tp,tp,797 # 3333331d <offset+0x3333329d>
8000171c:	00b20463          	beq	tp,a1,80001724 <inst_193>
80001720:	1c90206f          	j	800040e8 <bad_trap>

80001724 <inst_193>:
80001724:	66666537          	lui	a0,0x66666
80001728:	66650513          	addi	a0,a0,1638 # 66666666 <absimm+0x21374137>
8000172c:	00354593          	xori	a1,a0,3
80001730:	2ab1a623          	sw	a1,684(gp)
80001734:	66666237          	lui	tp,0x66666
80001738:	66520213          	addi	tp,tp,1637 # 66666665 <absimm+0x21374136>
8000173c:	00b20463          	beq	tp,a1,80001744 <inst_194>
80001740:	1a90206f          	j	800040e8 <bad_trap>

80001744 <inst_194>:
80001744:	66666537          	lui	a0,0x66666
80001748:	66650513          	addi	a0,a0,1638 # 66666666 <absimm+0x21374137>
8000174c:	55554593          	xori	a1,a0,1365
80001750:	2ab1a823          	sw	a1,688(gp)
80001754:	66666237          	lui	tp,0x66666
80001758:	33320213          	addi	tp,tp,819 # 66666333 <absimm+0x21373e04>
8000175c:	00b20463          	beq	tp,a1,80001764 <inst_195>
80001760:	1890206f          	j	800040e8 <bad_trap>

80001764 <inst_195>:
80001764:	66666537          	lui	a0,0x66666
80001768:	66650513          	addi	a0,a0,1638 # 66666666 <absimm+0x21374137>
8000176c:	aaa54593          	xori	a1,a0,-1366
80001770:	2ab1aa23          	sw	a1,692(gp)
80001774:	9999a237          	lui	tp,0x9999a
80001778:	ccc20213          	addi	tp,tp,-820 # 99999ccc <imm12+0x9999a1fc>
8000177c:	00b20463          	beq	tp,a1,80001784 <inst_196>
80001780:	1690206f          	j	800040e8 <bad_trap>

80001784 <inst_196>:
80001784:	66666537          	lui	a0,0x66666
80001788:	66650513          	addi	a0,a0,1638 # 66666666 <absimm+0x21374137>
8000178c:	00554593          	xori	a1,a0,5
80001790:	2ab1ac23          	sw	a1,696(gp)
80001794:	66666237          	lui	tp,0x66666
80001798:	66320213          	addi	tp,tp,1635 # 66666663 <absimm+0x21374134>
8000179c:	00b20463          	beq	tp,a1,800017a4 <inst_197>
800017a0:	1490206f          	j	800040e8 <bad_trap>

800017a4 <inst_197>:
800017a4:	66666537          	lui	a0,0x66666
800017a8:	66650513          	addi	a0,a0,1638 # 66666666 <absimm+0x21374137>
800017ac:	33354593          	xori	a1,a0,819
800017b0:	2ab1ae23          	sw	a1,700(gp)
800017b4:	66666237          	lui	tp,0x66666
800017b8:	55520213          	addi	tp,tp,1365 # 66666555 <absimm+0x21374026>
800017bc:	00b20463          	beq	tp,a1,800017c4 <inst_198>
800017c0:	1290206f          	j	800040e8 <bad_trap>

800017c4 <inst_198>:
800017c4:	66666537          	lui	a0,0x66666
800017c8:	66650513          	addi	a0,a0,1638 # 66666666 <absimm+0x21374137>
800017cc:	66654593          	xori	a1,a0,1638
800017d0:	2cb1a023          	sw	a1,704(gp)
800017d4:	66666237          	lui	tp,0x66666
800017d8:	00b20463          	beq	tp,a1,800017e0 <inst_199>
800017dc:	10d0206f          	j	800040e8 <bad_trap>

800017e0 <inst_199>:
800017e0:	66666537          	lui	a0,0x66666
800017e4:	66650513          	addi	a0,a0,1638 # 66666666 <absimm+0x21374137>
800017e8:	fd354593          	xori	a1,a0,-45
800017ec:	2cb1a223          	sw	a1,708(gp)
800017f0:	9999a237          	lui	tp,0x9999a
800017f4:	9b520213          	addi	tp,tp,-1611 # 999999b5 <imm12+0x99999ee5>
800017f8:	00b20463          	beq	tp,a1,80001800 <inst_200>
800017fc:	0ed0206f          	j	800040e8 <bad_trap>

80001800 <inst_200>:
80001800:	66666537          	lui	a0,0x66666
80001804:	66650513          	addi	a0,a0,1638 # 66666666 <absimm+0x21374137>
80001808:	02d54593          	xori	a1,a0,45
8000180c:	2cb1a423          	sw	a1,712(gp)
80001810:	66666237          	lui	tp,0x66666
80001814:	64b20213          	addi	tp,tp,1611 # 6666664b <absimm+0x2137411c>
80001818:	00b20463          	beq	tp,a1,80001820 <inst_201>
8000181c:	0cd0206f          	j	800040e8 <bad_trap>

80001820 <inst_201>:
80001820:	66666537          	lui	a0,0x66666
80001824:	66650513          	addi	a0,a0,1638 # 66666666 <absimm+0x21374137>
80001828:	00254593          	xori	a1,a0,2
8000182c:	2cb1a623          	sw	a1,716(gp)
80001830:	66666237          	lui	tp,0x66666
80001834:	66420213          	addi	tp,tp,1636 # 66666664 <absimm+0x21374135>
80001838:	00b20463          	beq	tp,a1,80001840 <inst_202>
8000183c:	0ad0206f          	j	800040e8 <bad_trap>

80001840 <inst_202>:
80001840:	66666537          	lui	a0,0x66666
80001844:	66650513          	addi	a0,a0,1638 # 66666666 <absimm+0x21374137>
80001848:	55454593          	xori	a1,a0,1364
8000184c:	2cb1a823          	sw	a1,720(gp)
80001850:	66666237          	lui	tp,0x66666
80001854:	33220213          	addi	tp,tp,818 # 66666332 <absimm+0x21373e03>
80001858:	00b20463          	beq	tp,a1,80001860 <inst_203>
8000185c:	08d0206f          	j	800040e8 <bad_trap>

80001860 <inst_203>:
80001860:	66666537          	lui	a0,0x66666
80001864:	66650513          	addi	a0,a0,1638 # 66666666 <absimm+0x21374137>
80001868:	00054593          	xori	a1,a0,0
8000186c:	2cb1aa23          	sw	a1,724(gp)
80001870:	66666237          	lui	tp,0x66666
80001874:	66620213          	addi	tp,tp,1638 # 66666666 <absimm+0x21374137>
80001878:	00b20463          	beq	tp,a1,80001880 <inst_204>
8000187c:	06d0206f          	j	800040e8 <bad_trap>

80001880 <inst_204>:
80001880:	66666537          	lui	a0,0x66666
80001884:	66650513          	addi	a0,a0,1638 # 66666666 <absimm+0x21374137>
80001888:	00454593          	xori	a1,a0,4
8000188c:	2cb1ac23          	sw	a1,728(gp)
80001890:	66666237          	lui	tp,0x66666
80001894:	66220213          	addi	tp,tp,1634 # 66666662 <absimm+0x21374133>
80001898:	00b20463          	beq	tp,a1,800018a0 <inst_205>
8000189c:	04d0206f          	j	800040e8 <bad_trap>

800018a0 <inst_205>:
800018a0:	66666537          	lui	a0,0x66666
800018a4:	66650513          	addi	a0,a0,1638 # 66666666 <absimm+0x21374137>
800018a8:	33254593          	xori	a1,a0,818
800018ac:	2cb1ae23          	sw	a1,732(gp)
800018b0:	66666237          	lui	tp,0x66666
800018b4:	55420213          	addi	tp,tp,1364 # 66666554 <absimm+0x21374025>
800018b8:	00b20463          	beq	tp,a1,800018c0 <inst_206>
800018bc:	02d0206f          	j	800040e8 <bad_trap>

800018c0 <inst_206>:
800018c0:	66666537          	lui	a0,0x66666
800018c4:	66650513          	addi	a0,a0,1638 # 66666666 <absimm+0x21374137>
800018c8:	66554593          	xori	a1,a0,1637
800018cc:	2eb1a023          	sw	a1,736(gp)
800018d0:	66666237          	lui	tp,0x66666
800018d4:	00320213          	addi	tp,tp,3 # 66666003 <absimm+0x21373ad4>
800018d8:	00b20463          	beq	tp,a1,800018e0 <inst_207>
800018dc:	00d0206f          	j	800040e8 <bad_trap>

800018e0 <inst_207>:
800018e0:	66666537          	lui	a0,0x66666
800018e4:	66650513          	addi	a0,a0,1638 # 66666666 <absimm+0x21374137>
800018e8:	02c54593          	xori	a1,a0,44
800018ec:	2eb1a223          	sw	a1,740(gp)
800018f0:	66666237          	lui	tp,0x66666
800018f4:	64a20213          	addi	tp,tp,1610 # 6666664a <absimm+0x2137411b>
800018f8:	00b20463          	beq	tp,a1,80001900 <inst_208>
800018fc:	7ec0206f          	j	800040e8 <bad_trap>

80001900 <inst_208>:
80001900:	66666537          	lui	a0,0x66666
80001904:	66650513          	addi	a0,a0,1638 # 66666666 <absimm+0x21374137>
80001908:	55654593          	xori	a1,a0,1366
8000190c:	2eb1a423          	sw	a1,744(gp)
80001910:	66666237          	lui	tp,0x66666
80001914:	33020213          	addi	tp,tp,816 # 66666330 <absimm+0x21373e01>
80001918:	00b20463          	beq	tp,a1,80001920 <inst_209>
8000191c:	7cc0206f          	j	800040e8 <bad_trap>

80001920 <inst_209>:
80001920:	66666537          	lui	a0,0x66666
80001924:	66650513          	addi	a0,a0,1638 # 66666666 <absimm+0x21374137>
80001928:	aab54593          	xori	a1,a0,-1365
8000192c:	2eb1a623          	sw	a1,748(gp)
80001930:	9999a237          	lui	tp,0x9999a
80001934:	ccd20213          	addi	tp,tp,-819 # 99999ccd <imm12+0x9999a1fd>
80001938:	00b20463          	beq	tp,a1,80001940 <inst_210>
8000193c:	7ac0206f          	j	800040e8 <bad_trap>

80001940 <inst_210>:
80001940:	66666537          	lui	a0,0x66666
80001944:	66650513          	addi	a0,a0,1638 # 66666666 <absimm+0x21374137>
80001948:	00654593          	xori	a1,a0,6
8000194c:	2eb1a823          	sw	a1,752(gp)
80001950:	66666237          	lui	tp,0x66666
80001954:	66020213          	addi	tp,tp,1632 # 66666660 <absimm+0x21374131>
80001958:	00b20463          	beq	tp,a1,80001960 <inst_211>
8000195c:	78c0206f          	j	800040e8 <bad_trap>

80001960 <inst_211>:
80001960:	66666537          	lui	a0,0x66666
80001964:	66650513          	addi	a0,a0,1638 # 66666666 <absimm+0x21374137>
80001968:	33454593          	xori	a1,a0,820
8000196c:	2eb1aa23          	sw	a1,756(gp)
80001970:	66666237          	lui	tp,0x66666
80001974:	55220213          	addi	tp,tp,1362 # 66666552 <absimm+0x21374023>
80001978:	00b20463          	beq	tp,a1,80001980 <inst_212>
8000197c:	76c0206f          	j	800040e8 <bad_trap>

80001980 <inst_212>:
80001980:	66666537          	lui	a0,0x66666
80001984:	66650513          	addi	a0,a0,1638 # 66666666 <absimm+0x21374137>
80001988:	66754593          	xori	a1,a0,1639
8000198c:	2eb1ac23          	sw	a1,760(gp)
80001990:	66666237          	lui	tp,0x66666
80001994:	00120213          	addi	tp,tp,1 # 66666001 <absimm+0x21373ad2>
80001998:	00b20463          	beq	tp,a1,800019a0 <inst_213>
8000199c:	74c0206f          	j	800040e8 <bad_trap>

800019a0 <inst_213>:
800019a0:	66666537          	lui	a0,0x66666
800019a4:	66650513          	addi	a0,a0,1638 # 66666666 <absimm+0x21374137>
800019a8:	fd454593          	xori	a1,a0,-44
800019ac:	2eb1ae23          	sw	a1,764(gp)
800019b0:	9999a237          	lui	tp,0x9999a
800019b4:	9b220213          	addi	tp,tp,-1614 # 999999b2 <imm12+0x99999ee2>
800019b8:	00b20463          	beq	tp,a1,800019c0 <inst_214>
800019bc:	72c0206f          	j	800040e8 <bad_trap>

800019c0 <inst_214>:
800019c0:	66666537          	lui	a0,0x66666
800019c4:	66650513          	addi	a0,a0,1638 # 66666666 <absimm+0x21374137>
800019c8:	02e54593          	xori	a1,a0,46
800019cc:	30b1a023          	sw	a1,768(gp)
800019d0:	66666237          	lui	tp,0x66666
800019d4:	64820213          	addi	tp,tp,1608 # 66666648 <absimm+0x21374119>
800019d8:	00b20463          	beq	tp,a1,800019e0 <inst_215>
800019dc:	70c0206f          	j	800040e8 <bad_trap>

800019e0 <inst_215>:
800019e0:	ffff5537          	lui	a0,0xffff5
800019e4:	afc50513          	addi	a0,a0,-1284 # ffff4afc <imm12+0xffff502c>
800019e8:	00354593          	xori	a1,a0,3
800019ec:	30b1a223          	sw	a1,772(gp)
800019f0:	ffff5237          	lui	tp,0xffff5
800019f4:	aff20213          	addi	tp,tp,-1281 # ffff4aff <imm12+0xffff502f>
800019f8:	00b20463          	beq	tp,a1,80001a00 <inst_216>
800019fc:	6ec0206f          	j	800040e8 <bad_trap>

80001a00 <inst_216>:
80001a00:	ffff5537          	lui	a0,0xffff5
80001a04:	afc50513          	addi	a0,a0,-1284 # ffff4afc <imm12+0xffff502c>
80001a08:	55554593          	xori	a1,a0,1365
80001a0c:	30b1a423          	sw	a1,776(gp)
80001a10:	ffff5237          	lui	tp,0xffff5
80001a14:	fa920213          	addi	tp,tp,-87 # ffff4fa9 <imm12+0xffff54d9>
80001a18:	00b20463          	beq	tp,a1,80001a20 <inst_217>
80001a1c:	6cc0206f          	j	800040e8 <bad_trap>

80001a20 <inst_217>:
80001a20:	ffff5537          	lui	a0,0xffff5
80001a24:	afc50513          	addi	a0,a0,-1284 # ffff4afc <imm12+0xffff502c>
80001a28:	aaa54593          	xori	a1,a0,-1366
80001a2c:	30b1a623          	sw	a1,780(gp)
80001a30:	0000b237          	lui	tp,0xb
80001a34:	05620213          	addi	tp,tp,86 # b056 <offset+0xafd6>
80001a38:	00b20463          	beq	tp,a1,80001a40 <inst_218>
80001a3c:	6ac0206f          	j	800040e8 <bad_trap>

80001a40 <inst_218>:
80001a40:	ffff5537          	lui	a0,0xffff5
80001a44:	afc50513          	addi	a0,a0,-1284 # ffff4afc <imm12+0xffff502c>
80001a48:	00554593          	xori	a1,a0,5
80001a4c:	30b1a823          	sw	a1,784(gp)
80001a50:	ffff5237          	lui	tp,0xffff5
80001a54:	af920213          	addi	tp,tp,-1287 # ffff4af9 <imm12+0xffff5029>
80001a58:	00b20463          	beq	tp,a1,80001a60 <inst_219>
80001a5c:	68c0206f          	j	800040e8 <bad_trap>

80001a60 <inst_219>:
80001a60:	ffff5537          	lui	a0,0xffff5
80001a64:	afc50513          	addi	a0,a0,-1284 # ffff4afc <imm12+0xffff502c>
80001a68:	33354593          	xori	a1,a0,819
80001a6c:	30b1aa23          	sw	a1,788(gp)
80001a70:	ffff5237          	lui	tp,0xffff5
80001a74:	9cf20213          	addi	tp,tp,-1585 # ffff49cf <imm12+0xffff4eff>
80001a78:	00b20463          	beq	tp,a1,80001a80 <inst_220>
80001a7c:	66c0206f          	j	800040e8 <bad_trap>

80001a80 <inst_220>:
80001a80:	ffff5537          	lui	a0,0xffff5
80001a84:	afc50513          	addi	a0,a0,-1284 # ffff4afc <imm12+0xffff502c>
80001a88:	66654593          	xori	a1,a0,1638
80001a8c:	30b1ac23          	sw	a1,792(gp)
80001a90:	ffff5237          	lui	tp,0xffff5
80001a94:	c9a20213          	addi	tp,tp,-870 # ffff4c9a <imm12+0xffff51ca>
80001a98:	00b20463          	beq	tp,a1,80001aa0 <inst_221>
80001a9c:	64c0206f          	j	800040e8 <bad_trap>

80001aa0 <inst_221>:
80001aa0:	ffff5537          	lui	a0,0xffff5
80001aa4:	afc50513          	addi	a0,a0,-1284 # ffff4afc <imm12+0xffff502c>
80001aa8:	fd354593          	xori	a1,a0,-45
80001aac:	30b1ae23          	sw	a1,796(gp)
80001ab0:	0000b237          	lui	tp,0xb
80001ab4:	52f20213          	addi	tp,tp,1327 # b52f <offset+0xb4af>
80001ab8:	00b20463          	beq	tp,a1,80001ac0 <inst_222>
80001abc:	62c0206f          	j	800040e8 <bad_trap>

80001ac0 <inst_222>:
80001ac0:	ffff5537          	lui	a0,0xffff5
80001ac4:	afc50513          	addi	a0,a0,-1284 # ffff4afc <imm12+0xffff502c>
80001ac8:	02d54593          	xori	a1,a0,45
80001acc:	32b1a023          	sw	a1,800(gp)
80001ad0:	ffff5237          	lui	tp,0xffff5
80001ad4:	ad120213          	addi	tp,tp,-1327 # ffff4ad1 <imm12+0xffff5001>
80001ad8:	00b20463          	beq	tp,a1,80001ae0 <inst_223>
80001adc:	60c0206f          	j	800040e8 <bad_trap>

80001ae0 <inst_223>:
80001ae0:	ffff5537          	lui	a0,0xffff5
80001ae4:	afc50513          	addi	a0,a0,-1284 # ffff4afc <imm12+0xffff502c>
80001ae8:	00254593          	xori	a1,a0,2
80001aec:	32b1a223          	sw	a1,804(gp)
80001af0:	ffff5237          	lui	tp,0xffff5
80001af4:	afe20213          	addi	tp,tp,-1282 # ffff4afe <imm12+0xffff502e>
80001af8:	00b20463          	beq	tp,a1,80001b00 <inst_224>
80001afc:	5ec0206f          	j	800040e8 <bad_trap>

80001b00 <inst_224>:
80001b00:	ffff5537          	lui	a0,0xffff5
80001b04:	afc50513          	addi	a0,a0,-1284 # ffff4afc <imm12+0xffff502c>
80001b08:	55454593          	xori	a1,a0,1364
80001b0c:	32b1a423          	sw	a1,808(gp)
80001b10:	ffff5237          	lui	tp,0xffff5
80001b14:	fa820213          	addi	tp,tp,-88 # ffff4fa8 <imm12+0xffff54d8>
80001b18:	00b20463          	beq	tp,a1,80001b20 <inst_225>
80001b1c:	5cc0206f          	j	800040e8 <bad_trap>

80001b20 <inst_225>:
80001b20:	ffff5537          	lui	a0,0xffff5
80001b24:	afc50513          	addi	a0,a0,-1284 # ffff4afc <imm12+0xffff502c>
80001b28:	00054593          	xori	a1,a0,0
80001b2c:	32b1a623          	sw	a1,812(gp)
80001b30:	ffff5237          	lui	tp,0xffff5
80001b34:	afc20213          	addi	tp,tp,-1284 # ffff4afc <imm12+0xffff502c>
80001b38:	00b20463          	beq	tp,a1,80001b40 <inst_226>
80001b3c:	5ac0206f          	j	800040e8 <bad_trap>

80001b40 <inst_226>:
80001b40:	ffff5537          	lui	a0,0xffff5
80001b44:	afc50513          	addi	a0,a0,-1284 # ffff4afc <imm12+0xffff502c>
80001b48:	00454593          	xori	a1,a0,4
80001b4c:	32b1a823          	sw	a1,816(gp)
80001b50:	ffff5237          	lui	tp,0xffff5
80001b54:	af820213          	addi	tp,tp,-1288 # ffff4af8 <imm12+0xffff5028>
80001b58:	00b20463          	beq	tp,a1,80001b60 <inst_227>
80001b5c:	58c0206f          	j	800040e8 <bad_trap>

80001b60 <inst_227>:
80001b60:	ffff5537          	lui	a0,0xffff5
80001b64:	afc50513          	addi	a0,a0,-1284 # ffff4afc <imm12+0xffff502c>
80001b68:	33254593          	xori	a1,a0,818
80001b6c:	32b1aa23          	sw	a1,820(gp)
80001b70:	ffff5237          	lui	tp,0xffff5
80001b74:	9ce20213          	addi	tp,tp,-1586 # ffff49ce <imm12+0xffff4efe>
80001b78:	00b20463          	beq	tp,a1,80001b80 <inst_228>
80001b7c:	56c0206f          	j	800040e8 <bad_trap>

80001b80 <inst_228>:
80001b80:	ffff5537          	lui	a0,0xffff5
80001b84:	afc50513          	addi	a0,a0,-1284 # ffff4afc <imm12+0xffff502c>
80001b88:	66554593          	xori	a1,a0,1637
80001b8c:	32b1ac23          	sw	a1,824(gp)
80001b90:	ffff5237          	lui	tp,0xffff5
80001b94:	c9920213          	addi	tp,tp,-871 # ffff4c99 <imm12+0xffff51c9>
80001b98:	00b20463          	beq	tp,a1,80001ba0 <inst_229>
80001b9c:	54c0206f          	j	800040e8 <bad_trap>

80001ba0 <inst_229>:
80001ba0:	ffff5537          	lui	a0,0xffff5
80001ba4:	afc50513          	addi	a0,a0,-1284 # ffff4afc <imm12+0xffff502c>
80001ba8:	02c54593          	xori	a1,a0,44
80001bac:	32b1ae23          	sw	a1,828(gp)
80001bb0:	ffff5237          	lui	tp,0xffff5
80001bb4:	ad020213          	addi	tp,tp,-1328 # ffff4ad0 <imm12+0xffff5000>
80001bb8:	00b20463          	beq	tp,a1,80001bc0 <inst_230>
80001bbc:	52c0206f          	j	800040e8 <bad_trap>

80001bc0 <inst_230>:
80001bc0:	ffff5537          	lui	a0,0xffff5
80001bc4:	afc50513          	addi	a0,a0,-1284 # ffff4afc <imm12+0xffff502c>
80001bc8:	55654593          	xori	a1,a0,1366
80001bcc:	34b1a023          	sw	a1,832(gp)
80001bd0:	ffff5237          	lui	tp,0xffff5
80001bd4:	faa20213          	addi	tp,tp,-86 # ffff4faa <imm12+0xffff54da>
80001bd8:	00b20463          	beq	tp,a1,80001be0 <inst_231>
80001bdc:	50c0206f          	j	800040e8 <bad_trap>

80001be0 <inst_231>:
80001be0:	ffff5537          	lui	a0,0xffff5
80001be4:	afc50513          	addi	a0,a0,-1284 # ffff4afc <imm12+0xffff502c>
80001be8:	aab54593          	xori	a1,a0,-1365
80001bec:	34b1a223          	sw	a1,836(gp)
80001bf0:	0000b237          	lui	tp,0xb
80001bf4:	05720213          	addi	tp,tp,87 # b057 <offset+0xafd7>
80001bf8:	00b20463          	beq	tp,a1,80001c00 <inst_232>
80001bfc:	4ec0206f          	j	800040e8 <bad_trap>

80001c00 <inst_232>:
80001c00:	ffff5537          	lui	a0,0xffff5
80001c04:	afc50513          	addi	a0,a0,-1284 # ffff4afc <imm12+0xffff502c>
80001c08:	00654593          	xori	a1,a0,6
80001c0c:	34b1a423          	sw	a1,840(gp)
80001c10:	ffff5237          	lui	tp,0xffff5
80001c14:	afa20213          	addi	tp,tp,-1286 # ffff4afa <imm12+0xffff502a>
80001c18:	00b20463          	beq	tp,a1,80001c20 <inst_233>
80001c1c:	4cc0206f          	j	800040e8 <bad_trap>

80001c20 <inst_233>:
80001c20:	ffff5537          	lui	a0,0xffff5
80001c24:	afc50513          	addi	a0,a0,-1284 # ffff4afc <imm12+0xffff502c>
80001c28:	33454593          	xori	a1,a0,820
80001c2c:	34b1a623          	sw	a1,844(gp)
80001c30:	ffff5237          	lui	tp,0xffff5
80001c34:	9c820213          	addi	tp,tp,-1592 # ffff49c8 <imm12+0xffff4ef8>
80001c38:	00b20463          	beq	tp,a1,80001c40 <inst_234>
80001c3c:	4ac0206f          	j	800040e8 <bad_trap>

80001c40 <inst_234>:
80001c40:	ffff5537          	lui	a0,0xffff5
80001c44:	afc50513          	addi	a0,a0,-1284 # ffff4afc <imm12+0xffff502c>
80001c48:	66754593          	xori	a1,a0,1639
80001c4c:	34b1a823          	sw	a1,848(gp)
80001c50:	ffff5237          	lui	tp,0xffff5
80001c54:	c9b20213          	addi	tp,tp,-869 # ffff4c9b <imm12+0xffff51cb>
80001c58:	00b20463          	beq	tp,a1,80001c60 <inst_235>
80001c5c:	48c0206f          	j	800040e8 <bad_trap>

80001c60 <inst_235>:
80001c60:	ffff5537          	lui	a0,0xffff5
80001c64:	afc50513          	addi	a0,a0,-1284 # ffff4afc <imm12+0xffff502c>
80001c68:	fd454593          	xori	a1,a0,-44
80001c6c:	34b1aa23          	sw	a1,852(gp)
80001c70:	0000b237          	lui	tp,0xb
80001c74:	52820213          	addi	tp,tp,1320 # b528 <offset+0xb4a8>
80001c78:	00b20463          	beq	tp,a1,80001c80 <inst_236>
80001c7c:	46c0206f          	j	800040e8 <bad_trap>

80001c80 <inst_236>:
80001c80:	ffff5537          	lui	a0,0xffff5
80001c84:	afc50513          	addi	a0,a0,-1284 # ffff4afc <imm12+0xffff502c>
80001c88:	02e54593          	xori	a1,a0,46
80001c8c:	34b1ac23          	sw	a1,856(gp)
80001c90:	ffff5237          	lui	tp,0xffff5
80001c94:	ad220213          	addi	tp,tp,-1326 # ffff4ad2 <imm12+0xffff5002>
80001c98:	00b20463          	beq	tp,a1,80001ca0 <inst_237>
80001c9c:	44c0206f          	j	800040e8 <bad_trap>

80001ca0 <inst_237>:
80001ca0:	0000b537          	lui	a0,0xb
80001ca4:	50450513          	addi	a0,a0,1284 # b504 <offset+0xb484>
80001ca8:	00354593          	xori	a1,a0,3
80001cac:	34b1ae23          	sw	a1,860(gp)
80001cb0:	0000b237          	lui	tp,0xb
80001cb4:	50720213          	addi	tp,tp,1287 # b507 <offset+0xb487>
80001cb8:	00b20463          	beq	tp,a1,80001cc0 <inst_238>
80001cbc:	42c0206f          	j	800040e8 <bad_trap>

80001cc0 <inst_238>:
80001cc0:	0000b537          	lui	a0,0xb
80001cc4:	50450513          	addi	a0,a0,1284 # b504 <offset+0xb484>
80001cc8:	55554593          	xori	a1,a0,1365
80001ccc:	36b1a023          	sw	a1,864(gp)
80001cd0:	0000b237          	lui	tp,0xb
80001cd4:	05120213          	addi	tp,tp,81 # b051 <offset+0xafd1>
80001cd8:	00b20463          	beq	tp,a1,80001ce0 <inst_239>
80001cdc:	40c0206f          	j	800040e8 <bad_trap>

80001ce0 <inst_239>:
80001ce0:	0000b537          	lui	a0,0xb
80001ce4:	50450513          	addi	a0,a0,1284 # b504 <offset+0xb484>
80001ce8:	aaa54593          	xori	a1,a0,-1366
80001cec:	36b1a223          	sw	a1,868(gp)
80001cf0:	ffff5237          	lui	tp,0xffff5
80001cf4:	fae20213          	addi	tp,tp,-82 # ffff4fae <imm12+0xffff54de>
80001cf8:	00b20463          	beq	tp,a1,80001d00 <inst_240>
80001cfc:	3ec0206f          	j	800040e8 <bad_trap>

80001d00 <inst_240>:
80001d00:	0000b537          	lui	a0,0xb
80001d04:	50450513          	addi	a0,a0,1284 # b504 <offset+0xb484>
80001d08:	00554593          	xori	a1,a0,5
80001d0c:	36b1a423          	sw	a1,872(gp)
80001d10:	0000b237          	lui	tp,0xb
80001d14:	50120213          	addi	tp,tp,1281 # b501 <offset+0xb481>
80001d18:	00b20463          	beq	tp,a1,80001d20 <inst_241>
80001d1c:	3cc0206f          	j	800040e8 <bad_trap>

80001d20 <inst_241>:
80001d20:	0000b537          	lui	a0,0xb
80001d24:	50450513          	addi	a0,a0,1284 # b504 <offset+0xb484>
80001d28:	33354593          	xori	a1,a0,819
80001d2c:	36b1a623          	sw	a1,876(gp)
80001d30:	0000b237          	lui	tp,0xb
80001d34:	63720213          	addi	tp,tp,1591 # b637 <offset+0xb5b7>
80001d38:	00b20463          	beq	tp,a1,80001d40 <inst_242>
80001d3c:	3ac0206f          	j	800040e8 <bad_trap>

80001d40 <inst_242>:
80001d40:	0000b537          	lui	a0,0xb
80001d44:	50450513          	addi	a0,a0,1284 # b504 <offset+0xb484>
80001d48:	66654593          	xori	a1,a0,1638
80001d4c:	36b1a823          	sw	a1,880(gp)
80001d50:	0000b237          	lui	tp,0xb
80001d54:	36220213          	addi	tp,tp,866 # b362 <offset+0xb2e2>
80001d58:	00b20463          	beq	tp,a1,80001d60 <inst_243>
80001d5c:	38c0206f          	j	800040e8 <bad_trap>

80001d60 <inst_243>:
80001d60:	0000b537          	lui	a0,0xb
80001d64:	50450513          	addi	a0,a0,1284 # b504 <offset+0xb484>
80001d68:	fd354593          	xori	a1,a0,-45
80001d6c:	36b1aa23          	sw	a1,884(gp)
80001d70:	ffff5237          	lui	tp,0xffff5
80001d74:	ad720213          	addi	tp,tp,-1321 # ffff4ad7 <imm12+0xffff5007>
80001d78:	00b20463          	beq	tp,a1,80001d80 <inst_244>
80001d7c:	36c0206f          	j	800040e8 <bad_trap>

80001d80 <inst_244>:
80001d80:	0000b537          	lui	a0,0xb
80001d84:	50450513          	addi	a0,a0,1284 # b504 <offset+0xb484>
80001d88:	02d54593          	xori	a1,a0,45
80001d8c:	36b1ac23          	sw	a1,888(gp)
80001d90:	0000b237          	lui	tp,0xb
80001d94:	52920213          	addi	tp,tp,1321 # b529 <offset+0xb4a9>
80001d98:	00b20463          	beq	tp,a1,80001da0 <inst_245>
80001d9c:	34c0206f          	j	800040e8 <bad_trap>

80001da0 <inst_245>:
80001da0:	0000b537          	lui	a0,0xb
80001da4:	50450513          	addi	a0,a0,1284 # b504 <offset+0xb484>
80001da8:	00254593          	xori	a1,a0,2
80001dac:	36b1ae23          	sw	a1,892(gp)
80001db0:	0000b237          	lui	tp,0xb
80001db4:	50620213          	addi	tp,tp,1286 # b506 <offset+0xb486>
80001db8:	00b20463          	beq	tp,a1,80001dc0 <inst_246>
80001dbc:	32c0206f          	j	800040e8 <bad_trap>

80001dc0 <inst_246>:
80001dc0:	0000b537          	lui	a0,0xb
80001dc4:	50450513          	addi	a0,a0,1284 # b504 <offset+0xb484>
80001dc8:	55454593          	xori	a1,a0,1364
80001dcc:	38b1a023          	sw	a1,896(gp)
80001dd0:	0000b237          	lui	tp,0xb
80001dd4:	05020213          	addi	tp,tp,80 # b050 <offset+0xafd0>
80001dd8:	00b20463          	beq	tp,a1,80001de0 <inst_247>
80001ddc:	30c0206f          	j	800040e8 <bad_trap>

80001de0 <inst_247>:
80001de0:	0000b537          	lui	a0,0xb
80001de4:	50450513          	addi	a0,a0,1284 # b504 <offset+0xb484>
80001de8:	00054593          	xori	a1,a0,0
80001dec:	38b1a223          	sw	a1,900(gp)
80001df0:	0000b237          	lui	tp,0xb
80001df4:	50420213          	addi	tp,tp,1284 # b504 <offset+0xb484>
80001df8:	00b20463          	beq	tp,a1,80001e00 <inst_248>
80001dfc:	2ec0206f          	j	800040e8 <bad_trap>

80001e00 <inst_248>:
80001e00:	0000b537          	lui	a0,0xb
80001e04:	50450513          	addi	a0,a0,1284 # b504 <offset+0xb484>
80001e08:	00454593          	xori	a1,a0,4
80001e0c:	38b1a423          	sw	a1,904(gp)
80001e10:	0000b237          	lui	tp,0xb
80001e14:	50020213          	addi	tp,tp,1280 # b500 <offset+0xb480>
80001e18:	00b20463          	beq	tp,a1,80001e20 <inst_249>
80001e1c:	2cc0206f          	j	800040e8 <bad_trap>

80001e20 <inst_249>:
80001e20:	0000b537          	lui	a0,0xb
80001e24:	50450513          	addi	a0,a0,1284 # b504 <offset+0xb484>
80001e28:	33254593          	xori	a1,a0,818
80001e2c:	38b1a623          	sw	a1,908(gp)
80001e30:	0000b237          	lui	tp,0xb
80001e34:	63620213          	addi	tp,tp,1590 # b636 <offset+0xb5b6>
80001e38:	00b20463          	beq	tp,a1,80001e40 <inst_250>
80001e3c:	2ac0206f          	j	800040e8 <bad_trap>

80001e40 <inst_250>:
80001e40:	0000b537          	lui	a0,0xb
80001e44:	50450513          	addi	a0,a0,1284 # b504 <offset+0xb484>
80001e48:	66554593          	xori	a1,a0,1637
80001e4c:	38b1a823          	sw	a1,912(gp)
80001e50:	0000b237          	lui	tp,0xb
80001e54:	36120213          	addi	tp,tp,865 # b361 <offset+0xb2e1>
80001e58:	00b20463          	beq	tp,a1,80001e60 <inst_251>
80001e5c:	28c0206f          	j	800040e8 <bad_trap>

80001e60 <inst_251>:
80001e60:	0000b537          	lui	a0,0xb
80001e64:	50450513          	addi	a0,a0,1284 # b504 <offset+0xb484>
80001e68:	02c54593          	xori	a1,a0,44
80001e6c:	38b1aa23          	sw	a1,916(gp)
80001e70:	0000b237          	lui	tp,0xb
80001e74:	52820213          	addi	tp,tp,1320 # b528 <offset+0xb4a8>
80001e78:	00b20463          	beq	tp,a1,80001e80 <inst_252>
80001e7c:	26c0206f          	j	800040e8 <bad_trap>

80001e80 <inst_252>:
80001e80:	0000b537          	lui	a0,0xb
80001e84:	50450513          	addi	a0,a0,1284 # b504 <offset+0xb484>
80001e88:	55654593          	xori	a1,a0,1366
80001e8c:	38b1ac23          	sw	a1,920(gp)
80001e90:	0000b237          	lui	tp,0xb
80001e94:	05220213          	addi	tp,tp,82 # b052 <offset+0xafd2>
80001e98:	00b20463          	beq	tp,a1,80001ea0 <inst_253>
80001e9c:	24c0206f          	j	800040e8 <bad_trap>

80001ea0 <inst_253>:
80001ea0:	0000b537          	lui	a0,0xb
80001ea4:	50450513          	addi	a0,a0,1284 # b504 <offset+0xb484>
80001ea8:	aab54593          	xori	a1,a0,-1365
80001eac:	38b1ae23          	sw	a1,924(gp)
80001eb0:	ffff5237          	lui	tp,0xffff5
80001eb4:	faf20213          	addi	tp,tp,-81 # ffff4faf <imm12+0xffff54df>
80001eb8:	00b20463          	beq	tp,a1,80001ec0 <inst_254>
80001ebc:	22c0206f          	j	800040e8 <bad_trap>

80001ec0 <inst_254>:
80001ec0:	0000b537          	lui	a0,0xb
80001ec4:	50450513          	addi	a0,a0,1284 # b504 <offset+0xb484>
80001ec8:	00654593          	xori	a1,a0,6
80001ecc:	3ab1a023          	sw	a1,928(gp)
80001ed0:	0000b237          	lui	tp,0xb
80001ed4:	50220213          	addi	tp,tp,1282 # b502 <offset+0xb482>
80001ed8:	00b20463          	beq	tp,a1,80001ee0 <inst_255>
80001edc:	20c0206f          	j	800040e8 <bad_trap>

80001ee0 <inst_255>:
80001ee0:	0000b537          	lui	a0,0xb
80001ee4:	50450513          	addi	a0,a0,1284 # b504 <offset+0xb484>
80001ee8:	33454593          	xori	a1,a0,820
80001eec:	3ab1a223          	sw	a1,932(gp)
80001ef0:	0000b237          	lui	tp,0xb
80001ef4:	63020213          	addi	tp,tp,1584 # b630 <offset+0xb5b0>
80001ef8:	00b20463          	beq	tp,a1,80001f00 <inst_256>
80001efc:	1ec0206f          	j	800040e8 <bad_trap>

80001f00 <inst_256>:
80001f00:	0000b537          	lui	a0,0xb
80001f04:	50450513          	addi	a0,a0,1284 # b504 <offset+0xb484>
80001f08:	66754593          	xori	a1,a0,1639
80001f0c:	3ab1a423          	sw	a1,936(gp)
80001f10:	0000b237          	lui	tp,0xb
80001f14:	36320213          	addi	tp,tp,867 # b363 <offset+0xb2e3>
80001f18:	00b20463          	beq	tp,a1,80001f20 <inst_257>
80001f1c:	1cc0206f          	j	800040e8 <bad_trap>

80001f20 <inst_257>:
80001f20:	0000b537          	lui	a0,0xb
80001f24:	50450513          	addi	a0,a0,1284 # b504 <offset+0xb484>
80001f28:	fd454593          	xori	a1,a0,-44
80001f2c:	3ab1a623          	sw	a1,940(gp)
80001f30:	ffff5237          	lui	tp,0xffff5
80001f34:	ad020213          	addi	tp,tp,-1328 # ffff4ad0 <imm12+0xffff5000>
80001f38:	00b20463          	beq	tp,a1,80001f40 <inst_258>
80001f3c:	1ac0206f          	j	800040e8 <bad_trap>

80001f40 <inst_258>:
80001f40:	0000b537          	lui	a0,0xb
80001f44:	50450513          	addi	a0,a0,1284 # b504 <offset+0xb484>
80001f48:	02e54593          	xori	a1,a0,46
80001f4c:	3ab1a823          	sw	a1,944(gp)
80001f50:	0000b237          	lui	tp,0xb
80001f54:	52a20213          	addi	tp,tp,1322 # b52a <offset+0xb4aa>
80001f58:	00b20463          	beq	tp,a1,80001f60 <inst_259>
80001f5c:	18c0206f          	j	800040e8 <bad_trap>

80001f60 <inst_259>:
80001f60:	00200513          	li	a0,2
80001f64:	00354593          	xori	a1,a0,3
80001f68:	3ab1aa23          	sw	a1,948(gp)
80001f6c:	00100213          	li	tp,1
80001f70:	00b20463          	beq	tp,a1,80001f78 <inst_260>
80001f74:	1740206f          	j	800040e8 <bad_trap>

80001f78 <inst_260>:
80001f78:	00200513          	li	a0,2
80001f7c:	55554593          	xori	a1,a0,1365
80001f80:	3ab1ac23          	sw	a1,952(gp)
80001f84:	55700213          	li	tp,1367
80001f88:	00b20463          	beq	tp,a1,80001f90 <inst_261>
80001f8c:	15c0206f          	j	800040e8 <bad_trap>

80001f90 <inst_261>:
80001f90:	00200513          	li	a0,2
80001f94:	aaa54593          	xori	a1,a0,-1366
80001f98:	3ab1ae23          	sw	a1,956(gp)
80001f9c:	aa800213          	li	tp,-1368
80001fa0:	00b20463          	beq	tp,a1,80001fa8 <inst_262>
80001fa4:	1440206f          	j	800040e8 <bad_trap>

80001fa8 <inst_262>:
80001fa8:	00200513          	li	a0,2
80001fac:	00554593          	xori	a1,a0,5
80001fb0:	3cb1a023          	sw	a1,960(gp)
80001fb4:	00700213          	li	tp,7
80001fb8:	00b20463          	beq	tp,a1,80001fc0 <inst_263>
80001fbc:	12c0206f          	j	800040e8 <bad_trap>

80001fc0 <inst_263>:
80001fc0:	00200513          	li	a0,2
80001fc4:	33354593          	xori	a1,a0,819
80001fc8:	3cb1a223          	sw	a1,964(gp)
80001fcc:	33100213          	li	tp,817
80001fd0:	00b20463          	beq	tp,a1,80001fd8 <inst_264>
80001fd4:	1140206f          	j	800040e8 <bad_trap>

80001fd8 <inst_264>:
80001fd8:	00200513          	li	a0,2
80001fdc:	66654593          	xori	a1,a0,1638
80001fe0:	3cb1a423          	sw	a1,968(gp)
80001fe4:	66400213          	li	tp,1636
80001fe8:	00b20463          	beq	tp,a1,80001ff0 <inst_265>
80001fec:	0fc0206f          	j	800040e8 <bad_trap>

80001ff0 <inst_265>:
80001ff0:	00200513          	li	a0,2
80001ff4:	fd354593          	xori	a1,a0,-45
80001ff8:	3cb1a623          	sw	a1,972(gp)
80001ffc:	fd100213          	li	tp,-47
80002000:	00b20463          	beq	tp,a1,80002008 <inst_266>
80002004:	0e40206f          	j	800040e8 <bad_trap>

80002008 <inst_266>:
80002008:	00200513          	li	a0,2
8000200c:	02d54593          	xori	a1,a0,45
80002010:	3cb1a823          	sw	a1,976(gp)
80002014:	02f00213          	li	tp,47
80002018:	00b20463          	beq	tp,a1,80002020 <inst_267>
8000201c:	0cc0206f          	j	800040e8 <bad_trap>

80002020 <inst_267>:
80002020:	00200513          	li	a0,2
80002024:	00254593          	xori	a1,a0,2
80002028:	3cb1aa23          	sw	a1,980(gp)
8000202c:	00000213          	li	tp,0
80002030:	00b20463          	beq	tp,a1,80002038 <inst_268>
80002034:	0b40206f          	j	800040e8 <bad_trap>

80002038 <inst_268>:
80002038:	00200513          	li	a0,2
8000203c:	55454593          	xori	a1,a0,1364
80002040:	3cb1ac23          	sw	a1,984(gp)
80002044:	55600213          	li	tp,1366
80002048:	00b20463          	beq	tp,a1,80002050 <inst_269>
8000204c:	09c0206f          	j	800040e8 <bad_trap>

80002050 <inst_269>:
80002050:	00200513          	li	a0,2
80002054:	00054593          	xori	a1,a0,0
80002058:	3cb1ae23          	sw	a1,988(gp)
8000205c:	00200213          	li	tp,2
80002060:	00b20463          	beq	tp,a1,80002068 <inst_270>
80002064:	0840206f          	j	800040e8 <bad_trap>

80002068 <inst_270>:
80002068:	00200513          	li	a0,2
8000206c:	00454593          	xori	a1,a0,4
80002070:	3eb1a023          	sw	a1,992(gp)
80002074:	00600213          	li	tp,6
80002078:	00b20463          	beq	tp,a1,80002080 <inst_271>
8000207c:	06c0206f          	j	800040e8 <bad_trap>

80002080 <inst_271>:
80002080:	00200513          	li	a0,2
80002084:	33254593          	xori	a1,a0,818
80002088:	3eb1a223          	sw	a1,996(gp)
8000208c:	33000213          	li	tp,816
80002090:	00b20463          	beq	tp,a1,80002098 <inst_272>
80002094:	0540206f          	j	800040e8 <bad_trap>

80002098 <inst_272>:
80002098:	00200513          	li	a0,2
8000209c:	66554593          	xori	a1,a0,1637
800020a0:	3eb1a423          	sw	a1,1000(gp)
800020a4:	66700213          	li	tp,1639
800020a8:	00b20463          	beq	tp,a1,800020b0 <inst_273>
800020ac:	03c0206f          	j	800040e8 <bad_trap>

800020b0 <inst_273>:
800020b0:	00200513          	li	a0,2
800020b4:	02c54593          	xori	a1,a0,44
800020b8:	3eb1a623          	sw	a1,1004(gp)
800020bc:	02e00213          	li	tp,46
800020c0:	00b20463          	beq	tp,a1,800020c8 <inst_274>
800020c4:	0240206f          	j	800040e8 <bad_trap>

800020c8 <inst_274>:
800020c8:	00200513          	li	a0,2
800020cc:	55654593          	xori	a1,a0,1366
800020d0:	3eb1a823          	sw	a1,1008(gp)
800020d4:	55400213          	li	tp,1364
800020d8:	00b20463          	beq	tp,a1,800020e0 <inst_275>
800020dc:	00c0206f          	j	800040e8 <bad_trap>

800020e0 <inst_275>:
800020e0:	00200513          	li	a0,2
800020e4:	aab54593          	xori	a1,a0,-1365
800020e8:	3eb1aa23          	sw	a1,1012(gp)
800020ec:	aa900213          	li	tp,-1367
800020f0:	00b20463          	beq	tp,a1,800020f8 <inst_276>
800020f4:	7f50106f          	j	800040e8 <bad_trap>

800020f8 <inst_276>:
800020f8:	00200513          	li	a0,2
800020fc:	00654593          	xori	a1,a0,6
80002100:	3eb1ac23          	sw	a1,1016(gp)
80002104:	00400213          	li	tp,4
80002108:	00b20463          	beq	tp,a1,80002110 <inst_277>
8000210c:	7dd0106f          	j	800040e8 <bad_trap>

80002110 <inst_277>:
80002110:	00200513          	li	a0,2
80002114:	33454593          	xori	a1,a0,820
80002118:	3eb1ae23          	sw	a1,1020(gp)
8000211c:	33600213          	li	tp,822
80002120:	00b20463          	beq	tp,a1,80002128 <inst_278>
80002124:	7c50106f          	j	800040e8 <bad_trap>

80002128 <inst_278>:
80002128:	00200513          	li	a0,2
8000212c:	66754593          	xori	a1,a0,1639
80002130:	40b1a023          	sw	a1,1024(gp)
80002134:	66500213          	li	tp,1637
80002138:	00b20463          	beq	tp,a1,80002140 <inst_279>
8000213c:	7ad0106f          	j	800040e8 <bad_trap>

80002140 <inst_279>:
80002140:	00200513          	li	a0,2
80002144:	fd454593          	xori	a1,a0,-44
80002148:	40b1a223          	sw	a1,1028(gp)
8000214c:	fd600213          	li	tp,-42
80002150:	00b20463          	beq	tp,a1,80002158 <inst_280>
80002154:	7950106f          	j	800040e8 <bad_trap>

80002158 <inst_280>:
80002158:	00200513          	li	a0,2
8000215c:	02e54593          	xori	a1,a0,46
80002160:	40b1a423          	sw	a1,1032(gp)
80002164:	02c00213          	li	tp,44
80002168:	00b20463          	beq	tp,a1,80002170 <inst_281>
8000216c:	77d0106f          	j	800040e8 <bad_trap>

80002170 <inst_281>:
80002170:	55555537          	lui	a0,0x55555
80002174:	55450513          	addi	a0,a0,1364 # 55555554 <absimm+0x10263025>
80002178:	00354593          	xori	a1,a0,3
8000217c:	40b1a623          	sw	a1,1036(gp)
80002180:	55555237          	lui	tp,0x55555
80002184:	55720213          	addi	tp,tp,1367 # 55555557 <absimm+0x10263028>
80002188:	00b20463          	beq	tp,a1,80002190 <inst_282>
8000218c:	75d0106f          	j	800040e8 <bad_trap>

80002190 <inst_282>:
80002190:	55555537          	lui	a0,0x55555
80002194:	55450513          	addi	a0,a0,1364 # 55555554 <absimm+0x10263025>
80002198:	55554593          	xori	a1,a0,1365
8000219c:	40b1a823          	sw	a1,1040(gp)
800021a0:	55555237          	lui	tp,0x55555
800021a4:	00120213          	addi	tp,tp,1 # 55555001 <absimm+0x10262ad2>
800021a8:	00b20463          	beq	tp,a1,800021b0 <inst_283>
800021ac:	73d0106f          	j	800040e8 <bad_trap>

800021b0 <inst_283>:
800021b0:	55555537          	lui	a0,0x55555
800021b4:	55450513          	addi	a0,a0,1364 # 55555554 <absimm+0x10263025>
800021b8:	aaa54593          	xori	a1,a0,-1366
800021bc:	40b1aa23          	sw	a1,1044(gp)
800021c0:	aaaab237          	lui	tp,0xaaaab
800021c4:	ffe20213          	addi	tp,tp,-2 # aaaaaffe <imm12+0xaaaab52e>
800021c8:	00b20463          	beq	tp,a1,800021d0 <inst_284>
800021cc:	71d0106f          	j	800040e8 <bad_trap>

800021d0 <inst_284>:
800021d0:	55555537          	lui	a0,0x55555
800021d4:	55450513          	addi	a0,a0,1364 # 55555554 <absimm+0x10263025>
800021d8:	00554593          	xori	a1,a0,5
800021dc:	40b1ac23          	sw	a1,1048(gp)
800021e0:	55555237          	lui	tp,0x55555
800021e4:	55120213          	addi	tp,tp,1361 # 55555551 <absimm+0x10263022>
800021e8:	00b20463          	beq	tp,a1,800021f0 <inst_285>
800021ec:	6fd0106f          	j	800040e8 <bad_trap>

800021f0 <inst_285>:
800021f0:	55555537          	lui	a0,0x55555
800021f4:	55450513          	addi	a0,a0,1364 # 55555554 <absimm+0x10263025>
800021f8:	33354593          	xori	a1,a0,819
800021fc:	40b1ae23          	sw	a1,1052(gp)
80002200:	55555237          	lui	tp,0x55555
80002204:	66720213          	addi	tp,tp,1639 # 55555667 <absimm+0x10263138>
80002208:	00b20463          	beq	tp,a1,80002210 <inst_286>
8000220c:	6dd0106f          	j	800040e8 <bad_trap>

80002210 <inst_286>:
80002210:	55555537          	lui	a0,0x55555
80002214:	55450513          	addi	a0,a0,1364 # 55555554 <absimm+0x10263025>
80002218:	66654593          	xori	a1,a0,1638
8000221c:	42b1a023          	sw	a1,1056(gp)
80002220:	55555237          	lui	tp,0x55555
80002224:	33220213          	addi	tp,tp,818 # 55555332 <absimm+0x10262e03>
80002228:	00b20463          	beq	tp,a1,80002230 <inst_287>
8000222c:	6bd0106f          	j	800040e8 <bad_trap>

80002230 <inst_287>:
80002230:	55555537          	lui	a0,0x55555
80002234:	55450513          	addi	a0,a0,1364 # 55555554 <absimm+0x10263025>
80002238:	fd354593          	xori	a1,a0,-45
8000223c:	42b1a223          	sw	a1,1060(gp)
80002240:	aaaab237          	lui	tp,0xaaaab
80002244:	a8720213          	addi	tp,tp,-1401 # aaaaaa87 <imm12+0xaaaaafb7>
80002248:	00b20463          	beq	tp,a1,80002250 <inst_288>
8000224c:	69d0106f          	j	800040e8 <bad_trap>

80002250 <inst_288>:
80002250:	55555537          	lui	a0,0x55555
80002254:	55450513          	addi	a0,a0,1364 # 55555554 <absimm+0x10263025>
80002258:	02d54593          	xori	a1,a0,45
8000225c:	42b1a423          	sw	a1,1064(gp)
80002260:	55555237          	lui	tp,0x55555
80002264:	57920213          	addi	tp,tp,1401 # 55555579 <absimm+0x1026304a>
80002268:	00b20463          	beq	tp,a1,80002270 <inst_289>
8000226c:	67d0106f          	j	800040e8 <bad_trap>

80002270 <inst_289>:
80002270:	55555537          	lui	a0,0x55555
80002274:	55450513          	addi	a0,a0,1364 # 55555554 <absimm+0x10263025>
80002278:	00254593          	xori	a1,a0,2
8000227c:	42b1a623          	sw	a1,1068(gp)
80002280:	55555237          	lui	tp,0x55555
80002284:	55620213          	addi	tp,tp,1366 # 55555556 <absimm+0x10263027>
80002288:	00b20463          	beq	tp,a1,80002290 <inst_290>
8000228c:	65d0106f          	j	800040e8 <bad_trap>

80002290 <inst_290>:
80002290:	55555537          	lui	a0,0x55555
80002294:	55450513          	addi	a0,a0,1364 # 55555554 <absimm+0x10263025>
80002298:	55454593          	xori	a1,a0,1364
8000229c:	42b1a823          	sw	a1,1072(gp)
800022a0:	55555237          	lui	tp,0x55555
800022a4:	00b20463          	beq	tp,a1,800022ac <inst_291>
800022a8:	6410106f          	j	800040e8 <bad_trap>

800022ac <inst_291>:
800022ac:	55555537          	lui	a0,0x55555
800022b0:	55450513          	addi	a0,a0,1364 # 55555554 <absimm+0x10263025>
800022b4:	00054593          	xori	a1,a0,0
800022b8:	42b1aa23          	sw	a1,1076(gp)
800022bc:	55555237          	lui	tp,0x55555
800022c0:	55420213          	addi	tp,tp,1364 # 55555554 <absimm+0x10263025>
800022c4:	00b20463          	beq	tp,a1,800022cc <inst_292>
800022c8:	6210106f          	j	800040e8 <bad_trap>

800022cc <inst_292>:
800022cc:	55555537          	lui	a0,0x55555
800022d0:	55450513          	addi	a0,a0,1364 # 55555554 <absimm+0x10263025>
800022d4:	00454593          	xori	a1,a0,4
800022d8:	42b1ac23          	sw	a1,1080(gp)
800022dc:	55555237          	lui	tp,0x55555
800022e0:	55020213          	addi	tp,tp,1360 # 55555550 <absimm+0x10263021>
800022e4:	00b20463          	beq	tp,a1,800022ec <inst_293>
800022e8:	6010106f          	j	800040e8 <bad_trap>

800022ec <inst_293>:
800022ec:	55555537          	lui	a0,0x55555
800022f0:	55450513          	addi	a0,a0,1364 # 55555554 <absimm+0x10263025>
800022f4:	33254593          	xori	a1,a0,818
800022f8:	42b1ae23          	sw	a1,1084(gp)
800022fc:	55555237          	lui	tp,0x55555
80002300:	66620213          	addi	tp,tp,1638 # 55555666 <absimm+0x10263137>
80002304:	00b20463          	beq	tp,a1,8000230c <inst_294>
80002308:	5e10106f          	j	800040e8 <bad_trap>

8000230c <inst_294>:
8000230c:	55555537          	lui	a0,0x55555
80002310:	55450513          	addi	a0,a0,1364 # 55555554 <absimm+0x10263025>
80002314:	66554593          	xori	a1,a0,1637
80002318:	44b1a023          	sw	a1,1088(gp)
8000231c:	55555237          	lui	tp,0x55555
80002320:	33120213          	addi	tp,tp,817 # 55555331 <absimm+0x10262e02>
80002324:	00b20463          	beq	tp,a1,8000232c <inst_295>
80002328:	5c10106f          	j	800040e8 <bad_trap>

8000232c <inst_295>:
8000232c:	55555537          	lui	a0,0x55555
80002330:	55450513          	addi	a0,a0,1364 # 55555554 <absimm+0x10263025>
80002334:	02c54593          	xori	a1,a0,44
80002338:	44b1a223          	sw	a1,1092(gp)
8000233c:	55555237          	lui	tp,0x55555
80002340:	57820213          	addi	tp,tp,1400 # 55555578 <absimm+0x10263049>
80002344:	00b20463          	beq	tp,a1,8000234c <inst_296>
80002348:	5a10106f          	j	800040e8 <bad_trap>

8000234c <inst_296>:
8000234c:	55555537          	lui	a0,0x55555
80002350:	55450513          	addi	a0,a0,1364 # 55555554 <absimm+0x10263025>
80002354:	55654593          	xori	a1,a0,1366
80002358:	44b1a423          	sw	a1,1096(gp)
8000235c:	55555237          	lui	tp,0x55555
80002360:	00220213          	addi	tp,tp,2 # 55555002 <absimm+0x10262ad3>
80002364:	00b20463          	beq	tp,a1,8000236c <inst_297>
80002368:	5810106f          	j	800040e8 <bad_trap>

8000236c <inst_297>:
8000236c:	55555537          	lui	a0,0x55555
80002370:	55450513          	addi	a0,a0,1364 # 55555554 <absimm+0x10263025>
80002374:	aab54593          	xori	a1,a0,-1365
80002378:	44b1a623          	sw	a1,1100(gp)
8000237c:	aaaab237          	lui	tp,0xaaaab
80002380:	fff20213          	addi	tp,tp,-1 # aaaaafff <imm12+0xaaaab52f>
80002384:	00b20463          	beq	tp,a1,8000238c <inst_298>
80002388:	5610106f          	j	800040e8 <bad_trap>

8000238c <inst_298>:
8000238c:	55555537          	lui	a0,0x55555
80002390:	55450513          	addi	a0,a0,1364 # 55555554 <absimm+0x10263025>
80002394:	00654593          	xori	a1,a0,6
80002398:	44b1a823          	sw	a1,1104(gp)
8000239c:	55555237          	lui	tp,0x55555
800023a0:	55220213          	addi	tp,tp,1362 # 55555552 <absimm+0x10263023>
800023a4:	00b20463          	beq	tp,a1,800023ac <inst_299>
800023a8:	5410106f          	j	800040e8 <bad_trap>

800023ac <inst_299>:
800023ac:	55555537          	lui	a0,0x55555
800023b0:	55450513          	addi	a0,a0,1364 # 55555554 <absimm+0x10263025>
800023b4:	33454593          	xori	a1,a0,820
800023b8:	44b1aa23          	sw	a1,1108(gp)
800023bc:	55555237          	lui	tp,0x55555
800023c0:	66020213          	addi	tp,tp,1632 # 55555660 <absimm+0x10263131>
800023c4:	00b20463          	beq	tp,a1,800023cc <inst_300>
800023c8:	5210106f          	j	800040e8 <bad_trap>

800023cc <inst_300>:
800023cc:	55555537          	lui	a0,0x55555
800023d0:	55450513          	addi	a0,a0,1364 # 55555554 <absimm+0x10263025>
800023d4:	66754593          	xori	a1,a0,1639
800023d8:	44b1ac23          	sw	a1,1112(gp)
800023dc:	55555237          	lui	tp,0x55555
800023e0:	33320213          	addi	tp,tp,819 # 55555333 <absimm+0x10262e04>
800023e4:	00b20463          	beq	tp,a1,800023ec <inst_301>
800023e8:	5010106f          	j	800040e8 <bad_trap>

800023ec <inst_301>:
800023ec:	55555537          	lui	a0,0x55555
800023f0:	55450513          	addi	a0,a0,1364 # 55555554 <absimm+0x10263025>
800023f4:	fd454593          	xori	a1,a0,-44
800023f8:	44b1ae23          	sw	a1,1116(gp)
800023fc:	aaaab237          	lui	tp,0xaaaab
80002400:	a8020213          	addi	tp,tp,-1408 # aaaaaa80 <imm12+0xaaaaafb0>
80002404:	00b20463          	beq	tp,a1,8000240c <inst_302>
80002408:	4e10106f          	j	800040e8 <bad_trap>

8000240c <inst_302>:
8000240c:	55555537          	lui	a0,0x55555
80002410:	55450513          	addi	a0,a0,1364 # 55555554 <absimm+0x10263025>
80002414:	02e54593          	xori	a1,a0,46
80002418:	46b1a023          	sw	a1,1120(gp)
8000241c:	55555237          	lui	tp,0x55555
80002420:	57a20213          	addi	tp,tp,1402 # 5555557a <absimm+0x1026304b>
80002424:	00b20463          	beq	tp,a1,8000242c <inst_303>
80002428:	4c10106f          	j	800040e8 <bad_trap>

8000242c <inst_303>:
8000242c:	00000513          	li	a0,0
80002430:	00354593          	xori	a1,a0,3
80002434:	46b1a223          	sw	a1,1124(gp)
80002438:	00300213          	li	tp,3
8000243c:	00b20463          	beq	tp,a1,80002444 <inst_304>
80002440:	4a90106f          	j	800040e8 <bad_trap>

80002444 <inst_304>:
80002444:	00000513          	li	a0,0
80002448:	55554593          	xori	a1,a0,1365
8000244c:	46b1a423          	sw	a1,1128(gp)
80002450:	55500213          	li	tp,1365
80002454:	00b20463          	beq	tp,a1,8000245c <inst_305>
80002458:	4910106f          	j	800040e8 <bad_trap>

8000245c <inst_305>:
8000245c:	00000513          	li	a0,0
80002460:	aaa54593          	xori	a1,a0,-1366
80002464:	46b1a623          	sw	a1,1132(gp)
80002468:	aaa00213          	li	tp,-1366
8000246c:	00b20463          	beq	tp,a1,80002474 <inst_306>
80002470:	4790106f          	j	800040e8 <bad_trap>

80002474 <inst_306>:
80002474:	00000513          	li	a0,0
80002478:	00554593          	xori	a1,a0,5
8000247c:	46b1a823          	sw	a1,1136(gp)
80002480:	00500213          	li	tp,5
80002484:	00b20463          	beq	tp,a1,8000248c <inst_307>
80002488:	4610106f          	j	800040e8 <bad_trap>

8000248c <inst_307>:
8000248c:	00000513          	li	a0,0
80002490:	33354593          	xori	a1,a0,819
80002494:	46b1aa23          	sw	a1,1140(gp)
80002498:	33300213          	li	tp,819
8000249c:	00b20463          	beq	tp,a1,800024a4 <inst_308>
800024a0:	4490106f          	j	800040e8 <bad_trap>

800024a4 <inst_308>:
800024a4:	00000513          	li	a0,0
800024a8:	66654593          	xori	a1,a0,1638
800024ac:	46b1ac23          	sw	a1,1144(gp)
800024b0:	66600213          	li	tp,1638
800024b4:	00b20463          	beq	tp,a1,800024bc <inst_309>
800024b8:	4310106f          	j	800040e8 <bad_trap>

800024bc <inst_309>:
800024bc:	00000513          	li	a0,0
800024c0:	fd354593          	xori	a1,a0,-45
800024c4:	46b1ae23          	sw	a1,1148(gp)
800024c8:	fd300213          	li	tp,-45
800024cc:	00b20463          	beq	tp,a1,800024d4 <inst_310>
800024d0:	4190106f          	j	800040e8 <bad_trap>

800024d4 <inst_310>:
800024d4:	00000513          	li	a0,0
800024d8:	02d54593          	xori	a1,a0,45
800024dc:	48b1a023          	sw	a1,1152(gp)
800024e0:	02d00213          	li	tp,45
800024e4:	00b20463          	beq	tp,a1,800024ec <inst_311>
800024e8:	4010106f          	j	800040e8 <bad_trap>

800024ec <inst_311>:
800024ec:	33333537          	lui	a0,0x33333
800024f0:	33450513          	addi	a0,a0,820 # 33333334 <offset+0x333332b4>
800024f4:	33254593          	xori	a1,a0,818
800024f8:	48b1a223          	sw	a1,1156(gp)
800024fc:	33333237          	lui	tp,0x33333
80002500:	00620213          	addi	tp,tp,6 # 33333006 <offset+0x33332f86>
80002504:	00b20463          	beq	tp,a1,8000250c <inst_312>
80002508:	3e10106f          	j	800040e8 <bad_trap>

8000250c <inst_312>:
8000250c:	33333537          	lui	a0,0x33333
80002510:	33450513          	addi	a0,a0,820 # 33333334 <offset+0x333332b4>
80002514:	66554593          	xori	a1,a0,1637
80002518:	48b1a423          	sw	a1,1160(gp)
8000251c:	33333237          	lui	tp,0x33333
80002520:	55120213          	addi	tp,tp,1361 # 33333551 <offset+0x333334d1>
80002524:	00b20463          	beq	tp,a1,8000252c <inst_313>
80002528:	3c10106f          	j	800040e8 <bad_trap>

8000252c <inst_313>:
8000252c:	33333537          	lui	a0,0x33333
80002530:	33450513          	addi	a0,a0,820 # 33333334 <offset+0x333332b4>
80002534:	02c54593          	xori	a1,a0,44
80002538:	48b1a623          	sw	a1,1164(gp)
8000253c:	33333237          	lui	tp,0x33333
80002540:	31820213          	addi	tp,tp,792 # 33333318 <offset+0x33333298>
80002544:	00b20463          	beq	tp,a1,8000254c <inst_314>
80002548:	3a10106f          	j	800040e8 <bad_trap>

8000254c <inst_314>:
8000254c:	33333537          	lui	a0,0x33333
80002550:	33450513          	addi	a0,a0,820 # 33333334 <offset+0x333332b4>
80002554:	55654593          	xori	a1,a0,1366
80002558:	48b1a823          	sw	a1,1168(gp)
8000255c:	33333237          	lui	tp,0x33333
80002560:	66220213          	addi	tp,tp,1634 # 33333662 <offset+0x333335e2>
80002564:	00b20463          	beq	tp,a1,8000256c <inst_315>
80002568:	3810106f          	j	800040e8 <bad_trap>

8000256c <inst_315>:
8000256c:	33333537          	lui	a0,0x33333
80002570:	33450513          	addi	a0,a0,820 # 33333334 <offset+0x333332b4>
80002574:	aab54593          	xori	a1,a0,-1365
80002578:	48b1aa23          	sw	a1,1172(gp)
8000257c:	ccccd237          	lui	tp,0xccccd
80002580:	99f20213          	addi	tp,tp,-1633 # ccccc99f <imm12+0xcccccecf>
80002584:	00b20463          	beq	tp,a1,8000258c <inst_316>
80002588:	3610106f          	j	800040e8 <bad_trap>

8000258c <inst_316>:
8000258c:	33333537          	lui	a0,0x33333
80002590:	33450513          	addi	a0,a0,820 # 33333334 <offset+0x333332b4>
80002594:	00654593          	xori	a1,a0,6
80002598:	48b1ac23          	sw	a1,1176(gp)
8000259c:	33333237          	lui	tp,0x33333
800025a0:	33220213          	addi	tp,tp,818 # 33333332 <offset+0x333332b2>
800025a4:	00b20463          	beq	tp,a1,800025ac <inst_317>
800025a8:	3410106f          	j	800040e8 <bad_trap>

800025ac <inst_317>:
800025ac:	33333537          	lui	a0,0x33333
800025b0:	33450513          	addi	a0,a0,820 # 33333334 <offset+0x333332b4>
800025b4:	33454593          	xori	a1,a0,820
800025b8:	48b1ae23          	sw	a1,1180(gp)
800025bc:	33333237          	lui	tp,0x33333
800025c0:	00b20463          	beq	tp,a1,800025c8 <inst_318>
800025c4:	3250106f          	j	800040e8 <bad_trap>

800025c8 <inst_318>:
800025c8:	33333537          	lui	a0,0x33333
800025cc:	33450513          	addi	a0,a0,820 # 33333334 <offset+0x333332b4>
800025d0:	66754593          	xori	a1,a0,1639
800025d4:	4ab1a023          	sw	a1,1184(gp)
800025d8:	33333237          	lui	tp,0x33333
800025dc:	55320213          	addi	tp,tp,1363 # 33333553 <offset+0x333334d3>
800025e0:	00b20463          	beq	tp,a1,800025e8 <inst_319>
800025e4:	3050106f          	j	800040e8 <bad_trap>

800025e8 <inst_319>:
800025e8:	33333537          	lui	a0,0x33333
800025ec:	33450513          	addi	a0,a0,820 # 33333334 <offset+0x333332b4>
800025f0:	fd454593          	xori	a1,a0,-44
800025f4:	4ab1a223          	sw	a1,1188(gp)
800025f8:	ccccd237          	lui	tp,0xccccd
800025fc:	ce020213          	addi	tp,tp,-800 # cccccce0 <imm12+0xccccd210>
80002600:	00b20463          	beq	tp,a1,80002608 <inst_320>
80002604:	2e50106f          	j	800040e8 <bad_trap>

80002608 <inst_320>:
80002608:	33333537          	lui	a0,0x33333
8000260c:	33450513          	addi	a0,a0,820 # 33333334 <offset+0x333332b4>
80002610:	02e54593          	xori	a1,a0,46
80002614:	4ab1a423          	sw	a1,1192(gp)
80002618:	33333237          	lui	tp,0x33333
8000261c:	31a20213          	addi	tp,tp,794 # 3333331a <offset+0x3333329a>
80002620:	00b20463          	beq	tp,a1,80002628 <inst_321>
80002624:	2c50106f          	j	800040e8 <bad_trap>

80002628 <inst_321>:
80002628:	66666537          	lui	a0,0x66666
8000262c:	66750513          	addi	a0,a0,1639 # 66666667 <absimm+0x21374138>
80002630:	00354593          	xori	a1,a0,3
80002634:	4ab1a623          	sw	a1,1196(gp)
80002638:	66666237          	lui	tp,0x66666
8000263c:	66420213          	addi	tp,tp,1636 # 66666664 <absimm+0x21374135>
80002640:	00b20463          	beq	tp,a1,80002648 <inst_322>
80002644:	2a50106f          	j	800040e8 <bad_trap>

80002648 <inst_322>:
80002648:	66666537          	lui	a0,0x66666
8000264c:	66750513          	addi	a0,a0,1639 # 66666667 <absimm+0x21374138>
80002650:	55554593          	xori	a1,a0,1365
80002654:	4ab1a823          	sw	a1,1200(gp)
80002658:	66666237          	lui	tp,0x66666
8000265c:	33220213          	addi	tp,tp,818 # 66666332 <absimm+0x21373e03>
80002660:	00b20463          	beq	tp,a1,80002668 <inst_323>
80002664:	2850106f          	j	800040e8 <bad_trap>

80002668 <inst_323>:
80002668:	66666537          	lui	a0,0x66666
8000266c:	66750513          	addi	a0,a0,1639 # 66666667 <absimm+0x21374138>
80002670:	aaa54593          	xori	a1,a0,-1366
80002674:	4ab1aa23          	sw	a1,1204(gp)
80002678:	9999a237          	lui	tp,0x9999a
8000267c:	ccd20213          	addi	tp,tp,-819 # 99999ccd <imm12+0x9999a1fd>
80002680:	00b20463          	beq	tp,a1,80002688 <inst_324>
80002684:	2650106f          	j	800040e8 <bad_trap>

80002688 <inst_324>:
80002688:	66666537          	lui	a0,0x66666
8000268c:	66750513          	addi	a0,a0,1639 # 66666667 <absimm+0x21374138>
80002690:	00554593          	xori	a1,a0,5
80002694:	4ab1ac23          	sw	a1,1208(gp)
80002698:	66666237          	lui	tp,0x66666
8000269c:	66220213          	addi	tp,tp,1634 # 66666662 <absimm+0x21374133>
800026a0:	00b20463          	beq	tp,a1,800026a8 <inst_325>
800026a4:	2450106f          	j	800040e8 <bad_trap>

800026a8 <inst_325>:
800026a8:	66666537          	lui	a0,0x66666
800026ac:	66750513          	addi	a0,a0,1639 # 66666667 <absimm+0x21374138>
800026b0:	33354593          	xori	a1,a0,819
800026b4:	4ab1ae23          	sw	a1,1212(gp)
800026b8:	66666237          	lui	tp,0x66666
800026bc:	55420213          	addi	tp,tp,1364 # 66666554 <absimm+0x21374025>
800026c0:	00b20463          	beq	tp,a1,800026c8 <inst_326>
800026c4:	2250106f          	j	800040e8 <bad_trap>

800026c8 <inst_326>:
800026c8:	66666537          	lui	a0,0x66666
800026cc:	66750513          	addi	a0,a0,1639 # 66666667 <absimm+0x21374138>
800026d0:	66654593          	xori	a1,a0,1638
800026d4:	4cb1a023          	sw	a1,1216(gp)
800026d8:	66666237          	lui	tp,0x66666
800026dc:	00120213          	addi	tp,tp,1 # 66666001 <absimm+0x21373ad2>
800026e0:	00b20463          	beq	tp,a1,800026e8 <inst_327>
800026e4:	2050106f          	j	800040e8 <bad_trap>

800026e8 <inst_327>:
800026e8:	66666537          	lui	a0,0x66666
800026ec:	66750513          	addi	a0,a0,1639 # 66666667 <absimm+0x21374138>
800026f0:	fd354593          	xori	a1,a0,-45
800026f4:	4cb1a223          	sw	a1,1220(gp)
800026f8:	9999a237          	lui	tp,0x9999a
800026fc:	9b420213          	addi	tp,tp,-1612 # 999999b4 <imm12+0x99999ee4>
80002700:	00b20463          	beq	tp,a1,80002708 <inst_328>
80002704:	1e50106f          	j	800040e8 <bad_trap>

80002708 <inst_328>:
80002708:	66666537          	lui	a0,0x66666
8000270c:	66750513          	addi	a0,a0,1639 # 66666667 <absimm+0x21374138>
80002710:	02d54593          	xori	a1,a0,45
80002714:	4cb1a423          	sw	a1,1224(gp)
80002718:	66666237          	lui	tp,0x66666
8000271c:	64a20213          	addi	tp,tp,1610 # 6666664a <absimm+0x2137411b>
80002720:	00b20463          	beq	tp,a1,80002728 <inst_329>
80002724:	1c50106f          	j	800040e8 <bad_trap>

80002728 <inst_329>:
80002728:	66666537          	lui	a0,0x66666
8000272c:	66750513          	addi	a0,a0,1639 # 66666667 <absimm+0x21374138>
80002730:	00254593          	xori	a1,a0,2
80002734:	4cb1a623          	sw	a1,1228(gp)
80002738:	66666237          	lui	tp,0x66666
8000273c:	66520213          	addi	tp,tp,1637 # 66666665 <absimm+0x21374136>
80002740:	00b20463          	beq	tp,a1,80002748 <inst_330>
80002744:	1a50106f          	j	800040e8 <bad_trap>

80002748 <inst_330>:
80002748:	66666537          	lui	a0,0x66666
8000274c:	66750513          	addi	a0,a0,1639 # 66666667 <absimm+0x21374138>
80002750:	55454593          	xori	a1,a0,1364
80002754:	4cb1a823          	sw	a1,1232(gp)
80002758:	66666237          	lui	tp,0x66666
8000275c:	33320213          	addi	tp,tp,819 # 66666333 <absimm+0x21373e04>
80002760:	00b20463          	beq	tp,a1,80002768 <inst_331>
80002764:	1850106f          	j	800040e8 <bad_trap>

80002768 <inst_331>:
80002768:	66666537          	lui	a0,0x66666
8000276c:	66750513          	addi	a0,a0,1639 # 66666667 <absimm+0x21374138>
80002770:	00054593          	xori	a1,a0,0
80002774:	4cb1aa23          	sw	a1,1236(gp)
80002778:	66666237          	lui	tp,0x66666
8000277c:	66720213          	addi	tp,tp,1639 # 66666667 <absimm+0x21374138>
80002780:	00b20463          	beq	tp,a1,80002788 <inst_332>
80002784:	1650106f          	j	800040e8 <bad_trap>

80002788 <inst_332>:
80002788:	66666537          	lui	a0,0x66666
8000278c:	66750513          	addi	a0,a0,1639 # 66666667 <absimm+0x21374138>
80002790:	00454593          	xori	a1,a0,4
80002794:	4cb1ac23          	sw	a1,1240(gp)
80002798:	66666237          	lui	tp,0x66666
8000279c:	66320213          	addi	tp,tp,1635 # 66666663 <absimm+0x21374134>
800027a0:	00b20463          	beq	tp,a1,800027a8 <inst_333>
800027a4:	1450106f          	j	800040e8 <bad_trap>

800027a8 <inst_333>:
800027a8:	66666537          	lui	a0,0x66666
800027ac:	66750513          	addi	a0,a0,1639 # 66666667 <absimm+0x21374138>
800027b0:	33254593          	xori	a1,a0,818
800027b4:	4cb1ae23          	sw	a1,1244(gp)
800027b8:	66666237          	lui	tp,0x66666
800027bc:	55520213          	addi	tp,tp,1365 # 66666555 <absimm+0x21374026>
800027c0:	00b20463          	beq	tp,a1,800027c8 <inst_334>
800027c4:	1250106f          	j	800040e8 <bad_trap>

800027c8 <inst_334>:
800027c8:	66666537          	lui	a0,0x66666
800027cc:	66750513          	addi	a0,a0,1639 # 66666667 <absimm+0x21374138>
800027d0:	66554593          	xori	a1,a0,1637
800027d4:	4eb1a023          	sw	a1,1248(gp)
800027d8:	66666237          	lui	tp,0x66666
800027dc:	00220213          	addi	tp,tp,2 # 66666002 <absimm+0x21373ad3>
800027e0:	00b20463          	beq	tp,a1,800027e8 <inst_335>
800027e4:	1050106f          	j	800040e8 <bad_trap>

800027e8 <inst_335>:
800027e8:	66666537          	lui	a0,0x66666
800027ec:	66750513          	addi	a0,a0,1639 # 66666667 <absimm+0x21374138>
800027f0:	02c54593          	xori	a1,a0,44
800027f4:	4eb1a223          	sw	a1,1252(gp)
800027f8:	66666237          	lui	tp,0x66666
800027fc:	64b20213          	addi	tp,tp,1611 # 6666664b <absimm+0x2137411c>
80002800:	00b20463          	beq	tp,a1,80002808 <inst_336>
80002804:	0e50106f          	j	800040e8 <bad_trap>

80002808 <inst_336>:
80002808:	66666537          	lui	a0,0x66666
8000280c:	66750513          	addi	a0,a0,1639 # 66666667 <absimm+0x21374138>
80002810:	55654593          	xori	a1,a0,1366
80002814:	4eb1a423          	sw	a1,1256(gp)
80002818:	66666237          	lui	tp,0x66666
8000281c:	33120213          	addi	tp,tp,817 # 66666331 <absimm+0x21373e02>
80002820:	00b20463          	beq	tp,a1,80002828 <inst_337>
80002824:	0c50106f          	j	800040e8 <bad_trap>

80002828 <inst_337>:
80002828:	66666537          	lui	a0,0x66666
8000282c:	66750513          	addi	a0,a0,1639 # 66666667 <absimm+0x21374138>
80002830:	aab54593          	xori	a1,a0,-1365
80002834:	4eb1a623          	sw	a1,1260(gp)
80002838:	9999a237          	lui	tp,0x9999a
8000283c:	ccc20213          	addi	tp,tp,-820 # 99999ccc <imm12+0x9999a1fc>
80002840:	00b20463          	beq	tp,a1,80002848 <inst_338>
80002844:	0a50106f          	j	800040e8 <bad_trap>

80002848 <inst_338>:
80002848:	66666537          	lui	a0,0x66666
8000284c:	66750513          	addi	a0,a0,1639 # 66666667 <absimm+0x21374138>
80002850:	00654593          	xori	a1,a0,6
80002854:	4eb1a823          	sw	a1,1264(gp)
80002858:	66666237          	lui	tp,0x66666
8000285c:	66120213          	addi	tp,tp,1633 # 66666661 <absimm+0x21374132>
80002860:	00b20463          	beq	tp,a1,80002868 <inst_339>
80002864:	0850106f          	j	800040e8 <bad_trap>

80002868 <inst_339>:
80002868:	66666537          	lui	a0,0x66666
8000286c:	66750513          	addi	a0,a0,1639 # 66666667 <absimm+0x21374138>
80002870:	33454593          	xori	a1,a0,820
80002874:	4eb1aa23          	sw	a1,1268(gp)
80002878:	66666237          	lui	tp,0x66666
8000287c:	55320213          	addi	tp,tp,1363 # 66666553 <absimm+0x21374024>
80002880:	00b20463          	beq	tp,a1,80002888 <inst_340>
80002884:	0650106f          	j	800040e8 <bad_trap>

80002888 <inst_340>:
80002888:	66666537          	lui	a0,0x66666
8000288c:	66750513          	addi	a0,a0,1639 # 66666667 <absimm+0x21374138>
80002890:	66754593          	xori	a1,a0,1639
80002894:	4eb1ac23          	sw	a1,1272(gp)
80002898:	66666237          	lui	tp,0x66666
8000289c:	00b20463          	beq	tp,a1,800028a4 <inst_341>
800028a0:	0490106f          	j	800040e8 <bad_trap>

800028a4 <inst_341>:
800028a4:	66666537          	lui	a0,0x66666
800028a8:	66750513          	addi	a0,a0,1639 # 66666667 <absimm+0x21374138>
800028ac:	fd454593          	xori	a1,a0,-44
800028b0:	4eb1ae23          	sw	a1,1276(gp)
800028b4:	9999a237          	lui	tp,0x9999a
800028b8:	9b320213          	addi	tp,tp,-1613 # 999999b3 <imm12+0x99999ee3>
800028bc:	00b20463          	beq	tp,a1,800028c4 <inst_342>
800028c0:	0290106f          	j	800040e8 <bad_trap>

800028c4 <inst_342>:
800028c4:	66666537          	lui	a0,0x66666
800028c8:	66750513          	addi	a0,a0,1639 # 66666667 <absimm+0x21374138>
800028cc:	02e54593          	xori	a1,a0,46
800028d0:	50b1a023          	sw	a1,1280(gp)
800028d4:	66666237          	lui	tp,0x66666
800028d8:	64920213          	addi	tp,tp,1609 # 66666649 <absimm+0x2137411a>
800028dc:	00b20463          	beq	tp,a1,800028e4 <inst_343>
800028e0:	0090106f          	j	800040e8 <bad_trap>

800028e4 <inst_343>:
800028e4:	ffff5537          	lui	a0,0xffff5
800028e8:	afd50513          	addi	a0,a0,-1283 # ffff4afd <imm12+0xffff502d>
800028ec:	00354593          	xori	a1,a0,3
800028f0:	50b1a223          	sw	a1,1284(gp)
800028f4:	ffff5237          	lui	tp,0xffff5
800028f8:	afe20213          	addi	tp,tp,-1282 # ffff4afe <imm12+0xffff502e>
800028fc:	00b20463          	beq	tp,a1,80002904 <inst_344>
80002900:	7e80106f          	j	800040e8 <bad_trap>

80002904 <inst_344>:
80002904:	ffff5537          	lui	a0,0xffff5
80002908:	afd50513          	addi	a0,a0,-1283 # ffff4afd <imm12+0xffff502d>
8000290c:	55554593          	xori	a1,a0,1365
80002910:	50b1a423          	sw	a1,1288(gp)
80002914:	ffff5237          	lui	tp,0xffff5
80002918:	fa820213          	addi	tp,tp,-88 # ffff4fa8 <imm12+0xffff54d8>
8000291c:	00b20463          	beq	tp,a1,80002924 <inst_345>
80002920:	7c80106f          	j	800040e8 <bad_trap>

80002924 <inst_345>:
80002924:	ffff5537          	lui	a0,0xffff5
80002928:	afd50513          	addi	a0,a0,-1283 # ffff4afd <imm12+0xffff502d>
8000292c:	aaa54593          	xori	a1,a0,-1366
80002930:	50b1a623          	sw	a1,1292(gp)
80002934:	0000b237          	lui	tp,0xb
80002938:	05720213          	addi	tp,tp,87 # b057 <offset+0xafd7>
8000293c:	00b20463          	beq	tp,a1,80002944 <inst_346>
80002940:	7a80106f          	j	800040e8 <bad_trap>

80002944 <inst_346>:
80002944:	ffff5537          	lui	a0,0xffff5
80002948:	afd50513          	addi	a0,a0,-1283 # ffff4afd <imm12+0xffff502d>
8000294c:	00554593          	xori	a1,a0,5
80002950:	50b1a823          	sw	a1,1296(gp)
80002954:	ffff5237          	lui	tp,0xffff5
80002958:	af820213          	addi	tp,tp,-1288 # ffff4af8 <imm12+0xffff5028>
8000295c:	00b20463          	beq	tp,a1,80002964 <inst_347>
80002960:	7880106f          	j	800040e8 <bad_trap>

80002964 <inst_347>:
80002964:	ffff5537          	lui	a0,0xffff5
80002968:	afd50513          	addi	a0,a0,-1283 # ffff4afd <imm12+0xffff502d>
8000296c:	33354593          	xori	a1,a0,819
80002970:	50b1aa23          	sw	a1,1300(gp)
80002974:	ffff5237          	lui	tp,0xffff5
80002978:	9ce20213          	addi	tp,tp,-1586 # ffff49ce <imm12+0xffff4efe>
8000297c:	00b20463          	beq	tp,a1,80002984 <inst_348>
80002980:	7680106f          	j	800040e8 <bad_trap>

80002984 <inst_348>:
80002984:	ffff5537          	lui	a0,0xffff5
80002988:	afd50513          	addi	a0,a0,-1283 # ffff4afd <imm12+0xffff502d>
8000298c:	66654593          	xori	a1,a0,1638
80002990:	50b1ac23          	sw	a1,1304(gp)
80002994:	ffff5237          	lui	tp,0xffff5
80002998:	c9b20213          	addi	tp,tp,-869 # ffff4c9b <imm12+0xffff51cb>
8000299c:	00b20463          	beq	tp,a1,800029a4 <inst_349>
800029a0:	7480106f          	j	800040e8 <bad_trap>

800029a4 <inst_349>:
800029a4:	ffff5537          	lui	a0,0xffff5
800029a8:	afd50513          	addi	a0,a0,-1283 # ffff4afd <imm12+0xffff502d>
800029ac:	fd354593          	xori	a1,a0,-45
800029b0:	50b1ae23          	sw	a1,1308(gp)
800029b4:	0000b237          	lui	tp,0xb
800029b8:	52e20213          	addi	tp,tp,1326 # b52e <offset+0xb4ae>
800029bc:	00b20463          	beq	tp,a1,800029c4 <inst_350>
800029c0:	7280106f          	j	800040e8 <bad_trap>

800029c4 <inst_350>:
800029c4:	ffff5537          	lui	a0,0xffff5
800029c8:	afd50513          	addi	a0,a0,-1283 # ffff4afd <imm12+0xffff502d>
800029cc:	02d54593          	xori	a1,a0,45
800029d0:	52b1a023          	sw	a1,1312(gp)
800029d4:	ffff5237          	lui	tp,0xffff5
800029d8:	ad020213          	addi	tp,tp,-1328 # ffff4ad0 <imm12+0xffff5000>
800029dc:	00b20463          	beq	tp,a1,800029e4 <inst_351>
800029e0:	7080106f          	j	800040e8 <bad_trap>

800029e4 <inst_351>:
800029e4:	ffff5537          	lui	a0,0xffff5
800029e8:	afd50513          	addi	a0,a0,-1283 # ffff4afd <imm12+0xffff502d>
800029ec:	00254593          	xori	a1,a0,2
800029f0:	52b1a223          	sw	a1,1316(gp)
800029f4:	ffff5237          	lui	tp,0xffff5
800029f8:	aff20213          	addi	tp,tp,-1281 # ffff4aff <imm12+0xffff502f>
800029fc:	00b20463          	beq	tp,a1,80002a04 <inst_352>
80002a00:	6e80106f          	j	800040e8 <bad_trap>

80002a04 <inst_352>:
80002a04:	ffff5537          	lui	a0,0xffff5
80002a08:	afd50513          	addi	a0,a0,-1283 # ffff4afd <imm12+0xffff502d>
80002a0c:	55454593          	xori	a1,a0,1364
80002a10:	52b1a423          	sw	a1,1320(gp)
80002a14:	ffff5237          	lui	tp,0xffff5
80002a18:	fa920213          	addi	tp,tp,-87 # ffff4fa9 <imm12+0xffff54d9>
80002a1c:	00b20463          	beq	tp,a1,80002a24 <inst_353>
80002a20:	6c80106f          	j	800040e8 <bad_trap>

80002a24 <inst_353>:
80002a24:	ffff5537          	lui	a0,0xffff5
80002a28:	afd50513          	addi	a0,a0,-1283 # ffff4afd <imm12+0xffff502d>
80002a2c:	00054593          	xori	a1,a0,0
80002a30:	52b1a623          	sw	a1,1324(gp)
80002a34:	ffff5237          	lui	tp,0xffff5
80002a38:	afd20213          	addi	tp,tp,-1283 # ffff4afd <imm12+0xffff502d>
80002a3c:	00b20463          	beq	tp,a1,80002a44 <inst_354>
80002a40:	6a80106f          	j	800040e8 <bad_trap>

80002a44 <inst_354>:
80002a44:	ffff5537          	lui	a0,0xffff5
80002a48:	afd50513          	addi	a0,a0,-1283 # ffff4afd <imm12+0xffff502d>
80002a4c:	00454593          	xori	a1,a0,4
80002a50:	52b1a823          	sw	a1,1328(gp)
80002a54:	ffff5237          	lui	tp,0xffff5
80002a58:	af920213          	addi	tp,tp,-1287 # ffff4af9 <imm12+0xffff5029>
80002a5c:	00b20463          	beq	tp,a1,80002a64 <inst_355>
80002a60:	6880106f          	j	800040e8 <bad_trap>

80002a64 <inst_355>:
80002a64:	ffff5537          	lui	a0,0xffff5
80002a68:	afd50513          	addi	a0,a0,-1283 # ffff4afd <imm12+0xffff502d>
80002a6c:	33254593          	xori	a1,a0,818
80002a70:	52b1aa23          	sw	a1,1332(gp)
80002a74:	ffff5237          	lui	tp,0xffff5
80002a78:	9cf20213          	addi	tp,tp,-1585 # ffff49cf <imm12+0xffff4eff>
80002a7c:	00b20463          	beq	tp,a1,80002a84 <inst_356>
80002a80:	6680106f          	j	800040e8 <bad_trap>

80002a84 <inst_356>:
80002a84:	ffff5537          	lui	a0,0xffff5
80002a88:	afd50513          	addi	a0,a0,-1283 # ffff4afd <imm12+0xffff502d>
80002a8c:	66554593          	xori	a1,a0,1637
80002a90:	52b1ac23          	sw	a1,1336(gp)
80002a94:	ffff5237          	lui	tp,0xffff5
80002a98:	c9820213          	addi	tp,tp,-872 # ffff4c98 <imm12+0xffff51c8>
80002a9c:	00b20463          	beq	tp,a1,80002aa4 <inst_357>
80002aa0:	6480106f          	j	800040e8 <bad_trap>

80002aa4 <inst_357>:
80002aa4:	ffff5537          	lui	a0,0xffff5
80002aa8:	afd50513          	addi	a0,a0,-1283 # ffff4afd <imm12+0xffff502d>
80002aac:	02c54593          	xori	a1,a0,44
80002ab0:	52b1ae23          	sw	a1,1340(gp)
80002ab4:	ffff5237          	lui	tp,0xffff5
80002ab8:	ad120213          	addi	tp,tp,-1327 # ffff4ad1 <imm12+0xffff5001>
80002abc:	00b20463          	beq	tp,a1,80002ac4 <inst_358>
80002ac0:	6280106f          	j	800040e8 <bad_trap>

80002ac4 <inst_358>:
80002ac4:	ffff5537          	lui	a0,0xffff5
80002ac8:	afd50513          	addi	a0,a0,-1283 # ffff4afd <imm12+0xffff502d>
80002acc:	55654593          	xori	a1,a0,1366
80002ad0:	54b1a023          	sw	a1,1344(gp)
80002ad4:	ffff5237          	lui	tp,0xffff5
80002ad8:	fab20213          	addi	tp,tp,-85 # ffff4fab <imm12+0xffff54db>
80002adc:	00b20463          	beq	tp,a1,80002ae4 <inst_359>
80002ae0:	6080106f          	j	800040e8 <bad_trap>

80002ae4 <inst_359>:
80002ae4:	ffff5537          	lui	a0,0xffff5
80002ae8:	afd50513          	addi	a0,a0,-1283 # ffff4afd <imm12+0xffff502d>
80002aec:	aab54593          	xori	a1,a0,-1365
80002af0:	54b1a223          	sw	a1,1348(gp)
80002af4:	0000b237          	lui	tp,0xb
80002af8:	05620213          	addi	tp,tp,86 # b056 <offset+0xafd6>
80002afc:	00b20463          	beq	tp,a1,80002b04 <inst_360>
80002b00:	5e80106f          	j	800040e8 <bad_trap>

80002b04 <inst_360>:
80002b04:	ffff5537          	lui	a0,0xffff5
80002b08:	afd50513          	addi	a0,a0,-1283 # ffff4afd <imm12+0xffff502d>
80002b0c:	00654593          	xori	a1,a0,6
80002b10:	54b1a423          	sw	a1,1352(gp)
80002b14:	ffff5237          	lui	tp,0xffff5
80002b18:	afb20213          	addi	tp,tp,-1285 # ffff4afb <imm12+0xffff502b>
80002b1c:	00b20463          	beq	tp,a1,80002b24 <inst_361>
80002b20:	5c80106f          	j	800040e8 <bad_trap>

80002b24 <inst_361>:
80002b24:	ffff5537          	lui	a0,0xffff5
80002b28:	afd50513          	addi	a0,a0,-1283 # ffff4afd <imm12+0xffff502d>
80002b2c:	33454593          	xori	a1,a0,820
80002b30:	54b1a623          	sw	a1,1356(gp)
80002b34:	ffff5237          	lui	tp,0xffff5
80002b38:	9c920213          	addi	tp,tp,-1591 # ffff49c9 <imm12+0xffff4ef9>
80002b3c:	00b20463          	beq	tp,a1,80002b44 <inst_362>
80002b40:	5a80106f          	j	800040e8 <bad_trap>

80002b44 <inst_362>:
80002b44:	ffff5537          	lui	a0,0xffff5
80002b48:	afd50513          	addi	a0,a0,-1283 # ffff4afd <imm12+0xffff502d>
80002b4c:	66754593          	xori	a1,a0,1639
80002b50:	54b1a823          	sw	a1,1360(gp)
80002b54:	ffff5237          	lui	tp,0xffff5
80002b58:	c9a20213          	addi	tp,tp,-870 # ffff4c9a <imm12+0xffff51ca>
80002b5c:	00b20463          	beq	tp,a1,80002b64 <inst_363>
80002b60:	5880106f          	j	800040e8 <bad_trap>

80002b64 <inst_363>:
80002b64:	ffff5537          	lui	a0,0xffff5
80002b68:	afd50513          	addi	a0,a0,-1283 # ffff4afd <imm12+0xffff502d>
80002b6c:	fd454593          	xori	a1,a0,-44
80002b70:	54b1aa23          	sw	a1,1364(gp)
80002b74:	0000b237          	lui	tp,0xb
80002b78:	52920213          	addi	tp,tp,1321 # b529 <offset+0xb4a9>
80002b7c:	00b20463          	beq	tp,a1,80002b84 <inst_364>
80002b80:	5680106f          	j	800040e8 <bad_trap>

80002b84 <inst_364>:
80002b84:	ffff5537          	lui	a0,0xffff5
80002b88:	afd50513          	addi	a0,a0,-1283 # ffff4afd <imm12+0xffff502d>
80002b8c:	02e54593          	xori	a1,a0,46
80002b90:	54b1ac23          	sw	a1,1368(gp)
80002b94:	ffff5237          	lui	tp,0xffff5
80002b98:	ad320213          	addi	tp,tp,-1325 # ffff4ad3 <imm12+0xffff5003>
80002b9c:	00b20463          	beq	tp,a1,80002ba4 <inst_365>
80002ba0:	5480106f          	j	800040e8 <bad_trap>

80002ba4 <inst_365>:
80002ba4:	0000b537          	lui	a0,0xb
80002ba8:	50550513          	addi	a0,a0,1285 # b505 <offset+0xb485>
80002bac:	00354593          	xori	a1,a0,3
80002bb0:	54b1ae23          	sw	a1,1372(gp)
80002bb4:	0000b237          	lui	tp,0xb
80002bb8:	50620213          	addi	tp,tp,1286 # b506 <offset+0xb486>
80002bbc:	00b20463          	beq	tp,a1,80002bc4 <inst_366>
80002bc0:	5280106f          	j	800040e8 <bad_trap>

80002bc4 <inst_366>:
80002bc4:	0000b537          	lui	a0,0xb
80002bc8:	50550513          	addi	a0,a0,1285 # b505 <offset+0xb485>
80002bcc:	55554593          	xori	a1,a0,1365
80002bd0:	56b1a023          	sw	a1,1376(gp)
80002bd4:	0000b237          	lui	tp,0xb
80002bd8:	05020213          	addi	tp,tp,80 # b050 <offset+0xafd0>
80002bdc:	00b20463          	beq	tp,a1,80002be4 <inst_367>
80002be0:	5080106f          	j	800040e8 <bad_trap>

80002be4 <inst_367>:
80002be4:	0000b537          	lui	a0,0xb
80002be8:	50550513          	addi	a0,a0,1285 # b505 <offset+0xb485>
80002bec:	aaa54593          	xori	a1,a0,-1366
80002bf0:	56b1a223          	sw	a1,1380(gp)
80002bf4:	ffff5237          	lui	tp,0xffff5
80002bf8:	faf20213          	addi	tp,tp,-81 # ffff4faf <imm12+0xffff54df>
80002bfc:	00b20463          	beq	tp,a1,80002c04 <inst_368>
80002c00:	4e80106f          	j	800040e8 <bad_trap>

80002c04 <inst_368>:
80002c04:	0000b537          	lui	a0,0xb
80002c08:	50550513          	addi	a0,a0,1285 # b505 <offset+0xb485>
80002c0c:	00554593          	xori	a1,a0,5
80002c10:	56b1a423          	sw	a1,1384(gp)
80002c14:	0000b237          	lui	tp,0xb
80002c18:	50020213          	addi	tp,tp,1280 # b500 <offset+0xb480>
80002c1c:	00b20463          	beq	tp,a1,80002c24 <inst_369>
80002c20:	4c80106f          	j	800040e8 <bad_trap>

80002c24 <inst_369>:
80002c24:	0000b537          	lui	a0,0xb
80002c28:	50550513          	addi	a0,a0,1285 # b505 <offset+0xb485>
80002c2c:	33354593          	xori	a1,a0,819
80002c30:	56b1a623          	sw	a1,1388(gp)
80002c34:	0000b237          	lui	tp,0xb
80002c38:	63620213          	addi	tp,tp,1590 # b636 <offset+0xb5b6>
80002c3c:	00b20463          	beq	tp,a1,80002c44 <inst_370>
80002c40:	4a80106f          	j	800040e8 <bad_trap>

80002c44 <inst_370>:
80002c44:	0000b537          	lui	a0,0xb
80002c48:	50550513          	addi	a0,a0,1285 # b505 <offset+0xb485>
80002c4c:	66654593          	xori	a1,a0,1638
80002c50:	56b1a823          	sw	a1,1392(gp)
80002c54:	0000b237          	lui	tp,0xb
80002c58:	36320213          	addi	tp,tp,867 # b363 <offset+0xb2e3>
80002c5c:	00b20463          	beq	tp,a1,80002c64 <inst_371>
80002c60:	4880106f          	j	800040e8 <bad_trap>

80002c64 <inst_371>:
80002c64:	0000b537          	lui	a0,0xb
80002c68:	50550513          	addi	a0,a0,1285 # b505 <offset+0xb485>
80002c6c:	fd354593          	xori	a1,a0,-45
80002c70:	56b1aa23          	sw	a1,1396(gp)
80002c74:	ffff5237          	lui	tp,0xffff5
80002c78:	ad620213          	addi	tp,tp,-1322 # ffff4ad6 <imm12+0xffff5006>
80002c7c:	00b20463          	beq	tp,a1,80002c84 <inst_372>
80002c80:	4680106f          	j	800040e8 <bad_trap>

80002c84 <inst_372>:
80002c84:	0000b537          	lui	a0,0xb
80002c88:	50550513          	addi	a0,a0,1285 # b505 <offset+0xb485>
80002c8c:	02d54593          	xori	a1,a0,45
80002c90:	56b1ac23          	sw	a1,1400(gp)
80002c94:	0000b237          	lui	tp,0xb
80002c98:	52820213          	addi	tp,tp,1320 # b528 <offset+0xb4a8>
80002c9c:	00b20463          	beq	tp,a1,80002ca4 <inst_373>
80002ca0:	4480106f          	j	800040e8 <bad_trap>

80002ca4 <inst_373>:
80002ca4:	0000b537          	lui	a0,0xb
80002ca8:	50550513          	addi	a0,a0,1285 # b505 <offset+0xb485>
80002cac:	00254593          	xori	a1,a0,2
80002cb0:	56b1ae23          	sw	a1,1404(gp)
80002cb4:	0000b237          	lui	tp,0xb
80002cb8:	50720213          	addi	tp,tp,1287 # b507 <offset+0xb487>
80002cbc:	00b20463          	beq	tp,a1,80002cc4 <inst_374>
80002cc0:	4280106f          	j	800040e8 <bad_trap>

80002cc4 <inst_374>:
80002cc4:	0000b537          	lui	a0,0xb
80002cc8:	50550513          	addi	a0,a0,1285 # b505 <offset+0xb485>
80002ccc:	55454593          	xori	a1,a0,1364
80002cd0:	58b1a023          	sw	a1,1408(gp)
80002cd4:	0000b237          	lui	tp,0xb
80002cd8:	05120213          	addi	tp,tp,81 # b051 <offset+0xafd1>
80002cdc:	00b20463          	beq	tp,a1,80002ce4 <inst_375>
80002ce0:	4080106f          	j	800040e8 <bad_trap>

80002ce4 <inst_375>:
80002ce4:	0000b537          	lui	a0,0xb
80002ce8:	50550513          	addi	a0,a0,1285 # b505 <offset+0xb485>
80002cec:	00054593          	xori	a1,a0,0
80002cf0:	58b1a223          	sw	a1,1412(gp)
80002cf4:	0000b237          	lui	tp,0xb
80002cf8:	50520213          	addi	tp,tp,1285 # b505 <offset+0xb485>
80002cfc:	00b20463          	beq	tp,a1,80002d04 <inst_376>
80002d00:	3e80106f          	j	800040e8 <bad_trap>

80002d04 <inst_376>:
80002d04:	0000b537          	lui	a0,0xb
80002d08:	50550513          	addi	a0,a0,1285 # b505 <offset+0xb485>
80002d0c:	00454593          	xori	a1,a0,4
80002d10:	58b1a423          	sw	a1,1416(gp)
80002d14:	0000b237          	lui	tp,0xb
80002d18:	50120213          	addi	tp,tp,1281 # b501 <offset+0xb481>
80002d1c:	00b20463          	beq	tp,a1,80002d24 <inst_377>
80002d20:	3c80106f          	j	800040e8 <bad_trap>

80002d24 <inst_377>:
80002d24:	0000b537          	lui	a0,0xb
80002d28:	50550513          	addi	a0,a0,1285 # b505 <offset+0xb485>
80002d2c:	33254593          	xori	a1,a0,818
80002d30:	58b1a623          	sw	a1,1420(gp)
80002d34:	0000b237          	lui	tp,0xb
80002d38:	63720213          	addi	tp,tp,1591 # b637 <offset+0xb5b7>
80002d3c:	00b20463          	beq	tp,a1,80002d44 <inst_378>
80002d40:	3a80106f          	j	800040e8 <bad_trap>

80002d44 <inst_378>:
80002d44:	0000b537          	lui	a0,0xb
80002d48:	50550513          	addi	a0,a0,1285 # b505 <offset+0xb485>
80002d4c:	66554593          	xori	a1,a0,1637
80002d50:	58b1a823          	sw	a1,1424(gp)
80002d54:	0000b237          	lui	tp,0xb
80002d58:	36020213          	addi	tp,tp,864 # b360 <offset+0xb2e0>
80002d5c:	00b20463          	beq	tp,a1,80002d64 <inst_379>
80002d60:	3880106f          	j	800040e8 <bad_trap>

80002d64 <inst_379>:
80002d64:	0000b537          	lui	a0,0xb
80002d68:	50550513          	addi	a0,a0,1285 # b505 <offset+0xb485>
80002d6c:	02c54593          	xori	a1,a0,44
80002d70:	58b1aa23          	sw	a1,1428(gp)
80002d74:	0000b237          	lui	tp,0xb
80002d78:	52920213          	addi	tp,tp,1321 # b529 <offset+0xb4a9>
80002d7c:	00b20463          	beq	tp,a1,80002d84 <inst_380>
80002d80:	3680106f          	j	800040e8 <bad_trap>

80002d84 <inst_380>:
80002d84:	0000b537          	lui	a0,0xb
80002d88:	50550513          	addi	a0,a0,1285 # b505 <offset+0xb485>
80002d8c:	55654593          	xori	a1,a0,1366
80002d90:	58b1ac23          	sw	a1,1432(gp)
80002d94:	0000b237          	lui	tp,0xb
80002d98:	05320213          	addi	tp,tp,83 # b053 <offset+0xafd3>
80002d9c:	00b20463          	beq	tp,a1,80002da4 <inst_381>
80002da0:	3480106f          	j	800040e8 <bad_trap>

80002da4 <inst_381>:
80002da4:	0000b537          	lui	a0,0xb
80002da8:	50550513          	addi	a0,a0,1285 # b505 <offset+0xb485>
80002dac:	aab54593          	xori	a1,a0,-1365
80002db0:	58b1ae23          	sw	a1,1436(gp)
80002db4:	ffff5237          	lui	tp,0xffff5
80002db8:	fae20213          	addi	tp,tp,-82 # ffff4fae <imm12+0xffff54de>
80002dbc:	00b20463          	beq	tp,a1,80002dc4 <inst_382>
80002dc0:	3280106f          	j	800040e8 <bad_trap>

80002dc4 <inst_382>:
80002dc4:	0000b537          	lui	a0,0xb
80002dc8:	50550513          	addi	a0,a0,1285 # b505 <offset+0xb485>
80002dcc:	00654593          	xori	a1,a0,6
80002dd0:	5ab1a023          	sw	a1,1440(gp)
80002dd4:	0000b237          	lui	tp,0xb
80002dd8:	50320213          	addi	tp,tp,1283 # b503 <offset+0xb483>
80002ddc:	00b20463          	beq	tp,a1,80002de4 <inst_383>
80002de0:	3080106f          	j	800040e8 <bad_trap>

80002de4 <inst_383>:
80002de4:	0000b537          	lui	a0,0xb
80002de8:	50550513          	addi	a0,a0,1285 # b505 <offset+0xb485>
80002dec:	33454593          	xori	a1,a0,820
80002df0:	5ab1a223          	sw	a1,1444(gp)
80002df4:	0000b237          	lui	tp,0xb
80002df8:	63120213          	addi	tp,tp,1585 # b631 <offset+0xb5b1>
80002dfc:	00b20463          	beq	tp,a1,80002e04 <inst_384>
80002e00:	2e80106f          	j	800040e8 <bad_trap>

80002e04 <inst_384>:
80002e04:	0000b537          	lui	a0,0xb
80002e08:	50550513          	addi	a0,a0,1285 # b505 <offset+0xb485>
80002e0c:	66754593          	xori	a1,a0,1639
80002e10:	5ab1a423          	sw	a1,1448(gp)
80002e14:	0000b237          	lui	tp,0xb
80002e18:	36220213          	addi	tp,tp,866 # b362 <offset+0xb2e2>
80002e1c:	00b20463          	beq	tp,a1,80002e24 <inst_385>
80002e20:	2c80106f          	j	800040e8 <bad_trap>

80002e24 <inst_385>:
80002e24:	0000b537          	lui	a0,0xb
80002e28:	50550513          	addi	a0,a0,1285 # b505 <offset+0xb485>
80002e2c:	fd454593          	xori	a1,a0,-44
80002e30:	5ab1a623          	sw	a1,1452(gp)
80002e34:	ffff5237          	lui	tp,0xffff5
80002e38:	ad120213          	addi	tp,tp,-1327 # ffff4ad1 <imm12+0xffff5001>
80002e3c:	00b20463          	beq	tp,a1,80002e44 <inst_386>
80002e40:	2a80106f          	j	800040e8 <bad_trap>

80002e44 <inst_386>:
80002e44:	0000b537          	lui	a0,0xb
80002e48:	50550513          	addi	a0,a0,1285 # b505 <offset+0xb485>
80002e4c:	02e54593          	xori	a1,a0,46
80002e50:	5ab1a823          	sw	a1,1456(gp)
80002e54:	0000b237          	lui	tp,0xb
80002e58:	52b20213          	addi	tp,tp,1323 # b52b <offset+0xb4ab>
80002e5c:	00b20463          	beq	tp,a1,80002e64 <inst_387>
80002e60:	2880106f          	j	800040e8 <bad_trap>

80002e64 <inst_387>:
80002e64:	00000513          	li	a0,0
80002e68:	00254593          	xori	a1,a0,2
80002e6c:	5ab1aa23          	sw	a1,1460(gp)
80002e70:	00200213          	li	tp,2
80002e74:	00b20463          	beq	tp,a1,80002e7c <inst_388>
80002e78:	2700106f          	j	800040e8 <bad_trap>

80002e7c <inst_388>:
80002e7c:	00000513          	li	a0,0
80002e80:	55454593          	xori	a1,a0,1364
80002e84:	5ab1ac23          	sw	a1,1464(gp)
80002e88:	55400213          	li	tp,1364
80002e8c:	00b20463          	beq	tp,a1,80002e94 <inst_389>
80002e90:	2580106f          	j	800040e8 <bad_trap>

80002e94 <inst_389>:
80002e94:	00000513          	li	a0,0
80002e98:	00054593          	xori	a1,a0,0
80002e9c:	5ab1ae23          	sw	a1,1468(gp)
80002ea0:	00000213          	li	tp,0
80002ea4:	00b20463          	beq	tp,a1,80002eac <inst_390>
80002ea8:	2400106f          	j	800040e8 <bad_trap>

80002eac <inst_390>:
80002eac:	00000513          	li	a0,0
80002eb0:	00454593          	xori	a1,a0,4
80002eb4:	5cb1a023          	sw	a1,1472(gp)
80002eb8:	00400213          	li	tp,4
80002ebc:	00b20463          	beq	tp,a1,80002ec4 <inst_391>
80002ec0:	2280106f          	j	800040e8 <bad_trap>

80002ec4 <inst_391>:
80002ec4:	00000513          	li	a0,0
80002ec8:	33254593          	xori	a1,a0,818
80002ecc:	5cb1a223          	sw	a1,1476(gp)
80002ed0:	33200213          	li	tp,818
80002ed4:	00b20463          	beq	tp,a1,80002edc <inst_392>
80002ed8:	2100106f          	j	800040e8 <bad_trap>

80002edc <inst_392>:
80002edc:	00000513          	li	a0,0
80002ee0:	66554593          	xori	a1,a0,1637
80002ee4:	5cb1a423          	sw	a1,1480(gp)
80002ee8:	66500213          	li	tp,1637
80002eec:	00b20463          	beq	tp,a1,80002ef4 <inst_393>
80002ef0:	1f80106f          	j	800040e8 <bad_trap>

80002ef4 <inst_393>:
80002ef4:	00000513          	li	a0,0
80002ef8:	02c54593          	xori	a1,a0,44
80002efc:	5cb1a623          	sw	a1,1484(gp)
80002f00:	02c00213          	li	tp,44
80002f04:	00b20463          	beq	tp,a1,80002f0c <inst_394>
80002f08:	1e00106f          	j	800040e8 <bad_trap>

80002f0c <inst_394>:
80002f0c:	00000513          	li	a0,0
80002f10:	55654593          	xori	a1,a0,1366
80002f14:	5cb1a823          	sw	a1,1488(gp)
80002f18:	55600213          	li	tp,1366
80002f1c:	00b20463          	beq	tp,a1,80002f24 <inst_395>
80002f20:	1c80106f          	j	800040e8 <bad_trap>

80002f24 <inst_395>:
80002f24:	00000513          	li	a0,0
80002f28:	aab54593          	xori	a1,a0,-1365
80002f2c:	5cb1aa23          	sw	a1,1492(gp)
80002f30:	aab00213          	li	tp,-1365
80002f34:	00b20463          	beq	tp,a1,80002f3c <inst_396>
80002f38:	1b00106f          	j	800040e8 <bad_trap>

80002f3c <inst_396>:
80002f3c:	00000513          	li	a0,0
80002f40:	00654593          	xori	a1,a0,6
80002f44:	5cb1ac23          	sw	a1,1496(gp)
80002f48:	00600213          	li	tp,6
80002f4c:	00b20463          	beq	tp,a1,80002f54 <inst_397>
80002f50:	1980106f          	j	800040e8 <bad_trap>

80002f54 <inst_397>:
80002f54:	00000513          	li	a0,0
80002f58:	33454593          	xori	a1,a0,820
80002f5c:	5cb1ae23          	sw	a1,1500(gp)
80002f60:	33400213          	li	tp,820
80002f64:	00b20463          	beq	tp,a1,80002f6c <inst_398>
80002f68:	1800106f          	j	800040e8 <bad_trap>

80002f6c <inst_398>:
80002f6c:	00000513          	li	a0,0
80002f70:	66754593          	xori	a1,a0,1639
80002f74:	5eb1a023          	sw	a1,1504(gp)
80002f78:	66700213          	li	tp,1639
80002f7c:	00b20463          	beq	tp,a1,80002f84 <inst_399>
80002f80:	1680106f          	j	800040e8 <bad_trap>

80002f84 <inst_399>:
80002f84:	00000513          	li	a0,0
80002f88:	fd454593          	xori	a1,a0,-44
80002f8c:	5eb1a223          	sw	a1,1508(gp)
80002f90:	fd400213          	li	tp,-44
80002f94:	00b20463          	beq	tp,a1,80002f9c <inst_400>
80002f98:	1500106f          	j	800040e8 <bad_trap>

80002f9c <inst_400>:
80002f9c:	00000513          	li	a0,0
80002fa0:	02e54593          	xori	a1,a0,46
80002fa4:	5eb1a423          	sw	a1,1512(gp)
80002fa8:	02e00213          	li	tp,46
80002fac:	00b20463          	beq	tp,a1,80002fb4 <inst_401>
80002fb0:	1380106f          	j	800040e8 <bad_trap>

80002fb4 <inst_401>:
80002fb4:	00400513          	li	a0,4
80002fb8:	00354593          	xori	a1,a0,3
80002fbc:	5eb1a623          	sw	a1,1516(gp)
80002fc0:	00700213          	li	tp,7
80002fc4:	00b20463          	beq	tp,a1,80002fcc <inst_402>
80002fc8:	1200106f          	j	800040e8 <bad_trap>

80002fcc <inst_402>:
80002fcc:	00400513          	li	a0,4
80002fd0:	55554593          	xori	a1,a0,1365
80002fd4:	5eb1a823          	sw	a1,1520(gp)
80002fd8:	55100213          	li	tp,1361
80002fdc:	00b20463          	beq	tp,a1,80002fe4 <inst_403>
80002fe0:	1080106f          	j	800040e8 <bad_trap>

80002fe4 <inst_403>:
80002fe4:	00400513          	li	a0,4
80002fe8:	aaa54593          	xori	a1,a0,-1366
80002fec:	5eb1aa23          	sw	a1,1524(gp)
80002ff0:	aae00213          	li	tp,-1362
80002ff4:	00b20463          	beq	tp,a1,80002ffc <inst_404>
80002ff8:	0f00106f          	j	800040e8 <bad_trap>

80002ffc <inst_404>:
80002ffc:	00400513          	li	a0,4
80003000:	00554593          	xori	a1,a0,5
80003004:	5eb1ac23          	sw	a1,1528(gp)
80003008:	00100213          	li	tp,1
8000300c:	00b20463          	beq	tp,a1,80003014 <inst_405>
80003010:	0d80106f          	j	800040e8 <bad_trap>

80003014 <inst_405>:
80003014:	00400513          	li	a0,4
80003018:	33354593          	xori	a1,a0,819
8000301c:	5eb1ae23          	sw	a1,1532(gp)
80003020:	33700213          	li	tp,823
80003024:	00b20463          	beq	tp,a1,8000302c <inst_406>
80003028:	0c00106f          	j	800040e8 <bad_trap>

8000302c <inst_406>:
8000302c:	00400513          	li	a0,4
80003030:	66654593          	xori	a1,a0,1638
80003034:	60b1a023          	sw	a1,1536(gp)
80003038:	66200213          	li	tp,1634
8000303c:	00b20463          	beq	tp,a1,80003044 <inst_407>
80003040:	0a80106f          	j	800040e8 <bad_trap>

80003044 <inst_407>:
80003044:	00400513          	li	a0,4
80003048:	fd354593          	xori	a1,a0,-45
8000304c:	60b1a223          	sw	a1,1540(gp)
80003050:	fd700213          	li	tp,-41
80003054:	00b20463          	beq	tp,a1,8000305c <inst_408>
80003058:	0900106f          	j	800040e8 <bad_trap>

8000305c <inst_408>:
8000305c:	00400513          	li	a0,4
80003060:	02d54593          	xori	a1,a0,45
80003064:	60b1a423          	sw	a1,1544(gp)
80003068:	02900213          	li	tp,41
8000306c:	00b20463          	beq	tp,a1,80003074 <inst_409>
80003070:	0780106f          	j	800040e8 <bad_trap>

80003074 <inst_409>:
80003074:	00400513          	li	a0,4
80003078:	00254593          	xori	a1,a0,2
8000307c:	60b1a623          	sw	a1,1548(gp)
80003080:	00600213          	li	tp,6
80003084:	00b20463          	beq	tp,a1,8000308c <inst_410>
80003088:	0600106f          	j	800040e8 <bad_trap>

8000308c <inst_410>:
8000308c:	00400513          	li	a0,4
80003090:	55454593          	xori	a1,a0,1364
80003094:	60b1a823          	sw	a1,1552(gp)
80003098:	55000213          	li	tp,1360
8000309c:	00b20463          	beq	tp,a1,800030a4 <inst_411>
800030a0:	0480106f          	j	800040e8 <bad_trap>

800030a4 <inst_411>:
800030a4:	00400513          	li	a0,4
800030a8:	00454593          	xori	a1,a0,4
800030ac:	60b1aa23          	sw	a1,1556(gp)
800030b0:	00000213          	li	tp,0
800030b4:	00b20463          	beq	tp,a1,800030bc <inst_412>
800030b8:	0300106f          	j	800040e8 <bad_trap>

800030bc <inst_412>:
800030bc:	00400513          	li	a0,4
800030c0:	33254593          	xori	a1,a0,818
800030c4:	60b1ac23          	sw	a1,1560(gp)
800030c8:	33600213          	li	tp,822
800030cc:	00b20463          	beq	tp,a1,800030d4 <inst_413>
800030d0:	0180106f          	j	800040e8 <bad_trap>

800030d4 <inst_413>:
800030d4:	00400513          	li	a0,4
800030d8:	66554593          	xori	a1,a0,1637
800030dc:	60b1ae23          	sw	a1,1564(gp)
800030e0:	66100213          	li	tp,1633
800030e4:	00b20463          	beq	tp,a1,800030ec <inst_414>
800030e8:	0000106f          	j	800040e8 <bad_trap>

800030ec <inst_414>:
800030ec:	00400513          	li	a0,4
800030f0:	02c54593          	xori	a1,a0,44
800030f4:	62b1a023          	sw	a1,1568(gp)
800030f8:	02800213          	li	tp,40
800030fc:	7eb216e3          	bne	tp,a1,800040e8 <bad_trap>

80003100 <inst_415>:
80003100:	00400513          	li	a0,4
80003104:	55654593          	xori	a1,a0,1366
80003108:	62b1a223          	sw	a1,1572(gp)
8000310c:	55200213          	li	tp,1362
80003110:	7cb21ce3          	bne	tp,a1,800040e8 <bad_trap>

80003114 <inst_416>:
80003114:	00400513          	li	a0,4
80003118:	aab54593          	xori	a1,a0,-1365
8000311c:	62b1a423          	sw	a1,1576(gp)
80003120:	aaf00213          	li	tp,-1361
80003124:	7cb212e3          	bne	tp,a1,800040e8 <bad_trap>

80003128 <inst_417>:
80003128:	00400513          	li	a0,4
8000312c:	00654593          	xori	a1,a0,6
80003130:	62b1a623          	sw	a1,1580(gp)
80003134:	00200213          	li	tp,2
80003138:	7ab218e3          	bne	tp,a1,800040e8 <bad_trap>

8000313c <inst_418>:
8000313c:	00400513          	li	a0,4
80003140:	33454593          	xori	a1,a0,820
80003144:	62b1a823          	sw	a1,1584(gp)
80003148:	33000213          	li	tp,816
8000314c:	78b21ee3          	bne	tp,a1,800040e8 <bad_trap>

80003150 <inst_419>:
80003150:	00400513          	li	a0,4
80003154:	66754593          	xori	a1,a0,1639
80003158:	62b1aa23          	sw	a1,1588(gp)
8000315c:	66300213          	li	tp,1635
80003160:	78b214e3          	bne	tp,a1,800040e8 <bad_trap>

80003164 <inst_420>:
80003164:	00400513          	li	a0,4
80003168:	fd454593          	xori	a1,a0,-44
8000316c:	62b1ac23          	sw	a1,1592(gp)
80003170:	fd000213          	li	tp,-48
80003174:	76b21ae3          	bne	tp,a1,800040e8 <bad_trap>

80003178 <inst_421>:
80003178:	00400513          	li	a0,4
8000317c:	02e54593          	xori	a1,a0,46
80003180:	62b1ae23          	sw	a1,1596(gp)
80003184:	02a00213          	li	tp,42
80003188:	76b210e3          	bne	tp,a1,800040e8 <bad_trap>

8000318c <inst_422>:
8000318c:	33333537          	lui	a0,0x33333
80003190:	33250513          	addi	a0,a0,818 # 33333332 <offset+0x333332b2>
80003194:	00354593          	xori	a1,a0,3
80003198:	64b1a023          	sw	a1,1600(gp)
8000319c:	33333237          	lui	tp,0x33333
800031a0:	33120213          	addi	tp,tp,817 # 33333331 <offset+0x333332b1>
800031a4:	74b212e3          	bne	tp,a1,800040e8 <bad_trap>

800031a8 <inst_423>:
800031a8:	33333537          	lui	a0,0x33333
800031ac:	33250513          	addi	a0,a0,818 # 33333332 <offset+0x333332b2>
800031b0:	55554593          	xori	a1,a0,1365
800031b4:	64b1a223          	sw	a1,1604(gp)
800031b8:	33333237          	lui	tp,0x33333
800031bc:	66720213          	addi	tp,tp,1639 # 33333667 <offset+0x333335e7>
800031c0:	72b214e3          	bne	tp,a1,800040e8 <bad_trap>

800031c4 <inst_424>:
800031c4:	33333537          	lui	a0,0x33333
800031c8:	33250513          	addi	a0,a0,818 # 33333332 <offset+0x333332b2>
800031cc:	aaa54593          	xori	a1,a0,-1366
800031d0:	64b1a423          	sw	a1,1608(gp)
800031d4:	ccccd237          	lui	tp,0xccccd
800031d8:	99820213          	addi	tp,tp,-1640 # ccccc998 <imm12+0xcccccec8>
800031dc:	70b216e3          	bne	tp,a1,800040e8 <bad_trap>

800031e0 <inst_425>:
800031e0:	33333537          	lui	a0,0x33333
800031e4:	33250513          	addi	a0,a0,818 # 33333332 <offset+0x333332b2>
800031e8:	00554593          	xori	a1,a0,5
800031ec:	64b1a623          	sw	a1,1612(gp)
800031f0:	33333237          	lui	tp,0x33333
800031f4:	33720213          	addi	tp,tp,823 # 33333337 <offset+0x333332b7>
800031f8:	6eb218e3          	bne	tp,a1,800040e8 <bad_trap>

800031fc <inst_426>:
800031fc:	33333537          	lui	a0,0x33333
80003200:	33250513          	addi	a0,a0,818 # 33333332 <offset+0x333332b2>
80003204:	33354593          	xori	a1,a0,819
80003208:	64b1a823          	sw	a1,1616(gp)
8000320c:	33333237          	lui	tp,0x33333
80003210:	00120213          	addi	tp,tp,1 # 33333001 <offset+0x33332f81>
80003214:	6cb21ae3          	bne	tp,a1,800040e8 <bad_trap>

80003218 <inst_427>:
80003218:	33333537          	lui	a0,0x33333
8000321c:	33250513          	addi	a0,a0,818 # 33333332 <offset+0x333332b2>
80003220:	66654593          	xori	a1,a0,1638
80003224:	64b1aa23          	sw	a1,1620(gp)
80003228:	33333237          	lui	tp,0x33333
8000322c:	55420213          	addi	tp,tp,1364 # 33333554 <offset+0x333334d4>
80003230:	6ab21ce3          	bne	tp,a1,800040e8 <bad_trap>

80003234 <inst_428>:
80003234:	33333537          	lui	a0,0x33333
80003238:	33250513          	addi	a0,a0,818 # 33333332 <offset+0x333332b2>
8000323c:	fd354593          	xori	a1,a0,-45
80003240:	64b1ac23          	sw	a1,1624(gp)
80003244:	ccccd237          	lui	tp,0xccccd
80003248:	ce120213          	addi	tp,tp,-799 # cccccce1 <imm12+0xccccd211>
8000324c:	68b21ee3          	bne	tp,a1,800040e8 <bad_trap>

80003250 <inst_429>:
80003250:	33333537          	lui	a0,0x33333
80003254:	33250513          	addi	a0,a0,818 # 33333332 <offset+0x333332b2>
80003258:	02d54593          	xori	a1,a0,45
8000325c:	64b1ae23          	sw	a1,1628(gp)
80003260:	33333237          	lui	tp,0x33333
80003264:	31f20213          	addi	tp,tp,799 # 3333331f <offset+0x3333329f>
80003268:	68b210e3          	bne	tp,a1,800040e8 <bad_trap>

8000326c <inst_430>:
8000326c:	33333537          	lui	a0,0x33333
80003270:	33250513          	addi	a0,a0,818 # 33333332 <offset+0x333332b2>
80003274:	00254593          	xori	a1,a0,2
80003278:	66b1a023          	sw	a1,1632(gp)
8000327c:	33333237          	lui	tp,0x33333
80003280:	33020213          	addi	tp,tp,816 # 33333330 <offset+0x333332b0>
80003284:	66b212e3          	bne	tp,a1,800040e8 <bad_trap>

80003288 <inst_431>:
80003288:	33333537          	lui	a0,0x33333
8000328c:	33250513          	addi	a0,a0,818 # 33333332 <offset+0x333332b2>
80003290:	55454593          	xori	a1,a0,1364
80003294:	66b1a223          	sw	a1,1636(gp)
80003298:	33333237          	lui	tp,0x33333
8000329c:	66620213          	addi	tp,tp,1638 # 33333666 <offset+0x333335e6>
800032a0:	64b214e3          	bne	tp,a1,800040e8 <bad_trap>

800032a4 <inst_432>:
800032a4:	33333537          	lui	a0,0x33333
800032a8:	33250513          	addi	a0,a0,818 # 33333332 <offset+0x333332b2>
800032ac:	00054593          	xori	a1,a0,0
800032b0:	66b1a423          	sw	a1,1640(gp)
800032b4:	33333237          	lui	tp,0x33333
800032b8:	33220213          	addi	tp,tp,818 # 33333332 <offset+0x333332b2>
800032bc:	62b216e3          	bne	tp,a1,800040e8 <bad_trap>

800032c0 <inst_433>:
800032c0:	33333537          	lui	a0,0x33333
800032c4:	33250513          	addi	a0,a0,818 # 33333332 <offset+0x333332b2>
800032c8:	00454593          	xori	a1,a0,4
800032cc:	66b1a623          	sw	a1,1644(gp)
800032d0:	33333237          	lui	tp,0x33333
800032d4:	33620213          	addi	tp,tp,822 # 33333336 <offset+0x333332b6>
800032d8:	60b218e3          	bne	tp,a1,800040e8 <bad_trap>

800032dc <inst_434>:
800032dc:	33333537          	lui	a0,0x33333
800032e0:	33250513          	addi	a0,a0,818 # 33333332 <offset+0x333332b2>
800032e4:	33254593          	xori	a1,a0,818
800032e8:	66b1a823          	sw	a1,1648(gp)
800032ec:	33333237          	lui	tp,0x33333
800032f0:	5eb21ce3          	bne	tp,a1,800040e8 <bad_trap>

800032f4 <inst_435>:
800032f4:	33333537          	lui	a0,0x33333
800032f8:	33250513          	addi	a0,a0,818 # 33333332 <offset+0x333332b2>
800032fc:	66554593          	xori	a1,a0,1637
80003300:	66b1aa23          	sw	a1,1652(gp)
80003304:	33333237          	lui	tp,0x33333
80003308:	55720213          	addi	tp,tp,1367 # 33333557 <offset+0x333334d7>
8000330c:	5cb21ee3          	bne	tp,a1,800040e8 <bad_trap>

80003310 <inst_436>:
80003310:	33333537          	lui	a0,0x33333
80003314:	33250513          	addi	a0,a0,818 # 33333332 <offset+0x333332b2>
80003318:	02c54593          	xori	a1,a0,44
8000331c:	66b1ac23          	sw	a1,1656(gp)
80003320:	33333237          	lui	tp,0x33333
80003324:	31e20213          	addi	tp,tp,798 # 3333331e <offset+0x3333329e>
80003328:	5cb210e3          	bne	tp,a1,800040e8 <bad_trap>

8000332c <inst_437>:
8000332c:	33333537          	lui	a0,0x33333
80003330:	33250513          	addi	a0,a0,818 # 33333332 <offset+0x333332b2>
80003334:	55654593          	xori	a1,a0,1366
80003338:	66b1ae23          	sw	a1,1660(gp)
8000333c:	33333237          	lui	tp,0x33333
80003340:	66420213          	addi	tp,tp,1636 # 33333664 <offset+0x333335e4>
80003344:	5ab212e3          	bne	tp,a1,800040e8 <bad_trap>

80003348 <inst_438>:
80003348:	33333537          	lui	a0,0x33333
8000334c:	33250513          	addi	a0,a0,818 # 33333332 <offset+0x333332b2>
80003350:	aab54593          	xori	a1,a0,-1365
80003354:	68b1a023          	sw	a1,1664(gp)
80003358:	ccccd237          	lui	tp,0xccccd
8000335c:	99920213          	addi	tp,tp,-1639 # ccccc999 <imm12+0xcccccec9>
80003360:	58b214e3          	bne	tp,a1,800040e8 <bad_trap>

80003364 <inst_439>:
80003364:	33333537          	lui	a0,0x33333
80003368:	33250513          	addi	a0,a0,818 # 33333332 <offset+0x333332b2>
8000336c:	00654593          	xori	a1,a0,6
80003370:	68b1a223          	sw	a1,1668(gp)
80003374:	33333237          	lui	tp,0x33333
80003378:	33420213          	addi	tp,tp,820 # 33333334 <offset+0x333332b4>
8000337c:	56b216e3          	bne	tp,a1,800040e8 <bad_trap>

80003380 <inst_440>:
80003380:	33333537          	lui	a0,0x33333
80003384:	33250513          	addi	a0,a0,818 # 33333332 <offset+0x333332b2>
80003388:	33454593          	xori	a1,a0,820
8000338c:	68b1a423          	sw	a1,1672(gp)
80003390:	33333237          	lui	tp,0x33333
80003394:	00620213          	addi	tp,tp,6 # 33333006 <offset+0x33332f86>
80003398:	54b218e3          	bne	tp,a1,800040e8 <bad_trap>

8000339c <inst_441>:
8000339c:	33333537          	lui	a0,0x33333
800033a0:	33250513          	addi	a0,a0,818 # 33333332 <offset+0x333332b2>
800033a4:	66754593          	xori	a1,a0,1639
800033a8:	68b1a623          	sw	a1,1676(gp)
800033ac:	33333237          	lui	tp,0x33333
800033b0:	55520213          	addi	tp,tp,1365 # 33333555 <offset+0x333334d5>
800033b4:	52b21ae3          	bne	tp,a1,800040e8 <bad_trap>

800033b8 <inst_442>:
800033b8:	33333537          	lui	a0,0x33333
800033bc:	33250513          	addi	a0,a0,818 # 33333332 <offset+0x333332b2>
800033c0:	fd454593          	xori	a1,a0,-44
800033c4:	68b1a823          	sw	a1,1680(gp)
800033c8:	ccccd237          	lui	tp,0xccccd
800033cc:	ce620213          	addi	tp,tp,-794 # cccccce6 <imm12+0xccccd216>
800033d0:	50b21ce3          	bne	tp,a1,800040e8 <bad_trap>

800033d4 <inst_443>:
800033d4:	33333537          	lui	a0,0x33333
800033d8:	33250513          	addi	a0,a0,818 # 33333332 <offset+0x333332b2>
800033dc:	02e54593          	xori	a1,a0,46
800033e0:	68b1aa23          	sw	a1,1684(gp)
800033e4:	33333237          	lui	tp,0x33333
800033e8:	31c20213          	addi	tp,tp,796 # 3333331c <offset+0x3333329c>
800033ec:	4eb21ee3          	bne	tp,a1,800040e8 <bad_trap>

800033f0 <inst_444>:
800033f0:	66666537          	lui	a0,0x66666
800033f4:	66550513          	addi	a0,a0,1637 # 66666665 <absimm+0x21374136>
800033f8:	00354593          	xori	a1,a0,3
800033fc:	68b1ac23          	sw	a1,1688(gp)
80003400:	66666237          	lui	tp,0x66666
80003404:	66620213          	addi	tp,tp,1638 # 66666666 <absimm+0x21374137>
80003408:	4eb210e3          	bne	tp,a1,800040e8 <bad_trap>

8000340c <inst_445>:
8000340c:	66666537          	lui	a0,0x66666
80003410:	66550513          	addi	a0,a0,1637 # 66666665 <absimm+0x21374136>
80003414:	55554593          	xori	a1,a0,1365
80003418:	68b1ae23          	sw	a1,1692(gp)
8000341c:	66666237          	lui	tp,0x66666
80003420:	33020213          	addi	tp,tp,816 # 66666330 <absimm+0x21373e01>
80003424:	4cb212e3          	bne	tp,a1,800040e8 <bad_trap>

80003428 <inst_446>:
80003428:	66666537          	lui	a0,0x66666
8000342c:	66550513          	addi	a0,a0,1637 # 66666665 <absimm+0x21374136>
80003430:	aaa54593          	xori	a1,a0,-1366
80003434:	6ab1a023          	sw	a1,1696(gp)
80003438:	9999a237          	lui	tp,0x9999a
8000343c:	ccf20213          	addi	tp,tp,-817 # 99999ccf <imm12+0x9999a1ff>
80003440:	4ab214e3          	bne	tp,a1,800040e8 <bad_trap>

80003444 <inst_447>:
80003444:	66666537          	lui	a0,0x66666
80003448:	66550513          	addi	a0,a0,1637 # 66666665 <absimm+0x21374136>
8000344c:	00554593          	xori	a1,a0,5
80003450:	6ab1a223          	sw	a1,1700(gp)
80003454:	66666237          	lui	tp,0x66666
80003458:	66020213          	addi	tp,tp,1632 # 66666660 <absimm+0x21374131>
8000345c:	48b216e3          	bne	tp,a1,800040e8 <bad_trap>

80003460 <inst_448>:
80003460:	66666537          	lui	a0,0x66666
80003464:	66550513          	addi	a0,a0,1637 # 66666665 <absimm+0x21374136>
80003468:	33354593          	xori	a1,a0,819
8000346c:	6ab1a423          	sw	a1,1704(gp)
80003470:	66666237          	lui	tp,0x66666
80003474:	55620213          	addi	tp,tp,1366 # 66666556 <absimm+0x21374027>
80003478:	46b218e3          	bne	tp,a1,800040e8 <bad_trap>

8000347c <inst_449>:
8000347c:	66666537          	lui	a0,0x66666
80003480:	66550513          	addi	a0,a0,1637 # 66666665 <absimm+0x21374136>
80003484:	66654593          	xori	a1,a0,1638
80003488:	6ab1a623          	sw	a1,1708(gp)
8000348c:	66666237          	lui	tp,0x66666
80003490:	00320213          	addi	tp,tp,3 # 66666003 <absimm+0x21373ad4>
80003494:	44b21ae3          	bne	tp,a1,800040e8 <bad_trap>

80003498 <inst_450>:
80003498:	66666537          	lui	a0,0x66666
8000349c:	66550513          	addi	a0,a0,1637 # 66666665 <absimm+0x21374136>
800034a0:	fd354593          	xori	a1,a0,-45
800034a4:	6ab1a823          	sw	a1,1712(gp)
800034a8:	9999a237          	lui	tp,0x9999a
800034ac:	9b620213          	addi	tp,tp,-1610 # 999999b6 <imm12+0x99999ee6>
800034b0:	42b21ce3          	bne	tp,a1,800040e8 <bad_trap>

800034b4 <inst_451>:
800034b4:	66666537          	lui	a0,0x66666
800034b8:	66550513          	addi	a0,a0,1637 # 66666665 <absimm+0x21374136>
800034bc:	02d54593          	xori	a1,a0,45
800034c0:	6ab1aa23          	sw	a1,1716(gp)
800034c4:	66666237          	lui	tp,0x66666
800034c8:	64820213          	addi	tp,tp,1608 # 66666648 <absimm+0x21374119>
800034cc:	40b21ee3          	bne	tp,a1,800040e8 <bad_trap>

800034d0 <inst_452>:
800034d0:	66666537          	lui	a0,0x66666
800034d4:	66550513          	addi	a0,a0,1637 # 66666665 <absimm+0x21374136>
800034d8:	00254593          	xori	a1,a0,2
800034dc:	6ab1ac23          	sw	a1,1720(gp)
800034e0:	66666237          	lui	tp,0x66666
800034e4:	66720213          	addi	tp,tp,1639 # 66666667 <absimm+0x21374138>
800034e8:	40b210e3          	bne	tp,a1,800040e8 <bad_trap>

800034ec <inst_453>:
800034ec:	66666537          	lui	a0,0x66666
800034f0:	66550513          	addi	a0,a0,1637 # 66666665 <absimm+0x21374136>
800034f4:	55454593          	xori	a1,a0,1364
800034f8:	6ab1ae23          	sw	a1,1724(gp)
800034fc:	66666237          	lui	tp,0x66666
80003500:	33120213          	addi	tp,tp,817 # 66666331 <absimm+0x21373e02>
80003504:	3eb212e3          	bne	tp,a1,800040e8 <bad_trap>

80003508 <inst_454>:
80003508:	66666537          	lui	a0,0x66666
8000350c:	66550513          	addi	a0,a0,1637 # 66666665 <absimm+0x21374136>
80003510:	00054593          	xori	a1,a0,0
80003514:	6cb1a023          	sw	a1,1728(gp)
80003518:	66666237          	lui	tp,0x66666
8000351c:	66520213          	addi	tp,tp,1637 # 66666665 <absimm+0x21374136>
80003520:	3cb214e3          	bne	tp,a1,800040e8 <bad_trap>

80003524 <inst_455>:
80003524:	66666537          	lui	a0,0x66666
80003528:	66550513          	addi	a0,a0,1637 # 66666665 <absimm+0x21374136>
8000352c:	00454593          	xori	a1,a0,4
80003530:	6cb1a223          	sw	a1,1732(gp)
80003534:	66666237          	lui	tp,0x66666
80003538:	66120213          	addi	tp,tp,1633 # 66666661 <absimm+0x21374132>
8000353c:	3ab216e3          	bne	tp,a1,800040e8 <bad_trap>

80003540 <inst_456>:
80003540:	66666537          	lui	a0,0x66666
80003544:	66550513          	addi	a0,a0,1637 # 66666665 <absimm+0x21374136>
80003548:	33254593          	xori	a1,a0,818
8000354c:	6cb1a423          	sw	a1,1736(gp)
80003550:	66666237          	lui	tp,0x66666
80003554:	55720213          	addi	tp,tp,1367 # 66666557 <absimm+0x21374028>
80003558:	38b218e3          	bne	tp,a1,800040e8 <bad_trap>

8000355c <inst_457>:
8000355c:	66666537          	lui	a0,0x66666
80003560:	66550513          	addi	a0,a0,1637 # 66666665 <absimm+0x21374136>
80003564:	66554593          	xori	a1,a0,1637
80003568:	6cb1a623          	sw	a1,1740(gp)
8000356c:	66666237          	lui	tp,0x66666
80003570:	36b21ce3          	bne	tp,a1,800040e8 <bad_trap>

80003574 <inst_458>:
80003574:	66666537          	lui	a0,0x66666
80003578:	66550513          	addi	a0,a0,1637 # 66666665 <absimm+0x21374136>
8000357c:	02c54593          	xori	a1,a0,44
80003580:	6cb1a823          	sw	a1,1744(gp)
80003584:	66666237          	lui	tp,0x66666
80003588:	64920213          	addi	tp,tp,1609 # 66666649 <absimm+0x2137411a>
8000358c:	34b21ee3          	bne	tp,a1,800040e8 <bad_trap>

80003590 <inst_459>:
80003590:	66666537          	lui	a0,0x66666
80003594:	66550513          	addi	a0,a0,1637 # 66666665 <absimm+0x21374136>
80003598:	55654593          	xori	a1,a0,1366
8000359c:	6cb1aa23          	sw	a1,1748(gp)
800035a0:	66666237          	lui	tp,0x66666
800035a4:	33320213          	addi	tp,tp,819 # 66666333 <absimm+0x21373e04>
800035a8:	34b210e3          	bne	tp,a1,800040e8 <bad_trap>

800035ac <inst_460>:
800035ac:	66666537          	lui	a0,0x66666
800035b0:	66550513          	addi	a0,a0,1637 # 66666665 <absimm+0x21374136>
800035b4:	aab54593          	xori	a1,a0,-1365
800035b8:	6cb1ac23          	sw	a1,1752(gp)
800035bc:	9999a237          	lui	tp,0x9999a
800035c0:	cce20213          	addi	tp,tp,-818 # 99999cce <imm12+0x9999a1fe>
800035c4:	32b212e3          	bne	tp,a1,800040e8 <bad_trap>

800035c8 <inst_461>:
800035c8:	66666537          	lui	a0,0x66666
800035cc:	66550513          	addi	a0,a0,1637 # 66666665 <absimm+0x21374136>
800035d0:	00654593          	xori	a1,a0,6
800035d4:	6cb1ae23          	sw	a1,1756(gp)
800035d8:	66666237          	lui	tp,0x66666
800035dc:	66320213          	addi	tp,tp,1635 # 66666663 <absimm+0x21374134>
800035e0:	30b214e3          	bne	tp,a1,800040e8 <bad_trap>

800035e4 <inst_462>:
800035e4:	66666537          	lui	a0,0x66666
800035e8:	66550513          	addi	a0,a0,1637 # 66666665 <absimm+0x21374136>
800035ec:	33454593          	xori	a1,a0,820
800035f0:	6eb1a023          	sw	a1,1760(gp)
800035f4:	66666237          	lui	tp,0x66666
800035f8:	55120213          	addi	tp,tp,1361 # 66666551 <absimm+0x21374022>
800035fc:	2eb216e3          	bne	tp,a1,800040e8 <bad_trap>

80003600 <inst_463>:
80003600:	66666537          	lui	a0,0x66666
80003604:	66550513          	addi	a0,a0,1637 # 66666665 <absimm+0x21374136>
80003608:	66754593          	xori	a1,a0,1639
8000360c:	6eb1a223          	sw	a1,1764(gp)
80003610:	66666237          	lui	tp,0x66666
80003614:	00220213          	addi	tp,tp,2 # 66666002 <absimm+0x21373ad3>
80003618:	2cb218e3          	bne	tp,a1,800040e8 <bad_trap>

8000361c <inst_464>:
8000361c:	66666537          	lui	a0,0x66666
80003620:	66550513          	addi	a0,a0,1637 # 66666665 <absimm+0x21374136>
80003624:	fd454593          	xori	a1,a0,-44
80003628:	6eb1a423          	sw	a1,1768(gp)
8000362c:	9999a237          	lui	tp,0x9999a
80003630:	9b120213          	addi	tp,tp,-1615 # 999999b1 <imm12+0x99999ee1>
80003634:	2ab21ae3          	bne	tp,a1,800040e8 <bad_trap>

80003638 <inst_465>:
80003638:	66666537          	lui	a0,0x66666
8000363c:	66550513          	addi	a0,a0,1637 # 66666665 <absimm+0x21374136>
80003640:	02e54593          	xori	a1,a0,46
80003644:	6eb1a623          	sw	a1,1772(gp)
80003648:	66666237          	lui	tp,0x66666
8000364c:	64b20213          	addi	tp,tp,1611 # 6666664b <absimm+0x2137411c>
80003650:	28b21ce3          	bne	tp,a1,800040e8 <bad_trap>

80003654 <inst_466>:
80003654:	0000b537          	lui	a0,0xb
80003658:	50350513          	addi	a0,a0,1283 # b503 <offset+0xb483>
8000365c:	00354593          	xori	a1,a0,3
80003660:	6eb1a823          	sw	a1,1776(gp)
80003664:	0000b237          	lui	tp,0xb
80003668:	50020213          	addi	tp,tp,1280 # b500 <offset+0xb480>
8000366c:	26b21ee3          	bne	tp,a1,800040e8 <bad_trap>

80003670 <inst_467>:
80003670:	0000b537          	lui	a0,0xb
80003674:	50350513          	addi	a0,a0,1283 # b503 <offset+0xb483>
80003678:	55554593          	xori	a1,a0,1365
8000367c:	6eb1aa23          	sw	a1,1780(gp)
80003680:	0000b237          	lui	tp,0xb
80003684:	05620213          	addi	tp,tp,86 # b056 <offset+0xafd6>
80003688:	26b210e3          	bne	tp,a1,800040e8 <bad_trap>

8000368c <inst_468>:
8000368c:	0000b537          	lui	a0,0xb
80003690:	50350513          	addi	a0,a0,1283 # b503 <offset+0xb483>
80003694:	aaa54593          	xori	a1,a0,-1366
80003698:	6eb1ac23          	sw	a1,1784(gp)
8000369c:	ffff5237          	lui	tp,0xffff5
800036a0:	fa920213          	addi	tp,tp,-87 # ffff4fa9 <imm12+0xffff54d9>
800036a4:	24b212e3          	bne	tp,a1,800040e8 <bad_trap>

800036a8 <inst_469>:
800036a8:	0000b537          	lui	a0,0xb
800036ac:	50350513          	addi	a0,a0,1283 # b503 <offset+0xb483>
800036b0:	00554593          	xori	a1,a0,5
800036b4:	6eb1ae23          	sw	a1,1788(gp)
800036b8:	0000b237          	lui	tp,0xb
800036bc:	50620213          	addi	tp,tp,1286 # b506 <offset+0xb486>
800036c0:	22b214e3          	bne	tp,a1,800040e8 <bad_trap>

800036c4 <inst_470>:
800036c4:	0000b537          	lui	a0,0xb
800036c8:	50350513          	addi	a0,a0,1283 # b503 <offset+0xb483>
800036cc:	33354593          	xori	a1,a0,819
800036d0:	70b1a023          	sw	a1,1792(gp)
800036d4:	0000b237          	lui	tp,0xb
800036d8:	63020213          	addi	tp,tp,1584 # b630 <offset+0xb5b0>
800036dc:	20b216e3          	bne	tp,a1,800040e8 <bad_trap>

800036e0 <inst_471>:
800036e0:	0000b537          	lui	a0,0xb
800036e4:	50350513          	addi	a0,a0,1283 # b503 <offset+0xb483>
800036e8:	66654593          	xori	a1,a0,1638
800036ec:	70b1a223          	sw	a1,1796(gp)
800036f0:	0000b237          	lui	tp,0xb
800036f4:	36520213          	addi	tp,tp,869 # b365 <offset+0xb2e5>
800036f8:	1eb218e3          	bne	tp,a1,800040e8 <bad_trap>

800036fc <inst_472>:
800036fc:	0000b537          	lui	a0,0xb
80003700:	50350513          	addi	a0,a0,1283 # b503 <offset+0xb483>
80003704:	fd354593          	xori	a1,a0,-45
80003708:	70b1a423          	sw	a1,1800(gp)
8000370c:	ffff5237          	lui	tp,0xffff5
80003710:	ad020213          	addi	tp,tp,-1328 # ffff4ad0 <imm12+0xffff5000>
80003714:	1cb21ae3          	bne	tp,a1,800040e8 <bad_trap>

80003718 <inst_473>:
80003718:	0000b537          	lui	a0,0xb
8000371c:	50350513          	addi	a0,a0,1283 # b503 <offset+0xb483>
80003720:	02d54593          	xori	a1,a0,45
80003724:	70b1a623          	sw	a1,1804(gp)
80003728:	0000b237          	lui	tp,0xb
8000372c:	52e20213          	addi	tp,tp,1326 # b52e <offset+0xb4ae>
80003730:	1ab21ce3          	bne	tp,a1,800040e8 <bad_trap>

80003734 <inst_474>:
80003734:	0000b537          	lui	a0,0xb
80003738:	50350513          	addi	a0,a0,1283 # b503 <offset+0xb483>
8000373c:	00254593          	xori	a1,a0,2
80003740:	70b1a823          	sw	a1,1808(gp)
80003744:	0000b237          	lui	tp,0xb
80003748:	50120213          	addi	tp,tp,1281 # b501 <offset+0xb481>
8000374c:	18b21ee3          	bne	tp,a1,800040e8 <bad_trap>

80003750 <inst_475>:
80003750:	0000b537          	lui	a0,0xb
80003754:	50350513          	addi	a0,a0,1283 # b503 <offset+0xb483>
80003758:	55454593          	xori	a1,a0,1364
8000375c:	70b1aa23          	sw	a1,1812(gp)
80003760:	0000b237          	lui	tp,0xb
80003764:	05720213          	addi	tp,tp,87 # b057 <offset+0xafd7>
80003768:	18b210e3          	bne	tp,a1,800040e8 <bad_trap>

8000376c <inst_476>:
8000376c:	0000b537          	lui	a0,0xb
80003770:	50350513          	addi	a0,a0,1283 # b503 <offset+0xb483>
80003774:	00054593          	xori	a1,a0,0
80003778:	70b1ac23          	sw	a1,1816(gp)
8000377c:	0000b237          	lui	tp,0xb
80003780:	50320213          	addi	tp,tp,1283 # b503 <offset+0xb483>
80003784:	16b212e3          	bne	tp,a1,800040e8 <bad_trap>

80003788 <inst_477>:
80003788:	0000b537          	lui	a0,0xb
8000378c:	50350513          	addi	a0,a0,1283 # b503 <offset+0xb483>
80003790:	00454593          	xori	a1,a0,4
80003794:	70b1ae23          	sw	a1,1820(gp)
80003798:	0000b237          	lui	tp,0xb
8000379c:	50720213          	addi	tp,tp,1287 # b507 <offset+0xb487>
800037a0:	14b214e3          	bne	tp,a1,800040e8 <bad_trap>

800037a4 <inst_478>:
800037a4:	0000b537          	lui	a0,0xb
800037a8:	50350513          	addi	a0,a0,1283 # b503 <offset+0xb483>
800037ac:	33254593          	xori	a1,a0,818
800037b0:	72b1a023          	sw	a1,1824(gp)
800037b4:	0000b237          	lui	tp,0xb
800037b8:	63120213          	addi	tp,tp,1585 # b631 <offset+0xb5b1>
800037bc:	12b216e3          	bne	tp,a1,800040e8 <bad_trap>

800037c0 <inst_479>:
800037c0:	0000b537          	lui	a0,0xb
800037c4:	50350513          	addi	a0,a0,1283 # b503 <offset+0xb483>
800037c8:	66554593          	xori	a1,a0,1637
800037cc:	72b1a223          	sw	a1,1828(gp)
800037d0:	0000b237          	lui	tp,0xb
800037d4:	36620213          	addi	tp,tp,870 # b366 <offset+0xb2e6>
800037d8:	10b218e3          	bne	tp,a1,800040e8 <bad_trap>

800037dc <inst_480>:
800037dc:	0000b537          	lui	a0,0xb
800037e0:	50350513          	addi	a0,a0,1283 # b503 <offset+0xb483>
800037e4:	02c54593          	xori	a1,a0,44
800037e8:	72b1a423          	sw	a1,1832(gp)
800037ec:	0000b237          	lui	tp,0xb
800037f0:	52f20213          	addi	tp,tp,1327 # b52f <offset+0xb4af>
800037f4:	0eb21ae3          	bne	tp,a1,800040e8 <bad_trap>

800037f8 <inst_481>:
800037f8:	0000b537          	lui	a0,0xb
800037fc:	50350513          	addi	a0,a0,1283 # b503 <offset+0xb483>
80003800:	55654593          	xori	a1,a0,1366
80003804:	72b1a623          	sw	a1,1836(gp)
80003808:	0000b237          	lui	tp,0xb
8000380c:	05520213          	addi	tp,tp,85 # b055 <offset+0xafd5>
80003810:	0cb21ce3          	bne	tp,a1,800040e8 <bad_trap>

80003814 <inst_482>:
80003814:	0000b537          	lui	a0,0xb
80003818:	50350513          	addi	a0,a0,1283 # b503 <offset+0xb483>
8000381c:	aab54593          	xori	a1,a0,-1365
80003820:	72b1a823          	sw	a1,1840(gp)
80003824:	ffff5237          	lui	tp,0xffff5
80003828:	fa820213          	addi	tp,tp,-88 # ffff4fa8 <imm12+0xffff54d8>
8000382c:	0ab21ee3          	bne	tp,a1,800040e8 <bad_trap>

80003830 <inst_483>:
80003830:	0000b537          	lui	a0,0xb
80003834:	50350513          	addi	a0,a0,1283 # b503 <offset+0xb483>
80003838:	00654593          	xori	a1,a0,6
8000383c:	72b1aa23          	sw	a1,1844(gp)
80003840:	0000b237          	lui	tp,0xb
80003844:	50520213          	addi	tp,tp,1285 # b505 <offset+0xb485>
80003848:	0ab210e3          	bne	tp,a1,800040e8 <bad_trap>

8000384c <inst_484>:
8000384c:	0000b537          	lui	a0,0xb
80003850:	50350513          	addi	a0,a0,1283 # b503 <offset+0xb483>
80003854:	33454593          	xori	a1,a0,820
80003858:	72b1ac23          	sw	a1,1848(gp)
8000385c:	0000b237          	lui	tp,0xb
80003860:	63720213          	addi	tp,tp,1591 # b637 <offset+0xb5b7>
80003864:	08b212e3          	bne	tp,a1,800040e8 <bad_trap>

80003868 <inst_485>:
80003868:	0000b537          	lui	a0,0xb
8000386c:	50350513          	addi	a0,a0,1283 # b503 <offset+0xb483>
80003870:	66754593          	xori	a1,a0,1639
80003874:	72b1ae23          	sw	a1,1852(gp)
80003878:	0000b237          	lui	tp,0xb
8000387c:	36420213          	addi	tp,tp,868 # b364 <offset+0xb2e4>
80003880:	06b214e3          	bne	tp,a1,800040e8 <bad_trap>

80003884 <inst_486>:
80003884:	0000b537          	lui	a0,0xb
80003888:	50350513          	addi	a0,a0,1283 # b503 <offset+0xb483>
8000388c:	fd454593          	xori	a1,a0,-44
80003890:	74b1a023          	sw	a1,1856(gp)
80003894:	ffff5237          	lui	tp,0xffff5
80003898:	ad720213          	addi	tp,tp,-1321 # ffff4ad7 <imm12+0xffff5007>
8000389c:	04b216e3          	bne	tp,a1,800040e8 <bad_trap>

800038a0 <inst_487>:
800038a0:	0000b537          	lui	a0,0xb
800038a4:	50350513          	addi	a0,a0,1283 # b503 <offset+0xb483>
800038a8:	02e54593          	xori	a1,a0,46
800038ac:	74b1a223          	sw	a1,1860(gp)
800038b0:	0000b237          	lui	tp,0xb
800038b4:	52d20213          	addi	tp,tp,1325 # b52d <offset+0xb4ad>
800038b8:	02b218e3          	bne	tp,a1,800040e8 <bad_trap>

800038bc <inst_488>:
800038bc:	55555537          	lui	a0,0x55555
800038c0:	55650513          	addi	a0,a0,1366 # 55555556 <absimm+0x10263027>
800038c4:	00354593          	xori	a1,a0,3
800038c8:	74b1a423          	sw	a1,1864(gp)
800038cc:	55555237          	lui	tp,0x55555
800038d0:	55520213          	addi	tp,tp,1365 # 55555555 <absimm+0x10263026>
800038d4:	00b21ae3          	bne	tp,a1,800040e8 <bad_trap>

800038d8 <inst_489>:
800038d8:	55555537          	lui	a0,0x55555
800038dc:	55650513          	addi	a0,a0,1366 # 55555556 <absimm+0x10263027>
800038e0:	55554593          	xori	a1,a0,1365
800038e4:	74b1a623          	sw	a1,1868(gp)
800038e8:	55555237          	lui	tp,0x55555
800038ec:	00320213          	addi	tp,tp,3 # 55555003 <absimm+0x10262ad4>
800038f0:	7eb21c63          	bne	tp,a1,800040e8 <bad_trap>

800038f4 <inst_490>:
800038f4:	55555537          	lui	a0,0x55555
800038f8:	55650513          	addi	a0,a0,1366 # 55555556 <absimm+0x10263027>
800038fc:	aaa54593          	xori	a1,a0,-1366
80003900:	74b1a823          	sw	a1,1872(gp)
80003904:	aaaab237          	lui	tp,0xaaaab
80003908:	ffc20213          	addi	tp,tp,-4 # aaaaaffc <imm12+0xaaaab52c>
8000390c:	7cb21e63          	bne	tp,a1,800040e8 <bad_trap>

80003910 <inst_491>:
80003910:	55555537          	lui	a0,0x55555
80003914:	55650513          	addi	a0,a0,1366 # 55555556 <absimm+0x10263027>
80003918:	00554593          	xori	a1,a0,5
8000391c:	74b1aa23          	sw	a1,1876(gp)
80003920:	55555237          	lui	tp,0x55555
80003924:	55320213          	addi	tp,tp,1363 # 55555553 <absimm+0x10263024>
80003928:	7cb21063          	bne	tp,a1,800040e8 <bad_trap>

8000392c <inst_492>:
8000392c:	55555537          	lui	a0,0x55555
80003930:	55650513          	addi	a0,a0,1366 # 55555556 <absimm+0x10263027>
80003934:	33354593          	xori	a1,a0,819
80003938:	74b1ac23          	sw	a1,1880(gp)
8000393c:	55555237          	lui	tp,0x55555
80003940:	66520213          	addi	tp,tp,1637 # 55555665 <absimm+0x10263136>
80003944:	7ab21263          	bne	tp,a1,800040e8 <bad_trap>

80003948 <inst_493>:
80003948:	55555537          	lui	a0,0x55555
8000394c:	55650513          	addi	a0,a0,1366 # 55555556 <absimm+0x10263027>
80003950:	66654593          	xori	a1,a0,1638
80003954:	74b1ae23          	sw	a1,1884(gp)
80003958:	55555237          	lui	tp,0x55555
8000395c:	33020213          	addi	tp,tp,816 # 55555330 <absimm+0x10262e01>
80003960:	78b21463          	bne	tp,a1,800040e8 <bad_trap>

80003964 <inst_494>:
80003964:	55555537          	lui	a0,0x55555
80003968:	55650513          	addi	a0,a0,1366 # 55555556 <absimm+0x10263027>
8000396c:	fd354593          	xori	a1,a0,-45
80003970:	76b1a023          	sw	a1,1888(gp)
80003974:	aaaab237          	lui	tp,0xaaaab
80003978:	a8520213          	addi	tp,tp,-1403 # aaaaaa85 <imm12+0xaaaaafb5>
8000397c:	76b21663          	bne	tp,a1,800040e8 <bad_trap>

80003980 <inst_495>:
80003980:	55555537          	lui	a0,0x55555
80003984:	55650513          	addi	a0,a0,1366 # 55555556 <absimm+0x10263027>
80003988:	02d54593          	xori	a1,a0,45
8000398c:	76b1a223          	sw	a1,1892(gp)
80003990:	55555237          	lui	tp,0x55555
80003994:	57b20213          	addi	tp,tp,1403 # 5555557b <absimm+0x1026304c>
80003998:	74b21863          	bne	tp,a1,800040e8 <bad_trap>

8000399c <inst_496>:
8000399c:	55555537          	lui	a0,0x55555
800039a0:	55650513          	addi	a0,a0,1366 # 55555556 <absimm+0x10263027>
800039a4:	00254593          	xori	a1,a0,2
800039a8:	76b1a423          	sw	a1,1896(gp)
800039ac:	55555237          	lui	tp,0x55555
800039b0:	55420213          	addi	tp,tp,1364 # 55555554 <absimm+0x10263025>
800039b4:	72b21a63          	bne	tp,a1,800040e8 <bad_trap>

800039b8 <inst_497>:
800039b8:	55555537          	lui	a0,0x55555
800039bc:	55650513          	addi	a0,a0,1366 # 55555556 <absimm+0x10263027>
800039c0:	55454593          	xori	a1,a0,1364
800039c4:	76b1a623          	sw	a1,1900(gp)
800039c8:	55555237          	lui	tp,0x55555
800039cc:	00220213          	addi	tp,tp,2 # 55555002 <absimm+0x10262ad3>
800039d0:	70b21c63          	bne	tp,a1,800040e8 <bad_trap>

800039d4 <inst_498>:
800039d4:	55555537          	lui	a0,0x55555
800039d8:	55650513          	addi	a0,a0,1366 # 55555556 <absimm+0x10263027>
800039dc:	00054593          	xori	a1,a0,0
800039e0:	76b1a823          	sw	a1,1904(gp)
800039e4:	55555237          	lui	tp,0x55555
800039e8:	55620213          	addi	tp,tp,1366 # 55555556 <absimm+0x10263027>
800039ec:	6eb21e63          	bne	tp,a1,800040e8 <bad_trap>

800039f0 <inst_499>:
800039f0:	55555537          	lui	a0,0x55555
800039f4:	55650513          	addi	a0,a0,1366 # 55555556 <absimm+0x10263027>
800039f8:	00454593          	xori	a1,a0,4
800039fc:	76b1aa23          	sw	a1,1908(gp)
80003a00:	55555237          	lui	tp,0x55555
80003a04:	55220213          	addi	tp,tp,1362 # 55555552 <absimm+0x10263023>
80003a08:	6eb21063          	bne	tp,a1,800040e8 <bad_trap>

80003a0c <inst_500>:
80003a0c:	55555537          	lui	a0,0x55555
80003a10:	55650513          	addi	a0,a0,1366 # 55555556 <absimm+0x10263027>
80003a14:	33254593          	xori	a1,a0,818
80003a18:	76b1ac23          	sw	a1,1912(gp)
80003a1c:	55555237          	lui	tp,0x55555
80003a20:	66420213          	addi	tp,tp,1636 # 55555664 <absimm+0x10263135>
80003a24:	6cb21263          	bne	tp,a1,800040e8 <bad_trap>

80003a28 <inst_501>:
80003a28:	55555537          	lui	a0,0x55555
80003a2c:	55650513          	addi	a0,a0,1366 # 55555556 <absimm+0x10263027>
80003a30:	66554593          	xori	a1,a0,1637
80003a34:	76b1ae23          	sw	a1,1916(gp)
80003a38:	55555237          	lui	tp,0x55555
80003a3c:	33320213          	addi	tp,tp,819 # 55555333 <absimm+0x10262e04>
80003a40:	6ab21463          	bne	tp,a1,800040e8 <bad_trap>

80003a44 <inst_502>:
80003a44:	55555537          	lui	a0,0x55555
80003a48:	55650513          	addi	a0,a0,1366 # 55555556 <absimm+0x10263027>
80003a4c:	02c54593          	xori	a1,a0,44
80003a50:	78b1a023          	sw	a1,1920(gp)
80003a54:	55555237          	lui	tp,0x55555
80003a58:	57a20213          	addi	tp,tp,1402 # 5555557a <absimm+0x1026304b>
80003a5c:	68b21663          	bne	tp,a1,800040e8 <bad_trap>

80003a60 <inst_503>:
80003a60:	55555537          	lui	a0,0x55555
80003a64:	55650513          	addi	a0,a0,1366 # 55555556 <absimm+0x10263027>
80003a68:	55654593          	xori	a1,a0,1366
80003a6c:	78b1a223          	sw	a1,1924(gp)
80003a70:	55555237          	lui	tp,0x55555
80003a74:	66b21a63          	bne	tp,a1,800040e8 <bad_trap>

80003a78 <inst_504>:
80003a78:	55555537          	lui	a0,0x55555
80003a7c:	55650513          	addi	a0,a0,1366 # 55555556 <absimm+0x10263027>
80003a80:	aab54593          	xori	a1,a0,-1365
80003a84:	78b1a423          	sw	a1,1928(gp)
80003a88:	aaaab237          	lui	tp,0xaaaab
80003a8c:	ffd20213          	addi	tp,tp,-3 # aaaaaffd <imm12+0xaaaab52d>
80003a90:	64b21c63          	bne	tp,a1,800040e8 <bad_trap>

80003a94 <inst_505>:
80003a94:	55555537          	lui	a0,0x55555
80003a98:	55650513          	addi	a0,a0,1366 # 55555556 <absimm+0x10263027>
80003a9c:	00654593          	xori	a1,a0,6
80003aa0:	78b1a623          	sw	a1,1932(gp)
80003aa4:	55555237          	lui	tp,0x55555
80003aa8:	55020213          	addi	tp,tp,1360 # 55555550 <absimm+0x10263021>
80003aac:	62b21e63          	bne	tp,a1,800040e8 <bad_trap>

80003ab0 <inst_506>:
80003ab0:	55555537          	lui	a0,0x55555
80003ab4:	55650513          	addi	a0,a0,1366 # 55555556 <absimm+0x10263027>
80003ab8:	33454593          	xori	a1,a0,820
80003abc:	78b1a823          	sw	a1,1936(gp)
80003ac0:	55555237          	lui	tp,0x55555
80003ac4:	66220213          	addi	tp,tp,1634 # 55555662 <absimm+0x10263133>
80003ac8:	62b21063          	bne	tp,a1,800040e8 <bad_trap>

80003acc <inst_507>:
80003acc:	55555537          	lui	a0,0x55555
80003ad0:	55650513          	addi	a0,a0,1366 # 55555556 <absimm+0x10263027>
80003ad4:	66754593          	xori	a1,a0,1639
80003ad8:	78b1aa23          	sw	a1,1940(gp)
80003adc:	55555237          	lui	tp,0x55555
80003ae0:	33120213          	addi	tp,tp,817 # 55555331 <absimm+0x10262e02>
80003ae4:	60b21263          	bne	tp,a1,800040e8 <bad_trap>

80003ae8 <inst_508>:
80003ae8:	55555537          	lui	a0,0x55555
80003aec:	55650513          	addi	a0,a0,1366 # 55555556 <absimm+0x10263027>
80003af0:	fd454593          	xori	a1,a0,-44
80003af4:	78b1ac23          	sw	a1,1944(gp)
80003af8:	aaaab237          	lui	tp,0xaaaab
80003afc:	a8220213          	addi	tp,tp,-1406 # aaaaaa82 <imm12+0xaaaaafb2>
80003b00:	5eb21463          	bne	tp,a1,800040e8 <bad_trap>

80003b04 <inst_509>:
80003b04:	55555537          	lui	a0,0x55555
80003b08:	55650513          	addi	a0,a0,1366 # 55555556 <absimm+0x10263027>
80003b0c:	02e54593          	xori	a1,a0,46
80003b10:	78b1ae23          	sw	a1,1948(gp)
80003b14:	55555237          	lui	tp,0x55555
80003b18:	57820213          	addi	tp,tp,1400 # 55555578 <absimm+0x10263049>
80003b1c:	5cb21663          	bne	tp,a1,800040e8 <bad_trap>

80003b20 <inst_510>:
80003b20:	aaaab537          	lui	a0,0xaaaab
80003b24:	aab50513          	addi	a0,a0,-1365 # aaaaaaab <imm12+0xaaaaafdb>
80003b28:	00354593          	xori	a1,a0,3
80003b2c:	7ab1a023          	sw	a1,1952(gp)
80003b30:	aaaab237          	lui	tp,0xaaaab
80003b34:	aa820213          	addi	tp,tp,-1368 # aaaaaaa8 <imm12+0xaaaaafd8>
80003b38:	5ab21863          	bne	tp,a1,800040e8 <bad_trap>

80003b3c <inst_511>:
80003b3c:	aaaab537          	lui	a0,0xaaaab
80003b40:	aab50513          	addi	a0,a0,-1365 # aaaaaaab <imm12+0xaaaaafdb>
80003b44:	55554593          	xori	a1,a0,1365
80003b48:	7ab1a223          	sw	a1,1956(gp)
80003b4c:	aaaab237          	lui	tp,0xaaaab
80003b50:	ffe20213          	addi	tp,tp,-2 # aaaaaffe <imm12+0xaaaab52e>
80003b54:	58b21a63          	bne	tp,a1,800040e8 <bad_trap>

80003b58 <inst_512>:
80003b58:	aaaab537          	lui	a0,0xaaaab
80003b5c:	aab50513          	addi	a0,a0,-1365 # aaaaaaab <imm12+0xaaaaafdb>
80003b60:	aaa54593          	xori	a1,a0,-1366
80003b64:	7ab1a423          	sw	a1,1960(gp)
80003b68:	55555237          	lui	tp,0x55555
80003b6c:	00120213          	addi	tp,tp,1 # 55555001 <absimm+0x10262ad2>
80003b70:	56b21c63          	bne	tp,a1,800040e8 <bad_trap>

80003b74 <inst_513>:
80003b74:	aaaab537          	lui	a0,0xaaaab
80003b78:	aab50513          	addi	a0,a0,-1365 # aaaaaaab <imm12+0xaaaaafdb>
80003b7c:	00554593          	xori	a1,a0,5
80003b80:	7ab1a623          	sw	a1,1964(gp)
80003b84:	aaaab237          	lui	tp,0xaaaab
80003b88:	aae20213          	addi	tp,tp,-1362 # aaaaaaae <imm12+0xaaaaafde>
80003b8c:	54b21e63          	bne	tp,a1,800040e8 <bad_trap>

80003b90 <inst_514>:
80003b90:	aaaab537          	lui	a0,0xaaaab
80003b94:	aab50513          	addi	a0,a0,-1365 # aaaaaaab <imm12+0xaaaaafdb>
80003b98:	33354593          	xori	a1,a0,819
80003b9c:	7ab1a823          	sw	a1,1968(gp)
80003ba0:	aaaab237          	lui	tp,0xaaaab
80003ba4:	99820213          	addi	tp,tp,-1640 # aaaaa998 <imm12+0xaaaaaec8>
80003ba8:	54b21063          	bne	tp,a1,800040e8 <bad_trap>

80003bac <inst_515>:
80003bac:	aaaab537          	lui	a0,0xaaaab
80003bb0:	aab50513          	addi	a0,a0,-1365 # aaaaaaab <imm12+0xaaaaafdb>
80003bb4:	66654593          	xori	a1,a0,1638
80003bb8:	7ab1aa23          	sw	a1,1972(gp)
80003bbc:	aaaab237          	lui	tp,0xaaaab
80003bc0:	ccd20213          	addi	tp,tp,-819 # aaaaaccd <imm12+0xaaaab1fd>
80003bc4:	52b21263          	bne	tp,a1,800040e8 <bad_trap>

80003bc8 <inst_516>:
80003bc8:	aaaab537          	lui	a0,0xaaaab
80003bcc:	aab50513          	addi	a0,a0,-1365 # aaaaaaab <imm12+0xaaaaafdb>
80003bd0:	fd354593          	xori	a1,a0,-45
80003bd4:	7ab1ac23          	sw	a1,1976(gp)
80003bd8:	55555237          	lui	tp,0x55555
80003bdc:	57820213          	addi	tp,tp,1400 # 55555578 <absimm+0x10263049>
80003be0:	50b21463          	bne	tp,a1,800040e8 <bad_trap>

80003be4 <inst_517>:
80003be4:	aaaab537          	lui	a0,0xaaaab
80003be8:	aab50513          	addi	a0,a0,-1365 # aaaaaaab <imm12+0xaaaaafdb>
80003bec:	02d54593          	xori	a1,a0,45
80003bf0:	7ab1ae23          	sw	a1,1980(gp)
80003bf4:	aaaab237          	lui	tp,0xaaaab
80003bf8:	a8620213          	addi	tp,tp,-1402 # aaaaaa86 <imm12+0xaaaaafb6>
80003bfc:	4eb21663          	bne	tp,a1,800040e8 <bad_trap>

80003c00 <inst_518>:
80003c00:	aaaab537          	lui	a0,0xaaaab
80003c04:	aab50513          	addi	a0,a0,-1365 # aaaaaaab <imm12+0xaaaaafdb>
80003c08:	00254593          	xori	a1,a0,2
80003c0c:	7cb1a023          	sw	a1,1984(gp)
80003c10:	aaaab237          	lui	tp,0xaaaab
80003c14:	aa920213          	addi	tp,tp,-1367 # aaaaaaa9 <imm12+0xaaaaafd9>
80003c18:	4cb21863          	bne	tp,a1,800040e8 <bad_trap>

80003c1c <inst_519>:
80003c1c:	aaaab537          	lui	a0,0xaaaab
80003c20:	aab50513          	addi	a0,a0,-1365 # aaaaaaab <imm12+0xaaaaafdb>
80003c24:	55454593          	xori	a1,a0,1364
80003c28:	7cb1a223          	sw	a1,1988(gp)
80003c2c:	aaaab237          	lui	tp,0xaaaab
80003c30:	fff20213          	addi	tp,tp,-1 # aaaaafff <imm12+0xaaaab52f>
80003c34:	4ab21a63          	bne	tp,a1,800040e8 <bad_trap>

80003c38 <inst_520>:
80003c38:	aaaab537          	lui	a0,0xaaaab
80003c3c:	aab50513          	addi	a0,a0,-1365 # aaaaaaab <imm12+0xaaaaafdb>
80003c40:	00054593          	xori	a1,a0,0
80003c44:	7cb1a423          	sw	a1,1992(gp)
80003c48:	aaaab237          	lui	tp,0xaaaab
80003c4c:	aab20213          	addi	tp,tp,-1365 # aaaaaaab <imm12+0xaaaaafdb>
80003c50:	48b21c63          	bne	tp,a1,800040e8 <bad_trap>

80003c54 <inst_521>:
80003c54:	aaaab537          	lui	a0,0xaaaab
80003c58:	aab50513          	addi	a0,a0,-1365 # aaaaaaab <imm12+0xaaaaafdb>
80003c5c:	00454593          	xori	a1,a0,4
80003c60:	7cb1a623          	sw	a1,1996(gp)
80003c64:	aaaab237          	lui	tp,0xaaaab
80003c68:	aaf20213          	addi	tp,tp,-1361 # aaaaaaaf <imm12+0xaaaaafdf>
80003c6c:	46b21e63          	bne	tp,a1,800040e8 <bad_trap>

80003c70 <inst_522>:
80003c70:	aaaab537          	lui	a0,0xaaaab
80003c74:	aab50513          	addi	a0,a0,-1365 # aaaaaaab <imm12+0xaaaaafdb>
80003c78:	33254593          	xori	a1,a0,818
80003c7c:	7cb1a823          	sw	a1,2000(gp)
80003c80:	aaaab237          	lui	tp,0xaaaab
80003c84:	99920213          	addi	tp,tp,-1639 # aaaaa999 <imm12+0xaaaaaec9>
80003c88:	46b21063          	bne	tp,a1,800040e8 <bad_trap>

80003c8c <inst_523>:
80003c8c:	aaaab537          	lui	a0,0xaaaab
80003c90:	aab50513          	addi	a0,a0,-1365 # aaaaaaab <imm12+0xaaaaafdb>
80003c94:	66554593          	xori	a1,a0,1637
80003c98:	7cb1aa23          	sw	a1,2004(gp)
80003c9c:	aaaab237          	lui	tp,0xaaaab
80003ca0:	cce20213          	addi	tp,tp,-818 # aaaaacce <imm12+0xaaaab1fe>
80003ca4:	44b21263          	bne	tp,a1,800040e8 <bad_trap>

80003ca8 <inst_524>:
80003ca8:	aaaab537          	lui	a0,0xaaaab
80003cac:	aab50513          	addi	a0,a0,-1365 # aaaaaaab <imm12+0xaaaaafdb>
80003cb0:	02c54593          	xori	a1,a0,44
80003cb4:	7cb1ac23          	sw	a1,2008(gp)
80003cb8:	aaaab237          	lui	tp,0xaaaab
80003cbc:	a8720213          	addi	tp,tp,-1401 # aaaaaa87 <imm12+0xaaaaafb7>
80003cc0:	42b21463          	bne	tp,a1,800040e8 <bad_trap>

80003cc4 <inst_525>:
80003cc4:	aaaab537          	lui	a0,0xaaaab
80003cc8:	aab50513          	addi	a0,a0,-1365 # aaaaaaab <imm12+0xaaaaafdb>
80003ccc:	55654593          	xori	a1,a0,1366
80003cd0:	7cb1ae23          	sw	a1,2012(gp)
80003cd4:	aaaab237          	lui	tp,0xaaaab
80003cd8:	ffd20213          	addi	tp,tp,-3 # aaaaaffd <imm12+0xaaaab52d>
80003cdc:	40b21663          	bne	tp,a1,800040e8 <bad_trap>

80003ce0 <inst_526>:
80003ce0:	aaaab537          	lui	a0,0xaaaab
80003ce4:	aab50513          	addi	a0,a0,-1365 # aaaaaaab <imm12+0xaaaaafdb>
80003ce8:	aab54593          	xori	a1,a0,-1365
80003cec:	7eb1a023          	sw	a1,2016(gp)
80003cf0:	55555237          	lui	tp,0x55555
80003cf4:	3eb21a63          	bne	tp,a1,800040e8 <bad_trap>

80003cf8 <inst_527>:
80003cf8:	aaaab537          	lui	a0,0xaaaab
80003cfc:	aab50513          	addi	a0,a0,-1365 # aaaaaaab <imm12+0xaaaaafdb>
80003d00:	00654593          	xori	a1,a0,6
80003d04:	7eb1a223          	sw	a1,2020(gp)
80003d08:	aaaab237          	lui	tp,0xaaaab
80003d0c:	aad20213          	addi	tp,tp,-1363 # aaaaaaad <imm12+0xaaaaafdd>
80003d10:	3cb21c63          	bne	tp,a1,800040e8 <bad_trap>

80003d14 <inst_528>:
80003d14:	aaaab537          	lui	a0,0xaaaab
80003d18:	aab50513          	addi	a0,a0,-1365 # aaaaaaab <imm12+0xaaaaafdb>
80003d1c:	33454593          	xori	a1,a0,820
80003d20:	7eb1a423          	sw	a1,2024(gp)
80003d24:	aaaab237          	lui	tp,0xaaaab
80003d28:	99f20213          	addi	tp,tp,-1633 # aaaaa99f <imm12+0xaaaaaecf>
80003d2c:	3ab21e63          	bne	tp,a1,800040e8 <bad_trap>

80003d30 <inst_529>:
80003d30:	aaaab537          	lui	a0,0xaaaab
80003d34:	aab50513          	addi	a0,a0,-1365 # aaaaaaab <imm12+0xaaaaafdb>
80003d38:	66754593          	xori	a1,a0,1639
80003d3c:	7eb1a623          	sw	a1,2028(gp)
80003d40:	aaaab237          	lui	tp,0xaaaab
80003d44:	ccc20213          	addi	tp,tp,-820 # aaaaaccc <imm12+0xaaaab1fc>
80003d48:	3ab21063          	bne	tp,a1,800040e8 <bad_trap>

80003d4c <inst_530>:
80003d4c:	aaaab537          	lui	a0,0xaaaab
80003d50:	aab50513          	addi	a0,a0,-1365 # aaaaaaab <imm12+0xaaaaafdb>
80003d54:	fd454593          	xori	a1,a0,-44
80003d58:	7eb1a823          	sw	a1,2032(gp)
80003d5c:	55555237          	lui	tp,0x55555
80003d60:	57f20213          	addi	tp,tp,1407 # 5555557f <absimm+0x10263050>
80003d64:	38b21263          	bne	tp,a1,800040e8 <bad_trap>

80003d68 <inst_531>:
80003d68:	aaaab537          	lui	a0,0xaaaab
80003d6c:	aab50513          	addi	a0,a0,-1365 # aaaaaaab <imm12+0xaaaaafdb>
80003d70:	02e54593          	xori	a1,a0,46
80003d74:	7eb1aa23          	sw	a1,2036(gp)
80003d78:	aaaab237          	lui	tp,0xaaaab
80003d7c:	a8520213          	addi	tp,tp,-1403 # aaaaaa85 <imm12+0xaaaaafb5>
80003d80:	36b21463          	bne	tp,a1,800040e8 <bad_trap>

80003d84 <inst_532>:
80003d84:	00600513          	li	a0,6
80003d88:	00354593          	xori	a1,a0,3
80003d8c:	7eb1ac23          	sw	a1,2040(gp)
80003d90:	00500213          	li	tp,5
80003d94:	34b21a63          	bne	tp,a1,800040e8 <bad_trap>

80003d98 <inst_533>:
80003d98:	00600513          	li	a0,6
80003d9c:	55554593          	xori	a1,a0,1365
80003da0:	7eb1ae23          	sw	a1,2044(gp)
80003da4:	55300213          	li	tp,1363
80003da8:	34b21063          	bne	tp,a1,800040e8 <bad_trap>
80003dac:	00000013          	nop
80003db0:	00000013          	nop
80003db4:	00000013          	nop
80003db8:	00000013          	nop
80003dbc:	00000013          	nop
80003dc0:	00003197          	auipc	gp,0x3
80003dc4:	a9c18193          	addi	gp,gp,-1380 # 8000685c <signature_x3_1>
80003dc8:	00000013          	nop
80003dcc:	00000013          	nop
80003dd0:	00000013          	nop
80003dd4:	00000013          	nop
80003dd8:	00000013          	nop
80003ddc:	00000013          	nop

80003de0 <inst_534>:
80003de0:	00600513          	li	a0,6
80003de4:	aaa54593          	xori	a1,a0,-1366
80003de8:	00b1a023          	sw	a1,0(gp)
80003dec:	aac00213          	li	tp,-1364
80003df0:	2eb21c63          	bne	tp,a1,800040e8 <bad_trap>

80003df4 <inst_535>:
80003df4:	00600513          	li	a0,6
80003df8:	00554593          	xori	a1,a0,5
80003dfc:	00b1a223          	sw	a1,4(gp)
80003e00:	00300213          	li	tp,3
80003e04:	2eb21263          	bne	tp,a1,800040e8 <bad_trap>

80003e08 <inst_536>:
80003e08:	00600513          	li	a0,6
80003e0c:	33354593          	xori	a1,a0,819
80003e10:	00b1a423          	sw	a1,8(gp)
80003e14:	33500213          	li	tp,821
80003e18:	2cb21863          	bne	tp,a1,800040e8 <bad_trap>

80003e1c <inst_537>:
80003e1c:	00600513          	li	a0,6
80003e20:	66654593          	xori	a1,a0,1638
80003e24:	00b1a623          	sw	a1,12(gp)
80003e28:	66000213          	li	tp,1632
80003e2c:	2ab21e63          	bne	tp,a1,800040e8 <bad_trap>

80003e30 <inst_538>:
80003e30:	00600513          	li	a0,6
80003e34:	fd354593          	xori	a1,a0,-45
80003e38:	00b1a823          	sw	a1,16(gp)
80003e3c:	fd500213          	li	tp,-43
80003e40:	2ab21463          	bne	tp,a1,800040e8 <bad_trap>

80003e44 <inst_539>:
80003e44:	00600513          	li	a0,6
80003e48:	02d54593          	xori	a1,a0,45
80003e4c:	00b1aa23          	sw	a1,20(gp)
80003e50:	02b00213          	li	tp,43
80003e54:	28b21a63          	bne	tp,a1,800040e8 <bad_trap>

80003e58 <inst_540>:
80003e58:	00600513          	li	a0,6
80003e5c:	00254593          	xori	a1,a0,2
80003e60:	00b1ac23          	sw	a1,24(gp)
80003e64:	00400213          	li	tp,4
80003e68:	28b21063          	bne	tp,a1,800040e8 <bad_trap>

80003e6c <inst_541>:
80003e6c:	00600513          	li	a0,6
80003e70:	55454593          	xori	a1,a0,1364
80003e74:	00b1ae23          	sw	a1,28(gp)
80003e78:	55200213          	li	tp,1362
80003e7c:	26b21663          	bne	tp,a1,800040e8 <bad_trap>

80003e80 <inst_542>:
80003e80:	00600513          	li	a0,6
80003e84:	00054593          	xori	a1,a0,0
80003e88:	02b1a023          	sw	a1,32(gp)
80003e8c:	00600213          	li	tp,6
80003e90:	24b21c63          	bne	tp,a1,800040e8 <bad_trap>

80003e94 <inst_543>:
80003e94:	00600513          	li	a0,6
80003e98:	00454593          	xori	a1,a0,4
80003e9c:	02b1a223          	sw	a1,36(gp)
80003ea0:	00200213          	li	tp,2
80003ea4:	24b21263          	bne	tp,a1,800040e8 <bad_trap>

80003ea8 <inst_544>:
80003ea8:	00600513          	li	a0,6
80003eac:	33254593          	xori	a1,a0,818
80003eb0:	02b1a423          	sw	a1,40(gp)
80003eb4:	33400213          	li	tp,820
80003eb8:	22b21863          	bne	tp,a1,800040e8 <bad_trap>

80003ebc <inst_545>:
80003ebc:	00600513          	li	a0,6
80003ec0:	66554593          	xori	a1,a0,1637
80003ec4:	02b1a623          	sw	a1,44(gp)
80003ec8:	66300213          	li	tp,1635
80003ecc:	20b21e63          	bne	tp,a1,800040e8 <bad_trap>

80003ed0 <inst_546>:
80003ed0:	00600513          	li	a0,6
80003ed4:	02c54593          	xori	a1,a0,44
80003ed8:	02b1a823          	sw	a1,48(gp)
80003edc:	02a00213          	li	tp,42
80003ee0:	20b21463          	bne	tp,a1,800040e8 <bad_trap>

80003ee4 <inst_547>:
80003ee4:	00600513          	li	a0,6
80003ee8:	55654593          	xori	a1,a0,1366
80003eec:	02b1aa23          	sw	a1,52(gp)
80003ef0:	55000213          	li	tp,1360
80003ef4:	1eb21a63          	bne	tp,a1,800040e8 <bad_trap>

80003ef8 <inst_548>:
80003ef8:	00600513          	li	a0,6
80003efc:	aab54593          	xori	a1,a0,-1365
80003f00:	02b1ac23          	sw	a1,56(gp)
80003f04:	aad00213          	li	tp,-1363
80003f08:	1eb21063          	bne	tp,a1,800040e8 <bad_trap>

80003f0c <inst_549>:
80003f0c:	00600513          	li	a0,6
80003f10:	00654593          	xori	a1,a0,6
80003f14:	02b1ae23          	sw	a1,60(gp)
80003f18:	00000213          	li	tp,0
80003f1c:	1cb21663          	bne	tp,a1,800040e8 <bad_trap>

80003f20 <inst_550>:
80003f20:	00600513          	li	a0,6
80003f24:	33454593          	xori	a1,a0,820
80003f28:	04b1a023          	sw	a1,64(gp)
80003f2c:	33200213          	li	tp,818
80003f30:	1ab21c63          	bne	tp,a1,800040e8 <bad_trap>

80003f34 <inst_551>:
80003f34:	00600513          	li	a0,6
80003f38:	66754593          	xori	a1,a0,1639
80003f3c:	04b1a223          	sw	a1,68(gp)
80003f40:	66100213          	li	tp,1633
80003f44:	1ab21263          	bne	tp,a1,800040e8 <bad_trap>

80003f48 <inst_552>:
80003f48:	00600513          	li	a0,6
80003f4c:	fd454593          	xori	a1,a0,-44
80003f50:	04b1a423          	sw	a1,72(gp)
80003f54:	fd200213          	li	tp,-46
80003f58:	18b21863          	bne	tp,a1,800040e8 <bad_trap>

80003f5c <inst_553>:
80003f5c:	00600513          	li	a0,6
80003f60:	02e54593          	xori	a1,a0,46
80003f64:	04b1a623          	sw	a1,76(gp)
80003f68:	02800213          	li	tp,40
80003f6c:	16b21e63          	bne	tp,a1,800040e8 <bad_trap>

80003f70 <inst_554>:
80003f70:	33333537          	lui	a0,0x33333
80003f74:	33450513          	addi	a0,a0,820 # 33333334 <offset+0x333332b4>
80003f78:	00354593          	xori	a1,a0,3
80003f7c:	04b1a823          	sw	a1,80(gp)
80003f80:	33333237          	lui	tp,0x33333
80003f84:	33720213          	addi	tp,tp,823 # 33333337 <offset+0x333332b7>
80003f88:	16b21063          	bne	tp,a1,800040e8 <bad_trap>

80003f8c <inst_555>:
80003f8c:	33333537          	lui	a0,0x33333
80003f90:	33450513          	addi	a0,a0,820 # 33333334 <offset+0x333332b4>
80003f94:	55554593          	xori	a1,a0,1365
80003f98:	04b1aa23          	sw	a1,84(gp)
80003f9c:	33333237          	lui	tp,0x33333
80003fa0:	66120213          	addi	tp,tp,1633 # 33333661 <offset+0x333335e1>
80003fa4:	14b21263          	bne	tp,a1,800040e8 <bad_trap>

80003fa8 <inst_556>:
80003fa8:	33333537          	lui	a0,0x33333
80003fac:	33450513          	addi	a0,a0,820 # 33333334 <offset+0x333332b4>
80003fb0:	aaa54593          	xori	a1,a0,-1366
80003fb4:	04b1ac23          	sw	a1,88(gp)
80003fb8:	ccccd237          	lui	tp,0xccccd
80003fbc:	99e20213          	addi	tp,tp,-1634 # ccccc99e <imm12+0xcccccece>
80003fc0:	12b21463          	bne	tp,a1,800040e8 <bad_trap>

80003fc4 <inst_557>:
80003fc4:	33333537          	lui	a0,0x33333
80003fc8:	33450513          	addi	a0,a0,820 # 33333334 <offset+0x333332b4>
80003fcc:	00554593          	xori	a1,a0,5
80003fd0:	04b1ae23          	sw	a1,92(gp)
80003fd4:	33333237          	lui	tp,0x33333
80003fd8:	33120213          	addi	tp,tp,817 # 33333331 <offset+0x333332b1>
80003fdc:	10b21663          	bne	tp,a1,800040e8 <bad_trap>

80003fe0 <inst_558>:
80003fe0:	33333537          	lui	a0,0x33333
80003fe4:	33450513          	addi	a0,a0,820 # 33333334 <offset+0x333332b4>
80003fe8:	33354593          	xori	a1,a0,819
80003fec:	06b1a023          	sw	a1,96(gp)
80003ff0:	33333237          	lui	tp,0x33333
80003ff4:	00720213          	addi	tp,tp,7 # 33333007 <offset+0x33332f87>
80003ff8:	0eb21863          	bne	tp,a1,800040e8 <bad_trap>

80003ffc <inst_559>:
80003ffc:	33333537          	lui	a0,0x33333
80004000:	33450513          	addi	a0,a0,820 # 33333334 <offset+0x333332b4>
80004004:	66654593          	xori	a1,a0,1638
80004008:	06b1a223          	sw	a1,100(gp)
8000400c:	33333237          	lui	tp,0x33333
80004010:	55220213          	addi	tp,tp,1362 # 33333552 <offset+0x333334d2>
80004014:	0cb21a63          	bne	tp,a1,800040e8 <bad_trap>

80004018 <inst_560>:
80004018:	33333537          	lui	a0,0x33333
8000401c:	33450513          	addi	a0,a0,820 # 33333334 <offset+0x333332b4>
80004020:	fd354593          	xori	a1,a0,-45
80004024:	06b1a423          	sw	a1,104(gp)
80004028:	ccccd237          	lui	tp,0xccccd
8000402c:	ce720213          	addi	tp,tp,-793 # cccccce7 <imm12+0xccccd217>
80004030:	0ab21c63          	bne	tp,a1,800040e8 <bad_trap>

80004034 <inst_561>:
80004034:	33333537          	lui	a0,0x33333
80004038:	33450513          	addi	a0,a0,820 # 33333334 <offset+0x333332b4>
8000403c:	02d54593          	xori	a1,a0,45
80004040:	06b1a623          	sw	a1,108(gp)
80004044:	33333237          	lui	tp,0x33333
80004048:	31920213          	addi	tp,tp,793 # 33333319 <offset+0x33333299>
8000404c:	08b21e63          	bne	tp,a1,800040e8 <bad_trap>

80004050 <inst_562>:
80004050:	33333537          	lui	a0,0x33333
80004054:	33450513          	addi	a0,a0,820 # 33333334 <offset+0x333332b4>
80004058:	00254593          	xori	a1,a0,2
8000405c:	06b1a823          	sw	a1,112(gp)
80004060:	33333237          	lui	tp,0x33333
80004064:	33620213          	addi	tp,tp,822 # 33333336 <offset+0x333332b6>
80004068:	08b21063          	bne	tp,a1,800040e8 <bad_trap>

8000406c <inst_563>:
8000406c:	33333537          	lui	a0,0x33333
80004070:	33450513          	addi	a0,a0,820 # 33333334 <offset+0x333332b4>
80004074:	55454593          	xori	a1,a0,1364
80004078:	06b1aa23          	sw	a1,116(gp)
8000407c:	33333237          	lui	tp,0x33333
80004080:	66020213          	addi	tp,tp,1632 # 33333660 <offset+0x333335e0>
80004084:	06b21263          	bne	tp,a1,800040e8 <bad_trap>

80004088 <inst_564>:
80004088:	33333537          	lui	a0,0x33333
8000408c:	33450513          	addi	a0,a0,820 # 33333334 <offset+0x333332b4>
80004090:	00054593          	xori	a1,a0,0
80004094:	06b1ac23          	sw	a1,120(gp)
80004098:	33333237          	lui	tp,0x33333
8000409c:	33420213          	addi	tp,tp,820 # 33333334 <offset+0x333332b4>
800040a0:	04b21463          	bne	tp,a1,800040e8 <bad_trap>

800040a4 <inst_565>:
800040a4:	33333537          	lui	a0,0x33333
800040a8:	33450513          	addi	a0,a0,820 # 33333334 <offset+0x333332b4>
800040ac:	00454593          	xori	a1,a0,4
800040b0:	06b1ae23          	sw	a1,124(gp)
800040b4:	33333237          	lui	tp,0x33333
800040b8:	33020213          	addi	tp,tp,816 # 33333330 <offset+0x333332b0>
800040bc:	02b21663          	bne	tp,a1,800040e8 <bad_trap>

800040c0 <cleanup_epilogs>:
800040c0:	0200006f          	j	800040e0 <exit_cleanup>

800040c4 <abort_tests>:
800040c4:	17812483          	lw	s1,376(sp)
800040c8:	18012303          	lw	t1,384(sp)
800040cc:	00930333          	add	t1,t1,s1
800040d0:	bad0e337          	lui	t1,0xbad0e
800040d4:	ad030313          	addi	t1,t1,-1328 # bad0dad0 <imm12+0xbad0e000>
800040d8:	fe64ae23          	sw	t1,-4(s1)
800040dc:	0040006f          	j	800040e0 <exit_cleanup>

800040e0 <exit_cleanup>:
800040e0:	00000513          	li	a0,0
800040e4:	024000ef          	jal	ra,80004108 <halt>

800040e8 <bad_trap>:
800040e8:	00100513          	li	a0,1
800040ec:	01c000ef          	jal	ra,80004108 <halt>
	...

80004108 <halt>:
80004108:	0000006f          	j	80004108 <halt>

8000410c <_trm_init>:
8000410c:	ff010113          	addi	sp,sp,-16
80004110:	00000517          	auipc	a0,0x0
80004114:	01450513          	addi	a0,a0,20 # 80004124 <_etext>
80004118:	00112623          	sw	ra,12(sp)
8000411c:	ef5fb0ef          	jal	ra,80000010 <main>
80004120:	0000006f          	j	80004120 <_trm_init+0x14>
